(lp0
(F96.0
F6.93
(lp1
(L0L
Vapac-sin#m3.2xlarge
p2
(lp3
(VID00006
p4
F61.0
F61.0
tp5
atp6
a(L1L
g2
(lp7
(VID00003
p8
F49.0
F61.0
tp9
a(VID00007
p10
F61.0
F72.0
tp11
a(VID00024
p12
F79.0
F96.0
tp13
a(VID00025
p14
F96.0
F96.0
tp15
a(VID00017
p16
F96.0
F96.0
tp17
atp18
a(L2L
g2
(lp19
(VID00027
p20
F96.0
F96.0
tp21
atp22
a(L3L
g2
(lp23
(VID00012
p24
F73.0
F73.0
tp25
atp26
a(L4L
g2
(lp27
(S'entry'
p28
I0
F0.0
tp29
a(VID00002
p30
I0
F49.0
tp31
a(VID00013
p32
F49.0
F79.0
tp33
a(VID00018
p34
F79.0
F88.0
tp35
a(VID00028
p36
F88.0
F96.0
tp37
atp38
a(L5L
g2
(lp39
(VID00023
p40
F89.0
F89.0
tp41
atp42
a(L7L
g2
(lp43
(VID00029
p44
F96.0
F96.0
tp45
atp46
a(L9L
Vapac-sin#m3.xlarge
p47
(lp48
(VID00004
p49
F61.0
F61.0
tp50
atp51
a(L11L
g2
(lp52
(VID00021
p53
F94.0
F94.0
tp54
a(VID00015
p55
F94.0
F94.0
tp56
atp57
a(L12L
g47
(lp58
(VID00009
p59
F49.0
F69.0
tp60
a(VID00020
p61
F79.0
F94.0
tp62
a(VID00019
p63
F94.0
F95.0
tp64
a(VID00000
p65
F96.0
F96.0
tp66
atp67
a(L15L
g2
(lp68
(VID00011
p69
F54.0
F73.0
tp70
a(VID00014
p71
F79.0
F94.0
tp72
atp73
a(L20L
g2
(lp74
(VID00022
p75
F79.0
F89.0
tp76
a(VID00026
p77
F89.0
F96.0
tp78
atp79
a(L23L
Vapac-sin#m1.medium
p80
(lp81
(S'exit'
p82
F96.0
F96.0
tp83
atp84
a(L26L
g47
(lp85
(VID00010
p86
F69.0
F69.0
tp87
atp88
a(L27L
g2
(lp89
(VID00005
p90
F49.0
F61.0
tp91
a(VID00016
p92
F79.0
F93.0
tp93
atp94
a(L29L
g47
(lp95
(VID00008
p96
F72.0
F72.0
tp97
atp98
a(L30L
Vapac-sin#m3.large
p99
(lp100
(VID00001
p101
F96.0
F96.0
tp102
atp103
atp104
a(F144.0
F5.83
(lp105
(L0L
g2
(lp106
(g4
F61.0
F61.0
tp107
atp108
a(L1L
g2
(lp109
(g8
F49.0
F61.0
tp110
a(g10
F61.0
F72.0
tp111
a(g12
F79.0
F96.0
tp112
a(g14
F96.0
F96.0
tp113
atp114
a(L2L
g2
(lp115
(g20
F96.0
F96.0
tp116
atp117
a(L4L
g2
(lp118
(g28
I0
F0.0
tp119
a(g30
I0
F49.0
tp120
a(g32
F49.0
F79.0
tp121
a(g69
F79.0
F98.0
tp122
a(g92
F98.0
F112.0
tp123
a(g16
F112.0
F112.0
tp124
a(g71
F112.0
F127.0
tp125
a(g34
F127.0
F136.0
tp126
a(g36
F136.0
F144.0
tp127
atp128
a(L5L
g2
(lp129
(g40
F89.0
F89.0
tp130
atp131
a(L7L
g2
(lp132
(g44
F144.0
F144.0
tp133
atp134
a(L9L
g47
(lp135
(g49
F61.0
F61.0
tp136
atp137
a(L10L
Vapac-sin#m3.medium
p138
(lp139
(g59
F49.0
F135.0
tp140
atp141
a(L11L
g2
(lp142
(g53
F109.0
F109.0
tp143
atp144
a(L12L
g99
(lp145
(g61
F79.0
F109.0
tp146
a(g65
F144.0
F144.0
tp147
atp148
a(L20L
g2
(lp149
(g75
F79.0
F89.0
tp150
a(g77
F89.0
F96.0
tp151
atp152
a(L21L
g138
(lp153
(g24
F98.0
F102.0
tp154
atp155
a(L23L
g47
(lp156
(g101
F144.0
F144.0
tp157
a(g82
F144.0
F144.0
tp158
atp159
a(L24L
g138
(lp160
(g55
F127.0
F131.0
tp161
a(g63
F136.0
F140.0
tp162
atp163
a(L26L
g47
(lp164
(g86
F135.0
F135.0
tp165
atp166
a(L27L
g2
(lp167
(g90
F49.0
F61.0
tp168
atp169
a(L29L
g47
(lp170
(g96
F72.0
F72.0
tp171
atp172
atp173
a(F148.0
F3.79
(lp174
(L0L
g2
(lp175
(g53
F144.0
F144.0
tp176
atp177
a(L1L
g2
(lp178
(g8
F49.0
F61.0
tp179
a(g10
F61.0
F72.0
tp180
a(g12
F79.0
F96.0
tp181
a(g14
F96.0
F96.0
tp182
a(g71
F96.0
F111.0
tp183
atp184
a(L3L
g2
(lp185
(g63
F136.0
F136.0
tp186
atp187
a(L4L
g2
(lp188
(g28
I0
F0.0
tp189
a(g30
I0
F49.0
tp190
a(g32
F49.0
F79.0
tp191
a(g75
F79.0
F89.0
tp192
a(g77
F89.0
F96.0
tp193
a(g69
F96.0
F115.0
tp194
a(g92
F115.0
F129.0
tp195
a(g16
F129.0
F129.0
tp196
a(g36
F129.0
F137.0
tp197
atp198
a(L7L
g2
(lp199
(g44
F137.0
F137.0
tp200
atp201
a(L9L
g47
(lp202
(g49
F61.0
F61.0
tp203
atp204
a(L11L
g2
(lp205
(g40
F89.0
F89.0
tp206
atp207
a(L12L
g47
(lp208
(g65
F148.0
F148.0
tp209
atp210
a(L17L
Vapac-sin#m1.large
p211
(lp212
(g34
F79.0
F136.0
tp213
atp214
a(L18L
g47
(lp215
(g90
F49.0
F73.0
tp216
a(g86
F135.0
F135.0
tp217
atp218
a(L21L
g138
(lp219
(g4
F73.0
F75.0
tp220
a(g61
F79.0
F144.0
tp221
a(g24
F144.0
F148.0
tp222
atp223
a(L23L
g80
(lp224
(g82
F148.0
F148.0
tp225
atp226
a(L24L
g138
(lp227
(g59
F49.0
F135.0
tp228
a(g20
F135.0
F138.0
tp229
a(g55
F138.0
F142.0
tp230
atp231
a(L29L
g47
(lp232
(g96
F72.0
F72.0
tp233
atp234
a(L30L
g99
(lp235
(g101
F144.0
F144.0
tp236
atp237
atp238
a(F310.0
F2.76
(lp239
(L1L
g211
(lp240
(g8
F49.0
F127.0
tp241
a(g10
F127.0
F200.0
tp242
a(g12
F200.0
F310.0
tp243
atp244
a(L2L
g138
(lp245
(g40
F227.0
F231.0
tp246
a(g20
F231.0
F234.0
tp247
atp248
a(L4L
g2
(lp249
(g28
I0
F0.0
tp250
a(g30
I0
F49.0
tp251
a(g32
F49.0
F79.0
tp252
a(g77
F79.0
F86.0
tp253
a(g69
F86.0
F105.0
tp254
a(g92
F105.0
F119.0
tp255
a(g16
F119.0
F119.0
tp256
a(g71
F119.0
F134.0
tp257
a(g34
F134.0
F143.0
tp258
a(g36
F143.0
F151.0
tp259
atp260
a(L5L
g2
(lp261
(g14
F310.0
F310.0
tp262
atp263
a(L7L
g2
(lp264
(g44
F151.0
F151.0
tp265
atp266
a(L9L
g47
(lp267
(g49
F127.0
F127.0
tp268
atp269
a(L12L
g47
(lp270
(g65
F310.0
F310.0
tp271
atp272
a(L13L
Vapac-sin#m1.small
p273
(lp274
(g53
F144.0
F155.0
tp275
atp276
a(L18L
g47
(lp277
(g90
F49.0
F73.0
tp278
atp279
a(L21L
g138
(lp280
(g4
F73.0
F75.0
tp281
a(g61
F79.0
F144.0
tp282
a(g75
F144.0
F227.0
tp283
a(g24
F227.0
F231.0
tp284
atp285
a(L23L
g47
(lp286
(g101
F310.0
F310.0
tp287
a(g82
F310.0
F310.0
tp288
atp289
a(L24L
g138
(lp290
(g59
F49.0
F135.0
tp291
a(g55
F135.0
F139.0
tp292
a(g63
F143.0
F147.0
tp293
atp294
a(L26L
g47
(lp295
(g86
F135.0
F135.0
tp296
atp297
a(L29L
g47
(lp298
(g96
F200.0
F200.0
tp299
atp300
atp301
a(F359.0
F1.58
(lp302
(L0L
g2
(lp303
(g53
F213.0
F213.0
tp304
atp305
a(L4L
g2
(lp306
(g28
I0
F0.0
tp307
a(g30
I0
F49.0
tp308
a(g90
F49.0
F61.0
tp309
a(g32
F61.0
F91.0
tp310
a(g77
F91.0
F98.0
tp311
a(g69
F98.0
F117.0
tp312
a(g24
F117.0
F117.0
tp313
a(g92
F117.0
F131.0
tp314
a(g16
F131.0
F131.0
tp315
a(g71
F131.0
F146.0
tp316
a(g34
F146.0
F155.0
tp317
a(g36
F155.0
F163.0
tp318
atp319
a(L5L
g2
(lp320
(g14
F359.0
F359.0
tp321
atp322
a(L7L
g2
(lp323
(g44
F163.0
F163.0
tp324
atp325
a(L11L
g2
(lp326
(g40
F324.0
F324.0
tp327
atp328
a(L12L
g47
(lp329
(g65
F359.0
F359.0
tp330
atp331
a(L18L
g47
(lp332
(g86
F241.0
F241.0
tp333
atp334
a(L21L
g138
(lp335
(g10
F49.0
F146.0
tp336
a(g4
F146.0
F148.0
tp337
a(g61
F148.0
F213.0
tp338
a(g12
F213.0
F359.0
tp339
atp340
a(L23L
g80
(lp341
(g82
F359.0
F359.0
tp342
atp343
a(L24L
g138
(lp344
(g8
F49.0
F153.0
tp345
a(g49
F153.0
F155.0
tp346
a(g59
F155.0
F241.0
tp347
a(g75
F241.0
F324.0
tp348
a(g20
F324.0
F327.0
tp349
a(g55
F327.0
F331.0
tp350
a(g63
F331.0
F335.0
tp351
atp352
a(L29L
g47
(lp353
(g96
F146.0
F146.0
tp354
atp355
a(L30L
g99
(lp356
(g101
F359.0
F359.0
tp357
atp358
atp359
a(F594.0
F0.63
(lp360
(L3L
Vapac-sin#m1.xlarge
p361
(lp362
(g65
F594.0
F594.0
tp363
atp364
a(L4L
g99
(lp365
(g28
I0
F0.0
tp366
a(g30
I0
F195.0
tp367
a(g90
F195.0
F242.0
tp368
a(g32
F242.0
F361.0
tp369
a(g77
F361.0
F391.0
tp370
a(g69
F391.0
F468.0
tp371
a(g71
F468.0
F526.0
tp372
a(g34
F526.0
F561.0
tp373
a(g36
F561.0
F594.0
tp374
atp375
a(L5L
g2
(lp376
(g16
F590.0
F590.0
tp377
a(g55
F590.0
F590.0
tp378
atp379
a(L7L
g2
(lp380
(g44
F594.0
F594.0
tp381
atp382
a(L11L
g2
(lp383
(g40
F468.0
F468.0
tp384
a(g24
F468.0
F468.0
tp385
atp386
a(L12L
g47
(lp387
(g14
F572.0
F572.0
tp388
atp389
a(L15L
g2
(lp390
(g101
F594.0
F594.0
tp391
atp392
a(L19L
g47
(lp393
(g4
F242.0
F242.0
tp394
atp395
a(L20L
g2
(lp396
(g53
F426.0
F426.0
tp397
a(g86
F426.0
F426.0
tp398
atp399
a(L21L
g138
(lp400
(g10
F195.0
F292.0
tp401
a(g61
F361.0
F426.0
tp402
a(g12
F426.0
F572.0
tp403
a(g20
F572.0
F575.0
tp404
atp405
a(L22L
g47
(lp406
(g49
F299.0
F299.0
tp407
atp408
a(L23L
g80
(lp409
(g82
F594.0
F594.0
tp410
atp411
a(L24L
g138
(lp412
(g8
F195.0
F299.0
tp413
a(g59
F299.0
F385.0
tp414
a(g75
F385.0
F468.0
tp415
a(g92
F468.0
F590.0
tp416
a(g63
F590.0
F594.0
tp417
atp418
a(L29L
g47
(lp419
(g96
F292.0
F292.0
tp420
atp421
atp422
a(F1310.0
F0.48
(lp423
(L0L
g2
(lp424
(g53
F831.0
F831.0
tp425
atp426
a(L1L
g273
(lp427
(g90
F422.0
F730.0
tp428
a(g63
F1239.0
F1250.0
tp429
atp430
a(L4L
g138
(lp431
(g28
I0
F0.0
tp432
a(g30
I0
F422.0
tp433
a(g32
F422.0
F680.0
tp434
a(g77
F680.0
F744.0
tp435
a(g69
F744.0
F910.0
tp436
a(g92
F910.0
F1032.0
tp437
a(g16
F1032.0
F1036.0
tp438
a(g71
F1036.0
F1163.0
tp439
a(g34
F1163.0
F1239.0
tp440
a(g36
F1239.0
F1310.0
tp441
atp442
a(L5L
g2
(lp443
(g14
F1050.0
F1050.0
tp444
atp445
a(L7L
g2
(lp446
(g44
F1310.0
F1310.0
tp447
atp448
a(L11L
g2
(lp449
(g40
F1245.0
F1245.0
tp450
atp451
a(L12L
g47
(lp452
(g65
F1310.0
F1310.0
tp453
atp454
a(L18L
g47
(lp455
(g86
F997.0
F997.0
tp456
atp457
a(L21L
g80
(lp458
(g10
F422.0
F567.0
tp459
a(g4
F730.0
F733.0
tp460
a(g61
F733.0
F831.0
tp461
a(g12
F831.0
F1050.0
tp462
a(g24
F1050.0
F1056.0
tp463
atp464
a(L23L
g361
(lp465
(g82
F1310.0
F1310.0
tp466
atp467
a(L24L
g273
(lp468
(g8
F422.0
F734.0
tp469
a(g49
F734.0
F739.0
tp470
a(g59
F739.0
F997.0
tp471
a(g75
F997.0
F1245.0
tp472
a(g20
F1245.0
F1254.0
tp473
a(g55
F1254.0
F1266.0
tp474
atp475
a(L29L
g47
(lp476
(g96
F567.0
F567.0
tp477
atp478
a(L30L
g99
(lp479
(g101
F1310.0
F1310.0
tp480
atp481
atp482
a(F1418.0
F0.32
(lp483
(L0L
g2
(lp484
(g53
F979.0
F979.0
tp485
atp486
a(L4L
g138
(lp487
(g28
I0
F0.0
tp488
a(g30
I0
F422.0
tp489
a(g90
F422.0
F525.0
tp490
a(g32
F525.0
F783.0
tp491
a(g77
F783.0
F847.0
tp492
a(g69
F847.0
F1013.0
tp493
a(g24
F1013.0
F1017.0
tp494
a(g92
F1017.0
F1139.0
tp495
a(g16
F1139.0
F1143.0
tp496
a(g71
F1143.0
F1270.0
tp497
a(g34
F1270.0
F1346.0
tp498
a(g36
F1346.0
F1417.0
tp499
atp500
a(L5L
g2
(lp501
(g14
F1418.0
F1418.0
tp502
atp503
a(L7L
g2
(lp504
(g44
F1417.0
F1417.0
tp505
atp506
a(L11L
g2
(lp507
(g40
F1245.0
F1245.0
tp508
atp509
a(L12L
g47
(lp510
(g65
F1418.0
F1418.0
tp511
atp512
a(L18L
g47
(lp513
(g86
F997.0
F997.0
tp514
atp515
a(L21L
g273
(lp516
(g10
F422.0
F712.0
tp517
a(g4
F712.0
F718.0
tp518
a(g61
F783.0
F979.0
tp519
a(g12
F979.0
F1418.0
tp520
atp521
a(L23L
g361
(lp522
(g82
F1418.0
F1418.0
tp523
atp524
a(L24L
g273
(lp525
(g8
F422.0
F734.0
tp526
a(g49
F734.0
F739.0
tp527
a(g59
F739.0
F997.0
tp528
a(g75
F997.0
F1245.0
tp529
a(g20
F1245.0
F1254.0
tp530
a(g55
F1270.0
F1282.0
tp531
a(g63
F1346.0
F1357.0
tp532
atp533
a(L29L
g47
(lp534
(g96
F712.0
F712.0
tp535
atp536
a(L30L
g99
(lp537
(g101
F1418.0
F1418.0
tp538
atp539
atp540
a.