(lp0
(F164.0
F9.29
(lp1
(L0L
Vapac-sin#m3.2xlarge
p2
(lp3
(VID00026
p4
F98.0
F98.0
tp5
a(VID00029
p6
F98.0
F115.0
tp7
a(VID00038
p8
F146.0
F159.0
tp9
a(VID00032
p10
F159.0
F159.0
tp11
atp12
a(L33L
Vapac-sin#m3.medium
p13
(lp14
(VID00005
p15
F51.0
F157.0
tp16
a(VID00006
p17
F157.0
F160.0
tp18
a(VID00015
p19
F160.0
F163.0
tp20
atp21
a(L32L
Vapac-sin#m3.large
p22
(lp23
(VID00000
p24
F164.0
F164.0
tp25
atp26
a(L37L
g2
(lp27
(VID00009
p28
F55.0
F74.0
tp29
a(VID00044
p30
F146.0
F160.0
tp31
a(VID00039
p32
F160.0
F160.0
tp33
a(VID00049
p34
F162.0
F162.0
tp35
atp36
a(L38L
g2
(lp37
(S'exit'
p38
F164.0
F164.0
tp39
atp40
a(L1L
g2
(lp41
(VID00048
p42
F148.0
F162.0
tp43
atp44
a(L40L
g2
(lp45
(VID00037
p46
F160.0
F160.0
tp47
atp48
a(L41L
g2
(lp49
(VID00019
p50
F139.0
F139.0
tp51
atp52
a(L43L
g2
(lp53
(VID00023
p54
F28.0
F41.0
tp55
a(VID00012
p56
F108.0
F123.0
tp57
a(VID00014
p58
F123.0
F136.0
tp59
a(VID00042
p60
F146.0
F164.0
tp61
a(VID00034
p62
F164.0
F164.0
tp63
atp64
a(L12L
g2
(lp65
(S'entry'
p66
I0
F0.0
tp67
a(VID00022
p68
I0
F28.0
tp69
a(VID00002
p70
F28.0
F51.0
tp71
a(VID00011
p72
F51.0
F108.0
tp73
a(VID00035
p74
F108.0
F146.0
tp75
a(VID00046
p76
F146.0
F158.0
tp77
a(VID00030
p78
F158.0
F158.0
tp79
atp80
a(L15L
g2
(lp81
(VID00021
p82
F123.0
F123.0
tp83
atp84
a(L17L
Vapac-sin#m3.xlarge
p85
(lp86
(VID00013
p87
F123.0
F124.0
tp88
a(VID00036
p89
F146.0
F160.0
tp90
atp91
a(L50L
g85
(lp92
(VID00027
p93
F28.0
F52.0
tp94
a(VID00024
p95
F52.0
F53.0
tp96
a(VID00016
p97
F108.0
F142.0
tp98
a(VID00017
p99
F142.0
F143.0
tp100
a(VID00047
p101
F158.0
F159.0
tp102
a(VID00045
p103
F160.0
F161.0
tp104
a(VID00041
p105
F161.0
F162.0
tp106
atp107
a(L51L
g22
(lp108
(VID00031
p109
F28.0
F79.0
tp110
a(VID00033
p111
F79.0
F158.0
tp112
a(VID00001
p113
F164.0
F164.0
tp114
atp115
a(L21L
g2
(lp116
(VID00003
p117
F51.0
F69.0
tp118
a(VID00007
p119
F69.0
F89.0
tp120
a(VID00025
p121
F89.0
F98.0
tp122
a(VID00020
p123
F112.0
F123.0
tp124
a(VID00018
p125
F123.0
F139.0
tp126
a(VID00040
p127
F146.0
F158.0
tp128
atp129
a(L22L
g2
(lp130
(VID00010
p131
F74.0
F74.0
tp132
atp133
a(L24L
g2
(lp134
(VID00043
p135
F164.0
F164.0
tp136
atp137
a(L30L
g2
(lp138
(VID00004
p139
F69.0
F69.0
tp140
a(VID00028
p141
F69.0
F69.0
tp142
atp143
a(L5L
g2
(lp144
(VID00008
p145
F89.0
F89.0
tp146
atp147
atp148
a(F334.0
F7.57
(lp149
(L0L
g2
(lp150
(g4
F98.0
F98.0
tp151
a(g6
F98.0
F115.0
tp152
a(g8
F146.0
F159.0
tp153
a(g10
F159.0
F159.0
tp154
atp155
a(L33L
g13
(lp156
(g15
F51.0
F157.0
tp157
a(g17
F157.0
F160.0
tp158
a(g19
F198.0
F201.0
tp159
atp160
a(L32L
g22
(lp161
(g24
F334.0
F334.0
tp162
atp163
a(L37L
g2
(lp164
(g28
F55.0
F74.0
tp165
a(g30
F146.0
F160.0
tp166
a(g32
F160.0
F160.0
tp167
a(g34
F334.0
F334.0
tp168
atp169
a(L38L
g2
(lp170
(g38
F334.0
F334.0
tp171
atp172
a(L1L
Vapac-sin#m1.medium
p173
(lp174
(g42
F149.0
F334.0
tp175
atp176
a(L40L
g2
(lp177
(g46
F172.0
F172.0
tp178
atp179
a(L41L
g2
(lp180
(g50
F139.0
F139.0
tp181
atp182
a(L43L
Vapac-sin#m1.xlarge
p183
(lp184
(g54
F28.0
F71.0
tp185
a(g56
F108.0
F157.0
tp186
a(g58
F157.0
F198.0
tp187
a(g60
F198.0
F256.0
tp188
a(g62
F256.0
F257.0
tp189
atp190
a(L12L
g2
(lp191
(g66
I0
F0.0
tp192
a(g68
I0
F28.0
tp193
a(g70
F28.0
F51.0
tp194
a(g72
F51.0
F108.0
tp195
a(g74
F108.0
F146.0
tp196
a(g76
F146.0
F158.0
tp197
a(g78
F158.0
F158.0
tp198
atp199
a(L15L
g2
(lp200
(g82
F123.0
F123.0
tp201
atp202
a(L17L
g85
(lp203
(g87
F157.0
F158.0
tp204
a(g89
F158.0
F172.0
tp205
atp206
a(L50L
g85
(lp207
(g93
F28.0
F52.0
tp208
a(g95
F71.0
F72.0
tp209
a(g97
F108.0
F142.0
tp210
a(g99
F142.0
F143.0
tp211
a(g101
F158.0
F159.0
tp212
a(g103
F160.0
F161.0
tp213
a(g105
F164.0
F165.0
tp214
atp215
a(L51L
g22
(lp216
(g111
F35.0
F114.0
tp217
a(g113
F334.0
F334.0
tp218
atp219
a(L21L
g2
(lp220
(g117
F51.0
F69.0
tp221
a(g119
F69.0
F89.0
tp222
a(g121
F89.0
F98.0
tp223
a(g123
F112.0
F123.0
tp224
a(g125
F123.0
F139.0
tp225
a(g109
F139.0
F152.0
tp226
a(g127
F152.0
F164.0
tp227
atp228
a(L22L
g2
(lp229
(g131
F74.0
F74.0
tp230
atp231
a(L24L
g2
(lp232
(g135
F256.0
F256.0
tp233
atp234
a(L30L
g2
(lp235
(g139
F69.0
F69.0
tp236
a(g141
F69.0
F69.0
tp237
atp238
a(L5L
g2
(lp239
(g145
F89.0
F89.0
tp240
atp241
atp242
a(F345.0
F5.3
(lp243
(L1L
g2
(lp244
(g145
F222.0
F222.0
tp245
atp246
a(L5L
g2
(lp247
(g62
F163.0
F163.0
tp248
atp249
a(L6L
g22
(lp250
(g97
F108.0
F176.0
tp251
a(g6
F176.0
F243.0
tp252
a(g8
F243.0
F297.0
tp253
atp254
a(L9L
g22
(lp255
(g113
F341.0
F341.0
tp256
atp257
a(L12L
g2
(lp258
(g66
I0
F0.0
tp259
a(g68
I0
F28.0
tp260
a(g70
F28.0
F51.0
tp261
a(g72
F51.0
F108.0
tp262
a(g74
F108.0
F146.0
tp263
a(g127
F146.0
F158.0
tp264
a(g24
F345.0
F345.0
tp265
atp266
a(L14L
Vapac-sin#m1.large
p267
(lp268
(g111
F35.0
F163.0
tp269
atp270
a(L16L
g183
(lp271
(g38
F345.0
F345.0
tp272
atp273
a(L17L
g2
(lp274
(g101
F158.0
F158.0
tp275
atp276
a(L18L
g2
(lp277
(g19
F218.0
F218.0
tp278
atp279
a(L19L
g13
(lp280
(g99
F176.0
F180.0
tp281
atp282
a(L20L
g13
(lp283
(g119
F51.0
F222.0
tp284
atp285
a(L21L
g13
(lp286
(g117
F51.0
F210.0
tp287
atp288
a(L24L
g2
(lp289
(g95
F114.0
F114.0
tp290
atp291
a(L26L
g173
(lp292
(g32
F297.0
F302.0
tp293
atp294
a(L27L
g13
(lp295
(g58
F108.0
F218.0
tp296
a(g42
F218.0
F341.0
tp297
a(g50
F341.0
F345.0
tp298
atp299
a(L32L
g173
(lp300
(g28
F57.0
F302.0
tp301
a(g78
F302.0
F307.0
tp302
atp303
a(L33L
g13
(lp304
(g17
F100.0
F103.0
tp305
a(g4
F136.0
F138.0
tp306
a(g30
F146.0
F264.0
tp307
atp308
a(L35L
g2
(lp309
(g82
F181.0
F181.0
tp310
atp311
a(L36L
g2
(lp312
(g87
F240.0
F240.0
tp313
atp314
a(L37L
g2
(lp315
(g76
F146.0
F158.0
tp316
a(g103
F264.0
F264.0
tp317
a(g34
F341.0
F341.0
tp318
atp319
a(L38L
Vapac-sin#m1.small
p320
(lp321
(g89
F146.0
F331.0
tp322
a(g10
F331.0
F336.0
tp323
atp324
a(L43L
g267
(lp325
(g54
F28.0
F114.0
tp326
a(g139
F210.0
F213.0
tp327
a(g131
F302.0
F304.0
tp328
a(g105
F304.0
F307.0
tp329
atp330
a(L46L
g22
(lp331
(g15
F51.0
F100.0
tp332
a(g121
F100.0
F136.0
tp333
a(g123
F136.0
F181.0
tp334
a(g60
F181.0
F252.0
tp335
a(g109
F252.0
F303.0
tp336
atp337
a(L47L
g13
(lp338
(g93
F28.0
F133.0
tp339
a(g125
F133.0
F269.0
tp340
a(g141
F269.0
F273.0
tp341
atp342
a(L48L
g2
(lp343
(g135
F252.0
F252.0
tp344
atp345
a(L50L
g13
(lp346
(g56
F108.0
F240.0
tp347
a(g46
F331.0
F333.0
tp348
atp349
atp350
a(F443.0
F3.39
(lp351
(L1L
g2
(lp352
(g145
F222.0
F222.0
tp353
atp354
a(L5L
g2
(lp355
(g62
F443.0
F443.0
tp356
atp357
a(L6L
g22
(lp358
(g97
F108.0
F176.0
tp359
a(g76
F176.0
F225.0
tp360
a(g8
F225.0
F279.0
tp361
atp362
a(L9L
g85
(lp363
(g113
F443.0
F443.0
tp364
atp365
a(L12L
g2
(lp366
(g66
I0
F0.0
tp367
a(g68
I0
F28.0
tp368
a(g70
F28.0
F51.0
tp369
a(g72
F51.0
F108.0
tp370
a(g74
F108.0
F146.0
tp371
a(g127
F146.0
F158.0
tp372
a(g24
F443.0
F443.0
tp373
atp374
a(L13L
g2
(lp375
(g101
F225.0
F225.0
tp376
atp377
a(L15L
g2
(lp378
(g50
F269.0
F269.0
tp379
atp380
a(L18L
g2
(lp381
(g19
F320.0
F320.0
tp382
a(g135
F320.0
F320.0
tp383
a(g34
F320.0
F320.0
tp384
atp385
a(L19L
g13
(lp386
(g99
F176.0
F180.0
tp387
atp388
a(L20L
g13
(lp389
(g119
F51.0
F222.0
tp390
a(g32
F279.0
F283.0
tp391
a(g38
F443.0
F443.0
tp392
atp393
a(L21L
g13
(lp394
(g117
F51.0
F210.0
tp395
a(g58
F210.0
F320.0
tp396
atp397
a(L24L
g2
(lp398
(g95
F142.0
F142.0
tp399
atp400
a(L27L
g13
(lp401
(g42
F149.0
F272.0
tp402
a(g111
F272.0
F443.0
tp403
atp404
a(L32L
g173
(lp405
(g28
F57.0
F302.0
tp406
atp407
a(L33L
g13
(lp408
(g17
F100.0
F103.0
tp409
a(g4
F136.0
F138.0
tp410
a(g6
F138.0
F283.0
tp411
a(g30
F283.0
F401.0
tp412
atp413
a(L35L
g2
(lp414
(g82
F181.0
F181.0
tp415
atp416
a(L36L
g2
(lp417
(g87
F240.0
F240.0
tp418
atp419
a(L37L
g2
(lp420
(g103
F401.0
F401.0
tp421
atp422
a(L38L
g320
(lp423
(g89
F146.0
F331.0
tp424
a(g10
F331.0
F336.0
tp425
atp426
a(L43L
g13
(lp427
(g54
F28.0
F142.0
tp428
a(g139
F210.0
F214.0
tp429
a(g131
F302.0
F305.0
tp430
a(g105
F305.0
F309.0
tp431
atp432
a(L46L
g22
(lp433
(g15
F51.0
F100.0
tp434
a(g121
F100.0
F136.0
tp435
a(g123
F136.0
F181.0
tp436
a(g60
F181.0
F252.0
tp437
a(g109
F252.0
F303.0
tp438
atp439
a(L47L
g13
(lp440
(g93
F28.0
F133.0
tp441
a(g125
F133.0
F269.0
tp442
a(g78
F283.0
F286.0
tp443
a(g141
F286.0
F290.0
tp444
atp445
a(L50L
g13
(lp446
(g56
F108.0
F240.0
tp447
a(g46
F331.0
F333.0
tp448
atp449
atp450
a(F1301.0
F2.48
(lp451
(L4L
g2
(lp452
(g145
F672.0
F672.0
tp453
atp454
a(L7L
g2
(lp455
(g101
F1038.0
F1038.0
tp456
a(g32
F1038.0
F1038.0
tp457
a(g34
F1038.0
F1038.0
tp458
a(g78
F1038.0
F1038.0
tp459
atp460
a(L8L
g2
(lp461
(g17
F807.0
F807.0
tp462
atp463
a(L9L
g183
(lp464
(g119
F608.0
F672.0
tp465
a(g58
F672.0
F713.0
tp466
a(g103
F1127.0
F1128.0
tp467
a(g38
F1301.0
F1301.0
tp468
atp469
a(L12L
g13
(lp470
(g66
I0
F0.0
tp471
a(g68
I0
F241.0
tp472
a(g121
F241.0
F320.0
tp473
a(g6
F320.0
F465.0
tp474
a(g74
F465.0
F797.0
tp475
a(g8
F797.0
F914.0
tp476
a(g42
F914.0
F1037.0
tp477
a(g125
F1037.0
F1173.0
tp478
a(g105
F1173.0
F1177.0
tp479
atp480
a(L16L
g267
(lp481
(g19
F713.0
F716.0
tp482
atp483
a(L18L
g85
(lp484
(g10
F754.0
F754.0
tp485
atp486
a(L19L
g320
(lp487
(g87
F1052.0
F1059.0
tp488
atp489
a(L21L
g2
(lp490
(g50
F1173.0
F1173.0
tp491
atp492
a(L27L
g267
(lp493
(g54
F241.0
F327.0
tp494
a(g70
F462.0
F608.0
tp495
a(g117
F608.0
F727.0
tp496
a(g15
F727.0
F807.0
tp497
a(g93
F807.0
F886.0
tp498
a(g123
F886.0
F959.0
tp499
a(g76
F959.0
F1038.0
tp500
a(g30
F1038.0
F1127.0
tp501
a(g89
F1127.0
F1173.0
tp502
a(g111
F1173.0
F1301.0
tp503
atp504
a(L28L
g2
(lp505
(g131
F1112.0
F1112.0
tp506
a(g82
F1112.0
F1112.0
tp507
atp508
a(L30L
g320
(lp509
(g56
F657.0
F1052.0
tp510
atp511
a(L33L
g85
(lp512
(g46
F1173.0
F1173.0
tp513
atp514
a(L34L
g85
(lp515
(g24
F1301.0
F1301.0
tp516
atp517
a(L39L
g320
(lp518
(g95
F327.0
F335.0
tp519
a(g28
F622.0
F1112.0
tp520
atp521
a(L41L
g320
(lp522
(g4
F320.0
F326.0
tp523
atp524
a(L42L
g320
(lp525
(g60
F797.0
F1261.0
tp526
atp527
a(L43L
g2
(lp528
(g99
F712.0
F712.0
tp529
atp530
a(L44L
g2
(lp531
(g135
F1261.0
F1261.0
tp532
atp533
a(L45L
g267
(lp534
(g113
F1301.0
F1301.0
tp535
atp536
a(L47L
g2
(lp537
(g62
F1301.0
F1301.0
tp538
atp539
a(L49L
g2
(lp540
(g139
F727.0
F727.0
tp541
atp542
a(L51L
g183
(lp543
(g72
F471.0
F657.0
tp544
a(g97
F657.0
F712.0
tp545
a(g109
F712.0
F754.0
tp546
a(g141
F886.0
F887.0
tp547
a(g127
F887.0
F925.0
tp548
atp549
atp550
a(F1584.0
F0.71
(lp551
(L1L
g2
(lp552
(g17
F922.0
F922.0
tp553
atp554
a(L34L
g85
(lp555
(g24
F1584.0
F1584.0
tp556
atp557
a(L4L
g2
(lp558
(g145
F1171.0
F1171.0
tp559
atp560
a(L33L
g85
(lp561
(g46
F1413.0
F1413.0
tp562
atp563
a(L39L
g320
(lp564
(g95
F355.0
F363.0
tp565
a(g28
F671.0
F1161.0
tp566
a(g56
F1161.0
F1556.0
tp567
atp568
a(L9L
g320
(lp569
(g119
F657.0
F1171.0
tp570
a(g58
F1171.0
F1502.0
tp571
a(g103
F1502.0
F1512.0
tp572
a(g38
F1584.0
F1584.0
tp573
atp574
a(L42L
g320
(lp575
(g60
F797.0
F1261.0
tp576
atp577
a(L43L
g2
(lp578
(g99
F1114.0
F1114.0
tp579
atp580
a(L12L
g13
(lp581
(g66
I0
F0.0
tp582
a(g68
I0
F241.0
tp583
a(g121
F241.0
F320.0
tp584
a(g6
F320.0
F465.0
tp585
a(g74
F465.0
F797.0
tp586
a(g8
F797.0
F914.0
tp587
a(g42
F914.0
F1037.0
tp588
a(g125
F1037.0
F1173.0
tp589
a(g105
F1330.0
F1334.0
tp590
atp591
a(L45L
g267
(lp592
(g113
F1584.0
F1584.0
tp593
atp594
a(L47L
g2
(lp595
(g62
F1584.0
F1584.0
tp596
atp597
a(L44L
g2
(lp598
(g19
F1502.0
F1502.0
tp599
a(g135
F1502.0
F1502.0
tp600
atp601
a(L49L
g2
(lp602
(g139
F816.0
F816.0
tp603
atp604
a(L18L
g2
(lp605
(g10
F1225.0
F1225.0
tp606
atp607
a(L51L
g13
(lp608
(g72
F471.0
F967.0
tp609
a(g97
F967.0
F1114.0
tp610
a(g109
F1114.0
F1225.0
tp611
a(g141
F1225.0
F1229.0
tp612
a(g127
F1229.0
F1330.0
tp613
atp614
a(L21L
g2
(lp615
(g87
F1556.0
F1556.0
tp616
a(g50
F1556.0
F1556.0
tp617
a(g78
F1556.0
F1556.0
tp618
atp619
a(L7L
g2
(lp620
(g101
F1233.0
F1233.0
tp621
a(g32
F1233.0
F1233.0
tp622
a(g34
F1233.0
F1233.0
tp623
atp624
a(L27L
g13
(lp625
(g54
F241.0
F355.0
tp626
a(g70
F462.0
F657.0
tp627
a(g117
F657.0
F816.0
tp628
a(g15
F816.0
F922.0
tp629
a(g93
F922.0
F1027.0
tp630
a(g4
F1027.0
F1029.0
tp631
a(g123
F1029.0
F1127.0
tp632
a(g76
F1127.0
F1233.0
tp633
a(g30
F1233.0
F1351.0
tp634
a(g89
F1351.0
F1413.0
tp635
a(g111
F1413.0
F1584.0
tp636
atp637
a(L28L
g2
(lp638
(g131
F1161.0
F1161.0
tp639
a(g82
F1161.0
F1161.0
tp640
atp641
atp642
a(F2878.0
F0.64
(lp643
(L0L
g2
(lp644
(g105
F1486.0
F1486.0
tp645
atp646
a(L11L
g2
(lp647
(g135
F2878.0
F2878.0
tp648
atp649
a(L36L
g2
(lp650
(g139
F2063.0
F2063.0
tp651
a(g4
F2063.0
F2063.0
tp652
a(g103
F2063.0
F2063.0
tp653
a(g78
F2063.0
F2063.0
tp654
atp655
a(L37L
g2
(lp656
(g87
F2778.0
F2778.0
tp657
a(g10
F2778.0
F2778.0
tp658
atp659
a(L6L
g320
(lp660
(g119
F1586.0
F2100.0
tp661
a(g93
F2100.0
F2414.0
tp662
a(g60
F2414.0
F2878.0
tp663
atp664
a(L39L
g320
(lp665
(g95
F355.0
F363.0
tp666
a(g28
F1600.0
F2090.0
tp667
a(g123
F2090.0
F2383.0
tp668
a(g56
F2383.0
F2778.0
tp669
a(g141
F2778.0
F2789.0
tp670
atp671
a(L40L
g2
(lp672
(g82
F2383.0
F2383.0
tp673
atp674
a(L9L
g320
(lp675
(g15
F1586.0
F1905.0
tp676
a(g97
F1905.0
F2346.0
tp677
a(g58
F2346.0
F2677.0
tp678
atp679
a(L42L
g320
(lp680
(g6
F241.0
F675.0
tp681
a(g76
F1183.0
F1501.0
tp682
a(g125
F1501.0
F1909.0
tp683
atp684
a(L43L
g2
(lp685
(g99
F2346.0
F2346.0
tp686
a(g46
F2346.0
F2346.0
tp687
atp688
a(L12L
g13
(lp689
(g66
I0
F0.0
tp690
a(g68
I0
F241.0
tp691
a(g54
F241.0
F355.0
tp692
a(g72
F355.0
F851.0
tp693
a(g74
F851.0
F1183.0
tp694
a(g30
F1183.0
F1301.0
tp695
a(g8
F1301.0
F1418.0
tp696
a(g32
F1418.0
F1422.0
tp697
a(g111
F1422.0
F1593.0
tp698
atp699
a(L16L
g2
(lp700
(g34
F2653.0
F2653.0
tp701
atp702
a(L8L
g2
(lp703
(g19
F2677.0
F2677.0
tp704
atp705
a(L50L
g85
(lp706
(g38
F2878.0
F2878.0
tp707
atp708
a(L51L
g320
(lp709
(g121
F241.0
F478.0
tp710
a(g109
F478.0
F812.0
tp711
a(g127
F1183.0
F1486.0
tp712
atp713
a(L21L
g2
(lp714
(g101
F1501.0
F1501.0
tp715
atp716
a(L23L
g2
(lp717
(g17
F1905.0
F1905.0
tp718
atp719
a(L27L
g320
(lp720
(g70
F1001.0
F1586.0
tp721
a(g117
F1586.0
F2063.0
tp722
a(g131
F2090.0
F2098.0
tp723
a(g89
F2098.0
F2283.0
tp724
a(g42
F2283.0
F2653.0
tp725
a(g50
F2653.0
F2665.0
tp726
atp727
a(L28L
g2
(lp728
(g145
F2100.0
F2100.0
tp729
a(g62
F2100.0
F2100.0
tp730
atp731
a(L31L
g22
(lp732
(g113
F2878.0
F2878.0
tp733
a(g24
F2878.0
F2878.0
tp734
atp735
atp736
a.