(lp0
(F428.0
F13.95
(lp1
(L2L
Vapac-sin#m3.2xlarge
p2
(lp3
(VID00039
p4
F356.0
F356.0
tp5
atp6
a(L4L
g2
(lp7
(VID00088
p8
F172.0
F192.0
tp9
a(VID00002
p10
F307.0
F355.0
tp11
atp12
a(L5L
Vapac-sin#m3.xlarge
p13
(lp14
(VID00062
p15
F367.0
F398.0
tp16
a(VID00081
p17
F398.0
F419.0
tp18
atp19
a(L8L
Vapac-sin#m3.large
p20
(lp21
(VID00071
p22
F370.0
F406.0
tp23
a(VID00074
p24
F417.0
F418.0
tp25
atp26
a(L11L
Vapac-sin#m1.small
p27
(lp28
(VID00037
p29
F344.0
F353.0
tp30
a(VID00048
p31
F380.0
F388.0
tp32
a(VID00052
p33
F388.0
F398.0
tp34
a(VID00008
p35
F398.0
F403.0
tp36
atp37
a(L16L
g2
(lp38
(VID00065
p39
F404.0
F404.0
tp40
atp41
a(L21L
g2
(lp42
(VID00044
p43
F303.0
F364.0
tp44
a(VID00007
p45
F364.0
F379.0
tp46
a(VID00098
p47
F379.0
F394.0
tp48
a(VID00092
p49
F394.0
F411.0
tp50
a(VID00016
p51
F411.0
F420.0
tp52
a(VID00014
p53
F420.0
F428.0
tp54
a(VID00015
p55
F428.0
F428.0
tp56
a(VID00001
p57
F428.0
F428.0
tp58
atp59
a(L23L
g2
(lp60
(VID00059
p61
F426.0
F426.0
tp62
a(VID00067
p63
F426.0
F426.0
tp64
a(VID00076
p65
F426.0
F426.0
tp66
atp67
a(L25L
g13
(lp68
(VID00050
p69
F419.0
F419.0
tp70
atp71
a(L27L
g27
(lp72
(S'exit'
p73
F428.0
F428.0
tp74
atp75
a(L28L
g2
(lp76
(VID00057
p77
F314.0
F367.0
tp78
a(VID00051
p79
F367.0
F386.0
tp80
a(VID00064
p81
F386.0
F404.0
tp82
a(VID00005
p83
F404.0
F421.0
tp84
atp85
a(L29L
g2
(lp86
(VID00030
p87
F364.0
F364.0
tp88
atp89
a(L31L
g13
(lp90
(VID00025
p91
F330.0
F356.0
tp92
a(VID00066
p93
F367.0
F399.0
tp94
a(VID00018
p95
F399.0
F422.0
tp96
atp97
a(L32L
Vapac-sin#m3.medium
p98
(lp99
(VID00058
p100
F367.0
F426.0
tp101
a(VID00084
p102
F426.0
F428.0
tp103
atp104
a(L35L
g2
(lp105
(VID00032
p106
F389.0
F389.0
tp107
atp108
a(L36L
g2
(lp109
(VID00028
p110
F372.0
F372.0
tp111
atp112
a(L37L
g13
(lp113
(VID00029
p114
F330.0
F364.0
tp115
a(VID00046
p116
F372.0
F372.0
tp117
a(VID00086
p118
F372.0
F409.0
tp119
a(VID00012
p120
F409.0
F425.0
tp121
atp122
a(L38L
g2
(lp123
(VID00097
p124
F391.0
F391.0
tp125
atp126
a(L43L
Vapac-sin#m1.xlarge
p127
(lp128
(S'entry'
p129
I0
F0.0
tp130
a(VID00085
p131
I0
F172.0
tp132
a(VID00090
p133
F172.0
F236.0
tp134
a(VID00011
p135
F236.0
F359.0
tp136
atp137
a(L45L
g2
(lp138
(VID00082
p139
F419.0
F419.0
tp140
atp141
a(L46L
g20
(lp142
(VID00027
p143
F330.0
F372.0
tp144
a(VID00049
p145
F372.0
F419.0
tp146
a(VID00054
p147
F419.0
F420.0
tp148
atp149
a(L52L
g2
(lp150
(VID00024
p151
F357.0
F357.0
tp152
atp153
a(L53L
g2
(lp154
(VID00070
p155
F307.0
F370.0
tp156
a(VID00072
p157
F406.0
F406.0
tp158
a(VID00003
p159
F406.0
F423.0
tp160
atp161
a(L55L
g2
(lp162
(VID00019
p163
F422.0
F422.0
tp164
atp165
a(L57L
g2
(lp166
(VID00013
p167
F425.0
F425.0
tp168
atp169
a(L59L
g13
(lp170
(VID00038
p171
F332.0
F356.0
tp172
a(VID00096
p173
F356.0
F391.0
tp174
a(VID00094
p175
F391.0
F421.0
tp176
atp177
a(L61L
g2
(lp178
(VID00061
p179
F416.0
F416.0
tp180
atp181
a(L62L
g2
(lp182
(VID00006
p183
F421.0
F421.0
tp184
atp185
a(L63L
g13
(lp186
(VID00095
p187
F421.0
F421.0
tp188
atp189
a(L64L
g13
(lp190
(VID00023
p191
F330.0
F357.0
tp192
a(VID00079
p193
F370.0
F402.0
tp194
a(VID00087
p195
F409.0
F410.0
tp196
atp197
a(L66L
g2
(lp198
(VID00069
p199
F421.0
F421.0
tp200
atp201
a(L71L
g2
(lp202
(VID00056
p203
F414.0
F414.0
tp204
a(VID00063
p205
F414.0
F414.0
tp206
atp207
a(L72L
g2
(lp208
(VID00022
p209
F296.0
F330.0
tp210
a(VID00034
p211
F332.0
F344.0
tp212
a(VID00043
p213
F361.0
F361.0
tp214
a(VID00075
p215
F370.0
F383.0
tp216
a(VID00077
p217
F383.0
F399.0
tp218
a(VID00009
p219
F399.0
F415.0
tp220
a(VID00020
p221
F415.0
F427.0
tp222
atp223
a(L74L
g20
(lp224
(VID00060
p225
F367.0
F416.0
tp226
a(VID00078
p227
F416.0
F417.0
tp228
a(VID00004
p229
F423.0
F424.0
tp230
atp231
a(L77L
g2
(lp232
(VID00026
p233
F356.0
F356.0
tp234
atp235
a(L81L
g13
(lp236
(VID00042
p237
F339.0
F361.0
tp238
a(VID00053
p239
F364.0
F389.0
tp240
a(VID00073
p241
F389.0
F417.0
tp242
atp243
a(L84L
g2
(lp244
(VID00091
p245
F236.0
F236.0
tp246
atp247
a(L86L
g2
(lp248
(VID00035
p249
F344.0
F344.0
tp250
atp251
a(L87L
g2
(lp252
(VID00010
p253
F415.0
F415.0
tp254
atp255
a(L88L
Vapac-sin#m1.medium
p256
(lp257
(VID00040
p258
F332.0
F421.0
tp259
a(VID00041
p260
F421.0
F425.0
tp261
a(VID00093
p262
F425.0
F428.0
tp263
atp264
a(L89L
g2
(lp265
(VID00033
p266
F306.0
F332.0
tp267
a(VID00036
p268
F332.0
F344.0
tp269
a(VID00045
p270
F364.0
F372.0
tp271
a(VID00047
p272
F372.0
F380.0
tp273
a(VID00083
p274
F380.0
F398.0
tp275
a(VID00017
p276
F420.0
F420.0
tp277
atp278
a(L90L
g13
(lp279
(VID00000
p280
F428.0
F428.0
tp281
atp282
a(L99L
g20
(lp283
(VID00031
p284
F337.0
F389.0
tp285
a(VID00068
p286
F389.0
F421.0
tp287
a(VID00080
p288
F421.0
F422.0
tp289
atp290
a(L101L
g20
(lp291
(VID00055
p292
F371.0
F414.0
tp293
a(VID00089
p294
F414.0
F415.0
tp295
a(VID00099
p296
F415.0
F416.0
tp297
a(VID00021
p298
F427.0
F428.0
tp299
atp300
atp301
a(F1002.0
F12.11
(lp302
(L0L
g98
(lp303
(g211
F390.0
F496.0
tp304
a(g227
F861.0
F864.0
tp305
atp306
a(L5L
g256
(lp307
(g22
F723.0
F841.0
tp308
atp309
a(L6L
Vapac-sin#m1.large
p310
(lp311
(g258
F390.0
F434.0
tp312
a(g100
F434.0
F479.0
tp313
atp314
a(L8L
g98
(lp315
(g24
F846.0
F849.0
tp316
atp317
a(L10L
g2
(lp318
(g33
F663.0
F663.0
tp319
a(g61
F663.0
F663.0
tp320
a(g179
F663.0
F663.0
tp321
atp322
a(L14L
g13
(lp323
(g284
F598.0
F624.0
tp324
a(g262
F624.0
F624.0
tp325
atp326
a(L18L
g256
(lp327
(g83
F782.0
F1001.0
tp328
atp329
a(L19L
g13
(lp330
(g69
F636.0
F636.0
tp331
atp332
a(L21L
g13
(lp333
(g43
F467.0
F589.0
tp334
a(g45
F782.0
F812.0
tp335
a(g51
F812.0
F830.0
tp336
a(g53
F830.0
F846.0
tp337
a(g55
F846.0
F847.0
tp338
atp339
a(L23L
g27
(lp340
(g63
F575.0
F583.0
tp341
atp342
a(L27L
g20
(lp343
(g225
F172.0
F221.0
tp344
a(g73
F1002.0
F1002.0
tp345
atp346
a(L28L
g310
(lp347
(g270
F589.0
F639.0
tp348
a(g81
F639.0
F755.0
tp349
a(g118
F755.0
F874.0
tp350
a(g219
F874.0
F978.0
tp351
atp352
a(L29L
g256
(lp353
(g87
F738.0
F741.0
tp354
a(g237
F741.0
F881.0
tp355
atp356
a(L31L
g20
(lp357
(g155
F472.0
F723.0
tp358
a(g195
F874.0
F876.0
tp359
a(g296
F876.0
F877.0
tp360
a(g95
F877.0
F923.0
tp361
atp362
a(L33L
g20
(lp363
(g171
F390.0
F438.0
tp364
a(g8
F438.0
F517.0
tp365
a(g17
F723.0
F765.0
tp366
a(g274
F765.0
F837.0
tp367
atp368
a(L34L
g98
(lp369
(g217
F723.0
F861.0
tp370
atp371
a(L35L
g310
(lp372
(g10
F473.0
F782.0
tp373
atp374
a(L37L
g98
(lp375
(g114
F591.0
F738.0
tp376
a(g91
F738.0
F851.0
tp377
a(g120
F851.0
F920.0
tp378
atp379
a(L38L
g2
(lp380
(g249
F496.0
F496.0
tp381
atp382
a(L43L
g127
(lp383
(g129
I0
F0.0
tp384
a(g77
I0
F172.0
tp385
a(g131
F172.0
F344.0
tp386
a(g49
F344.0
F400.0
tp387
a(g133
F400.0
F464.0
tp388
a(g135
F464.0
F587.0
tp389
atp390
a(L46L
g27
(lp391
(g147
F731.0
F740.0
tp392
a(g245
F740.0
F749.0
tp393
atp394
a(L50L
g2
(lp395
(g65
F808.0
F808.0
tp396
atp397
a(L51L
g2
(lp398
(g110
F612.0
F612.0
tp399
atp400
a(L52L
g2
(lp401
(g151
F646.0
F646.0
tp402
atp403
a(L55L
g2
(lp404
(g213
F881.0
F881.0
tp405
a(g163
F923.0
F923.0
tp406
atp407
a(L56L
g310
(lp408
(g268
F390.0
F468.0
tp409
a(g29
F468.0
F470.0
tp410
a(g93
F470.0
F575.0
tp411
a(g215
F723.0
F808.0
tp412
atp413
a(L57L
g13
(lp414
(g167
F920.0
F920.0
tp415
atp416
a(L59L
g13
(lp417
(g173
F344.0
F379.0
tp418
a(g175
F379.0
F409.0
tp419
a(g253
F978.0
F978.0
tp420
atp421
a(L60L
g98
(lp422
(g31
F660.0
F663.0
tp423
a(g288
F815.0
F818.0
tp424
atp425
a(L61L
g2
(lp426
(g199
F784.0
F784.0
tp427
atp428
a(L62L
g2
(lp429
(g157
F841.0
F841.0
tp430
atp431
a(L63L
g2
(lp432
(g4
F438.0
F438.0
tp433
atp434
a(L64L
g20
(lp435
(g191
F591.0
F646.0
tp436
a(g292
F646.0
F689.0
tp437
a(g15
F689.0
F750.0
tp438
a(g193
F750.0
F815.0
tp439
atp440
a(L65L
g2
(lp441
(g294
F517.0
F517.0
tp442
atp443
a(L67L
g2
(lp444
(g39
F755.0
F755.0
tp445
atp446
a(L69L
g13
(lp447
(g187
F409.0
F409.0
tp448
atp449
a(L72L
g20
(lp450
(g209
F455.0
F591.0
tp451
a(g221
F591.0
F641.0
tp452
atp453
a(L77L
g2
(lp454
(g233
F851.0
F851.0
tp455
atp456
a(L78L
g27
(lp457
(g47
F350.0
F748.0
tp458
atp459
a(L79L
g98
(lp460
(g106
F624.0
F628.0
tp461
atp462
a(L84L
g2
(lp463
(g124
F379.0
F379.0
tp464
atp465
a(L85L
g127
(lp466
(g116
F639.0
F640.0
tp467
a(g57
F1001.0
F1002.0
tp468
atp469
a(L89L
g127
(lp470
(g266
F306.0
F390.0
tp471
a(g203
F689.0
F690.0
tp472
a(g239
F690.0
F731.0
tp473
a(g276
F830.0
F831.0
tp474
atp475
a(L90L
g13
(lp476
(g159
F782.0
F816.0
tp477
a(g280
F1002.0
F1002.0
tp478
atp479
a(L93L
g98
(lp480
(g272
F589.0
F660.0
tp481
atp482
a(L94L
g20
(lp483
(g145
F589.0
F636.0
tp484
a(g35
F812.0
F813.0
tp485
atp486
a(L96L
g13
(lp487
(g143
F591.0
F612.0
tp488
a(g139
F765.0
F766.0
tp489
atp490
a(L99L
g20
(lp491
(g79
F589.0
F663.0
tp492
a(g205
F750.0
F752.0
tp493
a(g286
F752.0
F784.0
tp494
a(g102
F837.0
F838.0
tp495
a(g229
F838.0
F839.0
tp496
a(g183
F1001.0
F1002.0
tp497
atp498
a(L100L
g98
(lp499
(g241
F723.0
F846.0
tp500
atp501
a(L101L
g20
(lp502
(g260
F434.0
F435.0
tp503
a(g298
F641.0
F642.0
tp504
atp505
atp506
a(F1003.0
F8.01
(lp507
(L0L
g98
(lp508
(g211
F695.0
F801.0
tp509
a(g227
F801.0
F804.0
tp510
atp511
a(L5L
g256
(lp512
(g22
F723.0
F841.0
tp513
atp514
a(L6L
g310
(lp515
(g258
F695.0
F739.0
tp516
a(g100
F739.0
F784.0
tp517
atp518
a(L8L
g98
(lp519
(g24
F846.0
F849.0
tp520
atp521
a(L10L
g2
(lp522
(g33
F750.0
F750.0
tp523
a(g179
F750.0
F750.0
tp524
atp525
a(L13L
g2
(lp526
(g163
F923.0
F923.0
tp527
atp528
a(L14L
g13
(lp529
(g284
F598.0
F624.0
tp530
a(g262
F624.0
F624.0
tp531
atp532
a(L18L
g256
(lp533
(g83
F782.0
F1001.0
tp534
atp535
a(L19L
g13
(lp536
(g69
F636.0
F636.0
tp537
atp538
a(L21L
g13
(lp539
(g43
F467.0
F589.0
tp540
a(g45
F782.0
F812.0
tp541
a(g47
F812.0
F843.0
tp542
a(g51
F843.0
F861.0
tp543
a(g53
F861.0
F877.0
tp544
a(g55
F877.0
F878.0
tp545
a(g57
F1001.0
F1001.0
tp546
atp547
a(L23L
g27
(lp548
(g61
F784.0
F792.0
tp549
a(g63
F880.0
F888.0
tp550
atp551
a(L27L
g20
(lp552
(g225
F172.0
F221.0
tp553
atp554
a(L28L
g310
(lp555
(g270
F589.0
F639.0
tp556
a(g81
F639.0
F755.0
tp557
a(g118
F755.0
F874.0
tp558
a(g219
F874.0
F978.0
tp559
atp560
a(L29L
g256
(lp561
(g87
F738.0
F741.0
tp562
a(g237
F741.0
F881.0
tp563
atp564
a(L31L
g20
(lp565
(g155
F472.0
F723.0
tp566
a(g195
F874.0
F876.0
tp567
a(g296
F876.0
F877.0
tp568
a(g95
F877.0
F923.0
tp569
atp570
a(L33L
g20
(lp571
(g171
F695.0
F743.0
tp572
a(g8
F743.0
F822.0
tp573
a(g17
F822.0
F864.0
tp574
a(g274
F864.0
F936.0
tp575
atp576
a(L35L
g310
(lp577
(g10
F473.0
F782.0
tp578
atp579
a(L37L
g98
(lp580
(g114
F591.0
F738.0
tp581
a(g91
F738.0
F851.0
tp582
a(g120
F851.0
F920.0
tp583
atp584
a(L38L
g2
(lp585
(g249
F801.0
F801.0
tp586
atp587
a(L43L
g127
(lp588
(g129
I0
F0.0
tp589
a(g77
I0
F172.0
tp590
a(g131
F172.0
F344.0
tp591
a(g49
F344.0
F400.0
tp592
a(g133
F400.0
F464.0
tp593
a(g135
F464.0
F587.0
tp594
atp595
a(L46L
g27
(lp596
(g147
F807.0
F816.0
tp597
a(g245
F816.0
F825.0
tp598
atp599
a(L50L
g2
(lp600
(g65
F965.0
F965.0
tp601
atp602
a(L51L
g2
(lp603
(g110
F863.0
F863.0
tp604
atp605
a(L52L
g2
(lp606
(g151
F646.0
F646.0
tp607
atp608
a(L53L
g20
(lp609
(g280
F1003.0
F1003.0
tp610
atp611
a(L55L
g2
(lp612
(g213
F881.0
F881.0
tp613
atp614
a(L56L
g310
(lp615
(g268
F695.0
F773.0
tp616
a(g29
F773.0
F775.0
tp617
a(g93
F775.0
F880.0
tp618
a(g215
F880.0
F965.0
tp619
atp620
a(L59L
g13
(lp621
(g173
F344.0
F379.0
tp622
a(g175
F379.0
F409.0
tp623
a(g253
F978.0
F978.0
tp624
atp625
a(L60L
g256
(lp626
(g31
F802.0
F806.0
tp627
a(g288
F815.0
F819.0
tp628
atp629
a(L61L
g2
(lp630
(g199
F823.0
F823.0
tp631
atp632
a(L62L
g2
(lp633
(g157
F841.0
F841.0
tp634
atp635
a(L63L
g2
(lp636
(g4
F743.0
F743.0
tp637
atp638
a(L64L
g20
(lp639
(g191
F591.0
F646.0
tp640
a(g292
F646.0
F689.0
tp641
a(g15
F689.0
F750.0
tp642
a(g193
F750.0
F815.0
tp643
a(g298
F837.0
F838.0
tp644
atp645
a(L65L
g2
(lp646
(g294
F822.0
F822.0
tp647
atp648
a(L67L
g2
(lp649
(g39
F755.0
F755.0
tp650
atp651
a(L69L
g13
(lp652
(g187
F409.0
F409.0
tp653
atp654
a(L70L
g127
(lp655
(g73
F1003.0
F1003.0
tp656
atp657
a(L72L
g20
(lp658
(g209
F455.0
F591.0
tp659
a(g217
F723.0
F787.0
tp660
a(g221
F787.0
F837.0
tp661
atp662
a(L77L
g2
(lp663
(g233
F851.0
F851.0
tp664
atp665
a(L79L
g256
(lp666
(g106
F624.0
F630.0
tp667
a(g167
F920.0
F923.0
tp668
atp669
a(L84L
g2
(lp670
(g124
F379.0
F379.0
tp671
atp672
a(L85L
g13
(lp673
(g116
F639.0
F639.0
tp674
atp675
a(L88L
g27
(lp676
(g102
F936.0
F943.0
tp677
atp678
a(L89L
g98
(lp679
(g266
F471.0
F695.0
tp680
a(g203
F695.0
F698.0
tp681
a(g239
F698.0
F807.0
tp682
a(g276
F861.0
F865.0
tp683
atp684
a(L90L
g98
(lp685
(g159
F782.0
F928.0
tp686
atp687
a(L93L
g27
(lp688
(g272
F589.0
F802.0
tp689
atp690
a(L94L
g20
(lp691
(g145
F589.0
F636.0
tp692
a(g35
F812.0
F813.0
tp693
atp694
a(L96L
g27
(lp695
(g143
F591.0
F863.0
tp696
a(g139
F864.0
F874.0
tp697
atp698
a(L99L
g98
(lp699
(g79
F589.0
F750.0
tp700
a(g205
F750.0
F754.0
tp701
a(g286
F754.0
F823.0
tp702
a(g229
F928.0
F931.0
tp703
a(g183
F1001.0
F1003.0
tp704
atp705
a(L100L
g98
(lp706
(g241
F723.0
F846.0
tp707
atp708
a(L101L
g2
(lp709
(g260
F739.0
F739.0
tp710
atp711
atp712
a(F1193.0
F7.78
(lp713
(L0L
g98
(lp714
(g211
F695.0
F801.0
tp715
a(g227
F944.0
F947.0
tp716
atp717
a(L5L
g256
(lp718
(g22
F880.0
F998.0
tp719
atp720
a(L6L
g310
(lp721
(g258
F695.0
F739.0
tp722
a(g100
F739.0
F784.0
tp723
atp724
a(L8L
g98
(lp725
(g24
F1003.0
F1006.0
tp726
atp727
a(L10L
g2
(lp728
(g33
F750.0
F750.0
tp729
a(g179
F750.0
F750.0
tp730
atp731
a(L13L
g2
(lp732
(g163
F923.0
F923.0
tp733
atp734
a(L14L
g13
(lp735
(g284
F598.0
F624.0
tp736
a(g262
F624.0
F624.0
tp737
atp738
a(L18L
g256
(lp739
(g83
F782.0
F1001.0
tp740
atp741
a(L19L
g13
(lp742
(g69
F636.0
F636.0
tp743
atp744
a(L21L
g13
(lp745
(g43
F467.0
F589.0
tp746
a(g45
F782.0
F812.0
tp747
a(g47
F812.0
F843.0
tp748
a(g51
F843.0
F861.0
tp749
a(g53
F861.0
F877.0
tp750
a(g55
F877.0
F878.0
tp751
a(g57
F1187.0
F1187.0
tp752
atp753
a(L23L
g27
(lp754
(g61
F784.0
F792.0
tp755
a(g63
F880.0
F888.0
tp756
atp757
a(L27L
g20
(lp758
(g225
F172.0
F221.0
tp759
atp760
a(L28L
g310
(lp761
(g270
F589.0
F639.0
tp762
a(g81
F639.0
F755.0
tp763
a(g118
F755.0
F874.0
tp764
a(g219
F874.0
F978.0
tp765
atp766
a(L29L
g256
(lp767
(g87
F738.0
F741.0
tp768
a(g237
F741.0
F881.0
tp769
atp770
a(L30L
g310
(lp771
(g155
F472.0
F880.0
tp772
atp773
a(L31L
g20
(lp774
(g195
F874.0
F876.0
tp775
a(g296
F876.0
F877.0
tp776
a(g95
F877.0
F923.0
tp777
atp778
a(L33L
g20
(lp779
(g171
F695.0
F743.0
tp780
a(g8
F743.0
F822.0
tp781
a(g17
F880.0
F922.0
tp782
a(g274
F922.0
F994.0
tp783
atp784
a(L35L
g310
(lp785
(g10
F473.0
F782.0
tp786
atp787
a(L37L
g98
(lp788
(g114
F591.0
F738.0
tp789
a(g91
F738.0
F851.0
tp790
a(g120
F851.0
F920.0
tp791
atp792
a(L38L
g2
(lp793
(g249
F801.0
F801.0
tp794
atp795
a(L43L
g127
(lp796
(g129
I0
F0.0
tp797
a(g77
I0
F172.0
tp798
a(g131
F172.0
F344.0
tp799
a(g49
F344.0
F400.0
tp800
a(g133
F400.0
F464.0
tp801
a(g135
F464.0
F587.0
tp802
atp803
a(L46L
g27
(lp804
(g147
F807.0
F816.0
tp805
a(g245
F816.0
F825.0
tp806
atp807
a(L50L
g2
(lp808
(g65
F965.0
F965.0
tp809
atp810
a(L51L
g2
(lp811
(g110
F863.0
F863.0
tp812
atp813
a(L52L
g2
(lp814
(g151
F646.0
F646.0
tp815
atp816
a(L53L
g20
(lp817
(g280
F1193.0
F1193.0
tp818
atp819
a(L55L
g2
(lp820
(g213
F881.0
F881.0
tp821
atp822
a(L56L
g310
(lp823
(g268
F695.0
F773.0
tp824
a(g29
F773.0
F775.0
tp825
a(g93
F775.0
F880.0
tp826
a(g215
F880.0
F965.0
tp827
atp828
a(L59L
g27
(lp829
(g173
F344.0
F799.0
tp830
a(g175
F799.0
F1187.0
tp831
a(g253
F1187.0
F1193.0
tp832
atp833
a(L60L
g256
(lp834
(g31
F802.0
F806.0
tp835
a(g288
F945.0
F949.0
tp836
atp837
a(L61L
g2
(lp838
(g199
F823.0
F823.0
tp839
atp840
a(L62L
g2
(lp841
(g157
F998.0
F998.0
tp842
atp843
a(L63L
g2
(lp844
(g4
F743.0
F743.0
tp845
atp846
a(L64L
g20
(lp847
(g191
F591.0
F646.0
tp848
a(g292
F646.0
F689.0
tp849
a(g15
F689.0
F750.0
tp850
a(g193
F880.0
F945.0
tp851
a(g298
F994.0
F995.0
tp852
atp853
a(L65L
g2
(lp854
(g294
F822.0
F822.0
tp855
atp856
a(L67L
g2
(lp857
(g39
F755.0
F755.0
tp858
atp859
a(L69L
g13
(lp860
(g187
F1187.0
F1187.0
tp861
atp862
a(L70L
g127
(lp863
(g73
F1193.0
F1193.0
tp864
atp865
a(L72L
g20
(lp866
(g209
F455.0
F591.0
tp867
a(g217
F880.0
F944.0
tp868
a(g221
F944.0
F994.0
tp869
atp870
a(L77L
g2
(lp871
(g233
F851.0
F851.0
tp872
atp873
a(L79L
g256
(lp874
(g106
F624.0
F630.0
tp875
a(g167
F920.0
F923.0
tp876
atp877
a(L84L
g2
(lp878
(g124
F799.0
F799.0
tp879
atp880
a(L85L
g13
(lp881
(g116
F639.0
F639.0
tp882
atp883
a(L88L
g27
(lp884
(g102
F994.0
F1001.0
tp885
atp886
a(L89L
g98
(lp887
(g266
F471.0
F695.0
tp888
a(g203
F695.0
F698.0
tp889
a(g239
F698.0
F807.0
tp890
a(g276
F861.0
F865.0
tp891
atp892
a(L90L
g98
(lp893
(g159
F782.0
F928.0
tp894
atp895
a(L93L
g27
(lp896
(g272
F589.0
F802.0
tp897
atp898
a(L94L
g20
(lp899
(g145
F589.0
F636.0
tp900
a(g35
F812.0
F813.0
tp901
atp902
a(L96L
g27
(lp903
(g143
F591.0
F863.0
tp904
a(g139
F922.0
F932.0
tp905
atp906
a(L99L
g98
(lp907
(g79
F589.0
F750.0
tp908
a(g205
F750.0
F754.0
tp909
a(g286
F754.0
F823.0
tp910
a(g229
F928.0
F931.0
tp911
a(g183
F1001.0
F1003.0
tp912
atp913
a(L100L
g98
(lp914
(g241
F880.0
F1003.0
tp915
atp916
a(L101L
g2
(lp917
(g260
F739.0
F739.0
tp918
atp919
atp920
a(F1540.0
F5.79
(lp921
(L3L
g2
(lp922
(g124
F1301.0
F1301.0
tp923
atp924
a(L4L
g2
(lp925
(g183
F728.0
F728.0
tp926
atp927
a(L10L
g98
(lp928
(g191
F294.0
F412.0
tp929
a(g106
F648.0
F652.0
tp930
a(g203
F1204.0
F1207.0
tp931
a(g69
F1207.0
F1209.0
tp932
a(g157
F1209.0
F1213.0
tp933
a(g45
F1213.0
F1344.0
tp934
atp935
a(L12L
g2
(lp936
(g276
F1355.0
F1355.0
tp937
atp938
a(L15L
g27
(lp939
(g249
F840.0
F848.0
tp940
a(g24
F1003.0
F1012.0
tp941
a(g133
F1012.0
F1520.0
tp942
atp943
a(L19L
g2
(lp944
(g116
F614.0
F614.0
tp945
atp946
a(L24L
g98
(lp947
(g129
I0
F0.0
tp948
a(g209
I0
F294.0
tp949
a(g4
F602.0
F604.0
tp950
a(g79
F604.0
F765.0
tp951
a(g241
F880.0
F1003.0
tp952
a(g274
F1003.0
F1158.0
tp953
a(g229
F1158.0
F1161.0
tp954
atp955
a(L25L
g310
(lp956
(g155
F472.0
F880.0
tp957
atp958
a(L28L
g20
(lp959
(g131
F457.0
F668.0
tp960
atp961
a(L29L
g2
(lp962
(g65
F1220.0
F1220.0
tp963
a(g163
F1220.0
F1220.0
tp964
atp965
a(L30L
g256
(lp966
(g225
F695.0
F855.0
tp967
a(g35
F1344.0
F1347.0
tp968
a(g55
F1534.0
F1540.0
tp969
atp970
a(L31L
g2
(lp971
(g260
F826.0
F826.0
tp972
atp973
a(L34L
g2
(lp974
(g294
F765.0
F765.0
tp975
atp976
a(L36L
g13
(lp977
(g187
F797.0
F797.0
tp978
atp979
a(L38L
g27
(lp980
(g284
F310.0
F648.0
tp981
a(g258
F648.0
F826.0
tp982
a(g33
F826.0
F836.0
tp983
a(g253
F1097.0
F1103.0
tp984
a(g120
F1125.0
F1331.0
tp985
a(g53
F1331.0
F1534.0
tp986
atp987
a(L41L
g2
(lp988
(g61
F873.0
F873.0
tp989
atp990
a(L43L
g98
(lp991
(g175
F668.0
F797.0
tp992
a(g135
F797.0
F1125.0
tp993
atp994
a(L45L
g256
(lp995
(g227
F932.0
F937.0
tp996
a(g17
F937.0
F1073.0
tp997
a(g173
F1073.0
F1301.0
tp998
atp999
a(L46L
g2
(lp1000
(g151
F412.0
F412.0
tp1001
atp1002
a(L48L
g13
(lp1003
(g114
F294.0
F328.0
tp1004
a(g266
F471.0
F523.0
tp1005
a(g10
F523.0
F618.0
tp1006
atp1007
a(L50L
g310
(lp1008
(g143
F294.0
F362.0
tp1009
a(g171
F523.0
F602.0
tp1010
a(g29
F602.0
F604.0
tp1011
a(g83
F618.0
F728.0
tp1012
a(g47
F728.0
F828.0
tp1013
atp1014
a(L53L
g2
(lp1015
(g245
F1520.0
F1520.0
tp1016
atp1017
a(L54L
g127
(lp1018
(g268
F523.0
F562.0
tp1019
a(g270
F589.0
F614.0
tp1020
a(g217
F880.0
F932.0
tp1021
atp1022
a(L56L
g2
(lp1023
(g179
F855.0
F855.0
tp1024
atp1025
a(L57L
g27
(lp1026
(g215
F880.0
F1220.0
tp1027
atp1028
a(L61L
g2
(lp1029
(g167
F1331.0
F1331.0
tp1030
atp1031
a(L65L
g27
(lp1032
(g211
F523.0
F840.0
tp1033
a(g286
F840.0
F1046.0
tp1034
a(g51
F1125.0
F1355.0
tp1035
atp1036
a(L66L
g2
(lp1037
(g199
F1046.0
F1046.0
tp1038
atp1039
a(L69L
g13
(lp1040
(g57
F1534.0
F1534.0
tp1041
atp1042
a(L72L
g27
(lp1043
(g147
F639.0
F648.0
tp1044
a(g100
F695.0
F873.0
tp1045
a(g81
F873.0
F1339.0
tp1046
atp1047
a(L74L
g2
(lp1048
(g195
F741.0
F741.0
tp1049
atp1050
a(L75L
g27
(lp1051
(g213
F912.0
F923.0
tp1052
a(g292
F923.0
F1204.0
tp1053
atp1054
a(L76L
g13
(lp1055
(g43
F467.0
F589.0
tp1056
a(g77
F589.0
F695.0
tp1057
a(g15
F695.0
F726.0
tp1058
a(g8
F726.0
F765.0
tp1059
a(g95
F1125.0
F1148.0
tp1060
atp1061
a(L77L
g27
(lp1062
(g145
F589.0
F894.0
tp1063
a(g221
F1133.0
F1456.0
tp1064
atp1065
a(L79L
g20
(lp1066
(g118
F668.0
F741.0
tp1067
a(g288
F1020.0
F1021.0
tp1068
atp1069
a(L80L
g27
(lp1070
(g272
F589.0
F802.0
tp1071
a(g262
F1367.0
F1373.0
tp1072
atp1073
a(L83L
g2
(lp1074
(g39
F1339.0
F1339.0
tp1075
a(g102
F1339.0
F1339.0
tp1076
atp1077
a(L84L
g27
(lp1078
(g91
F294.0
F632.0
tp1079
a(g237
F632.0
F912.0
tp1080
a(g31
F912.0
F920.0
tp1081
a(g49
F920.0
F1367.0
tp1082
atp1083
a(L87L
g20
(lp1084
(g239
F589.0
F639.0
tp1085
atp1086
a(L88L
g98
(lp1087
(g22
F880.0
F959.0
tp1088
a(g219
F959.0
F1097.0
tp1089
a(g298
F1456.0
F1459.0
tp1090
atp1091
a(L89L
g13
(lp1092
(g87
F328.0
F328.0
tp1093
atp1094
a(L90L
g2
(lp1095
(g280
F1540.0
F1540.0
tp1096
atp1097
a(L91L
g98
(lp1098
(g110
F362.0
F365.0
tp1099
a(g93
F695.0
F835.0
tp1100
a(g193
F880.0
F1020.0
tp1101
a(g139
F1073.0
F1076.0
tp1102
a(g73
F1540.0
F1540.0
tp1103
atp1104
a(L97L
g256
(lp1105
(g233
F632.0
F637.0
tp1106
a(g63
F835.0
F839.0
tp1107
a(g296
F839.0
F843.0
tp1108
atp1109
a(L99L
g98
(lp1110
(g159
F618.0
F764.0
tp1111
atp1112
a(L100L
g98
(lp1113
(g205
F726.0
F730.0
tp1114
atp1115
atp1116
a(F1973.0
F4.53
(lp1117
(L3L
g2
(lp1118
(g124
F1767.0
F1767.0
tp1119
atp1120
a(L5L
g256
(lp1121
(g73
F1973.0
F1973.0
tp1122
atp1123
a(L9L
g2
(lp1124
(g179
F1214.0
F1214.0
tp1125
atp1126
a(L10L
g98
(lp1127
(g191
F294.0
F412.0
tp1128
a(g106
F648.0
F652.0
tp1129
a(g203
F1373.0
F1376.0
tp1130
a(g69
F1376.0
F1378.0
tp1131
a(g63
F1378.0
F1381.0
tp1132
a(g157
F1381.0
F1385.0
tp1133
a(g45
F1385.0
F1516.0
tp1134
atp1135
a(L12L
g2
(lp1136
(g276
F1809.0
F1809.0
tp1137
atp1138
a(L15L
g27
(lp1139
(g249
F1012.0
F1020.0
tp1140
a(g237
F1020.0
F1300.0
tp1141
a(g24
F1300.0
F1309.0
tp1142
a(g133
F1309.0
F1817.0
tp1143
atp1144
a(L19L
g2
(lp1145
(g116
F790.0
F790.0
tp1146
atp1147
a(L20L
g256
(lp1148
(g195
F1770.0
F1775.0
tp1149
atp1150
a(L21L
g127
(lp1151
(g77
F483.0
F655.0
tp1152
atp1153
a(L23L
g2
(lp1154
(g163
F1602.0
F1602.0
tp1155
atp1156
a(L24L
g98
(lp1157
(g129
I0
F0.0
tp1158
a(g209
I0
F294.0
tp1159
a(g4
F1009.0
F1011.0
tp1160
a(g79
F1011.0
F1172.0
tp1161
a(g241
F1172.0
F1295.0
tp1162
a(g274
F1295.0
F1450.0
tp1163
a(g229
F1450.0
F1453.0
tp1164
a(g83
F1453.0
F1599.0
tp1165
atp1166
a(L25L
g310
(lp1167
(g155
F472.0
F880.0
tp1168
atp1169
a(L29L
g2
(lp1170
(g65
F1458.0
F1458.0
tp1171
atp1172
a(L31L
g2
(lp1173
(g260
F873.0
F873.0
tp1174
atp1175
a(L33L
g2
(lp1176
(g33
F1172.0
F1172.0
tp1177
atp1178
a(L36L
g13
(lp1179
(g187
F728.0
F728.0
tp1180
atp1181
a(L38L
g27
(lp1182
(g258
F695.0
F873.0
tp1183
a(g120
F1579.0
F1785.0
tp1184
atp1185
a(L43L
g20
(lp1186
(g131
F457.0
F668.0
tp1187
a(g175
F668.0
F728.0
tp1188
atp1189
a(L45L
g27
(lp1190
(g284
F310.0
F648.0
tp1191
a(g227
F1294.0
F1303.0
tp1192
a(g294
F1303.0
F1312.0
tp1193
a(g173
F1312.0
F1767.0
tp1194
a(g253
F1767.0
F1773.0
tp1195
atp1196
a(L46L
g2
(lp1197
(g151
F412.0
F412.0
tp1198
atp1199
a(L48L
g98
(lp1200
(g114
F294.0
F441.0
tp1201
a(g266
F471.0
F695.0
tp1202
a(g10
F695.0
F1107.0
tp1203
a(g159
F1107.0
F1253.0
tp1204
atp1205
a(L49L
g13
(lp1206
(g35
F1516.0
F1516.0
tp1207
atp1208
a(L50L
g27
(lp1209
(g143
F294.0
F566.0
tp1210
a(g171
F695.0
F1009.0
tp1211
a(g268
F1009.0
F1319.0
tp1212
a(g29
F1319.0
F1328.0
tp1213
atp1214
a(L53L
g27
(lp1215
(g296
F1238.0
F1246.0
tp1216
a(g245
F1817.0
F1826.0
tp1217
atp1218
a(L54L
g27
(lp1219
(g270
F589.0
F790.0
tp1220
a(g217
F880.0
F1294.0
tp1221
a(g118
F1294.0
F1770.0
tp1222
a(g53
F1770.0
F1973.0
tp1223
atp1224
a(L55L
g27
(lp1225
(g183
F1599.0
F1604.0
tp1226
atp1227
a(L61L
g2
(lp1228
(g167
F1785.0
F1785.0
tp1229
atp1230
a(L65L
g27
(lp1231
(g211
F695.0
F1012.0
tp1232
a(g286
F1012.0
F1218.0
tp1233
a(g51
F1579.0
F1809.0
tp1234
atp1235
a(L66L
g2
(lp1236
(g199
F1218.0
F1218.0
tp1237
atp1238
a(L69L
g13
(lp1239
(g57
F1973.0
F1973.0
tp1240
atp1241
a(L72L
g27
(lp1242
(g147
F915.0
F924.0
tp1243
a(g100
F924.0
F1102.0
tp1244
a(g205
F1102.0
F1113.0
tp1245
a(g81
F1113.0
F1579.0
tp1246
atp1247
a(L75L
g310
(lp1248
(g213
F1300.0
F1303.0
tp1249
a(g292
F1303.0
F1373.0
tp1250
a(g215
F1373.0
F1458.0
tp1251
a(g262
F1458.0
F1459.0
tp1252
atp1253
a(L76L
g13
(lp1254
(g43
F467.0
F589.0
tp1255
a(g15
F655.0
F686.0
tp1256
a(g8
F686.0
F725.0
tp1257
a(g95
F1579.0
F1602.0
tp1258
atp1259
a(L77L
g27
(lp1260
(g145
F589.0
F894.0
tp1261
a(g225
F894.0
F1214.0
tp1262
a(g221
F1587.0
F1910.0
tp1263
atp1264
a(L80L
g27
(lp1265
(g17
F880.0
F1152.0
tp1266
a(g288
F1753.0
F1761.0
tp1267
atp1268
a(L83L
g2
(lp1269
(g39
F1579.0
F1579.0
tp1270
a(g102
F1579.0
F1579.0
tp1271
atp1272
a(L84L
g27
(lp1273
(g91
F294.0
F632.0
tp1274
a(g272
F632.0
F845.0
tp1275
a(g31
F845.0
F853.0
tp1276
a(g49
F853.0
F1300.0
tp1277
atp1278
a(L88L
g98
(lp1279
(g22
F880.0
F959.0
tp1280
a(g219
F1113.0
F1251.0
tp1281
a(g135
F1251.0
F1579.0
tp1282
a(g298
F1910.0
F1913.0
tp1283
atp1284
a(L89L
g13
(lp1285
(g87
F441.0
F441.0
tp1286
atp1287
a(L90L
g2
(lp1288
(g280
F1973.0
F1973.0
tp1289
atp1290
a(L91L
g27
(lp1291
(g110
F566.0
F576.0
tp1292
a(g239
F589.0
F915.0
tp1293
a(g93
F915.0
F1334.0
tp1294
a(g193
F1334.0
F1753.0
tp1295
a(g139
F1753.0
F1763.0
tp1296
atp1297
a(L93L
g98
(lp1298
(g61
F1102.0
F1105.0
tp1299
a(g47
F1105.0
F1238.0
tp1300
atp1301
a(L96L
g2
(lp1302
(g55
F1973.0
F1973.0
tp1303
atp1304
a(L97L
g310
(lp1305
(g233
F632.0
F635.0
tp1306
atp1307
atp1308
a(F2019.0
F3.26
(lp1309
(L3L
g2
(lp1310
(g124
F1767.0
F1767.0
tp1311
atp1312
a(L5L
g310
(lp1313
(g73
F2019.0
F2019.0
tp1314
atp1315
a(L9L
g2
(lp1316
(g179
F1491.0
F1491.0
tp1317
atp1318
a(L10L
g27
(lp1319
(g191
F294.0
F649.0
tp1320
a(g106
F649.0
F661.0
tp1321
a(g203
F1592.0
F1602.0
tp1322
a(g69
F1602.0
F1608.0
tp1323
a(g63
F1608.0
F1616.0
tp1324
a(g157
F1616.0
F1627.0
tp1325
a(g45
F1627.0
F2019.0
tp1326
atp1327
a(L12L
g2
(lp1328
(g276
F1809.0
F1809.0
tp1329
atp1330
a(L15L
g27
(lp1331
(g249
F1012.0
F1020.0
tp1332
a(g237
F1020.0
F1300.0
tp1333
a(g24
F1300.0
F1309.0
tp1334
a(g133
F1309.0
F1817.0
tp1335
atp1336
a(L19L
g2
(lp1337
(g116
F790.0
F790.0
tp1338
atp1339
a(L20L
g2
(lp1340
(g195
F1770.0
F1770.0
tp1341
atp1342
a(L21L
g256
(lp1343
(g77
F483.0
F1171.0
tp1344
atp1345
a(L23L
g2
(lp1346
(g163
F1602.0
F1602.0
tp1347
atp1348
a(L24L
g98
(lp1349
(g129
I0
F0.0
tp1350
a(g209
I0
F294.0
tp1351
a(g4
F1009.0
F1011.0
tp1352
a(g79
F1011.0
F1172.0
tp1353
a(g241
F1172.0
F1295.0
tp1354
a(g274
F1295.0
F1450.0
tp1355
a(g229
F1450.0
F1453.0
tp1356
a(g83
F1453.0
F1599.0
tp1357
atp1358
a(L25L
g310
(lp1359
(g155
F472.0
F880.0
tp1360
atp1361
a(L29L
g2
(lp1362
(g65
F1932.0
F1932.0
tp1363
atp1364
a(L31L
g2
(lp1365
(g260
F873.0
F873.0
tp1366
atp1367
a(L33L
g2
(lp1368
(g33
F1172.0
F1172.0
tp1369
atp1370
a(L36L
g2
(lp1371
(g187
F728.0
F728.0
tp1372
atp1373
a(L38L
g27
(lp1374
(g258
F695.0
F873.0
tp1375
a(g120
F1579.0
F1785.0
tp1376
atp1377
a(L43L
g20
(lp1378
(g131
F457.0
F668.0
tp1379
a(g175
F668.0
F728.0
tp1380
atp1381
a(L45L
g27
(lp1382
(g284
F310.0
F648.0
tp1383
a(g227
F1294.0
F1303.0
tp1384
a(g294
F1303.0
F1312.0
tp1385
a(g173
F1312.0
F1767.0
tp1386
a(g253
F1767.0
F1773.0
tp1387
atp1388
a(L46L
g2
(lp1389
(g151
F649.0
F649.0
tp1390
atp1391
a(L48L
g98
(lp1392
(g114
F294.0
F441.0
tp1393
a(g266
F471.0
F695.0
tp1394
a(g10
F695.0
F1107.0
tp1395
a(g159
F1107.0
F1253.0
tp1396
atp1397
a(L49L
g13
(lp1398
(g35
F2019.0
F2019.0
tp1399
atp1400
a(L50L
g27
(lp1401
(g143
F294.0
F566.0
tp1402
a(g171
F695.0
F1009.0
tp1403
a(g268
F1009.0
F1319.0
tp1404
a(g29
F1319.0
F1328.0
tp1405
atp1406
a(L53L
g27
(lp1407
(g296
F1485.0
F1493.0
tp1408
a(g245
F1817.0
F1826.0
tp1409
atp1410
a(L54L
g27
(lp1411
(g270
F589.0
F790.0
tp1412
a(g217
F880.0
F1294.0
tp1413
a(g118
F1294.0
F1770.0
tp1414
a(g53
F1770.0
F1973.0
tp1415
atp1416
a(L55L
g27
(lp1417
(g183
F1599.0
F1604.0
tp1418
atp1419
a(L61L
g2
(lp1420
(g167
F1785.0
F1785.0
tp1421
atp1422
a(L65L
g27
(lp1423
(g211
F695.0
F1012.0
tp1424
a(g286
F1179.0
F1385.0
tp1425
a(g51
F1579.0
F1809.0
tp1426
atp1427
a(L66L
g2
(lp1428
(g199
F1385.0
F1385.0
tp1429
atp1430
a(L69L
g13
(lp1431
(g57
F2019.0
F2019.0
tp1432
atp1433
a(L72L
g27
(lp1434
(g233
F632.0
F643.0
tp1435
a(g147
F915.0
F924.0
tp1436
a(g100
F1171.0
F1349.0
tp1437
a(g205
F1349.0
F1360.0
tp1438
a(g81
F1360.0
F1826.0
tp1439
atp1440
a(L75L
g27
(lp1441
(g213
F1300.0
F1311.0
tp1442
a(g292
F1311.0
F1592.0
tp1443
a(g215
F1592.0
F1932.0
tp1444
a(g262
F1932.0
F1938.0
tp1445
atp1446
a(L76L
g13
(lp1447
(g43
F467.0
F589.0
tp1448
a(g15
F1171.0
F1202.0
tp1449
a(g8
F1202.0
F1241.0
tp1450
a(g95
F1579.0
F1602.0
tp1451
atp1452
a(L77L
g27
(lp1453
(g145
F589.0
F894.0
tp1454
a(g225
F1171.0
F1491.0
tp1455
a(g221
F1587.0
F1910.0
tp1456
atp1457
a(L80L
g27
(lp1458
(g17
F880.0
F1152.0
tp1459
a(g288
F2009.0
F2017.0
tp1460
atp1461
a(L83L
g2
(lp1462
(g39
F1826.0
F1826.0
tp1463
a(g102
F1826.0
F1826.0
tp1464
atp1465
a(L84L
g27
(lp1466
(g91
F294.0
F632.0
tp1467
a(g272
F632.0
F845.0
tp1468
a(g31
F845.0
F853.0
tp1469
a(g49
F853.0
F1300.0
tp1470
atp1471
a(L88L
g98
(lp1472
(g22
F880.0
F959.0
tp1473
a(g219
F1113.0
F1251.0
tp1474
a(g135
F1251.0
F1579.0
tp1475
a(g298
F1910.0
F1913.0
tp1476
atp1477
a(L89L
g13
(lp1478
(g87
F441.0
F441.0
tp1479
atp1480
a(L90L
g2
(lp1481
(g280
F2019.0
F2019.0
tp1482
atp1483
a(L91L
g27
(lp1484
(g110
F566.0
F576.0
tp1485
a(g239
F589.0
F915.0
tp1486
a(g93
F1171.0
F1590.0
tp1487
a(g193
F1590.0
F2009.0
tp1488
a(g139
F2009.0
F2019.0
tp1489
atp1490
a(L93L
g98
(lp1491
(g61
F1349.0
F1352.0
tp1492
a(g47
F1352.0
F1485.0
tp1493
atp1494
a(L96L
g2
(lp1495
(g55
F1973.0
F1973.0
tp1496
atp1497
atp1498
a(F2869.0
F1.75
(lp1499
(L3L
g2
(lp1500
(g124
F2816.0
F2816.0
tp1501
atp1502
a(L4L
g13
(lp1503
(g183
F2088.0
F2088.0
tp1504
atp1505
a(L9L
g2
(lp1506
(g179
F1563.0
F1563.0
tp1507
atp1508
a(L10L
g27
(lp1509
(g191
F294.0
F649.0
tp1510
a(g106
F649.0
F661.0
tp1511
a(g203
F1592.0
F1602.0
tp1512
a(g69
F1602.0
F1608.0
tp1513
a(g63
F1875.0
F1883.0
tp1514
a(g157
F1883.0
F1894.0
tp1515
a(g45
F1894.0
F2286.0
tp1516
atp1517
a(L12L
g2
(lp1518
(g276
F2352.0
F2352.0
tp1519
atp1520
a(L15L
g27
(lp1521
(g249
F1012.0
F1020.0
tp1522
a(g237
F1020.0
F1300.0
tp1523
a(g24
F1686.0
F1695.0
tp1524
a(g133
F2361.0
F2869.0
tp1525
atp1526
a(L19L
g2
(lp1527
(g116
F1199.0
F1199.0
tp1528
atp1529
a(L24L
g98
(lp1530
(g129
I0
F0.0
tp1531
a(g209
I0
F294.0
tp1532
a(g4
F1009.0
F1011.0
tp1533
a(g79
F1011.0
F1172.0
tp1534
a(g225
F1456.0
F1563.0
tp1535
a(g241
F1563.0
F1686.0
tp1536
a(g274
F1686.0
F1841.0
tp1537
a(g229
F1841.0
F1844.0
tp1538
atp1539
a(L29L
g2
(lp1540
(g65
F1932.0
F1932.0
tp1541
atp1542
a(L31L
g2
(lp1543
(g260
F873.0
F873.0
tp1544
atp1545
a(L34L
g2
(lp1546
(g294
F2531.0
F2531.0
tp1547
atp1548
a(L36L
g2
(lp1549
(g187
F2749.0
F2749.0
tp1550
atp1551
a(L38L
g27
(lp1552
(g258
F695.0
F873.0
tp1553
a(g33
F1172.0
F1182.0
tp1554
a(g120
F2122.0
F2328.0
tp1555
a(g53
F2328.0
F2531.0
tp1556
atp1557
a(L41L
g2
(lp1558
(g61
F1634.0
F1634.0
tp1559
atp1560
a(L43L
g27
(lp1561
(g131
F989.0
F2361.0
tp1562
a(g175
F2361.0
F2749.0
tp1563
atp1564
a(L45L
g27
(lp1565
(g284
F310.0
F648.0
tp1566
a(g227
F1652.0
F1661.0
tp1567
a(g173
F2361.0
F2816.0
tp1568
a(g253
F2816.0
F2822.0
tp1569
atp1570
a(L46L
g2
(lp1571
(g151
F649.0
F649.0
tp1572
atp1573
a(L48L
g98
(lp1574
(g114
F294.0
F441.0
tp1575
a(g266
F471.0
F695.0
tp1576
a(g155
F695.0
F1238.0
tp1577
a(g10
F1238.0
F1650.0
tp1578
a(g159
F1650.0
F1796.0
tp1579
atp1580
a(L49L
g13
(lp1581
(g35
F2286.0
F2286.0
tp1582
atp1583
a(L50L
g27
(lp1584
(g143
F294.0
F566.0
tp1585
a(g171
F695.0
F1009.0
tp1586
a(g268
F1009.0
F1319.0
tp1587
a(g29
F1319.0
F1328.0
tp1588
a(g83
F1650.0
F2088.0
tp1589
a(g47
F2367.0
F2765.0
tp1590
a(g55
F2765.0
F2777.0
tp1591
atp1592
a(L53L
g2
(lp1593
(g245
F2869.0
F2869.0
tp1594
atp1595
a(L54L
g27
(lp1596
(g270
F998.0
F1199.0
tp1597
a(g217
F1238.0
F1652.0
tp1598
a(g118
F2361.0
F2837.0
tp1599
atp1600
a(L61L
g2
(lp1601
(g167
F2328.0
F2328.0
tp1602
atp1603
a(L65L
g27
(lp1604
(g211
F695.0
F1012.0
tp1605
a(g286
F1464.0
F1670.0
tp1606
a(g51
F2122.0
F2352.0
tp1607
atp1608
a(L66L
g2
(lp1609
(g199
F1670.0
F1670.0
tp1610
atp1611
a(L68L
g2
(lp1612
(g73
F2869.0
F2869.0
tp1613
atp1614
a(L69L
g13
(lp1615
(g57
F2869.0
F2869.0
tp1616
atp1617
a(L72L
g27
(lp1618
(g233
F632.0
F643.0
tp1619
a(g147
F1324.0
F1333.0
tp1620
a(g100
F1456.0
F1634.0
tp1621
a(g205
F1634.0
F1645.0
tp1622
a(g81
F1645.0
F2111.0
tp1623
atp1624
a(L74L
g2
(lp1625
(g195
F2837.0
F2837.0
tp1626
atp1627
a(L75L
g27
(lp1628
(g213
F1300.0
F1311.0
tp1629
a(g292
F1311.0
F1592.0
tp1630
a(g215
F1592.0
F1932.0
tp1631
a(g262
F2808.0
F2814.0
tp1632
atp1633
a(L76L
g98
(lp1634
(g43
F467.0
F998.0
tp1635
a(g77
F998.0
F1456.0
tp1636
a(g15
F1456.0
F1589.0
tp1637
a(g8
F2361.0
F2531.0
tp1638
a(g95
F2531.0
F2631.0
tp1639
atp1640
a(L77L
g27
(lp1641
(g145
F998.0
F1303.0
tp1642
a(g221
F2130.0
F2453.0
tp1643
atp1644
a(L80L
g27
(lp1645
(g288
F2294.0
F2302.0
tp1646
a(g163
F2631.0
F2643.0
tp1647
atp1648
a(L83L
g2
(lp1649
(g39
F2111.0
F2111.0
tp1650
a(g102
F2111.0
F2111.0
tp1651
atp1652
a(L84L
g27
(lp1653
(g91
F294.0
F632.0
tp1654
a(g272
F998.0
F1211.0
tp1655
a(g31
F1211.0
F1219.0
tp1656
a(g49
F2361.0
F2808.0
tp1657
atp1658
a(L88L
g98
(lp1659
(g22
F1238.0
F1317.0
tp1660
a(g17
F1317.0
F1408.0
tp1661
a(g219
F1656.0
F1794.0
tp1662
a(g135
F1794.0
F2122.0
tp1663
a(g298
F2453.0
F2456.0
tp1664
atp1665
a(L89L
g13
(lp1666
(g87
F441.0
F441.0
tp1667
atp1668
a(L90L
g2
(lp1669
(g280
F2869.0
F2869.0
tp1670
atp1671
a(L91L
g27
(lp1672
(g110
F566.0
F576.0
tp1673
a(g239
F998.0
F1324.0
tp1674
a(g93
F1456.0
F1875.0
tp1675
a(g193
F1875.0
F2294.0
tp1676
a(g139
F2294.0
F2304.0
tp1677
atp1678
a(L97L
g2
(lp1679
(g296
F2765.0
F2765.0
tp1680
atp1681
atp1682
a.