(lp0
(F9192.0
F59.22
(lp1
(L2L
Vapac-sin#m3.2xlarge
p2
(lp3
(VID00092
p4
F11.0
F4975.0
tp5
atp6
a(L4L
g2
(lp7
(VID00060
p8
F11.0
F11.0
tp9
a(VID00016
p10
F11.0
F11.0
tp11
a(VID00014
p12
F11.0
F11.0
tp13
a(VID00067
p14
F11.0
F11.0
tp15
atp16
a(L6L
g2
(lp17
(VID00072
p18
F11.0
F11.0
tp19
a(VID00013
p20
F11.0
F11.0
tp21
atp22
a(L8L
g2
(lp23
(VID00045
p24
F12.0
F12.0
tp25
a(VID00051
p26
F12.0
F12.0
tp27
atp28
a(L9L
Vapac-sin#m3.xlarge
p29
(lp30
(VID00059
p31
F11.0
F11.0
tp32
atp33
a(L11L
g2
(lp34
(VID00010
p35
F11.0
F11.0
tp36
a(VID00041
p37
F11.0
F11.0
tp38
atp39
a(L13L
g2
(lp40
(VID00017
p41
F11.0
F11.0
tp42
atp43
a(L14L
g29
(lp44
(VID00044
p45
F11.0
F11.0
tp46
atp47
a(L16L
g2
(lp48
(VID00003
p49
F11.0
F11.0
tp50
a(VID00038
p51
F11.0
F11.0
tp52
atp53
a(L17L
g2
(lp54
(VID00047
p55
F11.0
F11.0
tp56
a(VID00087
p57
F12.0
F4222.0
tp58
atp59
a(L18L
g2
(lp60
(VID00090
p61
F11.0
F4362.0
tp62
atp63
a(L19L
g2
(lp64
(VID00074
p65
F11.0
F5101.0
tp66
atp67
a(L22L
g29
(lp68
(VID00032
p69
F11.0
F11.0
tp70
atp71
a(L23L
g2
(lp72
(VID00053
p73
F11.0
F11.0
tp74
a(VID00002
p75
F11.0
F11.0
tp76
a(VID00037
p77
F11.0
F11.0
tp78
a(VID00042
p79
F11.0
F11.0
tp80
atp81
a(L24L
g2
(lp82
(VID00006
p83
F11.0
F11.0
tp84
a(VID00071
p85
F11.0
F11.0
tp86
a(VID00012
p87
F11.0
F11.0
tp88
a(VID00083
p89
F11.0
F4168.0
tp90
atp91
a(L25L
Vapac-sin#m1.xlarge
p92
(lp93
(VID00098
p94
F7267.0
F7267.0
tp95
atp96
a(L28L
g2
(lp97
(VID00064
p98
F11.0
F11.0
tp99
atp100
a(L29L
g92
(lp101
(VID00036
p102
F11.0
F11.0
tp103
atp104
a(L30L
Vapac-sin#m3.large
p105
(lp106
(VID00026
p107
F11.0
F11.0
tp108
atp109
a(L34L
g2
(lp110
(VID00063
p111
F12.0
F12.0
tp112
atp113
a(L35L
g29
(lp114
(VID00070
p115
F11.0
F11.0
tp116
a(VID00024
p117
F11.0
F11.0
tp118
atp119
a(L37L
g2
(lp120
(VID00033
p121
F12.0
F12.0
tp122
atp123
a(L38L
g2
(lp124
(VID00046
p125
F11.0
F11.0
tp126
a(VID00031
p127
F11.0
F11.0
tp128
a(VID00009
p129
F11.0
F12.0
tp130
a(VID00093
p131
F13.0
F4786.0
tp132
atp133
a(L39L
g2
(lp134
(VID00081
p135
F12.0
F4123.0
tp136
atp137
a(L41L
g2
(lp138
(VID00077
p139
F11.0
F6272.0
tp140
atp141
a(L43L
g2
(lp142
(VID00030
p143
F11.0
F11.0
tp144
a(VID00079
p145
F11.0
F7264.0
tp146
a(VID00097
p147
F7264.0
F7267.0
tp148
a(VID00099
p149
F7267.0
F9192.0
tp150
atp151
a(L46L
g2
(lp152
(VID00080
p153
F11.0
F5585.0
tp154
atp155
a(L48L
g2
(lp156
(VID00019
p157
F11.0
F11.0
tp158
atp159
a(L49L
g92
(lp160
(S'exit'
p161
F9192.0
F9192.0
tp162
atp163
a(L50L
g29
(lp164
(VID00062
p165
F11.0
F11.0
tp166
atp167
a(L51L
g2
(lp168
(VID00001
p169
F11.0
F11.0
tp170
a(VID00096
p171
F40.0
F4040.0
tp172
a(VID00088
p173
F4040.0
F7190.0
tp174
atp175
a(L52L
g2
(lp176
(VID00040
p177
F11.0
F11.0
tp178
a(VID00089
p179
F11.0
F6577.0
tp180
atp181
a(L58L
g2
(lp182
(VID00023
p183
F11.0
F11.0
tp184
a(VID00034
p185
F11.0
F11.0
tp186
atp187
a(L59L
g2
(lp188
(VID00052
p189
F11.0
F11.0
tp190
atp191
a(L61L
g29
(lp192
(VID00025
p193
F11.0
F11.0
tp194
a(VID00055
p195
F11.0
F11.0
tp196
a(VID00050
p197
F11.0
F11.0
tp198
a(VID00084
p199
F11.0
F7121.0
tp200
atp201
a(L63L
g29
(lp202
(VID00007
p203
F11.0
F11.0
tp204
atp205
a(L64L
g2
(lp206
(VID00039
p207
F12.0
F12.0
tp208
atp209
a(L66L
Vapac-sin#m1.large
p210
(lp211
(VID00061
p212
F11.0
F11.0
tp213
atp214
a(L67L
g2
(lp215
(VID00094
p216
F11.0
F7228.0
tp217
atp218
a(L69L
g2
(lp219
(VID00078
p220
F11.0
F4524.0
tp221
atp222
a(L70L
g2
(lp223
(VID00073
p224
F11.0
F4052.0
tp225
atp226
a(L71L
g92
(lp227
(VID00048
p228
F11.0
F11.0
tp229
atp230
a(L72L
g2
(lp231
(S'entry'
p232
I0
F0.0
tp233
a(VID00000
p234
I0
F11.0
tp235
a(VID00020
p236
F11.0
F11.0
tp237
a(VID00086
p238
F11.0
F5964.0
tp239
atp240
a(L74L
g2
(lp241
(VID00075
p242
F12.0
F6150.0
tp243
atp244
a(L75L
g92
(lp245
(VID00035
p246
F11.0
F11.0
tp247
a(VID00043
p248
F11.0
F11.0
tp249
atp250
a(L77L
g2
(lp251
(VID00021
p252
F11.0
F12.0
tp253
a(VID00069
p254
F12.0
F13.0
tp255
a(VID00076
p256
F13.0
F5569.0
tp257
atp258
a(L80L
g2
(lp259
(VID00022
p260
F11.0
F11.0
tp261
a(VID00054
p262
F11.0
F11.0
tp263
a(VID00085
p264
F11.0
F4377.0
tp265
atp266
a(L82L
g2
(lp267
(VID00068
p268
F11.0
F11.0
tp269
a(VID00005
p270
F11.0
F11.0
tp271
a(VID00018
p272
F11.0
F11.0
tp273
atp274
a(L85L
g2
(lp275
(VID00015
p276
F11.0
F12.0
tp277
a(VID00091
p278
F12.0
F5396.0
tp279
atp280
a(L86L
g29
(lp281
(VID00066
p282
F11.0
F11.0
tp283
atp284
a(L87L
g2
(lp285
(VID00095
p286
F11.0
F4885.0
tp287
atp288
a(L88L
g2
(lp289
(VID00057
p290
F12.0
F12.0
tp291
a(VID00082
p292
F12.0
F6121.0
tp293
atp294
a(L91L
g29
(lp295
(VID00028
p296
F11.0
F11.0
tp297
a(VID00029
p298
F11.0
F11.0
tp299
atp300
a(L93L
g2
(lp301
(VID00008
p302
F11.0
F11.0
tp303
a(VID00011
p304
F11.0
F11.0
tp305
atp306
a(L97L
g2
(lp307
(VID00049
p308
F11.0
F11.0
tp309
a(VID00004
p310
F11.0
F11.0
tp311
a(VID00027
p312
F11.0
F11.0
tp313
a(VID00056
p314
F11.0
F11.0
tp315
atp316
a(L98L
g29
(lp317
(VID00065
p318
F11.0
F11.0
tp319
atp320
a(L100L
g2
(lp321
(VID00058
p322
F11.0
F11.0
tp323
atp324
atp325
a(F10020.0
F58.59
(lp326
(L2L
g2
(lp327
(g4
F11.0
F4975.0
tp328
atp329
a(L4L
g2
(lp330
(g8
F11.0
F11.0
tp331
a(g10
F11.0
F11.0
tp332
a(g12
F11.0
F11.0
tp333
a(g14
F11.0
F11.0
tp334
atp335
a(L6L
g2
(lp336
(g18
F11.0
F11.0
tp337
a(g20
F11.0
F11.0
tp338
atp339
a(L8L
g2
(lp340
(g24
F12.0
F12.0
tp341
a(g26
F12.0
F12.0
tp342
atp343
a(L9L
g29
(lp344
(g31
F11.0
F11.0
tp345
atp346
a(L11L
g2
(lp347
(g35
F11.0
F11.0
tp348
a(g37
F11.0
F11.0
tp349
atp350
a(L13L
g2
(lp351
(g41
F11.0
F11.0
tp352
atp353
a(L14L
g29
(lp354
(g45
F11.0
F11.0
tp355
atp356
a(L16L
g2
(lp357
(g49
F11.0
F11.0
tp358
a(g51
F11.0
F11.0
tp359
atp360
a(L17L
g2
(lp361
(g55
F11.0
F11.0
tp362
a(g57
F12.0
F4222.0
tp363
atp364
a(L18L
g2
(lp365
(g61
F11.0
F4362.0
tp366
atp367
a(L19L
g2
(lp368
(g65
F11.0
F5101.0
tp369
atp370
a(L22L
g29
(lp371
(g69
F11.0
F11.0
tp372
atp373
a(L23L
g2
(lp374
(g73
F11.0
F11.0
tp375
a(g75
F11.0
F11.0
tp376
a(g77
F11.0
F11.0
tp377
a(g79
F11.0
F11.0
tp378
atp379
a(L24L
g2
(lp380
(g83
F11.0
F11.0
tp381
a(g85
F11.0
F11.0
tp382
a(g87
F11.0
F11.0
tp383
a(g89
F11.0
F4168.0
tp384
atp385
a(L25L
g92
(lp386
(g94
F8095.0
F8095.0
tp387
atp388
a(L28L
g2
(lp389
(g98
F11.0
F11.0
tp390
atp391
a(L29L
g92
(lp392
(g102
F11.0
F11.0
tp393
atp394
a(L30L
g105
(lp395
(g107
F11.0
F11.0
tp396
atp397
a(L34L
g2
(lp398
(g111
F12.0
F12.0
tp399
atp400
a(L35L
g29
(lp401
(g115
F11.0
F11.0
tp402
a(g117
F11.0
F11.0
tp403
atp404
a(L37L
g2
(lp405
(g121
F12.0
F12.0
tp406
atp407
a(L38L
g2
(lp408
(g125
F11.0
F11.0
tp409
a(g127
F11.0
F11.0
tp410
a(g129
F11.0
F12.0
tp411
a(g131
F13.0
F4786.0
tp412
atp413
a(L39L
g2
(lp414
(g135
F12.0
F4123.0
tp415
atp416
a(L41L
g2
(lp417
(g139
F11.0
F6272.0
tp418
atp419
a(L43L
g2
(lp420
(g143
F11.0
F11.0
tp421
a(g145
F11.0
F7264.0
tp422
a(g147
F8092.0
F8095.0
tp423
a(g149
F8095.0
F10020.0
tp424
atp425
a(L46L
g2
(lp426
(g153
F11.0
F5585.0
tp427
atp428
a(L48L
g2
(lp429
(g157
F11.0
F11.0
tp430
atp431
a(L49L
g92
(lp432
(g161
F10020.0
F10020.0
tp433
atp434
a(L50L
g29
(lp435
(g165
F11.0
F11.0
tp436
atp437
a(L51L
g2
(lp438
(g169
F11.0
F11.0
tp439
a(g171
F40.0
F4040.0
tp440
a(g173
F4040.0
F7190.0
tp441
atp442
a(L52L
g2
(lp443
(g177
F11.0
F11.0
tp444
a(g179
F11.0
F6577.0
tp445
atp446
a(L58L
g2
(lp447
(g183
F11.0
F11.0
tp448
a(g185
F11.0
F11.0
tp449
atp450
a(L59L
g2
(lp451
(g189
F11.0
F11.0
tp452
atp453
a(L61L
g29
(lp454
(g193
F11.0
F11.0
tp455
a(g197
F11.0
F11.0
tp456
a(g199
F11.0
F7121.0
tp457
atp458
a(L63L
g29
(lp459
(g203
F11.0
F11.0
tp460
atp461
a(L64L
g2
(lp462
(g207
F12.0
F12.0
tp463
atp464
a(L66L
g210
(lp465
(g212
F11.0
F11.0
tp466
atp467
a(L67L
g2
(lp468
(g195
F11.0
F11.0
tp469
a(g216
F11.0
F7228.0
tp470
atp471
a(L69L
g2
(lp472
(g220
F11.0
F4524.0
tp473
atp474
a(L70L
g29
(lp475
(g224
F11.0
F8092.0
tp476
atp477
a(L71L
g92
(lp478
(g228
F11.0
F11.0
tp479
atp480
a(L72L
g2
(lp481
(g232
I0
F0.0
tp482
a(g234
I0
F11.0
tp483
a(g236
F11.0
F11.0
tp484
a(g238
F11.0
F5964.0
tp485
atp486
a(L74L
g2
(lp487
(g242
F12.0
F6150.0
tp488
atp489
a(L75L
g92
(lp490
(g246
F11.0
F11.0
tp491
a(g248
F11.0
F11.0
tp492
atp493
a(L77L
g2
(lp494
(g252
F11.0
F12.0
tp495
a(g254
F12.0
F13.0
tp496
a(g256
F13.0
F5569.0
tp497
atp498
a(L80L
g2
(lp499
(g260
F11.0
F11.0
tp500
a(g262
F11.0
F11.0
tp501
a(g264
F11.0
F4377.0
tp502
atp503
a(L82L
g2
(lp504
(g268
F11.0
F11.0
tp505
a(g270
F11.0
F11.0
tp506
a(g272
F11.0
F11.0
tp507
atp508
a(L85L
g2
(lp509
(g276
F11.0
F12.0
tp510
a(g278
F12.0
F5396.0
tp511
atp512
a(L86L
g29
(lp513
(g282
F11.0
F11.0
tp514
atp515
a(L87L
g2
(lp516
(g286
F11.0
F4885.0
tp517
atp518
a(L88L
g2
(lp519
(g290
F12.0
F12.0
tp520
a(g292
F12.0
F6121.0
tp521
atp522
a(L91L
g29
(lp523
(g296
F11.0
F11.0
tp524
a(g298
F11.0
F11.0
tp525
atp526
a(L93L
g2
(lp527
(g302
F11.0
F11.0
tp528
a(g304
F11.0
F11.0
tp529
atp530
a(L97L
g2
(lp531
(g308
F11.0
F11.0
tp532
a(g310
F11.0
F11.0
tp533
a(g312
F11.0
F11.0
tp534
a(g314
F11.0
F11.0
tp535
atp536
a(L98L
g2
(lp537
(g318
F11.0
F11.0
tp538
atp539
a(L100L
g2
(lp540
(g322
F11.0
F11.0
tp541
atp542
atp543
a(F11861.0
F52.29
(lp544
(L1L
g29
(lp545
(g171
F62.0
F8062.0
tp546
atp547
a(L2L
g2
(lp548
(g252
F11.0
F12.0
tp549
a(g254
F12.0
F13.0
tp550
a(g292
F13.0
F6122.0
tp551
atp552
a(L3L
g29
(lp553
(g77
F5567.0
F5567.0
tp554
atp555
a(L5L
g29
(lp556
(g314
F11.0
F11.0
tp557
atp558
a(L8L
g2
(lp559
(g236
F11.0
F11.0
tp560
a(g238
F11.0
F5964.0
tp561
atp562
a(L10L
g2
(lp563
(g302
F11.0
F11.0
tp564
a(g165
F11.0
F11.0
tp565
atp566
a(L12L
g29
(lp567
(g220
F11.0
F9037.0
tp568
atp569
a(L17L
g2
(lp570
(g14
F11.0
F11.0
tp571
atp572
a(L18L
g2
(lp573
(g270
F11.0
F11.0
tp574
atp575
a(L21L
g92
(lp576
(g94
F9936.0
F9936.0
tp577
atp578
a(L22L
g2
(lp579
(g45
F11.0
F11.0
tp580
a(g296
F11.0
F11.0
tp581
atp582
a(L23L
g29
(lp583
(g318
F11.0
F11.0
tp584
atp585
a(L24L
g2
(lp586
(g268
F11.0
F11.0
tp587
a(g115
F11.0
F11.0
tp588
a(g169
F11.0
F11.0
tp589
a(g65
F11.0
F5101.0
tp590
a(g290
F5101.0
F5101.0
tp591
a(g135
F5101.0
F9212.0
tp592
atp593
a(L29L
g2
(lp594
(g173
F12.0
F3162.0
tp595
atp596
a(L35L
g2
(lp597
(g26
F11.0
F11.0
tp598
a(g322
F11.0
F11.0
tp599
a(g179
F11.0
F6577.0
tp600
atp601
a(L37L
g2
(lp602
(g87
F11.0
F11.0
tp603
a(g8
F11.0
F11.0
tp604
a(g12
F11.0
F11.0
tp605
atp606
a(L40L
g2
(lp607
(g308
F11.0
F11.0
tp608
a(g49
F11.0
F11.0
tp609
a(g129
F11.0
F12.0
tp610
a(g153
F12.0
F5586.0
tp611
atp612
a(L42L
Vapac-sin#m3.medium
p613
(lp614
(g127
F11.0
F11.0
tp615
atp616
a(L43L
g29
(lp617
(g73
F11.0
F11.0
tp618
a(g286
F11.0
F9759.0
tp619
atp620
a(L44L
g92
(lp621
(g107
F11.0
F11.0
tp622
atp623
a(L46L
g2
(lp624
(g57
F4976.0
F9186.0
tp625
a(g149
F9936.0
F11861.0
tp626
a(g161
F11861.0
F11861.0
tp627
atp628
a(L47L
g2
(lp629
(g224
F11.0
F4052.0
tp630
a(g131
F4052.0
F8825.0
tp631
atp632
a(L49L
g29
(lp633
(g312
F11.0
F11.0
tp634
atp635
a(L50L
g2
(lp636
(g117
F11.0
F11.0
tp637
a(g35
F11.0
F11.0
tp638
atp639
a(L51L
g2
(lp640
(g111
F4976.0
F4976.0
tp641
atp642
a(L52L
g2
(lp643
(g177
F11.0
F11.0
tp644
atp645
a(L55L
g2
(lp646
(g145
F11.0
F7264.0
tp647
atp648
a(L56L
g2
(lp649
(g195
F11.0
F11.0
tp650
a(g4
F11.0
F4975.0
tp651
a(g276
F4975.0
F4976.0
tp652
a(g207
F4976.0
F4976.0
tp653
a(g61
F4976.0
F9327.0
tp654
atp655
a(L58L
g2
(lp656
(g298
F11.0
F11.0
tp657
a(g51
F11.0
F11.0
tp658
a(g282
F11.0
F11.0
tp659
atp660
a(L60L
g2
(lp661
(g310
F11.0
F11.0
tp662
a(g79
F11.0
F11.0
tp663
atp664
a(L63L
g29
(lp665
(g212
F5567.0
F5567.0
tp666
atp667
a(L64L
g29
(lp668
(g31
F12.0
F12.0
tp669
atp670
a(L67L
g105
(lp671
(g228
F11.0
F11.0
tp672
atp673
a(L68L
g29
(lp674
(g197
F11.0
F11.0
tp675
a(g41
F11.0
F11.0
tp676
a(g157
F11.0
F11.0
tp677
atp678
a(L71L
g210
(lp679
(g37
F11.0
F11.0
tp680
atp681
a(L72L
g2
(lp682
(g232
I0
F0.0
tp683
a(g234
I0
F11.0
tp684
a(g183
F11.0
F11.0
tp685
a(g75
F11.0
F11.0
tp686
a(g216
F11.0
F7228.0
tp687
a(g147
F9933.0
F9936.0
tp688
atp689
a(L73L
g2
(lp690
(g24
F12.0
F12.0
tp691
a(g304
F12.0
F12.0
tp692
atp693
a(L77L
g613
(lp694
(g125
F11.0
F11.0
tp695
atp696
a(L79L
g2
(lp697
(g193
F11.0
F11.0
tp698
a(g143
F11.0
F11.0
tp699
a(g203
F11.0
F11.0
tp700
a(g69
F11.0
F11.0
tp701
a(g102
F11.0
F11.0
tp702
a(g272
F11.0
F11.0
tp703
atp704
a(L81L
g2
(lp705
(g121
F12.0
F12.0
tp706
atp707
a(L83L
g2
(lp708
(g256
F11.0
F5567.0
tp709
a(g20
F5567.0
F5567.0
tp710
a(g264
F5567.0
F9933.0
tp711
atp712
a(L85L
g2
(lp713
(g199
F11.0
F3566.0
tp714
atp715
a(L87L
g2
(lp716
(g10
F11.0
F11.0
tp717
atp718
a(L88L
g2
(lp719
(g83
F11.0
F11.0
tp720
a(g85
F11.0
F11.0
tp721
a(g242
F11.0
F6149.0
tp722
atp723
a(L89L
g2
(lp724
(g139
F11.0
F6272.0
tp725
atp726
a(L90L
g92
(lp727
(g185
F11.0
F11.0
tp728
a(g248
F11.0
F11.0
tp729
atp730
a(L93L
g2
(lp731
(g89
F12.0
F4169.0
tp732
a(g278
F4169.0
F9553.0
tp733
atp734
a(L94L
g105
(lp735
(g55
F11.0
F11.0
tp736
atp737
a(L96L
g2
(lp738
(g260
F11.0
F11.0
tp739
a(g189
F11.0
F11.0
tp740
atp741
a(L100L
g2
(lp742
(g18
F11.0
F11.0
tp743
a(g262
F11.0
F11.0
tp744
atp745
a(L101L
g29
(lp746
(g246
F12.0
F12.0
tp747
a(g98
F12.0
F12.0
tp748
atp749
atp750
a(F13543.0
F47.25
(lp751
(L0L
g2
(lp752
(g111
F6578.0
F6578.0
tp753
atp754
a(L2L
g29
(lp755
(g121
F15.0
F15.0
tp756
atp757
a(L3L
g2
(lp758
(g65
F11.0
F5101.0
tp759
a(g153
F5101.0
F10675.0
tp760
atp761
a(L4L
g29
(lp762
(g212
F11.0
F11.0
tp763
a(g177
F11.0
F11.0
tp764
atp765
a(L5L
g2
(lp766
(g189
F12.0
F12.0
tp767
atp768
a(L8L
g29
(lp769
(g79
F11.0
F11.0
tp770
atp771
a(L10L
g2
(lp772
(g312
F11.0
F11.0
tp773
a(g197
F11.0
F11.0
tp774
atp775
a(L11L
g2
(lp776
(g290
F15.0
F15.0
tp777
atp778
a(L12L
g92
(lp779
(g127
F11.0
F11.0
tp780
atp781
a(L14L
g2
(lp782
(g45
F11.0
F11.0
tp783
a(g179
F11.0
F6577.0
tp784
a(g276
F6577.0
F6578.0
tp785
a(g57
F6578.0
F10788.0
tp786
atp787
a(L16L
g92
(lp788
(g51
F11.0
F11.0
tp789
atp790
a(L20L
g29
(lp791
(g268
F11.0
F12.0
tp792
a(g252
F12.0
F14.0
tp793
a(g286
F14.0
F9762.0
tp794
atp795
a(L23L
g29
(lp796
(g278
F11.0
F10780.0
tp797
atp798
a(L24L
g29
(lp799
(g199
F11.0
F7121.0
tp800
atp801
a(L26L
g2
(lp802
(g75
F11.0
F11.0
tp803
a(g185
F11.0
F11.0
tp804
a(g89
F11.0
F4168.0
tp805
a(g238
F4168.0
F10121.0
tp806
atp807
a(L27L
g2
(lp808
(g183
F11.0
F11.0
tp809
atp810
a(L29L
g92
(lp811
(g77
F11.0
F11.0
tp812
atp813
a(L30L
g2
(lp814
(g314
F11.0
F11.0
tp815
a(g304
F11.0
F11.0
tp816
atp817
a(L31L
g2
(lp818
(g143
F11.0
F11.0
tp819
a(g49
F11.0
F11.0
tp820
a(g272
F11.0
F11.0
tp821
atp822
a(L33L
g2
(lp823
(g125
F11.0
F11.0
tp824
a(g228
F11.0
F11.0
tp825
a(g242
F11.0
F6149.0
tp826
a(g135
F6149.0
F10260.0
tp827
atp828
a(L36L
g29
(lp829
(g107
F11.0
F11.0
tp830
atp831
a(L37L
g29
(lp832
(g14
F11.0
F11.0
tp833
atp834
a(L38L
g29
(lp835
(g310
F11.0
F12.0
tp836
a(g131
F15.0
F9562.0
tp837
atp838
a(L39L
g2
(lp839
(g173
F11.0
F3161.0
tp840
atp841
a(L40L
g29
(lp842
(g207
F6578.0
F6578.0
tp843
atp844
a(L41L
g2
(lp845
(g139
F11.0
F6272.0
tp846
atp847
a(L42L
g2
(lp848
(g308
F11.0
F11.0
tp849
a(g87
F11.0
F11.0
tp850
a(g282
F11.0
F11.0
tp851
atp852
a(L45L
g2
(lp853
(g203
F11.0
F11.0
tp854
a(g41
F11.0
F11.0
tp855
atp856
a(L46L
g2
(lp857
(g260
F11.0
F11.0
tp858
a(g169
F11.0
F11.0
tp859
a(g145
F11.0
F7264.0
tp860
a(g61
F7264.0
F11615.0
tp861
a(g149
F11618.0
F13543.0
tp862
atp863
a(L47L
g92
(lp864
(g8
F11.0
F11.0
tp865
atp866
a(L49L
g29
(lp867
(g195
F11.0
F11.0
tp868
atp869
a(L54L
g2
(lp870
(g270
F11.0
F11.0
tp871
a(g298
F11.0
F11.0
tp872
a(g302
F11.0
F11.0
tp873
atp874
a(L55L
g2
(lp875
(g73
F11.0
F11.0
tp876
a(g85
F11.0
F11.0
tp877
a(g264
F11.0
F4377.0
tp878
a(g292
F4377.0
F10486.0
tp879
atp880
a(L56L
g29
(lp881
(g20
F11.0
F11.0
tp882
atp883
a(L60L
g92
(lp884
(g102
F11.0
F11.0
tp885
a(g165
F11.0
F11.0
tp886
atp887
a(L61L
g29
(lp888
(g246
F11.0
F11.0
tp889
atp890
a(L62L
g29
(lp891
(g24
F14.0
F14.0
tp892
a(g129
F14.0
F15.0
tp893
a(g4
F15.0
F9944.0
tp894
atp895
a(L65L
g2
(lp896
(g115
F11.0
F11.0
tp897
atp898
a(L66L
g29
(lp899
(g322
F11.0
F11.0
tp900
atp901
a(L69L
g29
(lp902
(g26
F11.0
F11.0
tp903
a(g157
F11.0
F11.0
tp904
atp905
a(L71L
g2
(lp906
(g236
F11.0
F11.0
tp907
atp908
a(L72L
g2
(lp909
(g232
I0
F0.0
tp910
a(g234
I0
F11.0
tp911
a(g224
F11.0
F4052.0
tp912
a(g216
F4052.0
F11269.0
tp913
a(g147
F11615.0
F11618.0
tp914
atp915
a(L74L
g105
(lp916
(g18
F11.0
F11.0
tp917
atp918
a(L75L
g29
(lp919
(g193
F11.0
F11.0
tp920
atp921
a(L77L
g2
(lp922
(g256
F12.0
F5568.0
tp923
a(g171
F5568.0
F9568.0
tp924
atp925
a(L78L
g29
(lp926
(g254
F14.0
F15.0
tp927
a(g220
F15.0
F9041.0
tp928
atp929
a(L79L
g2
(lp930
(g83
F11.0
F11.0
tp931
a(g10
F11.0
F11.0
tp932
a(g37
F11.0
F11.0
tp933
a(g12
F11.0
F11.0
tp934
atp935
a(L80L
g29
(lp936
(g296
F12.0
F12.0
tp937
atp938
a(L84L
g29
(lp939
(g117
F11.0
F11.0
tp940
atp941
a(L85L
g105
(lp942
(g55
F11.0
F11.0
tp943
atp944
a(L87L
g2
(lp945
(g94
F11618.0
F11618.0
tp946
atp947
a(L91L
g92
(lp948
(g69
F11.0
F11.0
tp949
a(g98
F11.0
F11.0
tp950
atp951
a(L94L
g2
(lp952
(g248
F11.0
F11.0
tp953
atp954
a(L97L
g2
(lp955
(g35
F11.0
F11.0
tp956
a(g31
F11.0
F11.0
tp957
a(g318
F11.0
F11.0
tp958
atp959
a(L100L
g2
(lp960
(g262
F11.0
F11.0
tp961
atp962
a(L101L
g29
(lp963
(g161
F13543.0
F13543.0
tp964
atp965
atp966
a(F21840.0
F47.01
(lp967
(L0L
g2
(lp968
(g107
F11.0
F11.0
tp969
a(g87
F11.0
F11.0
tp970
atp971
a(L1L
g2
(lp972
(g125
F11.0
F11.0
tp973
a(g195
F11.0
F11.0
tp974
a(g75
F11.0
F11.0
tp975
atp976
a(L2L
g29
(lp977
(g85
F11.0
F11.0
tp978
a(g31
F11.0
F11.0
tp979
atp980
a(L5L
g29
(lp981
(g203
F11.0
F11.0
tp982
a(g165
F11.0
F11.0
tp983
atp984
a(L7L
g2
(lp985
(g304
F11.0
F11.0
tp986
a(g14
F11.0
F11.0
tp987
atp988
a(L10L
g2
(lp989
(g302
F11.0
F11.0
tp990
atp991
a(L12L
g29
(lp992
(g55
F11.0
F11.0
tp993
a(g314
F11.0
F11.0
tp994
a(g41
F11.0
F11.0
tp995
atp996
a(L14L
g2
(lp997
(g45
F11.0
F11.0
tp998
a(g312
F11.0
F11.0
tp999
a(g179
F11.0
F6577.0
tp1000
a(g276
F6577.0
F6578.0
tp1001
atp1002
a(L16L
g92
(lp1003
(g79
F11.0
F11.0
tp1004
atp1005
a(L19L
g2
(lp1006
(g173
F13488.0
F16638.0
tp1007
atp1008
a(L20L
g2
(lp1009
(g268
F11.0
F11.0
tp1010
atp1011
a(L25L
g2
(lp1012
(g310
F11.0
F11.0
tp1013
a(g270
F11.0
F11.0
tp1014
a(g69
F11.0
F11.0
tp1015
atp1016
a(L29L
g105
(lp1017
(g127
F11.0
F11.0
tp1018
a(g177
F11.0
F11.0
tp1019
atp1020
a(L30L
g2
(lp1021
(g262
F11.0
F11.0
tp1022
a(g296
F11.0
F11.0
tp1023
atp1024
a(L31L
g29
(lp1025
(g147
F17984.0
F17991.0
tp1026
atp1027
a(L32L
g2
(lp1028
(g115
F11.0
F11.0
tp1029
atp1030
a(L33L
g105
(lp1031
(g264
F11.0
F17474.0
tp1032
atp1033
a(L34L
g29
(lp1034
(g193
F12.0
F12.0
tp1035
a(g121
F12.0
F12.0
tp1036
atp1037
a(L37L
g92
(lp1038
(g18
F11.0
F11.0
tp1039
a(g73
F11.0
F11.0
tp1040
atp1041
a(L38L
g29
(lp1042
(g117
F11.0
F11.0
tp1043
a(g129
F11.0
F12.0
tp1044
a(g131
F13.0
F9560.0
tp1045
atp1046
a(L39L
g29
(lp1047
(g135
F13.0
F8236.0
tp1048
a(g286
F8236.0
F17984.0
tp1049
atp1050
a(L41L
g2
(lp1051
(g139
F11.0
F6272.0
tp1052
a(g242
F6272.0
F12410.0
tp1053
a(g89
F12410.0
F16567.0
tp1054
atp1055
a(L42L
g29
(lp1056
(g37
F11.0
F11.0
tp1057
atp1058
a(L44L
g92
(lp1059
(g298
F11.0
F11.0
tp1060
atp1061
a(L45L
g2
(lp1062
(g49
F11.0
F11.0
tp1063
atp1064
a(L46L
g2
(lp1065
(g145
F11.0
F7264.0
tp1066
a(g153
F7264.0
F12838.0
tp1067
a(g61
F12838.0
F17189.0
tp1068
atp1069
a(L48L
g2
(lp1070
(g24
F12.0
F12.0
tp1071
atp1072
a(L51L
g2
(lp1073
(g143
F11.0
F11.0
tp1074
a(g220
F11.0
F4524.0
tp1075
a(g4
F4524.0
F9488.0
tp1076
a(g171
F9488.0
F13488.0
tp1077
a(g98
F13488.0
F13488.0
tp1078
a(g57
F13488.0
F17698.0
tp1079
atp1080
a(L52L
g2
(lp1081
(g10
F11.0
F11.0
tp1082
atp1083
a(L53L
g2
(lp1084
(g20
F11.0
F11.0
tp1085
a(g248
F11.0
F11.0
tp1086
atp1087
a(L54L
g2
(lp1088
(g322
F11.0
F11.0
tp1089
atp1090
a(L55L
g29
(lp1091
(g228
F11.0
F11.0
tp1092
a(g292
F11.0
F12229.0
tp1093
atp1094
a(L58L
g2
(lp1095
(g260
F11.0
F11.0
tp1096
a(g26
F11.0
F11.0
tp1097
atp1098
a(L61L
g92
(lp1099
(g51
F11.0
F11.0
tp1100
atp1101
a(L64L
g29
(lp1102
(g207
F6578.0
F6578.0
tp1103
atp1104
a(L67L
g29
(lp1105
(g94
F17991.0
F17991.0
tp1106
atp1107
a(L71L
g2
(lp1108
(g212
F11.0
F11.0
tp1109
a(g35
F11.0
F11.0
tp1110
a(g246
F11.0
F11.0
tp1111
a(g12
F11.0
F11.0
tp1112
atp1113
a(L72L
g2
(lp1114
(g232
I0
F0.0
tp1115
a(g234
I0
F11.0
tp1116
a(g236
F11.0
F11.0
tp1117
a(g224
F13.0
F4054.0
tp1118
a(g216
F4054.0
F11271.0
tp1119
a(g238
F11271.0
F17224.0
tp1120
atp1121
a(L75L
g105
(lp1122
(g102
F11.0
F11.0
tp1123
atp1124
a(L77L
g2
(lp1125
(g252
F11.0
F12.0
tp1126
a(g254
F12.0
F13.0
tp1127
a(g256
F19.0
F5575.0
tp1128
a(g65
F5575.0
F10665.0
tp1129
a(g111
F10665.0
F10665.0
tp1130
atp1131
a(L85L
g29
(lp1132
(g169
F11.0
F12.0
tp1133
a(g197
F12.0
F12.0
tp1134
a(g290
F12.0
F13.0
tp1135
a(g282
F13.0
F13.0
tp1136
a(g278
F13.0
F10782.0
tp1137
atp1138
a(L86L
g29
(lp1139
(g149
F17991.0
F21840.0
tp1140
a(g161
F21840.0
F21840.0
tp1141
atp1142
a(L88L
g2
(lp1143
(g272
F11.0
F11.0
tp1144
atp1145
a(L89L
g105
(lp1146
(g308
F12.0
F13.0
tp1147
a(g199
F13.0
F14233.0
tp1148
atp1149
a(L90L
g29
(lp1150
(g77
F11.0
F11.0
tp1151
atp1152
a(L94L
g2
(lp1153
(g185
F11.0
F11.0
tp1154
atp1155
a(L95L
g2
(lp1156
(g318
F11.0
F11.0
tp1157
atp1158
a(L97L
g2
(lp1159
(g83
F11.0
F11.0
tp1160
a(g157
F11.0
F11.0
tp1161
atp1162
a(L100L
g2
(lp1163
(g183
F11.0
F11.0
tp1164
a(g8
F11.0
F11.0
tp1165
atp1166
a(L101L
Vapac-sin#m1.small
p1167
(lp1168
(g189
F11.0
F19.0
tp1169
atp1170
atp1171
a(F21921.0
F46.46
(lp1172
(L0L
g2
(lp1173
(g107
F11.0
F11.0
tp1174
a(g87
F11.0
F11.0
tp1175
atp1176
a(L1L
g2
(lp1177
(g125
F11.0
F11.0
tp1178
a(g195
F11.0
F11.0
tp1179
a(g75
F11.0
F11.0
tp1180
atp1181
a(L2L
g29
(lp1182
(g85
F11.0
F11.0
tp1183
a(g31
F11.0
F11.0
tp1184
atp1185
a(L5L
g29
(lp1186
(g203
F11.0
F11.0
tp1187
a(g165
F11.0
F11.0
tp1188
atp1189
a(L7L
g2
(lp1190
(g304
F11.0
F11.0
tp1191
a(g14
F11.0
F11.0
tp1192
atp1193
a(L10L
g2
(lp1194
(g302
F11.0
F11.0
tp1195
atp1196
a(L12L
g29
(lp1197
(g55
F11.0
F11.0
tp1198
a(g314
F11.0
F11.0
tp1199
a(g41
F11.0
F11.0
tp1200
atp1201
a(L14L
g2
(lp1202
(g45
F11.0
F11.0
tp1203
a(g312
F11.0
F11.0
tp1204
a(g179
F11.0
F6577.0
tp1205
a(g276
F6577.0
F6578.0
tp1206
atp1207
a(L16L
g92
(lp1208
(g79
F11.0
F11.0
tp1209
atp1210
a(L19L
g2
(lp1211
(g173
F13488.0
F16638.0
tp1212
atp1213
a(L20L
g2
(lp1214
(g268
F11.0
F11.0
tp1215
atp1216
a(L25L
g2
(lp1217
(g310
F11.0
F11.0
tp1218
a(g270
F11.0
F11.0
tp1219
a(g69
F11.0
F11.0
tp1220
atp1221
a(L29L
g105
(lp1222
(g127
F11.0
F11.0
tp1223
a(g177
F11.0
F11.0
tp1224
atp1225
a(L30L
g2
(lp1226
(g262
F11.0
F11.0
tp1227
a(g296
F11.0
F11.0
tp1228
atp1229
a(L32L
g2
(lp1230
(g115
F11.0
F11.0
tp1231
atp1232
a(L33L
g105
(lp1233
(g264
F11.0
F17474.0
tp1234
atp1235
a(L34L
g29
(lp1236
(g193
F12.0
F12.0
tp1237
a(g121
F12.0
F12.0
tp1238
atp1239
a(L37L
g92
(lp1240
(g18
F11.0
F11.0
tp1241
a(g73
F11.0
F11.0
tp1242
atp1243
a(L38L
g29
(lp1244
(g117
F11.0
F11.0
tp1245
a(g129
F11.0
F12.0
tp1246
a(g131
F13.0
F9560.0
tp1247
atp1248
a(L39L
g29
(lp1249
(g135
F13.0
F8236.0
tp1250
a(g286
F8236.0
F17984.0
tp1251
atp1252
a(L41L
g2
(lp1253
(g139
F11.0
F6272.0
tp1254
a(g242
F6272.0
F12410.0
tp1255
a(g89
F12410.0
F16567.0
tp1256
atp1257
a(L42L
g29
(lp1258
(g37
F11.0
F11.0
tp1259
atp1260
a(L44L
g92
(lp1261
(g298
F11.0
F11.0
tp1262
atp1263
a(L45L
g2
(lp1264
(g49
F11.0
F11.0
tp1265
atp1266
a(L46L
g2
(lp1267
(g145
F11.0
F7264.0
tp1268
a(g153
F7264.0
F12838.0
tp1269
a(g61
F12838.0
F17189.0
tp1270
atp1271
a(L48L
g2
(lp1272
(g24
F12.0
F12.0
tp1273
atp1274
a(L51L
g2
(lp1275
(g143
F11.0
F11.0
tp1276
a(g220
F11.0
F4524.0
tp1277
a(g4
F4524.0
F9488.0
tp1278
a(g171
F9488.0
F13488.0
tp1279
a(g98
F13488.0
F13488.0
tp1280
a(g57
F13488.0
F17698.0
tp1281
atp1282
a(L52L
g2
(lp1283
(g10
F11.0
F11.0
tp1284
atp1285
a(L53L
g2
(lp1286
(g20
F11.0
F11.0
tp1287
atp1288
a(L54L
g2
(lp1289
(g322
F11.0
F11.0
tp1290
atp1291
a(L55L
g29
(lp1292
(g228
F11.0
F11.0
tp1293
a(g292
F11.0
F12229.0
tp1294
atp1295
a(L58L
g2
(lp1296
(g260
F11.0
F11.0
tp1297
a(g26
F11.0
F11.0
tp1298
atp1299
a(L59L
g2
(lp1300
(g248
F11.0
F11.0
tp1301
atp1302
a(L61L
g92
(lp1303
(g51
F11.0
F11.0
tp1304
atp1305
a(L64L
g29
(lp1306
(g207
F6578.0
F6578.0
tp1307
atp1308
a(L67L
g29
(lp1309
(g94
F18072.0
F18072.0
tp1310
atp1311
a(L71L
g2
(lp1312
(g212
F11.0
F11.0
tp1313
a(g35
F11.0
F11.0
tp1314
a(g246
F11.0
F11.0
tp1315
a(g12
F11.0
F11.0
tp1316
atp1317
a(L72L
g2
(lp1318
(g232
I0
F0.0
tp1319
a(g234
I0
F11.0
tp1320
a(g236
F11.0
F11.0
tp1321
a(g224
F13.0
F4054.0
tp1322
a(g216
F4054.0
F11271.0
tp1323
a(g238
F11271.0
F17224.0
tp1324
atp1325
a(L75L
g105
(lp1326
(g102
F11.0
F11.0
tp1327
atp1328
a(L77L
g2
(lp1329
(g252
F11.0
F12.0
tp1330
a(g254
F12.0
F13.0
tp1331
a(g256
F19.0
F5575.0
tp1332
a(g65
F5575.0
F10665.0
tp1333
a(g111
F10665.0
F10665.0
tp1334
atp1335
a(L85L
g29
(lp1336
(g169
F11.0
F12.0
tp1337
a(g197
F12.0
F12.0
tp1338
a(g290
F12.0
F13.0
tp1339
a(g282
F13.0
F13.0
tp1340
a(g278
F13.0
F10782.0
tp1341
atp1342
a(L86L
g29
(lp1343
(g149
F18072.0
F21921.0
tp1344
a(g161
F21921.0
F21921.0
tp1345
atp1346
a(L88L
g2
(lp1347
(g272
F11.0
F11.0
tp1348
atp1349
a(L89L
g105
(lp1350
(g308
F12.0
F13.0
tp1351
a(g199
F13.0
F14233.0
tp1352
atp1353
a(L90L
g29
(lp1354
(g77
F11.0
F11.0
tp1355
atp1356
a(L91L
g1167
(lp1357
(g147
F17984.0
F18071.0
tp1358
atp1359
a(L94L
g2
(lp1360
(g185
F11.0
F11.0
tp1361
atp1362
a(L95L
g2
(lp1363
(g318
F11.0
F11.0
tp1364
atp1365
a(L97L
g2
(lp1366
(g83
F11.0
F11.0
tp1367
a(g157
F11.0
F11.0
tp1368
atp1369
a(L100L
g2
(lp1370
(g183
F11.0
F11.0
tp1371
a(g8
F11.0
F11.0
tp1372
atp1373
a(L101L
g1167
(lp1374
(g189
F11.0
F19.0
tp1375
atp1376
atp1377
a(F32351.0
F45.12
(lp1378
(L0L
g2
(lp1379
(g107
F11.0
F11.0
tp1380
a(g87
F11.0
F11.0
tp1381
a(g304
F11.0
F11.0
tp1382
atp1383
a(L1L
g2
(lp1384
(g125
F11.0
F11.0
tp1385
a(g195
F11.0
F11.0
tp1386
a(g75
F11.0
F11.0
tp1387
atp1388
a(L2L
g29
(lp1389
(g85
F11.0
F11.0
tp1390
a(g31
F11.0
F11.0
tp1391
atp1392
a(L5L
g29
(lp1393
(g203
F11.0
F11.0
tp1394
a(g165
F11.0
F11.0
tp1395
atp1396
a(L7L
g2
(lp1397
(g14
F11.0
F11.0
tp1398
atp1399
a(L10L
g2
(lp1400
(g302
F11.0
F11.0
tp1401
a(g35
F11.0
F11.0
tp1402
atp1403
a(L12L
g29
(lp1404
(g314
F11.0
F11.0
tp1405
a(g41
F11.0
F11.0
tp1406
atp1407
a(L13L
g92
(lp1408
(g298
F11.0
F11.0
tp1409
atp1410
a(L14L
g2
(lp1411
(g45
F11.0
F11.0
tp1412
a(g270
F11.0
F11.0
tp1413
a(g179
F11.0
F6577.0
tp1414
a(g276
F6577.0
F6578.0
tp1415
atp1416
a(L16L
g92
(lp1417
(g79
F11.0
F11.0
tp1418
atp1419
a(L20L
g2
(lp1420
(g268
F11.0
F11.0
tp1421
atp1422
a(L25L
g2
(lp1423
(g310
F11.0
F11.0
tp1424
a(g69
F11.0
F11.0
tp1425
atp1426
a(L29L
g105
(lp1427
(g127
F11.0
F11.0
tp1428
a(g177
F11.0
F11.0
tp1429
atp1430
a(L30L
g2
(lp1431
(g262
F11.0
F11.0
tp1432
a(g296
F11.0
F11.0
tp1433
atp1434
a(L31L
g1167
(lp1435
(g147
F24565.0
F24652.0
tp1436
atp1437
a(L32L
g2
(lp1438
(g115
F11.0
F11.0
tp1439
atp1440
a(L34L
g29
(lp1441
(g322
F11.0
F11.0
tp1442
atp1443
a(L37L
g92
(lp1444
(g18
F11.0
F11.0
tp1445
a(g73
F11.0
F11.0
tp1446
atp1447
a(L38L
g29
(lp1448
(g117
F11.0
F11.0
tp1449
a(g129
F11.0
F12.0
tp1450
a(g131
F14.0
F9561.0
tp1451
atp1452
a(L39L
g29
(lp1453
(g312
F11.0
F11.0
tp1454
a(g286
F11.0
F9759.0
tp1455
atp1456
a(L41L
g2
(lp1457
(g139
F11.0
F6272.0
tp1458
a(g89
F6272.0
F10429.0
tp1459
atp1460
a(L42L
g29
(lp1461
(g55
F11.0
F11.0
tp1462
a(g37
F11.0
F11.0
tp1463
atp1464
a(L43L
g2
(lp1465
(g111
F6578.0
F6578.0
tp1466
atp1467
a(L45L
g2
(lp1468
(g49
F11.0
F11.0
tp1469
atp1470
a(L46L
g2
(lp1471
(g145
F11.0
F7264.0
tp1472
a(g153
F7264.0
F12838.0
tp1473
a(g61
F12838.0
F17189.0
tp1474
atp1475
a(L48L
g2
(lp1476
(g24
F13.0
F13.0
tp1477
atp1478
a(L51L
g2
(lp1479
(g143
F11.0
F11.0
tp1480
a(g220
F11.0
F4524.0
tp1481
a(g4
F4524.0
F9488.0
tp1482
a(g171
F9488.0
F13488.0
tp1483
a(g98
F13488.0
F13488.0
tp1484
a(g57
F13488.0
F17698.0
tp1485
atp1486
a(L52L
g2
(lp1487
(g102
F11.0
F11.0
tp1488
a(g10
F11.0
F11.0
tp1489
atp1490
a(L53L
g29
(lp1491
(g248
F11.0
F11.0
tp1492
atp1493
a(L55L
g29
(lp1494
(g228
F11.0
F11.0
tp1495
a(g264
F11.0
F8743.0
tp1496
a(g292
F8743.0
F20961.0
tp1497
atp1498
a(L58L
g2
(lp1499
(g260
F11.0
F11.0
tp1500
a(g26
F11.0
F11.0
tp1501
atp1502
a(L60L
g29
(lp1503
(g173
F13488.0
F19789.0
tp1504
atp1505
a(L61L
g92
(lp1506
(g51
F11.0
F11.0
tp1507
atp1508
a(L64L
g29
(lp1509
(g207
F6578.0
F6578.0
tp1510
atp1511
a(L67L
Vapac-sin#m1.medium
p1512
(lp1513
(g94
F24653.0
F24653.0
tp1514
atp1515
a(L70L
g29
(lp1516
(g20
F11.0
F11.0
tp1517
atp1518
a(L71L
g2
(lp1519
(g212
F11.0
F11.0
tp1520
a(g246
F11.0
F11.0
tp1521
a(g12
F11.0
F11.0
tp1522
atp1523
a(L72L
g2
(lp1524
(g232
I0
F0.0
tp1525
a(g234
I0
F11.0
tp1526
a(g236
F11.0
F11.0
tp1527
a(g224
F13.0
F4054.0
tp1528
a(g135
F4054.0
F8165.0
tp1529
a(g216
F8165.0
F15382.0
tp1530
a(g238
F15382.0
F21335.0
tp1531
atp1532
a(L76L
g92
(lp1533
(g121
F12.0
F12.0
tp1534
atp1535
a(L77L
g29
(lp1536
(g252
F11.0
F13.0
tp1537
a(g254
F13.0
F14.0
tp1538
a(g256
F14.0
F11127.0
tp1539
a(g65
F11127.0
F21307.0
tp1540
atp1541
a(L80L
g2
(lp1542
(g193
F12.0
F12.0
tp1543
atp1544
a(L85L
g29
(lp1545
(g169
F11.0
F12.0
tp1546
a(g189
F12.0
F13.0
tp1547
a(g197
F13.0
F13.0
tp1548
a(g290
F13.0
F14.0
tp1549
a(g282
F14.0
F14.0
tp1550
a(g278
F14.0
F10783.0
tp1551
atp1552
a(L86L
g105
(lp1553
(g242
F11.0
F24565.0
tp1554
a(g149
F24653.0
F32351.0
tp1555
a(g161
F32351.0
F32351.0
tp1556
atp1557
a(L88L
g2
(lp1558
(g272
F11.0
F11.0
tp1559
atp1560
a(L89L
g105
(lp1561
(g308
F12.0
F13.0
tp1562
a(g199
F13.0
F14233.0
tp1563
atp1564
a(L90L
g29
(lp1565
(g77
F11.0
F11.0
tp1566
atp1567
a(L94L
g92
(lp1568
(g185
F11.0
F11.0
tp1569
atp1570
a(L95L
g2
(lp1571
(g318
F11.0
F11.0
tp1572
atp1573
a(L97L
g2
(lp1574
(g83
F11.0
F11.0
tp1575
a(g157
F11.0
F11.0
tp1576
atp1577
a(L100L
g2
(lp1578
(g183
F11.0
F11.0
tp1579
a(g8
F11.0
F11.0
tp1580
atp1581
atp1582
a.