(lp0
(F1718.0
F6.3
(lp1
(L0L
Vapac-sin#m3.2xlarge
p2
(lp3
(VID00017
p4
F42.0
F1026.0
tp5
atp6
a(L3L
g2
(lp7
(VID00004
p8
F33.0
F36.0
tp9
a(VID00002
p10
F36.0
F39.0
tp11
a(VID00007
p12
F39.0
F40.0
tp13
a(VID00012
p14
F40.0
F42.0
tp15
a(VID00014
p16
F42.0
F43.0
tp17
a(VID00018
p18
F43.0
F789.0
tp19
a(VID00021
p20
F1290.0
F1295.0
tp21
atp22
a(L7L
Vapac-sin#m1.xlarge
p23
(lp24
(VID00022
p25
F1295.0
F1295.0
tp26
atp27
a(L15L
g2
(lp28
(S'entry'
p29
I0
F0.0
tp30
a(VID00000
p31
I0
F32.0
tp32
a(VID00005
p33
F32.0
F36.0
tp34
a(VID00011
p35
F36.0
F37.0
tp36
a(VID00015
p37
F38.0
F40.0
tp38
a(VID00019
p39
F43.0
F1158.0
tp40
a(VID00023
p41
F1295.0
F1718.0
tp42
atp43
a(L17L
g2
(lp44
(VID00001
p45
F33.0
F35.0
tp46
a(VID00006
p47
F35.0
F36.0
tp48
a(VID00010
p49
F36.0
F38.0
tp50
a(VID00020
p51
F40.0
F1290.0
tp52
atp53
a(L18L
Vapac-sin#m1.small
p54
(lp55
(S'exit'
p56
F1718.0
F1718.0
tp57
atp58
a(L25L
g2
(lp59
(VID00003
p60
F33.0
F36.0
tp61
a(VID00009
p62
F36.0
F37.0
tp63
a(VID00008
p64
F37.0
F38.0
tp65
a(VID00013
p66
F38.0
F39.0
tp67
a(VID00016
p68
F39.0
F910.0
tp69
atp70
atp71
a(F2210.0
F5.67
(lp72
(L0L
g2
(lp73
(g66
F40.0
F41.0
tp74
a(g4
F42.0
F1026.0
tp75
atp76
a(L3L
g2
(lp77
(g8
F33.0
F36.0
tp78
a(g10
F36.0
F39.0
tp79
a(g12
F39.0
F40.0
tp80
a(g14
F40.0
F42.0
tp81
a(g16
F42.0
F43.0
tp82
a(g18
F43.0
F789.0
tp83
a(g20
F1782.0
F1787.0
tp84
atp85
a(L7L
g23
(lp86
(g25
F1787.0
F1787.0
tp87
atp88
a(L15L
g2
(lp89
(g29
I0
F0.0
tp90
a(g31
I0
F32.0
tp91
a(g33
F32.0
F36.0
tp92
a(g35
F36.0
F37.0
tp93
a(g37
F39.0
F41.0
tp94
a(g39
F43.0
F1158.0
tp95
a(g41
F1787.0
F2210.0
tp96
atp97
a(L17L
g2
(lp98
(g45
F33.0
F35.0
tp99
a(g47
F35.0
F36.0
tp100
a(g62
F36.0
F37.0
tp101
a(g49
F37.0
F39.0
tp102
a(g51
F41.0
F1291.0
tp103
atp104
a(L18L
g54
(lp105
(g56
F2210.0
F2210.0
tp106
atp107
a(L25L
Vapac-sin#m3.xlarge
p108
(lp109
(g60
F33.0
F38.0
tp110
a(g64
F38.0
F40.0
tp111
a(g68
F40.0
F1782.0
tp112
atp113
atp114
a(F2320.0
F5.04
(lp115
(L3L
g2
(lp116
(g8
F33.0
F36.0
tp117
a(g10
F36.0
F39.0
tp118
a(g12
F39.0
F40.0
tp119
a(g14
F40.0
F42.0
tp120
a(g66
F42.0
F43.0
tp121
a(g16
F43.0
F44.0
tp122
a(g18
F44.0
F790.0
tp123
a(g20
F1892.0
F1897.0
tp124
atp125
a(L7L
g23
(lp126
(g25
F1897.0
F1897.0
tp127
atp128
a(L15L
g2
(lp129
(g29
I0
F0.0
tp130
a(g31
I0
F32.0
tp131
a(g33
F32.0
F36.0
tp132
a(g35
F36.0
F37.0
tp133
a(g37
F39.0
F41.0
tp134
a(g39
F44.0
F1159.0
tp135
a(g41
F1897.0
F2320.0
tp136
atp137
a(L17L
g2
(lp138
(g45
F33.0
F35.0
tp139
a(g47
F35.0
F36.0
tp140
a(g62
F36.0
F37.0
tp141
a(g49
F37.0
F39.0
tp142
a(g51
F41.0
F1291.0
tp143
atp144
a(L18L
g54
(lp145
(g56
F2320.0
F2320.0
tp146
atp147
a(L25L
g2
(lp148
(g60
F33.0
F36.0
tp149
a(g64
F36.0
F37.0
tp150
a(g68
F37.0
F908.0
tp151
a(g4
F908.0
F1892.0
tp152
atp153
atp154
a(F2329.0
F3.94
(lp155
(L3L
g54
(lp156
(g8
F35.0
F109.0
tp157
a(g10
F109.0
F175.0
tp158
a(g14
F205.0
F252.0
tp159
a(g16
F252.0
F290.0
tp160
atp161
a(L7L
g2
(lp162
(g25
F1906.0
F1906.0
tp163
atp164
a(L15L
g2
(lp165
(g29
I0
F0.0
tp166
a(g31
I0
F32.0
tp167
a(g33
F32.0
F36.0
tp168
a(g35
F36.0
F37.0
tp169
a(g37
F38.0
F40.0
tp170
a(g18
F40.0
F786.0
tp171
a(g39
F786.0
F1901.0
tp172
a(g20
F1901.0
F1906.0
tp173
a(g41
F1906.0
F2329.0
tp174
atp175
a(L17L
g2
(lp176
(g45
F33.0
F35.0
tp177
a(g47
F35.0
F36.0
tp178
a(g49
F36.0
F38.0
tp179
a(g51
F40.0
F1290.0
tp180
atp181
a(L18L
g54
(lp182
(g56
F2329.0
F2329.0
tp183
atp184
a(L20L
g54
(lp185
(g12
F176.0
F204.0
tp186
a(g62
F204.0
F228.0
tp187
atp188
a(L25L
g2
(lp189
(g60
F33.0
F36.0
tp190
a(g64
F36.0
F37.0
tp191
a(g66
F37.0
F38.0
tp192
a(g68
F38.0
F909.0
tp193
a(g4
F909.0
F1893.0
tp194
atp195
atp196
a(F2700.0
F3.23
(lp197
(L4L
g54
(lp198
(g45
F34.0
F90.0
tp199
a(g8
F90.0
F164.0
tp200
a(g60
F164.0
F229.0
tp201
a(g35
F229.0
F263.0
tp202
a(g16
F263.0
F301.0
tp203
atp204
a(L7L
g2
(lp205
(g25
F2277.0
F2277.0
tp206
atp207
a(L15L
g2
(lp208
(g12
F35.0
F36.0
tp209
a(g62
F165.0
F166.0
tp210
a(g64
F230.0
F231.0
tp211
a(g66
F231.0
F232.0
tp212
a(g37
F232.0
F234.0
tp213
a(g18
F234.0
F980.0
tp214
a(g39
F980.0
F2095.0
tp215
a(g20
F2272.0
F2277.0
tp216
a(g41
F2277.0
F2700.0
tp217
atp218
a(L17L
g2
(lp219
(g29
I0
F0.0
tp220
a(g31
I0
F32.0
tp221
a(g10
F32.0
F35.0
tp222
a(g14
F36.0
F38.0
tp223
a(g4
F38.0
F1022.0
tp224
a(g51
F1022.0
F2272.0
tp225
atp226
a(L18L
g54
(lp227
(g56
F2700.0
F2700.0
tp228
atp229
a(L22L
g108
(lp230
(g47
F91.0
F92.0
tp231
a(g33
F92.0
F99.0
tp232
a(g49
F99.0
F102.0
tp233
a(g68
F263.0
F2005.0
tp234
atp235
atp236
a(F3331.0
F2.76
(lp237
(L0L
g2
(lp238
(g25
F2908.0
F2908.0
tp239
atp240
a(L2L
g2
(lp241
(g56
F3331.0
F3331.0
tp242
atp243
a(L3L
g54
(lp244
(g8
F35.0
F109.0
tp245
a(g10
F109.0
F175.0
tp246
a(g12
F175.0
F203.0
tp247
a(g14
F203.0
F250.0
tp248
a(g16
F250.0
F288.0
tp249
atp250
a(L4L
g108
(lp251
(g39
F288.0
F2518.0
tp252
atp253
a(L15L
g54
(lp254
(g33
F34.0
F129.0
tp255
a(g49
F129.0
F169.0
tp256
a(g37
F169.0
F210.0
tp257
atp258
a(L17L
g2
(lp259
(g29
I0
F0.0
tp260
a(g31
I0
F32.0
tp261
a(g45
F32.0
F34.0
tp262
a(g47
F34.0
F35.0
tp263
a(g35
F35.0
F36.0
tp264
a(g68
F36.0
F907.0
tp265
a(g51
F907.0
F2157.0
tp266
a(g18
F2157.0
F2903.0
tp267
a(g20
F2903.0
F2908.0
tp268
a(g41
F2908.0
F3331.0
tp269
atp270
a(L19L
g108
(lp271
(g4
F250.0
F2217.0
tp272
atp273
a(L25L
g54
(lp274
(g60
F34.0
F99.0
tp275
a(g62
F110.0
F134.0
tp276
a(g64
F134.0
F160.0
tp277
a(g66
F160.0
F192.0
tp278
atp279
atp280
a(F3570.0
F2.36
(lp281
(L0L
g2
(lp282
(g25
F3147.0
F3147.0
tp283
atp284
a(L3L
g54
(lp285
(g33
F34.0
F129.0
tp286
a(g62
F129.0
F153.0
tp287
a(g14
F153.0
F200.0
tp288
a(g16
F200.0
F238.0
tp289
atp290
a(L4L
g108
(lp291
(g47
F35.0
F36.0
tp292
a(g10
F36.0
F41.0
tp293
a(g39
F238.0
F2468.0
tp294
atp295
a(L15L
Vapac-sin#m3.large
p296
(lp297
(g8
F33.0
F44.0
tp298
a(g12
F44.0
F48.0
tp299
a(g49
F130.0
F136.0
tp300
a(g37
F136.0
F142.0
tp301
a(g18
F157.0
F3142.0
tp302
atp303
a(L17L
g2
(lp304
(g29
I0
F0.0
tp305
a(g31
I0
F32.0
tp306
a(g45
F32.0
F34.0
tp307
a(g35
F36.0
F37.0
tp308
a(g68
F37.0
F908.0
tp309
a(g4
F908.0
F1892.0
tp310
a(g51
F1892.0
F3142.0
tp311
a(g20
F3142.0
F3147.0
tp312
a(g41
F3147.0
F3570.0
tp313
atp314
a(L21L
g54
(lp315
(g56
F3570.0
F3570.0
tp316
atp317
a(L25L
g54
(lp318
(g60
F34.0
F99.0
tp319
a(g64
F99.0
F125.0
tp320
a(g66
F125.0
F157.0
tp321
atp322
atp323
a.