(lp0
(F2379.0
F10.71
(lp1
(L32L
Vapac-sin#m3.2xlarge
p2
(lp3
(VID00007
p4
F9.0
F12.0
tp5
a(VID00000
p6
F12.0
F26.0
tp7
a(VID00004
p8
F26.0
F29.0
tp9
a(VID00003
p10
F29.0
F32.0
tp11
a(VID00023
p12
F32.0
F33.0
tp13
a(VID00025
p14
F33.0
F34.0
tp15
a(VID00035
p16
F34.0
F1480.0
tp17
a(VID00046
p18
F1876.0
F2379.0
tp19
atp20
a(L3L
g2
(lp21
(VID00011
p22
F9.0
F11.0
tp23
a(VID00030
p24
F13.0
F15.0
tp25
a(VID00040
p26
F15.0
F1863.0
tp27
a(VID00043
p28
F1863.0
F1868.0
tp29
a(VID00044
p30
F1868.0
F1876.0
tp31
a(S'exit'
p32
F2379.0
F2379.0
tp33
atp34
a(L38L
Vapac-sin#m3.xlarge
p35
(lp36
(VID00037
p37
F15.0
F1677.0
tp38
atp39
a(L44L
g2
(lp40
(VID00005
p41
F26.0
F28.0
tp42
a(VID00028
p43
F32.0
F33.0
tp44
a(VID00034
p45
F35.0
F1183.0
tp46
a(VID00042
p47
F1480.0
F1484.0
tp48
atp49
a(L18L
g35
(lp50
(VID00026
p51
F31.0
F33.0
tp52
a(VID00024
p53
F33.0
F35.0
tp54
a(VID00039
p55
F35.0
F1464.0
tp56
atp57
a(L21L
g2
(lp58
(VID00021
p59
F11.0
F12.0
tp60
a(VID00015
p61
F28.0
F29.0
tp62
a(VID00031
p63
F29.0
F31.0
tp64
a(VID00038
p65
F33.0
F1196.0
tp66
atp67
a(L24L
g2
(lp68
(VID00013
p69
F32.0
F32.0
tp70
atp71
a(L26L
g2
(lp72
(VID00006
p73
F26.0
F27.0
tp74
a(VID00009
p75
F27.0
F30.0
tp76
a(VID00022
p77
F31.0
F32.0
tp78
a(VID00032
p79
F32.0
F1435.0
tp80
atp81
a(L29L
g2
(lp82
(S'entry'
p83
I0
F0.0
tp84
a(VID00001
p85
I0
F9.0
tp86
a(VID00010
p87
F9.0
F12.0
tp88
a(VID00020
p89
F12.0
F13.0
tp90
a(VID00017
p91
F13.0
F14.0
tp92
a(VID00027
p93
F14.0
F15.0
tp94
a(VID00014
p95
F29.0
F30.0
tp96
a(VID00018
p97
F31.0
F32.0
tp98
a(VID00033
p99
F33.0
F1414.0
tp100
a(VID00045
p101
F1876.0
F1876.0
tp102
atp103
a(L30L
g35
(lp104
(VID00019
p105
F30.0
F31.0
tp106
a(VID00029
p107
F31.0
F32.0
tp108
a(VID00041
p109
F32.0
F1845.0
tp110
atp111
a(L31L
g2
(lp112
(VID00002
p113
F26.0
F28.0
tp114
a(VID00008
p115
F28.0
F31.0
tp116
a(VID00012
p117
F31.0
F31.0
tp118
a(VID00016
p119
F31.0
F31.0
tp120
a(VID00036
p121
F33.0
F1347.0
tp122
atp123
atp124
a(F2508.0
F10.08
(lp125
(L32L
g2
(lp126
(g4
F9.0
F12.0
tp127
a(g6
F12.0
F26.0
tp128
a(g8
F26.0
F29.0
tp129
a(g10
F29.0
F32.0
tp130
a(g12
F32.0
F33.0
tp131
a(g95
F33.0
F34.0
tp132
a(g14
F34.0
F35.0
tp133
a(g16
F35.0
F1481.0
tp134
a(g18
F2005.0
F2508.0
tp135
atp136
a(L3L
g2
(lp137
(g22
F9.0
F11.0
tp138
a(g53
F34.0
F35.0
tp139
a(g24
F35.0
F37.0
tp140
a(g43
F37.0
F38.0
tp141
a(g26
F38.0
F1886.0
tp142
a(g28
F1886.0
F1891.0
tp143
a(g30
F1997.0
F2005.0
tp144
a(g32
F2508.0
F2508.0
tp145
atp146
a(L44L
g2
(lp147
(g37
F14.0
F845.0
tp148
a(g45
F845.0
F1993.0
tp149
a(g47
F1993.0
F1997.0
tp150
atp151
a(L46L
g2
(lp152
(g117
F28.0
F28.0
tp153
atp154
a(L18L
g35
(lp155
(g51
F33.0
F35.0
tp156
a(g55
F35.0
F1464.0
tp157
atp158
a(L21L
g2
(lp159
(g75
F9.0
F12.0
tp160
a(g115
F12.0
F15.0
tp161
a(g87
F15.0
F18.0
tp162
a(g59
F18.0
F19.0
tp163
a(g61
F29.0
F30.0
tp164
a(g63
F30.0
F32.0
tp165
a(g65
F38.0
F1201.0
tp166
atp167
a(L26L
g2
(lp168
(g73
F26.0
F27.0
tp169
a(g41
F27.0
F29.0
tp170
a(g79
F29.0
F1432.0
tp171
atp172
a(L29L
g2
(lp173
(g83
I0
F0.0
tp174
a(g85
I0
F9.0
tp175
a(g91
F12.0
F13.0
tp176
a(g93
F13.0
F14.0
tp177
a(g97
F15.0
F16.0
tp178
a(g99
F33.0
F1414.0
tp179
a(g101
F2005.0
F2005.0
tp180
atp181
a(L30L
g35
(lp182
(g105
F12.0
F13.0
tp183
a(g107
F13.0
F14.0
tp184
a(g109
F32.0
F1845.0
tp185
atp186
a(L31L
g2
(lp187
(g113
F26.0
F28.0
tp188
a(g77
F28.0
F29.0
tp189
a(g69
F32.0
F32.0
tp190
a(g89
F32.0
F33.0
tp191
a(g119
F33.0
F33.0
tp192
a(g121
F35.0
F1349.0
tp193
atp194
atp195
a(F2600.0
F8.82
(lp196
(L32L
g2
(lp197
(g4
F9.0
F12.0
tp198
a(g6
F12.0
F26.0
tp199
a(g8
F26.0
F29.0
tp200
a(g10
F29.0
F32.0
tp201
a(g12
F32.0
F33.0
tp202
a(g91
F33.0
F34.0
tp203
a(g16
F39.0
F1485.0
tp204
a(g18
F2097.0
F2600.0
tp205
atp206
a(L3L
g2
(lp207
(g22
F9.0
F11.0
tp208
a(g14
F38.0
F39.0
tp209
a(g26
F40.0
F1888.0
tp210
a(g28
F2084.0
F2089.0
tp211
a(g30
F2089.0
F2097.0
tp212
a(g32
F2600.0
F2600.0
tp213
atp214
a(L44L
g2
(lp215
(g41
F26.0
F28.0
tp216
a(g37
F35.0
F866.0
tp217
a(g97
F866.0
F867.0
tp218
a(g43
F867.0
F868.0
tp219
a(g45
F868.0
F2016.0
tp220
a(g47
F2016.0
F2020.0
tp221
atp222
a(L21L
g2
(lp223
(g59
F11.0
F12.0
tp224
a(g63
F12.0
F14.0
tp225
a(g109
F14.0
F921.0
tp226
a(g65
F921.0
F2084.0
tp227
atp228
a(L24L
g2
(lp229
(g69
F32.0
F32.0
tp230
atp231
a(L26L
g2
(lp232
(g73
F26.0
F27.0
tp233
a(g75
F27.0
F30.0
tp234
a(g77
F31.0
F32.0
tp235
a(g79
F32.0
F1435.0
tp236
atp237
a(L29L
g2
(lp238
(g83
I0
F0.0
tp239
a(g85
I0
F9.0
tp240
a(g87
F9.0
F12.0
tp241
a(g89
F12.0
F13.0
tp242
a(g93
F34.0
F35.0
tp243
a(g95
F35.0
F36.0
tp244
a(g53
F36.0
F37.0
tp245
a(g61
F37.0
F38.0
tp246
a(g24
F38.0
F40.0
tp247
a(g99
F40.0
F1421.0
tp248
a(g101
F2097.0
F2097.0
tp249
atp250
a(L31L
g2
(lp251
(g113
F26.0
F28.0
tp252
a(g115
F28.0
F31.0
tp253
a(g117
F31.0
F31.0
tp254
a(g119
F31.0
F31.0
tp255
a(g51
F31.0
F32.0
tp256
a(g121
F32.0
F1346.0
tp257
a(g105
F1346.0
F1347.0
tp258
a(g107
F1347.0
F1348.0
tp259
a(g55
F1348.0
F2063.0
tp260
atp261
atp262
a(F2830.0
F8.19
(lp263
(L32L
g2
(lp264
(g4
F11.0
F14.0
tp265
a(g8
F14.0
F17.0
tp266
a(g95
F17.0
F18.0
tp267
a(g16
F855.0
F2301.0
tp268
a(g18
F2327.0
F2830.0
tp269
atp270
a(L3L
g2
(lp271
(g83
I0
F0.0
tp272
a(g6
I0
F14.0
tp273
a(g22
F14.0
F16.0
tp274
a(g119
F16.0
F16.0
tp275
a(g53
F18.0
F19.0
tp276
a(g97
F19.0
F20.0
tp277
a(g105
F20.0
F21.0
tp278
a(g24
F21.0
F23.0
tp279
a(g26
F23.0
F1871.0
tp280
a(g28
F2139.0
F2144.0
tp281
a(g30
F2319.0
F2327.0
tp282
a(g32
F2830.0
F2830.0
tp283
atp284
a(L44L
g35
(lp285
(g41
F15.0
F19.0
tp286
a(g45
F19.0
F2315.0
tp287
atp288
a(L21L
g2
(lp289
(g12
F17.0
F18.0
tp290
a(g59
F18.0
F19.0
tp291
a(g91
F19.0
F20.0
tp292
a(g63
F20.0
F22.0
tp293
a(g109
F22.0
F929.0
tp294
a(g43
F929.0
F930.0
tp295
a(g65
F930.0
F2093.0
tp296
atp297
a(L24L
g2
(lp298
(g69
F17.0
F17.0
tp299
atp300
a(L26L
g2
(lp301
(g73
F14.0
F15.0
tp302
a(g75
F15.0
F18.0
tp303
a(g77
F19.0
F20.0
tp304
a(g79
F20.0
F1423.0
tp305
a(g107
F1423.0
F1424.0
tp306
a(g101
F2327.0
F2327.0
tp307
atp308
a(L29L
g2
(lp309
(g85
F2.0
F11.0
tp310
a(g10
F14.0
F17.0
tp311
a(g87
F17.0
F20.0
tp312
a(g51
F20.0
F21.0
tp313
a(g93
F21.0
F22.0
tp314
a(g37
F22.0
F853.0
tp315
a(g61
F853.0
F854.0
tp316
a(g14
F854.0
F855.0
tp317
a(g99
F855.0
F2236.0
tp318
atp319
a(L31L
g2
(lp320
(g113
F14.0
F16.0
tp321
a(g115
F16.0
F19.0
tp322
a(g117
F19.0
F19.0
tp323
a(g89
F20.0
F21.0
tp324
a(g121
F21.0
F1335.0
tp325
a(g55
F1424.0
F2139.0
tp326
a(g47
F2315.0
F2319.0
tp327
atp328
atp329
a(F2857.0
F7.56
(lp330
(L32L
g2
(lp331
(g4
F9.0
F12.0
tp332
a(g6
F12.0
F26.0
tp333
a(g8
F26.0
F29.0
tp334
a(g10
F29.0
F32.0
tp335
a(g22
F32.0
F34.0
tp336
a(g59
F34.0
F35.0
tp337
a(g93
F35.0
F36.0
tp338
a(g95
F36.0
F37.0
tp339
a(g53
F37.0
F38.0
tp340
a(g61
F38.0
F39.0
tp341
a(g14
F39.0
F40.0
tp342
a(g16
F40.0
F1486.0
tp343
a(g55
F1486.0
F2201.0
tp344
a(g18
F2354.0
F2857.0
tp345
atp346
a(L3L
g2
(lp347
(g97
F12.0
F13.0
tp348
a(g63
F35.0
F37.0
tp349
a(g26
F40.0
F1888.0
tp350
a(g28
F2341.0
F2346.0
tp351
a(g30
F2346.0
F2354.0
tp352
a(g32
F2857.0
F2857.0
tp353
atp354
a(L40L
g2
(lp355
(g117
F28.0
F28.0
tp356
atp357
a(L44L
g35
(lp358
(g41
F27.0
F31.0
tp359
a(g119
F31.0
F32.0
tp360
a(g51
F32.0
F34.0
tp361
a(g91
F34.0
F35.0
tp362
a(g105
F35.0
F36.0
tp363
a(g24
F37.0
F40.0
tp364
a(g45
F40.0
F2336.0
tp365
a(g47
F2336.0
F2344.0
tp366
atp367
a(L8L
g2
(lp368
(g69
F32.0
F32.0
tp369
atp370
a(L21L
g35
(lp371
(g43
F13.0
F15.0
tp372
a(g65
F15.0
F2341.0
tp373
atp374
a(L26L
g2
(lp375
(g73
F26.0
F27.0
tp376
a(g75
F27.0
F30.0
tp377
a(g79
F30.0
F1433.0
tp378
a(g109
F1433.0
F2340.0
tp379
a(g101
F2354.0
F2354.0
tp380
atp381
a(L29L
g2
(lp382
(g83
I0
F0.0
tp383
a(g85
I0
F9.0
tp384
a(g115
F9.0
F12.0
tp385
a(g77
F28.0
F29.0
tp386
a(g12
F32.0
F33.0
tp387
a(g87
F33.0
F36.0
tp388
a(g89
F36.0
F37.0
tp389
a(g37
F37.0
F868.0
tp390
a(g99
F868.0
F2249.0
tp391
atp392
a(L31L
g2
(lp393
(g113
F26.0
F28.0
tp394
a(g121
F34.0
F1348.0
tp395
a(g107
F1348.0
F1349.0
tp396
atp397
atp398
a(F3295.0
F7.09
(lp399
(L32L
g2
(lp400
(g4
F11.0
F14.0
tp401
a(g8
F14.0
F17.0
tp402
a(g51
F17.0
F18.0
tp403
a(g91
F18.0
F19.0
tp404
a(g93
F19.0
F20.0
tp405
a(g95
F20.0
F21.0
tp406
a(g14
F21.0
F22.0
tp407
a(g16
F22.0
F1468.0
tp408
a(g109
F1468.0
F2375.0
tp409
a(g101
F2792.0
F2792.0
tp410
a(g18
F2792.0
F3295.0
tp411
atp412
a(L3L
g2
(lp413
(g83
I0
F0.0
tp414
a(g6
I0
F14.0
tp415
a(g10
F14.0
F17.0
tp416
a(g22
F17.0
F19.0
tp417
a(g55
F83.0
F798.0
tp418
a(g63
F798.0
F800.0
tp419
a(g26
F800.0
F2648.0
tp420
a(g28
F2648.0
F2653.0
tp421
a(g30
F2784.0
F2792.0
tp422
a(g32
F3295.0
F3295.0
tp423
atp424
a(L4L
Vapac-sin#m1.small
p425
(lp426
(g97
F18.0
F39.0
tp427
a(g105
F39.0
F58.0
tp428
atp429
a(L44L
g2
(lp430
(g85
F2.0
F11.0
tp431
a(g41
F14.0
F16.0
tp432
a(g117
F17.0
F17.0
tp433
a(g12
F17.0
F18.0
tp434
a(g87
F18.0
F21.0
tp435
a(g37
F21.0
F852.0
tp436
a(g45
F852.0
F2000.0
tp437
a(g47
F2780.0
F2784.0
tp438
atp439
a(L46L
g2
(lp440
(g119
F15.0
F15.0
tp441
atp442
a(L18L
g425
(lp443
(g89
F22.0
F35.0
tp444
a(g53
F35.0
F64.0
tp445
a(g107
F64.0
F83.0
tp446
atp447
a(L21L
g35
(lp448
(g115
F12.0
F17.0
tp449
a(g61
F17.0
F18.0
tp450
a(g24
F36.0
F39.0
tp451
a(g43
F39.0
F41.0
tp452
a(g65
F41.0
F2367.0
tp453
atp454
a(L26L
g2
(lp455
(g73
F14.0
F15.0
tp456
a(g113
F15.0
F17.0
tp457
a(g77
F17.0
F18.0
tp458
a(g79
F18.0
F1421.0
tp459
atp460
a(L27L
g2
(lp461
(g69
F17.0
F17.0
tp462
atp463
a(L29L
g35
(lp464
(g75
F12.0
F17.0
tp465
a(g99
F18.0
F2780.0
tp466
atp467
a(L31L
g35
(lp468
(g59
F19.0
F20.0
tp469
a(g121
F20.0
F2647.0
tp470
atp471
atp472
a(F3340.0
F6.3
(lp473
(L32L
g2
(lp474
(g4
F22.0
F25.0
tp475
a(g8
F25.0
F28.0
tp476
a(g10
F28.0
F31.0
tp477
a(g51
F31.0
F32.0
tp478
a(g93
F32.0
F33.0
tp479
a(g95
F33.0
F34.0
tp480
a(g53
F34.0
F35.0
tp481
a(g14
F35.0
F36.0
tp482
a(g16
F36.0
F1482.0
tp483
a(g109
F1482.0
F2389.0
tp484
a(g101
F2837.0
F2837.0
tp485
a(g18
F2837.0
F3340.0
tp486
atp487
a(L3L
g2
(lp488
(g83
I0
F0.0
tp489
a(g6
I0
F14.0
tp490
a(g22
F22.0
F24.0
tp491
a(g91
F25.0
F26.0
tp492
a(g107
F38.0
F39.0
tp493
a(g55
F39.0
F754.0
tp494
a(g63
F754.0
F756.0
tp495
a(g26
F756.0
F2604.0
tp496
a(g28
F2604.0
F2609.0
tp497
a(g30
F2829.0
F2837.0
tp498
a(g32
F3340.0
F3340.0
tp499
atp500
a(L44L
g2
(lp501
(g77
F18.0
F19.0
tp502
a(g37
F33.0
F864.0
tp503
a(g45
F864.0
F2012.0
tp504
a(g47
F2825.0
F2829.0
tp505
atp506
a(L46L
g2
(lp507
(g117
F18.0
F18.0
tp508
a(g119
F18.0
F18.0
tp509
atp510
a(L21L
g35
(lp511
(g75
F22.0
F27.0
tp512
a(g115
F27.0
F32.0
tp513
a(g87
F32.0
F39.0
tp514
a(g24
F40.0
F43.0
tp515
a(g43
F43.0
F45.0
tp516
a(g65
F45.0
F2371.0
tp517
atp518
a(L26L
g35
(lp519
(g73
F15.0
F18.0
tp520
a(g79
F19.0
F2825.0
tp521
atp522
a(L29L
g35
(lp523
(g85
F4.0
F21.0
tp524
a(g41
F21.0
F25.0
tp525
a(g12
F32.0
F34.0
tp526
a(g61
F34.0
F35.0
tp527
a(g97
F35.0
F37.0
tp528
a(g105
F37.0
F38.0
tp529
a(g99
F38.0
F2800.0
tp530
atp531
a(L31L
g35
(lp532
(g113
F15.0
F18.0
tp533
a(g69
F31.0
F32.0
tp534
a(g89
F39.0
F40.0
tp535
a(g59
F40.0
F41.0
tp536
a(g121
F41.0
F2668.0
tp537
atp538
atp539
a.