(lp0
(F411.0
F8.35
(lp1
(L1L
Vapac-sin#m1.medium
p2
(lp3
(S'exit'
p4
F411.0
F411.0
tp5
atp6
a(L9L
Vapac-sin#m3.xlarge
p7
(lp8
(S'entry'
p9
I0
F0.0
tp10
a(VID00006
p11
I0
F11.0
tp12
a(VID00021
p13
F215.0
F218.0
tp14
a(VID00025
p15
F243.0
F400.0
tp16
atp17
a(L16L
Vapac-sin#m3.2xlarge
p18
(lp19
(VID00005
p20
I0
F5.0
tp21
a(VID00010
p22
F11.0
F171.0
tp23
a(VID00017
p24
F215.0
F217.0
tp25
a(VID00019
p26
F217.0
F219.0
tp27
a(VID00028
p28
F219.0
F331.0
tp29
atp30
a(L18L
g18
(lp31
(VID00002
p32
I0
F5.0
tp33
a(VID00011
p34
F48.0
F213.0
tp35
a(VID00022
p36
F217.0
F410.0
tp37
atp38
a(L19L
g18
(lp39
(VID00007
p40
F5.0
F213.0
tp41
a(VID00016
p42
F215.0
F217.0
tp43
a(VID00023
p44
F217.0
F406.0
tp45
atp46
a(L21L
g18
(lp47
(VID00008
p48
F6.0
F114.0
tp49
a(VID00024
p50
F217.0
F346.0
tp51
a(VID00029
p52
F410.0
F411.0
tp53
atp54
a(L26L
g18
(lp55
(VID00000
p56
I0
F5.0
tp57
a(VID00012
p58
F5.0
F107.0
tp59
a(VID00013
p60
F107.0
F213.0
tp61
a(VID00027
p62
F229.0
F386.0
tp63
atp64
a(L28L
Vapac-sin#m3.medium
p65
(lp66
(VID00004
p67
I0
F48.0
tp68
a(VID00020
p69
F215.0
F229.0
tp70
a(VID00018
p71
F229.0
F243.0
tp72
atp73
a(L29L
g18
(lp74
(VID00001
p75
I0
F6.0
tp76
a(VID00003
p77
F6.0
F11.0
tp78
a(VID00009
p79
F11.0
F194.0
tp80
a(VID00014
p81
F213.0
F215.0
tp82
a(VID00015
p83
F215.0
F217.0
tp84
a(VID00026
p85
F219.0
F313.0
tp86
atp87
atp88
a(F593.0
F7.01
(lp89
(L9L
g7
(lp90
(g9
I0
F0.0
tp91
a(g11
I0
F11.0
tp92
a(g13
F333.0
F336.0
tp93
a(g15
F418.0
F575.0
tp94
atp95
a(L16L
g7
(lp96
(g20
I0
F11.0
tp97
a(g22
F11.0
F331.0
tp98
a(g26
F333.0
F336.0
tp99
a(g28
F336.0
F561.0
tp100
atp101
a(L18L
g18
(lp102
(g32
I0
F5.0
tp103
a(g34
F144.0
F309.0
tp104
a(g24
F333.0
F335.0
tp105
a(g36
F335.0
F528.0
tp106
a(g4
F593.0
F593.0
tp107
atp108
a(L19L
g18
(lp109
(g40
F5.0
F213.0
tp110
a(g42
F333.0
F335.0
tp111
a(g44
F335.0
F524.0
tp112
a(g52
F592.0
F593.0
tp113
atp114
a(L21L
g7
(lp115
(g48
F6.0
F222.0
tp116
a(g50
F335.0
F592.0
tp117
atp118
a(L26L
g18
(lp119
(g56
I0
F5.0
tp120
a(g58
F11.0
F113.0
tp121
a(g60
F113.0
F219.0
tp122
a(g62
F376.0
F533.0
tp123
atp124
a(L28L
Vapac-sin#m1.small
p125
(lp126
(g67
I0
F144.0
tp127
a(g69
F333.0
F376.0
tp128
a(g71
F376.0
F418.0
tp129
atp130
a(L29L
g18
(lp131
(g75
I0
F6.0
tp132
a(g77
F6.0
F11.0
tp133
a(g79
F11.0
F194.0
tp134
a(g81
F331.0
F333.0
tp135
a(g83
F333.0
F335.0
tp136
a(g85
F336.0
F430.0
tp137
atp138
atp139
a(F621.0
F4.41
(lp140
(L1L
g2
(lp141
(g4
F621.0
F621.0
tp142
atp143
a(L9L
g7
(lp144
(g9
I0
F0.0
tp145
atp146
a(L16L
g7
(lp147
(g20
I0
F11.0
tp148
a(g11
F11.0
F22.0
tp149
a(g75
F22.0
F33.0
tp150
a(g48
F33.0
F249.0
tp151
a(g13
F332.0
F335.0
tp152
a(g24
F335.0
F338.0
tp153
a(g71
F338.0
F341.0
tp154
a(g28
F341.0
F566.0
tp155
atp156
a(L18L
g18
(lp157
(g32
I0
F5.0
tp158
a(g79
F5.0
F188.0
tp159
a(g58
F188.0
F290.0
tp160
a(g83
F332.0
F334.0
tp161
a(g36
F334.0
F527.0
tp162
a(g15
F527.0
F606.0
tp163
atp164
a(L19L
g18
(lp165
(g67
I0
F6.0
tp166
a(g56
F6.0
F11.0
tp167
a(g40
F11.0
F219.0
tp168
a(g60
F219.0
F325.0
tp169
a(g81
F330.0
F332.0
tp170
a(g42
F332.0
F334.0
tp171
a(g44
F334.0
F523.0
tp172
a(g26
F523.0
F525.0
tp173
a(g85
F525.0
F619.0
tp174
a(g52
F620.0
F621.0
tp175
atp176
a(L21L
g18
(lp177
(g77
I0
F5.0
tp178
a(g22
F5.0
F165.0
tp179
a(g34
F165.0
F330.0
tp180
a(g69
F332.0
F334.0
tp181
a(g62
F334.0
F491.0
tp182
a(g50
F491.0
F620.0
tp183
atp184
atp185
a(F886.0
F4.09
(lp186
(L1L
g2
(lp187
(g4
F886.0
F886.0
tp188
atp189
a(L9L
g7
(lp190
(g9
I0
F0.0
tp191
atp192
a(L16L
Vapac-sin#m3.large
p193
(lp194
(g20
I0
F22.0
tp195
a(g11
F22.0
F44.0
tp196
a(g75
F44.0
F66.0
tp197
a(g48
F66.0
F497.0
tp198
a(g13
F499.0
F505.0
tp199
a(g24
F505.0
F511.0
tp200
a(g71
F511.0
F517.0
tp201
atp202
a(L18L
g18
(lp203
(g32
I0
F5.0
tp204
a(g79
F5.0
F188.0
tp205
a(g58
F188.0
F290.0
tp206
a(g83
F499.0
F501.0
tp207
a(g36
F501.0
F694.0
tp208
a(g15
F694.0
F773.0
tp209
a(g28
F773.0
F885.0
tp210
atp211
a(L19L
g18
(lp212
(g67
I0
F6.0
tp213
a(g56
F6.0
F11.0
tp214
a(g40
F11.0
F219.0
tp215
a(g60
F219.0
F325.0
tp216
a(g81
F497.0
F499.0
tp217
a(g42
F499.0
F501.0
tp218
a(g44
F501.0
F690.0
tp219
a(g26
F690.0
F692.0
tp220
a(g85
F692.0
F786.0
tp221
a(g52
F885.0
F886.0
tp222
atp223
a(L21L
g18
(lp224
(g77
I0
F5.0
tp225
a(g22
F5.0
F165.0
tp226
a(g34
F165.0
F330.0
tp227
a(g69
F499.0
F501.0
tp228
a(g62
F501.0
F658.0
tp229
a(g50
F658.0
F787.0
tp230
atp231
atp232
a(F1240.0
F2.2
(lp233
(L1L
g2
(lp234
(g4
F1240.0
F1240.0
tp235
atp236
a(L9L
g7
(lp237
(g9
I0
F0.0
tp238
atp239
a(L16L
g193
(lp240
(g20
I0
F22.0
tp241
a(g11
F22.0
F44.0
tp242
a(g75
F44.0
F66.0
tp243
a(g48
F66.0
F497.0
tp244
a(g13
F663.0
F669.0
tp245
a(g24
F669.0
F675.0
tp246
a(g71
F675.0
F681.0
tp247
a(g28
F681.0
F1130.0
tp248
atp249
a(L18L
g7
(lp250
(g32
I0
F11.0
tp251
a(g79
F11.0
F377.0
tp252
a(g58
F377.0
F581.0
tp253
a(g83
F663.0
F667.0
tp254
a(g36
F667.0
F1052.0
tp255
a(g15
F1052.0
F1209.0
tp256
atp257
a(L19L
g7
(lp258
(g67
I0
F11.0
tp259
a(g56
F11.0
F22.0
tp260
a(g40
F22.0
F437.0
tp261
a(g60
F437.0
F649.0
tp262
a(g81
F660.0
F663.0
tp263
a(g42
F663.0
F666.0
tp264
a(g44
F666.0
F1043.0
tp265
a(g26
F1043.0
F1046.0
tp266
a(g85
F1046.0
F1234.0
tp267
a(g52
F1237.0
F1240.0
tp268
atp269
a(L21L
g7
(lp270
(g77
I0
F11.0
tp271
a(g22
F11.0
F331.0
tp272
a(g34
F331.0
F660.0
tp273
a(g69
F663.0
F666.0
tp274
a(g62
F666.0
F980.0
tp275
a(g50
F980.0
F1237.0
tp276
atp277
atp278
a(F2072.0
F2.05
(lp279
(L0L
g193
(lp280
(g9
I0
F0.0
tp281
atp282
a(L16L
g65
(lp283
(g20
I0
F47.0
tp284
a(g11
F47.0
F96.0
tp285
a(g75
F96.0
F144.0
tp286
a(g48
F144.0
F1078.0
tp287
a(g13
F1081.0
F1095.0
tp288
a(g28
F1095.0
F2069.0
tp289
atp290
a(L18L
g7
(lp291
(g32
I0
F11.0
tp292
a(g79
F11.0
F377.0
tp293
a(g58
F377.0
F581.0
tp294
a(g24
F1081.0
F1084.0
tp295
a(g83
F1084.0
F1088.0
tp296
a(g36
F1088.0
F1473.0
tp297
a(g15
F1473.0
F1630.0
tp298
a(g4
F2072.0
F2072.0
tp299
atp300
a(L19L
g7
(lp301
(g67
I0
F11.0
tp302
a(g56
F11.0
F22.0
tp303
a(g40
F22.0
F437.0
tp304
a(g60
F437.0
F649.0
tp305
a(g81
F1078.0
F1081.0
tp306
a(g42
F1081.0
F1084.0
tp307
a(g44
F1084.0
F1461.0
tp308
a(g71
F1461.0
F1464.0
tp309
a(g26
F1464.0
F1467.0
tp310
a(g85
F1467.0
F1655.0
tp311
a(g52
F2069.0
F2072.0
tp312
atp313
a(L21L
g7
(lp314
(g77
I0
F11.0
tp315
a(g22
F11.0
F331.0
tp316
a(g34
F331.0
F660.0
tp317
a(g69
F1081.0
F1084.0
tp318
a(g62
F1084.0
F1398.0
tp319
a(g50
F1398.0
F1655.0
tp320
atp321
atp322
a(F2483.0
F1.1
(lp323
(L0L
g193
(lp324
(g9
I0
F0.0
tp325
atp326
a(L1L
g2
(lp327
(g4
F2483.0
F2483.0
tp328
atp329
a(L16L
g65
(lp330
(g20
I0
F47.0
tp331
a(g11
F47.0
F96.0
tp332
a(g75
F96.0
F144.0
tp333
a(g48
F144.0
F1078.0
tp334
a(g13
F1327.0
F1341.0
tp335
a(g24
F1341.0
F1354.0
tp336
a(g71
F1354.0
F1368.0
tp337
a(g28
F1368.0
F2342.0
tp338
atp339
a(L18L
g193
(lp340
(g32
I0
F22.0
tp341
a(g79
F22.0
F754.0
tp342
a(g58
F754.0
F1163.0
tp343
a(g83
F1327.0
F1334.0
tp344
a(g36
F1334.0
F2105.0
tp345
a(g15
F2105.0
F2420.0
tp346
atp347
a(L19L
g193
(lp348
(g67
I0
F22.0
tp349
a(g56
F22.0
F44.0
tp350
a(g40
F44.0
F874.0
tp351
a(g60
F874.0
F1298.0
tp352
a(g81
F1320.0
F1327.0
tp353
a(g42
F1327.0
F1334.0
tp354
a(g44
F1334.0
F2088.0
tp355
a(g26
F2088.0
F2094.0
tp356
a(g85
F2094.0
F2470.0
tp357
a(g52
F2477.0
F2483.0
tp358
atp359
a(L21L
g193
(lp360
(g77
I0
F22.0
tp361
a(g22
F22.0
F661.0
tp362
a(g34
F661.0
F1320.0
tp363
a(g69
F1327.0
F1334.0
tp364
a(g62
F1334.0
F1962.0
tp365
a(g50
F1962.0
F2477.0
tp366
atp367
atp368
a.