(lp0
(F440.0
F29.46
(lp1
(L3L
Vapac-sin#m3.2xlarge
p2
(lp3
(S'entry'
p4
I0
F0.0
tp5
a(VID00027
p6
F6.0
F112.0
tp7
a(VID00034
p8
F112.0
F218.0
tp9
a(VID00087
p10
F248.0
F387.0
tp11
atp12
a(L4L
g2
(lp13
(VID00020
p14
I0
F6.0
tp15
a(VID00036
p16
F12.0
F180.0
tp17
a(VID00076
p18
F184.0
F331.0
tp19
a(VID00097
p20
F410.0
F412.0
tp21
atp22
a(L6L
g2
(lp23
(VID00044
p24
F6.0
F135.0
tp25
a(VID00072
p26
F198.0
F200.0
tp27
a(VID00096
p28
F200.0
F354.0
tp29
a(VID00099
p30
F436.0
F438.0
tp31
atp32
a(L7L
g2
(lp33
(VID00008
p34
I0
F6.0
tp35
a(VID00041
p36
F11.0
F150.0
tp37
a(VID00064
p38
F244.0
F245.0
tp39
atp40
a(L9L
g2
(lp41
(VID00021
p42
I0
F6.0
tp43
a(VID00006
p44
F6.0
F12.0
tp45
a(VID00012
p46
F12.0
F18.0
tp47
a(VID00039
p48
F18.0
F224.0
tp49
a(VID00047
p50
F242.0
F244.0
tp51
a(VID00089
p52
F273.0
F407.0
tp53
atp54
a(L10L
g2
(lp55
(VID00043
p56
F6.0
F174.0
tp57
a(VID00085
p58
F245.0
F438.0
tp59
atp60
a(L14L
g2
(lp61
(VID00031
p62
F6.0
F82.0
tp63
a(VID00033
p64
F82.0
F173.0
tp65
a(VID00080
p66
F184.0
F270.0
tp67
a(VID00084
p68
F270.0
F424.0
tp69
atp70
a(L19L
Vapac-sin#m3.xlarge
p71
(lp72
(VID00038
p73
F23.0
F242.0
tp74
a(VID00066
p75
F244.0
F247.0
tp76
atp77
a(L26L
g71
(lp78
(VID00018
p79
I0
F11.0
tp80
a(VID00019
p81
F11.0
F22.0
tp82
atp83
a(L40L
g2
(lp84
(VID00001
p85
I0
F6.0
tp86
a(VID00010
p87
F6.0
F12.0
tp88
a(VID00040
p89
F22.0
F127.0
tp90
a(VID00090
p91
F247.0
F404.0
tp92
atp93
a(L49L
g2
(lp94
(VID00004
p95
I0
F6.0
tp96
a(VID00023
p97
F11.0
F156.0
tp98
a(VID00050
p99
F182.0
F184.0
tp100
a(VID00067
p101
F244.0
F246.0
tp102
a(VID00063
p103
F246.0
F248.0
tp104
a(VID00070
p105
F248.0
F250.0
tp106
atp107
a(L52L
g2
(lp108
(VID00005
p109
I0
F6.0
tp110
a(VID00029
p111
F12.0
F84.0
tp112
a(VID00083
p113
F184.0
F314.0
tp114
a(VID00079
p115
F316.0
F407.0
tp116
a(VID00098
p117
F438.0
F440.0
tp118
atp119
a(L53L
g71
(lp120
(VID00000
p121
I0
F11.0
tp122
a(VID00003
p123
F11.0
F22.0
tp124
a(VID00082
p125
F183.0
F410.0
tp126
atp127
a(L54L
g2
(lp128
(VID00025
p129
F6.0
F180.0
tp130
a(VID00046
p131
F180.0
F182.0
tp132
a(VID00059
p133
F182.0
F184.0
tp134
a(VID00078
p135
F184.0
F338.0
tp136
a(VID00088
p137
F338.0
F438.0
tp138
atp139
a(L55L
g2
(lp140
(VID00007
p141
I0
F6.0
tp142
a(VID00014
p143
F6.0
F12.0
tp144
a(VID00042
p145
F22.0
F192.0
tp146
a(VID00092
p147
F259.0
F364.0
tp148
atp149
a(L57L
g71
(lp150
(VID00022
p151
I0
F11.0
tp152
a(VID00028
p153
F11.0
F157.0
tp154
atp155
a(L61L
g71
(lp156
(VID00016
p157
I0
F12.0
tp158
a(VID00015
p159
F12.0
F23.0
tp160
a(VID00091
p161
F246.0
F435.0
tp162
atp163
a(L62L
Vapac-sin#m3.large
p164
(lp165
(VID00017
p166
I0
F22.0
tp167
a(VID00048
p168
F192.0
F198.0
tp169
atp170
a(L63L
g2
(lp171
(VID00030
p172
F6.0
F155.0
tp173
a(VID00074
p174
F184.0
F365.0
tp175
atp176
a(L68L
Vapac-sin#m1.xlarge
p177
(lp178
(VID00051
p179
F182.0
F187.0
tp180
a(VID00057
p181
F187.0
F192.0
tp182
a(VID00069
p183
F198.0
F203.0
tp184
a(VID00071
p185
F203.0
F208.0
tp186
atp187
a(L70L
g2
(lp188
(VID00002
p189
I0
F6.0
tp190
a(VID00013
p191
F6.0
F12.0
tp192
a(VID00011
p193
F12.0
F17.0
tp194
a(VID00037
p195
F17.0
F179.0
tp196
a(VID00061
p197
F244.0
F245.0
tp198
a(VID00094
p199
F250.0
F386.0
tp200
atp201
a(L74L
g2
(lp202
(VID00058
p203
F182.0
F183.0
tp204
a(VID00054
p205
F183.0
F184.0
tp206
a(VID00073
p207
F186.0
F325.0
tp208
atp209
a(L76L
g2
(lp210
(VID00045
p211
F11.0
F170.0
tp212
a(VID00053
p213
F182.0
F183.0
tp214
a(VID00060
p215
F244.0
F246.0
tp216
a(VID00062
p217
F246.0
F247.0
tp218
a(VID00086
p219
F247.0
F436.0
tp220
atp221
a(L77L
Vapac-sin#m3.medium
p222
(lp223
(VID00009
p224
I0
F49.0
tp225
a(VID00068
p226
F244.0
F259.0
tp227
a(VID00065
p228
F259.0
F273.0
tp229
atp230
a(L80L
g2
(lp231
(VID00077
p232
F183.0
F314.0
tp233
a(VID00055
p234
F314.0
F316.0
tp235
atp236
a(L82L
g2
(lp237
(VID00024
p238
F6.0
F105.0
tp239
a(VID00035
p240
F105.0
F209.0
tp241
a(VID00075
p242
F209.0
F399.0
tp243
atp244
a(L88L
g2
(lp245
(VID00032
p246
F49.0
F180.0
tp247
a(VID00052
p248
F182.0
F184.0
tp249
a(VID00081
p250
F192.0
F356.0
tp251
atp252
a(L89L
g2
(lp253
(VID00026
p254
F22.0
F159.0
tp255
a(VID00056
p256
F182.0
F184.0
tp257
a(VID00049
p258
F184.0
F186.0
tp259
a(VID00093
p260
F203.0
F357.0
tp261
a(VID00095
p262
F357.0
F436.0
tp263
atp264
a(L95L
g177
(lp265
(S'exit'
p266
F440.0
F440.0
tp267
atp268
atp269
a(F1114.0
F26.95
(lp270
(L3L
g2
(lp271
(g4
I0
F0.0
tp272
a(g6
F6.0
F112.0
tp273
a(g8
F112.0
F218.0
tp274
a(g10
F497.0
F636.0
tp275
atp276
a(L4L
g2
(lp277
(g14
I0
F6.0
tp278
a(g16
F12.0
F180.0
tp279
a(g18
F493.0
F640.0
tp280
a(g20
F1112.0
F1114.0
tp281
atp282
a(L6L
g2
(lp283
(g24
F6.0
F135.0
tp284
a(g26
F198.0
F200.0
tp285
a(g28
F200.0
F354.0
tp286
a(g30
F739.0
F741.0
tp287
atp288
a(L7L
g2
(lp289
(g34
I0
F6.0
tp290
a(g36
F11.0
F150.0
tp291
a(g38
F244.0
F245.0
tp292
atp293
a(L9L
g2
(lp294
(g42
I0
F6.0
tp295
a(g44
F6.0
F12.0
tp296
a(g46
F12.0
F18.0
tp297
a(g48
F18.0
F224.0
tp298
a(g50
F242.0
F244.0
tp299
a(g52
F273.0
F407.0
tp300
atp301
a(L10L
g2
(lp302
(g56
F6.0
F174.0
tp303
a(g58
F245.0
F438.0
tp304
atp305
a(L14L
g2
(lp306
(g62
F6.0
F82.0
tp307
a(g64
F82.0
F173.0
tp308
a(g66
F493.0
F579.0
tp309
a(g68
F579.0
F733.0
tp310
atp311
a(L19L
g71
(lp312
(g73
F23.0
F242.0
tp313
a(g75
F244.0
F247.0
tp314
atp315
a(L26L
g71
(lp316
(g79
I0
F11.0
tp317
a(g81
F11.0
F22.0
tp318
atp319
a(L40L
g2
(lp320
(g85
I0
F6.0
tp321
a(g87
F6.0
F12.0
tp322
a(g89
F22.0
F127.0
tp323
a(g91
F247.0
F404.0
tp324
atp325
a(L49L
g2
(lp326
(g95
I0
F6.0
tp327
a(g97
F11.0
F156.0
tp328
a(g99
F491.0
F493.0
tp329
a(g101
F493.0
F495.0
tp330
a(g103
F495.0
F497.0
tp331
a(g105
F497.0
F499.0
tp332
atp333
a(L52L
g2
(lp334
(g109
I0
F6.0
tp335
a(g111
F12.0
F84.0
tp336
a(g113
F493.0
F623.0
tp337
a(g115
F1021.0
F1112.0
tp338
a(g117
F1112.0
F1114.0
tp339
atp340
a(L53L
g71
(lp341
(g121
I0
F11.0
tp342
a(g123
F11.0
F22.0
tp343
a(g125
F496.0
F723.0
tp344
atp345
a(L54L
g2
(lp346
(g129
F6.0
F180.0
tp347
a(g131
F489.0
F491.0
tp348
a(g133
F491.0
F493.0
tp349
a(g135
F502.0
F656.0
tp350
a(g137
F656.0
F756.0
tp351
atp352
a(L55L
g2
(lp353
(g141
I0
F6.0
tp354
a(g143
F6.0
F12.0
tp355
a(g145
F22.0
F192.0
tp356
a(g147
F259.0
F364.0
tp357
atp358
a(L57L
g71
(lp359
(g151
I0
F11.0
tp360
a(g153
F11.0
F157.0
tp361
atp362
a(L61L
g71
(lp363
(g157
I0
F12.0
tp364
a(g159
F12.0
F23.0
tp365
a(g161
F495.0
F684.0
tp366
atp367
a(L62L
g164
(lp368
(g166
I0
F22.0
tp369
a(g168
F192.0
F198.0
tp370
atp371
a(L63L
g177
(lp372
(g172
F6.0
F489.0
tp373
a(g174
F493.0
F1080.0
tp374
atp375
a(L68L
g177
(lp376
(g179
F491.0
F496.0
tp377
a(g181
F496.0
F501.0
tp378
a(g183
F501.0
F506.0
tp379
a(g185
F506.0
F511.0
tp380
atp381
a(L70L
g2
(lp382
(g189
I0
F6.0
tp383
a(g191
F6.0
F12.0
tp384
a(g193
F12.0
F17.0
tp385
a(g195
F17.0
F179.0
tp386
a(g197
F244.0
F245.0
tp387
a(g199
F499.0
F635.0
tp388
atp389
a(L74L
g164
(lp390
(g203
F491.0
F496.0
tp391
a(g205
F496.0
F502.0
tp392
a(g207
F502.0
F1058.0
tp393
atp394
a(L76L
g2
(lp395
(g211
F11.0
F170.0
tp396
a(g213
F491.0
F492.0
tp397
a(g215
F492.0
F494.0
tp398
a(g217
F494.0
F495.0
tp399
a(g219
F495.0
F684.0
tp400
atp401
a(L77L
g222
(lp402
(g224
I0
F49.0
tp403
a(g226
F244.0
F259.0
tp404
a(g228
F259.0
F273.0
tp405
atp406
a(L80L
g164
(lp407
(g232
F492.0
F1015.0
tp408
a(g234
F1015.0
F1021.0
tp409
atp410
a(L82L
g2
(lp411
(g238
F6.0
F105.0
tp412
a(g240
F105.0
F209.0
tp413
a(g242
F496.0
F686.0
tp414
atp415
a(L88L
g2
(lp416
(g246
F49.0
F180.0
tp417
a(g248
F491.0
F493.0
tp418
a(g250
F501.0
F665.0
tp419
atp420
a(L89L
g2
(lp421
(g254
F22.0
F159.0
tp422
a(g256
F491.0
F493.0
tp423
a(g258
F493.0
F495.0
tp424
a(g260
F506.0
F660.0
tp425
a(g262
F660.0
F739.0
tp426
atp427
a(L95L
g177
(lp428
(g266
F1114.0
F1114.0
tp429
atp430
atp431
a(F1365.0
F24.12
(lp432
(L3L
g2
(lp433
(g4
I0
F0.0
tp434
a(g6
F6.0
F112.0
tp435
a(g8
F112.0
F218.0
tp436
a(g10
F732.0
F871.0
tp437
atp438
a(L4L
g2
(lp439
(g14
I0
F6.0
tp440
a(g16
F12.0
F180.0
tp441
a(g18
F510.0
F657.0
tp442
a(g20
F1221.0
F1223.0
tp443
atp444
a(L6L
g2
(lp445
(g24
F6.0
F135.0
tp446
a(g26
F732.0
F734.0
tp447
a(g28
F734.0
F888.0
tp448
a(g30
F970.0
F972.0
tp449
atp450
a(L7L
g2
(lp451
(g34
I0
F6.0
tp452
a(g36
F11.0
F150.0
tp453
a(g38
F728.0
F729.0
tp454
atp455
a(L9L
g2
(lp456
(g42
I0
F6.0
tp457
a(g44
F6.0
F12.0
tp458
a(g46
F12.0
F18.0
tp459
a(g48
F18.0
F224.0
tp460
a(g50
F726.0
F728.0
tp461
a(g52
F757.0
F891.0
tp462
atp463
a(L10L
g2
(lp464
(g56
F6.0
F174.0
tp465
a(g58
F729.0
F922.0
tp466
atp467
a(L14L
g2
(lp468
(g62
F6.0
F82.0
tp469
a(g64
F82.0
F173.0
tp470
a(g66
F510.0
F596.0
tp471
a(g68
F730.0
F884.0
tp472
atp473
a(L19L
g71
(lp474
(g73
F23.0
F242.0
tp475
a(g75
F728.0
F731.0
tp476
atp477
a(L26L
g71
(lp478
(g79
I0
F11.0
tp479
a(g81
F11.0
F22.0
tp480
atp481
a(L40L
g164
(lp482
(g85
I0
F23.0
tp483
a(g87
F23.0
F46.0
tp484
a(g89
F46.0
F467.0
tp485
a(g91
F731.0
F1358.0
tp486
atp487
a(L49L
g2
(lp488
(g95
I0
F6.0
tp489
a(g97
F11.0
F156.0
tp490
a(g99
F508.0
F510.0
tp491
a(g101
F728.0
F730.0
tp492
a(g103
F730.0
F732.0
tp493
a(g105
F732.0
F734.0
tp494
atp495
a(L52L
g164
(lp496
(g109
I0
F22.0
tp497
a(g111
F22.0
F311.0
tp498
a(g113
F510.0
F1029.0
tp499
a(g117
F1358.0
F1365.0
tp500
atp501
a(L53L
g71
(lp502
(g121
I0
F11.0
tp503
a(g123
F11.0
F22.0
tp504
a(g125
F513.0
F740.0
tp505
atp506
a(L54L
g2
(lp507
(g129
F6.0
F180.0
tp508
a(g131
F506.0
F508.0
tp509
a(g133
F508.0
F510.0
tp510
a(g135
F519.0
F673.0
tp511
a(g137
F729.0
F829.0
tp512
atp513
a(L55L
g164
(lp514
(g141
I0
F23.0
tp515
a(g143
F23.0
F46.0
tp516
a(g145
F46.0
F726.0
tp517
a(g147
F743.0
F1164.0
tp518
atp519
a(L57L
g71
(lp520
(g151
I0
F11.0
tp521
a(g153
F22.0
F168.0
tp522
a(g115
F1038.0
F1221.0
tp523
atp524
a(L61L
g71
(lp525
(g157
I0
F12.0
tp526
a(g159
F12.0
F23.0
tp527
a(g161
F730.0
F919.0
tp528
atp529
a(L62L
g164
(lp530
(g166
I0
F22.0
tp531
a(g168
F726.0
F732.0
tp532
atp533
a(L63L
g177
(lp534
(g172
F23.0
F506.0
tp535
a(g174
F510.0
F1097.0
tp536
atp537
a(L68L
g177
(lp538
(g179
F508.0
F513.0
tp539
a(g181
F513.0
F518.0
tp540
a(g183
F732.0
F737.0
tp541
a(g185
F737.0
F742.0
tp542
atp543
a(L70L
g2
(lp544
(g189
I0
F6.0
tp545
a(g191
F6.0
F12.0
tp546
a(g193
F12.0
F17.0
tp547
a(g195
F46.0
F208.0
tp548
a(g197
F728.0
F729.0
tp549
a(g199
F734.0
F870.0
tp550
atp551
a(L74L
g164
(lp552
(g203
F508.0
F513.0
tp553
a(g205
F513.0
F519.0
tp554
a(g207
F519.0
F1075.0
tp555
atp556
a(L76L
g2
(lp557
(g211
F11.0
F170.0
tp558
a(g213
F508.0
F509.0
tp559
a(g215
F728.0
F730.0
tp560
a(g217
F730.0
F731.0
tp561
a(g219
F731.0
F920.0
tp562
atp563
a(L77L
g222
(lp564
(g224
I0
F49.0
tp565
a(g226
F728.0
F743.0
tp566
a(g228
F743.0
F757.0
tp567
atp568
a(L80L
g164
(lp569
(g232
F509.0
F1032.0
tp570
a(g234
F1032.0
F1038.0
tp571
atp572
a(L82L
g2
(lp573
(g238
F23.0
F122.0
tp574
a(g240
F122.0
F226.0
tp575
a(g242
F513.0
F703.0
tp576
atp577
a(L88L
g2
(lp578
(g246
F49.0
F180.0
tp579
a(g248
F508.0
F510.0
tp580
a(g250
F518.0
F682.0
tp581
atp582
a(L89L
g2
(lp583
(g254
F22.0
F159.0
tp584
a(g256
F508.0
F510.0
tp585
a(g258
F510.0
F512.0
tp586
a(g260
F737.0
F891.0
tp587
a(g262
F891.0
F970.0
tp588
atp589
a(L95L
g177
(lp590
(g266
F1365.0
F1365.0
tp591
atp592
atp593
a(F1430.0
F16.88
(lp594
(L6L
g2
(lp595
(g172
F23.0
F172.0
tp596
a(g246
F172.0
F303.0
tp597
a(g179
F492.0
F494.0
tp598
a(g135
F498.0
F652.0
tp599
a(g50
F942.0
F944.0
tp600
a(g101
F944.0
F946.0
tp601
a(g260
F946.0
F1100.0
tp602
a(g30
F1423.0
F1425.0
tp603
atp604
a(L7L
g222
(lp605
(g20
F1201.0
F1215.0
tp606
atp607
a(L10L
g2
(lp608
(g42
I0
F6.0
tp609
a(g97
F22.0
F167.0
tp610
a(g131
F490.0
F492.0
tp611
a(g143
F492.0
F498.0
tp612
a(g226
F944.0
F946.0
tp613
a(g52
F950.0
F1084.0
tp614
a(g266
F1430.0
F1430.0
tp615
atp616
a(L13L
g71
(lp617
(g157
I0
F12.0
tp618
atp619
a(L14L
g2
(lp620
(g111
F144.0
F216.0
tp621
a(g207
F501.0
F640.0
tp622
a(g75
F944.0
F945.0
tp623
a(g217
F945.0
F946.0
tp624
a(g117
F1428.0
F1430.0
tp625
atp626
a(L16L
g164
(lp627
(g18
F534.0
F1121.0
tp628
atp629
a(L18L
Vapac-sin#m1.medium
p630
(lp631
(g213
F492.0
F510.0
tp632
atp633
a(L19L
g71
(lp634
(g62
F179.0
F331.0
tp635
a(g203
F492.0
F495.0
tp636
a(g8
F495.0
F706.0
tp637
a(g38
F944.0
F947.0
tp638
a(g228
F947.0
F950.0
tp639
a(g26
F950.0
F953.0
tp640
atp641
a(L22L
g222
(lp642
(g46
I0
F48.0
tp643
a(g99
F492.0
F508.0
tp644
atp645
a(L24L
g164
(lp646
(g141
I0
F23.0
tp647
a(g238
F37.0
F434.0
tp648
a(g191
F434.0
F456.0
tp649
a(g256
F492.0
F499.0
tp650
a(g166
F499.0
F521.0
tp651
atp652
a(L27L
g164
(lp653
(g115
F495.0
F861.0
tp654
a(g105
F934.0
F940.0
tp655
atp656
a(L29L
Vapac-sin#m1.small
p657
(lp658
(g248
F492.0
F534.0
tp659
atp660
a(L37L
g657
(lp661
(g103
F944.0
F987.0
tp662
a(g185
F987.0
F1028.0
tp663
atp664
a(L38L
g71
(lp665
(g234
F492.0
F495.0
tp666
a(g205
F495.0
F498.0
tp667
a(g258
F498.0
F501.0
tp668
a(g36
F501.0
F778.0
tp669
atp670
a(L39L
g71
(lp671
(g123
I0
F11.0
tp672
a(g195
F498.0
F822.0
tp673
a(g219
F946.0
F1324.0
tp674
atp675
a(L44L
g71
(lp676
(g151
I0
F11.0
tp677
a(g14
F11.0
F22.0
tp678
a(g95
F22.0
F34.0
tp679
a(g254
F34.0
F307.0
tp680
a(g64
F307.0
F490.0
tp681
a(g159
F490.0
F501.0
tp682
a(g10
F987.0
F1265.0
tp683
a(g262
F1265.0
F1423.0
tp684
atp685
a(L45L
g164
(lp686
(g109
I0
F22.0
tp687
a(g224
F22.0
F44.0
tp688
a(g81
F44.0
F67.0
tp689
a(g147
F946.0
F1367.0
tp690
atp691
a(L52L
g71
(lp692
(g153
F22.0
F168.0
tp693
a(g34
F168.0
F179.0
tp694
a(g16
F456.0
F792.0
tp695
a(g68
F946.0
F1254.0
tp696
atp697
a(L55L
g71
(lp698
(g56
F22.0
F358.0
tp699
a(g73
F501.0
F720.0
tp700
a(g197
F944.0
F947.0
tp701
a(g28
F953.0
F1260.0
tp702
atp703
a(L58L
g71
(lp704
(g129
F6.0
F353.0
tp705
a(g48
F353.0
F766.0
tp706
a(g161
F946.0
F1135.0
tp707
atp708
a(L60L
Vapac-sin#m1.large
p709
(lp710
(g85
I0
F37.0
tp711
atp712
a(L63L
g2
(lp713
(g87
I0
F6.0
tp714
a(g133
F492.0
F494.0
tp715
a(g215
F944.0
F946.0
tp716
atp717
a(L65L
g71
(lp718
(g240
F48.0
F256.0
tp719
a(g242
F494.0
F874.0
tp720
a(g250
F874.0
F1201.0
tp721
atp722
a(L68L
g164
(lp723
(g121
I0
F22.0
tp724
a(g89
F521.0
F942.0
tp725
atp726
a(L70L
g2
(lp727
(g189
I0
F6.0
tp728
a(g232
F510.0
F641.0
tp729
a(g66
F641.0
F727.0
tp730
a(g145
F727.0
F897.0
tp731
a(g137
F947.0
F1047.0
tp732
a(g199
F1047.0
F1183.0
tp733
atp734
a(L74L
g71
(lp735
(g4
I0
F0.0
tp736
atp737
a(L76L
g71
(lp738
(g211
F11.0
F329.0
tp739
a(g24
F329.0
F586.0
tp740
a(g58
F947.0
F1334.0
tp741
atp742
a(L86L
g657
(lp743
(g44
I0
F144.0
tp744
a(g193
F144.0
F283.0
tp745
atp746
a(L89L
g177
(lp747
(g125
F495.0
F864.0
tp748
atp749
a(L90L
g164
(lp750
(g6
F34.0
F458.0
tp751
a(g79
F458.0
F480.0
tp752
a(g183
F934.0
F941.0
tp753
atp754
a(L98L
g657
(lp755
(g181
F492.0
F534.0
tp756
a(g168
F897.0
F934.0
tp757
atp758
a(L99L
g71
(lp759
(g113
F494.0
F753.0
tp760
a(g174
F753.0
F1114.0
tp761
a(g91
F1114.0
F1428.0
tp762
atp763
atp764
a(F1923.0
F13.19
(lp765
(L6L
g2
(lp766
(g172
F23.0
F172.0
tp767
a(g246
F172.0
F303.0
tp768
a(g179
F493.0
F495.0
tp769
a(g135
F499.0
F653.0
tp770
a(g50
F1285.0
F1287.0
tp771
a(g101
F1287.0
F1289.0
tp772
a(g260
F1329.0
F1483.0
tp773
a(g30
F1762.0
F1764.0
tp774
atp775
a(L7L
g222
(lp776
(g20
F1909.0
F1923.0
tp777
atp778
a(L10L
g71
(lp779
(g42
I0
F12.0
tp780
a(g97
F22.0
F313.0
tp781
a(g131
F490.0
F493.0
tp782
a(g143
F493.0
F505.0
tp783
a(g226
F1287.0
F1290.0
tp784
a(g52
F1293.0
F1562.0
tp785
a(g266
F1923.0
F1923.0
tp786
atp787
a(L13L
g657
(lp788
(g157
I0
F150.0
tp789
atp790
a(L14L
g164
(lp791
(g111
F144.0
F433.0
tp792
a(g207
F502.0
F1058.0
tp793
a(g75
F1287.0
F1293.0
tp794
a(g217
F1293.0
F1298.0
tp795
a(g117
F1711.0
F1718.0
tp796
atp797
a(L16L
g164
(lp798
(g18
F535.0
F1122.0
tp799
atp800
a(L18L
g630
(lp801
(g213
F493.0
F511.0
tp802
atp803
a(L19L
g71
(lp804
(g62
F179.0
F331.0
tp805
a(g203
F493.0
F496.0
tp806
a(g8
F496.0
F707.0
tp807
a(g38
F1287.0
F1290.0
tp808
a(g228
F1290.0
F1293.0
tp809
a(g26
F1322.0
F1325.0
tp810
atp811
a(L22L
g222
(lp812
(g46
I0
F48.0
tp813
a(g99
F493.0
F509.0
tp814
atp815
a(L24L
g164
(lp816
(g141
I0
F23.0
tp817
a(g238
F37.0
F434.0
tp818
a(g191
F434.0
F456.0
tp819
a(g256
F493.0
F500.0
tp820
a(g166
F500.0
F522.0
tp821
atp822
a(L27L
g164
(lp823
(g115
F496.0
F862.0
tp824
a(g105
F1322.0
F1328.0
tp825
atp826
a(L29L
g657
(lp827
(g248
F493.0
F535.0
tp828
atp829
a(L37L
g177
(lp830
(g103
F1287.0
F1292.0
tp831
a(g185
F1322.0
F1327.0
tp832
atp833
a(L38L
g71
(lp834
(g234
F493.0
F496.0
tp835
a(g205
F496.0
F499.0
tp836
a(g258
F499.0
F502.0
tp837
a(g36
F502.0
F779.0
tp838
atp839
a(L39L
g71
(lp840
(g123
I0
F11.0
tp841
a(g195
F505.0
F829.0
tp842
a(g219
F1298.0
F1676.0
tp843
atp844
a(L44L
g71
(lp845
(g151
I0
F11.0
tp846
a(g14
F11.0
F22.0
tp847
a(g95
F22.0
F34.0
tp848
a(g254
F34.0
F307.0
tp849
a(g64
F307.0
F490.0
tp850
a(g159
F490.0
F501.0
tp851
a(g10
F1292.0
F1570.0
tp852
a(g262
F1570.0
F1728.0
tp853
atp854
a(L45L
g164
(lp855
(g109
I0
F22.0
tp856
a(g224
F22.0
F44.0
tp857
a(g81
F44.0
F67.0
tp858
a(g147
F1290.0
F1711.0
tp859
atp860
a(L52L
g71
(lp861
(g153
F22.0
F168.0
tp862
a(g34
F168.0
F179.0
tp863
a(g16
F456.0
F792.0
tp864
a(g68
F1326.0
F1634.0
tp865
atp866
a(L55L
g71
(lp867
(g56
F22.0
F358.0
tp868
a(g73
F501.0
F720.0
tp869
a(g197
F1287.0
F1290.0
tp870
a(g28
F1325.0
F1632.0
tp871
atp872
a(L58L
g71
(lp873
(g129
F11.0
F358.0
tp874
a(g48
F358.0
F771.0
tp875
a(g161
F1289.0
F1478.0
tp876
atp877
a(L60L
g709
(lp878
(g85
I0
F37.0
tp879
atp880
a(L63L
g657
(lp881
(g87
I0
F151.0
tp882
a(g133
F493.0
F535.0
tp883
a(g215
F1287.0
F1326.0
tp884
atp885
a(L65L
g164
(lp886
(g240
F48.0
F464.0
tp887
a(g242
F495.0
F1254.0
tp888
a(g250
F1254.0
F1909.0
tp889
atp890
a(L68L
g164
(lp891
(g121
I0
F22.0
tp892
a(g89
F522.0
F943.0
tp893
atp894
a(L70L
g71
(lp895
(g189
I0
F11.0
tp896
a(g232
F511.0
F772.0
tp897
a(g66
F772.0
F945.0
tp898
a(g145
F945.0
F1285.0
tp899
a(g137
F1290.0
F1490.0
tp900
a(g199
F1490.0
F1762.0
tp901
atp902
a(L74L
g71
(lp903
(g4
I0
F0.0
tp904
atp905
a(L76L
g71
(lp906
(g211
F11.0
F329.0
tp907
a(g24
F329.0
F586.0
tp908
a(g58
F1290.0
F1677.0
tp909
atp910
a(L86L
g657
(lp911
(g44
I0
F144.0
tp912
a(g193
F144.0
F283.0
tp913
atp914
a(L89L
g177
(lp915
(g125
F496.0
F865.0
tp916
atp917
a(L90L
g164
(lp918
(g6
F34.0
F458.0
tp919
a(g79
F458.0
F480.0
tp920
a(g183
F1322.0
F1329.0
tp921
atp922
a(L98L
g657
(lp923
(g181
F493.0
F535.0
tp924
a(g168
F1285.0
F1322.0
tp925
atp926
a(L99L
g71
(lp927
(g113
F535.0
F794.0
tp928
a(g174
F794.0
F1155.0
tp929
a(g91
F1293.0
F1607.0
tp930
atp931
atp932
a(F2711.0
F10.74
(lp933
(L2L
g2
(lp934
(g111
F48.0
F120.0
tp935
a(g113
F732.0
F862.0
tp936
a(g66
F862.0
F948.0
tp937
atp938
a(L3L
g2
(lp939
(g4
I0
F0.0
tp940
atp941
a(L5L
g222
(lp942
(g203
F730.0
F741.0
tp943
a(g157
F741.0
F791.0
tp944
a(g89
F791.0
F1703.0
tp945
a(g147
F1744.0
F2656.0
tp946
atp947
a(L6L
g2
(lp948
(g6
F50.0
F156.0
tp949
a(g133
F730.0
F732.0
tp950
a(g115
F770.0
F861.0
tp951
atp952
a(L10L
g164
(lp953
(g56
F147.0
F818.0
tp954
a(g48
F818.0
F1643.0
tp955
a(g226
F1737.0
F1744.0
tp956
a(g38
F1744.0
F1750.0
tp957
a(g185
F1750.0
F1756.0
tp958
atp959
a(L11L
g709
(lp960
(g181
F730.0
F741.0
tp961
a(g103
F1737.0
F1748.0
tp962
atp963
a(L19L
g71
(lp964
(g254
F23.0
F296.0
tp965
a(g248
F730.0
F733.0
tp966
a(g183
F1176.0
F1179.0
tp967
a(g260
F1179.0
F1488.0
tp968
atp969
a(L24L
g164
(lp970
(g42
I0
F24.0
tp971
a(g97
F142.0
F723.0
tp972
a(g18
F733.0
F1320.0
tp973
a(g26
F1320.0
F1327.0
tp974
atp975
a(L27L
g657
(lp976
(g20
F2124.0
F2166.0
tp977
atp978
a(L28L
g177
(lp979
(g50
F1731.0
F1737.0
tp980
a(g215
F1737.0
F1742.0
tp981
atp982
a(L29L
g657
(lp983
(g224
I0
F146.0
tp984
atp985
a(L30L
g164
(lp986
(g189
I0
F23.0
tp987
a(g64
F151.0
F517.0
tp988
a(g213
F730.0
F736.0
tp989
a(g28
F1327.0
F1941.0
tp990
atp991
a(L31L
g222
(lp992
(g95
I0
F50.0
tp993
a(g141
F50.0
F101.0
tp994
a(g258
F730.0
F743.0
tp995
a(g101
F1737.0
F1751.0
tp996
atp997
a(L35L
g657
(lp998
(g121
I0
F142.0
tp999
a(g234
F730.0
F770.0
tp1000
a(g256
F770.0
F814.0
tp1001
a(g75
F1737.0
F1774.0
tp1002
atp1003
a(L39L
g164
(lp1004
(g211
F49.0
F685.0
tp1005
a(g179
F730.0
F737.0
tp1006
a(g242
F737.0
F1496.0
tp1007
a(g135
F1496.0
F2112.0
tp1008
a(g10
F2112.0
F2667.0
tp1009
atp1010
a(L43L
g657
(lp1011
(g46
I0
F143.0
tp1012
atp1013
a(L47L
g164
(lp1014
(g238
F11.0
F408.0
tp1015
a(g166
F408.0
F430.0
tp1016
a(g145
F430.0
F1110.0
tp1017
a(g91
F1774.0
F2401.0
tp1018
atp1019
a(L48L
g164
(lp1020
(g246
F146.0
F669.0
tp1021
a(g195
F669.0
F1316.0
tp1022
a(g105
F1316.0
F1322.0
tp1023
atp1024
a(L50L
g164
(lp1025
(g172
F101.0
F695.0
tp1026
a(g217
F1737.0
F1742.0
tp1027
atp1028
a(L51L
g164
(lp1029
(g129
F23.0
F717.0
tp1030
a(g16
F717.0
F1390.0
tp1031
a(g232
F1390.0
F1913.0
tp1032
a(g52
F1913.0
F2450.0
tp1033
atp1034
a(L52L
g71
(lp1035
(g85
I0
F11.0
tp1036
a(g191
F11.0
F22.0
tp1037
a(g174
F777.0
F1138.0
tp1038
a(g58
F2135.0
F2522.0
tp1039
a(g117
F2708.0
F2711.0
tp1040
atp1041
a(L54L
g222
(lp1042
(g24
F24.0
F1139.0
tp1043
a(g125
F1139.0
F2124.0
tp1044
a(g197
F2124.0
F2135.0
tp1045
a(g30
F2440.0
F2453.0
tp1046
atp1047
a(L55L
g657
(lp1048
(g14
I0
F147.0
tp1049
a(g81
F147.0
F294.0
tp1050
a(g168
F1139.0
F1176.0
tp1051
atp1052
a(L57L
g222
(lp1053
(g151
I0
F49.0
tp1054
atp1055
a(L58L
g164
(lp1056
(g123
I0
F23.0
tp1057
a(g8
F757.0
F1180.0
tp1058
a(g68
F1742.0
F2359.0
tp1059
atp1060
a(L62L
g222
(lp1061
(g143
I0
F51.0
tp1062
a(g262
F1756.0
F2440.0
tp1063
atp1064
a(L63L
g164
(lp1065
(g131
F723.0
F730.0
tp1066
a(g250
F741.0
F1396.0
tp1067
a(g207
F1396.0
F1952.0
tp1068
a(g219
F1952.0
F2708.0
tp1069
atp1070
a(L64L
g164
(lp1071
(g205
F730.0
F736.0
tp1072
a(g193
F736.0
F757.0
tp1073
a(g159
F757.0
F780.0
tp1074
a(g199
F1322.0
F1865.0
tp1075
atp1076
a(L70L
g71
(lp1077
(g34
I0
F11.0
tp1078
a(g62
F11.0
F163.0
tp1079
a(g240
F163.0
F371.0
tp1080
atp1081
a(L71L
g657
(lp1082
(g87
I0
F151.0
tp1083
a(g99
F730.0
F777.0
tp1084
a(g228
F1737.0
F1778.0
tp1085
atp1086
a(L73L
g71
(lp1087
(g266
F2711.0
F2711.0
tp1088
atp1089
a(L77L
g222
(lp1090
(g153
F48.0
F682.0
tp1091
a(g137
F1750.0
F2618.0
tp1092
atp1093
a(L85L
g222
(lp1094
(g109
I0
F48.0
tp1095
a(g73
F780.0
F1731.0
tp1096
atp1097
a(L98L
g222
(lp1098
(g44
I0
F48.0
tp1099
a(g161
F1751.0
F2570.0
tp1100
atp1101
a(L101L
g222
(lp1102
(g79
I0
F48.0
tp1103
a(g36
F48.0
F1249.0
tp1104
atp1105
atp1106
a(F3296.0
F9.32
(lp1107
(L2L
g2
(lp1108
(g111
F48.0
F120.0
tp1109
a(g113
F1074.0
F1204.0
tp1110
a(g66
F1204.0
F1290.0
tp1111
atp1112
a(L3L
g2
(lp1113
(g4
I0
F0.0
tp1114
atp1115
a(L5L
g709
(lp1116
(g203
F1068.0
F1077.0
tp1117
a(g157
F1077.0
F1114.0
tp1118
a(g89
F1114.0
F1798.0
tp1119
a(g147
F2422.0
F3106.0
tp1120
atp1121
a(L6L
g164
(lp1122
(g6
F50.0
F474.0
tp1123
a(g133
F1068.0
F1074.0
tp1124
a(g115
F1108.0
F1474.0
tp1125
atp1126
a(L10L
g71
(lp1127
(g56
F147.0
F483.0
tp1128
a(g48
F1114.0
F1527.0
tp1129
a(g226
F2419.0
F2422.0
tp1130
a(g38
F2422.0
F2425.0
tp1131
a(g185
F2425.0
F2428.0
tp1132
atp1133
a(L11L
g657
(lp1134
(g181
F1068.0
F1110.0
tp1135
a(g103
F2419.0
F2462.0
tp1136
atp1137
a(L19L
g71
(lp1138
(g254
F23.0
F296.0
tp1139
a(g248
F1068.0
F1071.0
tp1140
a(g183
F1176.0
F1179.0
tp1141
a(g260
F1179.0
F1488.0
tp1142
atp1143
a(L24L
g164
(lp1144
(g97
F142.0
F723.0
tp1145
a(g18
F1071.0
F1658.0
tp1146
a(g26
F1658.0
F1665.0
tp1147
atp1148
a(L28L
g177
(lp1149
(g50
F2413.0
F2419.0
tp1150
a(g215
F2419.0
F2424.0
tp1151
atp1152
a(L29L
g657
(lp1153
(g224
I0
F146.0
tp1154
atp1155
a(L30L
g164
(lp1156
(g64
F151.0
F517.0
tp1157
a(g213
F1068.0
F1074.0
tp1158
a(g28
F1665.0
F2279.0
tp1159
atp1160
a(L31L
g222
(lp1161
(g95
I0
F50.0
tp1162
a(g141
F50.0
F101.0
tp1163
a(g258
F1068.0
F1081.0
tp1164
a(g101
F2419.0
F2433.0
tp1165
atp1166
a(L35L
g657
(lp1167
(g121
I0
F142.0
tp1168
a(g234
F1068.0
F1108.0
tp1169
a(g256
F1108.0
F1152.0
tp1170
a(g20
F2450.0
F2492.0
tp1171
a(g75
F2492.0
F2529.0
tp1172
atp1173
a(L39L
g164
(lp1174
(g211
F49.0
F685.0
tp1175
a(g179
F1068.0
F1075.0
tp1176
a(g242
F1075.0
F1834.0
tp1177
a(g135
F1834.0
F2450.0
tp1178
a(g10
F2462.0
F3017.0
tp1179
atp1180
a(L43L
g657
(lp1181
(g46
I0
F143.0
tp1182
atp1183
a(L47L
g164
(lp1184
(g238
F11.0
F408.0
tp1185
a(g166
F408.0
F430.0
tp1186
a(g145
F430.0
F1110.0
tp1187
a(g91
F2529.0
F3156.0
tp1188
atp1189
a(L48L
g164
(lp1190
(g42
I0
F24.0
tp1191
a(g189
F24.0
F47.0
tp1192
a(g246
F146.0
F669.0
tp1193
a(g195
F669.0
F1316.0
tp1194
a(g105
F1316.0
F1322.0
tp1195
atp1196
a(L50L
g164
(lp1197
(g172
F101.0
F695.0
tp1198
a(g217
F2419.0
F2424.0
tp1199
atp1200
a(L51L
g164
(lp1201
(g129
F47.0
F741.0
tp1202
a(g16
F741.0
F1414.0
tp1203
a(g232
F1414.0
F1937.0
tp1204
a(g52
F2460.0
F2997.0
tp1205
atp1206
a(L52L
g71
(lp1207
(g85
I0
F11.0
tp1208
a(g191
F11.0
F22.0
tp1209
a(g174
F1115.0
F1476.0
tp1210
a(g58
F2430.0
F2817.0
tp1211
a(g117
F3293.0
F3296.0
tp1212
atp1213
a(L54L
g222
(lp1214
(g24
F24.0
F1139.0
tp1215
a(g125
F1139.0
F2124.0
tp1216
a(g197
F2419.0
F2430.0
tp1217
a(g30
F3112.0
F3125.0
tp1218
atp1219
a(L55L
g657
(lp1220
(g14
I0
F147.0
tp1221
a(g81
F147.0
F294.0
tp1222
a(g168
F1139.0
F1176.0
tp1223
atp1224
a(L57L
g222
(lp1225
(g151
I0
F49.0
tp1226
atp1227
a(L58L
g164
(lp1228
(g123
I0
F23.0
tp1229
a(g8
F1126.0
F1549.0
tp1230
a(g68
F2424.0
F3041.0
tp1231
atp1232
a(L62L
g222
(lp1233
(g143
I0
F51.0
tp1234
a(g262
F2428.0
F3112.0
tp1235
atp1236
a(L63L
g164
(lp1237
(g131
F1061.0
F1068.0
tp1238
a(g250
F1110.0
F1765.0
tp1239
a(g207
F1765.0
F2321.0
tp1240
a(g219
F2424.0
F3180.0
tp1241
atp1242
a(L64L
g222
(lp1243
(g205
F1068.0
F1080.0
tp1244
a(g193
F1080.0
F1126.0
tp1245
a(g159
F1126.0
F1176.0
tp1246
a(g199
F1322.0
F2499.0
tp1247
atp1248
a(L70L
g630
(lp1249
(g34
I0
F73.0
tp1250
a(g62
F73.0
F1061.0
tp1251
a(g240
F1061.0
F2413.0
tp1252
atp1253
a(L71L
g657
(lp1254
(g87
I0
F151.0
tp1255
a(g99
F1068.0
F1115.0
tp1256
a(g228
F2419.0
F2460.0
tp1257
atp1258
a(L73L
g164
(lp1259
(g266
F3296.0
F3296.0
tp1260
atp1261
a(L77L
g222
(lp1262
(g153
F48.0
F682.0
tp1263
a(g137
F2425.0
F3293.0
tp1264
atp1265
a(L85L
g222
(lp1266
(g109
I0
F48.0
tp1267
a(g73
F1176.0
F2127.0
tp1268
atp1269
a(L98L
g222
(lp1270
(g44
I0
F48.0
tp1271
a(g161
F2433.0
F3252.0
tp1272
atp1273
a(L101L
g222
(lp1274
(g79
I0
F48.0
tp1275
a(g36
F48.0
F1249.0
tp1276
atp1277
atp1278
a(F3384.0
F5.77
(lp1279
(L2L
g222
(lp1280
(g111
F48.0
F674.0
tp1281
a(g113
F1228.0
F2352.0
tp1282
a(g66
F2352.0
F3100.0
tp1283
atp1284
a(L5L
g222
(lp1285
(g203
F1214.0
F1225.0
tp1286
a(g157
F1225.0
F1275.0
tp1287
a(g89
F1275.0
F2187.0
tp1288
a(g147
F2465.0
F3377.0
tp1289
atp1290
a(L6L
g222
(lp1291
(g6
F150.0
F1068.0
tp1292
a(g133
F1214.0
F1228.0
tp1293
a(g115
F1254.0
F2047.0
tp1294
atp1295
a(L10L
g164
(lp1296
(g56
F147.0
F818.0
tp1297
a(g48
F1275.0
F2100.0
tp1298
a(g226
F2458.0
F2465.0
tp1299
a(g38
F2465.0
F2471.0
tp1300
a(g185
F2471.0
F2477.0
tp1301
atp1302
a(L11L
g657
(lp1303
(g181
F1214.0
F1256.0
tp1304
a(g103
F2458.0
F2501.0
tp1305
atp1306
a(L19L
g222
(lp1307
(g254
F23.0
F1207.0
tp1308
a(g248
F1214.0
F1228.0
tp1309
a(g183
F1252.0
F1267.0
tp1310
a(g260
F1267.0
F2606.0
tp1311
atp1312
a(L24L
g164
(lp1313
(g97
F142.0
F723.0
tp1314
a(g18
F1228.0
F1815.0
tp1315
a(g26
F1815.0
F1822.0
tp1316
atp1317
a(L27L
g657
(lp1318
(g224
I0
F146.0
tp1319
a(g20
F3100.0
F3142.0
tp1320
atp1321
a(L28L
g657
(lp1322
(g50
F2413.0
F2458.0
tp1323
a(g215
F2458.0
F2497.0
tp1324
atp1325
a(L30L
g222
(lp1326
(g64
F151.0
F943.0
tp1327
a(g213
F1214.0
F1226.0
tp1328
a(g28
F1822.0
F3152.0
tp1329
atp1330
a(L31L
g657
(lp1331
(g95
I0
F150.0
tp1332
a(g141
F150.0
F302.0
tp1333
a(g258
F1214.0
F1253.0
tp1334
a(g101
F2458.0
F2499.0
tp1335
atp1336
a(L35L
g657
(lp1337
(g121
I0
F142.0
tp1338
a(g234
F1214.0
F1254.0
tp1339
a(g256
F1254.0
F1298.0
tp1340
a(g75
F2458.0
F2495.0
tp1341
atp1342
a(L38L
g177
(lp1343
(g4
I0
F0.0
tp1344
atp1345
a(L39L
g164
(lp1346
(g211
F49.0
F685.0
tp1347
a(g179
F1214.0
F1221.0
tp1348
a(g242
F1221.0
F1980.0
tp1349
a(g135
F1980.0
F2596.0
tp1350
a(g10
F2596.0
F3151.0
tp1351
atp1352
a(L47L
g164
(lp1353
(g238
F23.0
F420.0
tp1354
a(g166
F420.0
F442.0
tp1355
a(g145
F442.0
F1122.0
tp1356
a(g91
F2495.0
F3122.0
tp1357
atp1358
a(L48L
g164
(lp1359
(g189
I0
F23.0
tp1360
a(g246
F146.0
F669.0
tp1361
a(g195
F669.0
F1316.0
tp1362
a(g105
F1316.0
F1322.0
tp1363
atp1364
a(L50L
g164
(lp1365
(g172
F302.0
F896.0
tp1366
a(g217
F2458.0
F2463.0
tp1367
atp1368
a(L51L
g164
(lp1369
(g129
F23.0
F717.0
tp1370
a(g16
F717.0
F1390.0
tp1371
a(g232
F1390.0
F1913.0
tp1372
a(g52
F2499.0
F3036.0
tp1373
atp1374
a(L52L
g164
(lp1375
(g85
I0
F23.0
tp1376
a(g191
F23.0
F45.0
tp1377
a(g174
F1261.0
F1984.0
tp1378
a(g58
F2469.0
F3242.0
tp1379
a(g117
F3377.0
F3384.0
tp1380
atp1381
a(L54L
g222
(lp1382
(g151
I0
F49.0
tp1383
a(g42
F49.0
F100.0
tp1384
a(g24
F100.0
F1215.0
tp1385
a(g125
F1225.0
F2210.0
tp1386
a(g197
F2458.0
F2469.0
tp1387
a(g30
F3161.0
F3174.0
tp1388
atp1389
a(L55L
g657
(lp1390
(g14
I0
F147.0
tp1391
a(g81
F147.0
F294.0
tp1392
a(g168
F1215.0
F1252.0
tp1393
atp1394
a(L58L
g164
(lp1395
(g123
I0
F23.0
tp1396
a(g8
F1272.0
F1695.0
tp1397
a(g68
F2497.0
F3114.0
tp1398
atp1399
a(L62L
g222
(lp1400
(g143
I0
F51.0
tp1401
a(g262
F2477.0
F3161.0
tp1402
atp1403
a(L63L
g164
(lp1404
(g131
F1207.0
F1214.0
tp1405
a(g250
F1256.0
F1911.0
tp1406
a(g207
F1911.0
F2467.0
tp1407
a(g219
F2467.0
F3223.0
tp1408
atp1409
a(L64L
g222
(lp1410
(g205
F1214.0
F1226.0
tp1411
a(g193
F1226.0
F1272.0
tp1412
a(g159
F1272.0
F1322.0
tp1413
a(g199
F1322.0
F2499.0
tp1414
atp1415
a(L70L
g630
(lp1416
(g34
I0
F73.0
tp1417
a(g62
F73.0
F1061.0
tp1418
a(g240
F1061.0
F2413.0
tp1419
atp1420
a(L71L
g657
(lp1421
(g87
I0
F151.0
tp1422
a(g99
F1214.0
F1261.0
tp1423
a(g228
F2458.0
F2499.0
tp1424
atp1425
a(L73L
g71
(lp1426
(g266
F3384.0
F3384.0
tp1427
atp1428
a(L77L
g222
(lp1429
(g153
F48.0
F682.0
tp1430
a(g137
F2471.0
F3339.0
tp1431
atp1432
a(L85L
g222
(lp1433
(g109
I0
F48.0
tp1434
a(g73
F1322.0
F2273.0
tp1435
atp1436
a(L98L
g222
(lp1437
(g44
I0
F48.0
tp1438
a(g161
F2499.0
F3318.0
tp1439
atp1440
a(L101L
g222
(lp1441
(g46
I0
F48.0
tp1442
a(g79
F48.0
F96.0
tp1443
a(g36
F96.0
F1297.0
tp1444
atp1445
atp1446
a.