(lp0
(F436.0
F14.18
(lp1
(L35L
Vapac-sin#m3.2xlarge
p2
(lp3
(VID00022
p4
F49.0
F194.0
tp5
a(VID00027
p6
F220.0
F222.0
tp7
a(VID00031
p8
F222.0
F224.0
tp9
a(VID00033
p10
F224.0
F226.0
tp11
a(VID00040
p12
F233.0
F429.0
tp13
atp14
a(L4L
g2
(lp15
(VID00006
p16
I0
F6.0
tp17
a(VID00020
p18
F23.0
F175.0
tp19
a(VID00047
p20
F222.0
F339.0
tp21
a(VID00038
p22
F339.0
F422.0
tp23
atp24
a(L37L
g2
(lp25
(VID00009
p26
I0
F6.0
tp27
a(VID00017
p28
F6.0
F218.0
tp29
a(VID00032
p30
F220.0
F222.0
tp31
a(VID00044
p32
F222.0
F420.0
tp33
atp34
a(L39L
g2
(lp35
(VID00003
p36
I0
F6.0
tp37
a(VID00012
p38
F6.0
F122.0
tp39
a(VID00015
p40
F122.0
F214.0
tp41
a(VID00025
p42
F220.0
F222.0
tp43
a(VID00043
p44
F224.0
F370.0
tp45
a(S'exit'
p46
F436.0
F436.0
tp47
atp48
a(L42L
g2
(lp49
(VID00000
p50
I0
F6.0
tp51
a(VID00021
p52
F6.0
F81.0
tp53
a(VID00014
p54
F81.0
F169.0
tp55
a(VID00039
p56
F222.0
F374.0
tp57
atp58
a(L44L
Vapac-sin#m3.medium
p59
(lp60
(VID00010
p61
I0
F49.0
tp62
a(VID00028
p63
F220.0
F233.0
tp64
a(VID00034
p65
F233.0
F247.0
tp66
atp67
a(L47L
g2
(lp68
(VID00005
p69
I0
F6.0
tp70
a(VID00004
p71
F6.0
F12.0
tp72
a(VID00007
p73
F12.0
F17.0
tp74
a(VID00008
p75
F17.0
F23.0
tp76
a(VID00013
p77
F48.0
F197.0
tp78
a(VID00042
p79
F222.0
F412.0
tp80
a(VID00049
p81
F434.0
F436.0
tp82
atp83
a(L20L
g2
(lp84
(VID00016
p85
F12.0
F184.0
tp86
a(VID00024
p87
F218.0
F220.0
tp88
a(VID00035
p89
F220.0
F222.0
tp90
a(VID00046
p91
F247.0
F364.0
tp92
atp93
a(L22L
g2
(lp94
(VID00048
p95
F247.0
F394.0
tp96
atp97
a(L25L
g59
(lp98
(VID00001
p99
I0
F48.0
tp100
a(VID00029
p101
F220.0
F234.0
tp102
a(VID00036
p103
F234.0
F247.0
tp104
atp105
a(L26L
g2
(lp106
(S'entry'
p107
I0
F0.0
tp108
a(VID00018
p109
F6.0
F210.0
tp110
a(VID00030
p111
F220.0
F222.0
tp112
a(VID00045
p113
F226.0
F347.0
tp114
atp115
a(L36L
g2
(lp116
(VID00019
p117
F17.0
F184.0
tp118
a(VID00037
p119
F222.0
F434.0
tp120
atp121
a(L31L
g2
(lp122
(VID00002
p123
I0
F6.0
tp124
a(VID00011
p125
F6.0
F12.0
tp126
a(VID00023
p127
F12.0
F144.0
tp128
a(VID00026
p129
F220.0
F222.0
tp130
a(VID00041
p131
F234.0
F379.0
tp132
atp133
atp134
a(F837.0
F13.23
(lp135
(L35L
g2
(lp136
(g4
F49.0
F194.0
tp137
a(g6
F220.0
F222.0
tp138
a(g8
F222.0
F224.0
tp139
a(g10
F224.0
F226.0
tp140
a(g12
F233.0
F429.0
tp141
atp142
a(L4L
g2
(lp143
(g16
I0
F6.0
tp144
a(g18
F23.0
F175.0
tp145
a(g20
F222.0
F339.0
tp146
a(g22
F339.0
F422.0
tp147
atp148
a(L37L
g2
(lp149
(g26
I0
F6.0
tp150
a(g28
F6.0
F218.0
tp151
a(g30
F220.0
F222.0
tp152
a(g32
F222.0
F420.0
tp153
atp154
a(L39L
g2
(lp155
(g36
I0
F6.0
tp156
a(g38
F6.0
F122.0
tp157
a(g40
F122.0
F214.0
tp158
a(g42
F220.0
F222.0
tp159
a(g44
F224.0
F370.0
tp160
a(g46
F837.0
F837.0
tp161
atp162
a(L42L
g2
(lp163
(g50
I0
F6.0
tp164
a(g52
F6.0
F81.0
tp165
a(g54
F81.0
F169.0
tp166
a(g56
F222.0
F374.0
tp167
atp168
a(L44L
g59
(lp169
(g61
I0
F49.0
tp170
a(g63
F220.0
F233.0
tp171
a(g65
F233.0
F247.0
tp172
atp173
a(L46L
Vapac-sin#m3.large
p174
(lp175
(g95
F247.0
F835.0
tp176
atp177
a(L47L
g2
(lp178
(g69
I0
F6.0
tp179
a(g71
F6.0
F12.0
tp180
a(g73
F12.0
F17.0
tp181
a(g75
F17.0
F23.0
tp182
a(g77
F48.0
F197.0
tp183
a(g79
F222.0
F412.0
tp184
a(g81
F835.0
F837.0
tp185
atp186
a(L20L
g2
(lp187
(g85
F12.0
F184.0
tp188
a(g87
F218.0
F220.0
tp189
a(g89
F220.0
F222.0
tp190
a(g91
F247.0
F364.0
tp191
atp192
a(L25L
g59
(lp193
(g99
I0
F48.0
tp194
a(g101
F220.0
F234.0
tp195
a(g103
F234.0
F247.0
tp196
atp197
a(L26L
g2
(lp198
(g107
I0
F0.0
tp199
a(g109
F6.0
F210.0
tp200
a(g111
F220.0
F222.0
tp201
a(g113
F226.0
F347.0
tp202
atp203
a(L36L
g2
(lp204
(g117
F17.0
F184.0
tp205
a(g119
F222.0
F434.0
tp206
atp207
a(L31L
g2
(lp208
(g123
I0
F6.0
tp209
a(g125
F6.0
F12.0
tp210
a(g127
F12.0
F144.0
tp211
a(g129
F220.0
F222.0
tp212
a(g131
F234.0
F379.0
tp213
atp214
atp215
a(F965.0
F12.6
(lp216
(L35L
g2
(lp217
(g4
F49.0
F194.0
tp218
a(g6
F347.0
F349.0
tp219
a(g8
F349.0
F351.0
tp220
a(g10
F351.0
F353.0
tp221
a(g12
F360.0
F556.0
tp222
atp223
a(L4L
g2
(lp224
(g16
I0
F6.0
tp225
a(g18
F44.0
F196.0
tp226
a(g20
F349.0
F466.0
tp227
a(g22
F466.0
F549.0
tp228
atp229
a(L37L
g2
(lp230
(g26
I0
F6.0
tp231
a(g28
F11.0
F223.0
tp232
a(g30
F347.0
F349.0
tp233
a(g32
F349.0
F547.0
tp234
atp235
a(L39L
g2
(lp236
(g36
I0
F6.0
tp237
a(g38
F6.0
F122.0
tp238
a(g40
F122.0
F214.0
tp239
a(g42
F347.0
F349.0
tp240
a(g44
F351.0
F497.0
tp241
a(g46
F965.0
F965.0
tp242
atp243
a(L42L
g2
(lp244
(g50
I0
F6.0
tp245
a(g52
F6.0
F81.0
tp246
a(g54
F81.0
F169.0
tp247
a(g56
F349.0
F501.0
tp248
atp249
a(L44L
g59
(lp250
(g61
I0
F49.0
tp251
a(g63
F347.0
F360.0
tp252
a(g65
F360.0
F374.0
tp253
atp254
a(L46L
g174
(lp255
(g95
F374.0
F962.0
tp256
atp257
a(L47L
Vapac-sin#m3.xlarge
p258
(lp259
(g69
I0
F11.0
tp260
a(g71
F11.0
F22.0
tp261
a(g73
F22.0
F33.0
tp262
a(g75
F33.0
F44.0
tp263
a(g77
F48.0
F345.0
tp264
a(g79
F349.0
F728.0
tp265
a(g81
F962.0
F965.0
tp266
atp267
a(L20L
g2
(lp268
(g85
F22.0
F194.0
tp269
a(g87
F345.0
F347.0
tp270
a(g89
F347.0
F349.0
tp271
a(g91
F374.0
F491.0
tp272
atp273
a(L25L
g59
(lp274
(g99
I0
F48.0
tp275
a(g101
F347.0
F361.0
tp276
a(g103
F361.0
F374.0
tp277
atp278
a(L26L
g2
(lp279
(g107
I0
F0.0
tp280
a(g109
F6.0
F210.0
tp281
a(g111
F347.0
F349.0
tp282
a(g113
F353.0
F474.0
tp283
atp284
a(L36L
g2
(lp285
(g117
F33.0
F200.0
tp286
a(g119
F349.0
F561.0
tp287
atp288
a(L31L
g2
(lp289
(g123
I0
F6.0
tp290
a(g125
F6.0
F12.0
tp291
a(g127
F12.0
F144.0
tp292
a(g129
F347.0
F349.0
tp293
a(g131
F361.0
F506.0
tp294
atp295
atp296
a(F1149.0
F8.43
(lp297
(L34L
Vapac-sin#m1.large
p298
(lp299
(g26
I0
F38.0
tp300
a(g125
F38.0
F74.0
tp301
a(g129
F554.0
F564.0
tp302
a(g101
F564.0
F575.0
tp303
a(g63
F575.0
F585.0
tp304
a(g65
F585.0
F595.0
tp305
atp306
a(L35L
g2
(lp307
(g123
I0
F6.0
tp308
a(g4
F199.0
F344.0
tp309
a(g127
F344.0
F476.0
tp310
a(g87
F552.0
F554.0
tp311
a(g20
F597.0
F714.0
tp312
a(g95
F714.0
F861.0
tp313
a(g44
F954.0
F1100.0
tp314
atp315
a(L4L
g2
(lp316
(g16
I0
F6.0
tp317
a(g6
F554.0
F556.0
tp318
a(g10
F556.0
F558.0
tp319
a(g91
F595.0
F712.0
tp320
atp321
a(L37L
g2
(lp322
(g75
I0
F6.0
tp323
a(g38
F22.0
F138.0
tp324
a(g28
F138.0
F350.0
tp325
a(g30
F554.0
F556.0
tp326
a(g56
F556.0
F708.0
tp327
a(g12
F708.0
F904.0
tp328
atp329
a(L39L
g298
(lp330
(g46
F1149.0
F1149.0
tp331
atp332
a(L8L
g258
(lp333
(g69
I0
F11.0
tp334
a(g73
F11.0
F22.0
tp335
a(g85
F22.0
F367.0
tp336
a(g40
F367.0
F552.0
tp337
a(g32
F556.0
F951.0
tp338
a(g8
F951.0
F954.0
tp339
atp340
a(L42L
g174
(lp341
(g50
I0
F22.0
tp342
a(g54
F22.0
F373.0
tp343
a(g111
F554.0
F560.0
tp344
a(g113
F560.0
F1044.0
tp345
atp346
a(L11L
g258
(lp347
(g99
I0
F11.0
tp348
a(g52
F38.0
F188.0
tp349
a(g61
F188.0
F199.0
tp350
a(g117
F199.0
F533.0
tp351
a(g119
F557.0
F980.0
tp352
a(g22
F980.0
F1147.0
tp353
atp354
a(L14L
g258
(lp355
(g109
F6.0
F414.0
tp356
atp357
a(L47L
g258
(lp358
(g71
I0
F11.0
tp359
a(g77
F11.0
F308.0
tp360
a(g42
F554.0
F557.0
tp361
a(g131
F575.0
F866.0
tp362
atp363
a(L48L
Vapac-sin#m1.small
p364
(lp365
(g89
F554.0
F597.0
tp366
atp367
a(L19L
g59
(lp368
(g103
F554.0
F567.0
tp369
atp370
a(L20L
g2
(lp371
(g36
I0
F6.0
tp372
a(g18
F6.0
F158.0
tp373
a(g79
F560.0
F750.0
tp374
a(g81
F1147.0
F1149.0
tp375
atp376
a(L26L
g2
(lp377
(g107
I0
F0.0
tp378
atp379
atp380
a(F2203.0
F5.91
(lp381
(L34L
g59
(lp382
(g26
I0
F50.0
tp383
a(g125
F50.0
F99.0
tp384
a(g129
F1105.0
F1118.0
tp385
a(g101
F1118.0
F1132.0
tp386
a(g63
F1132.0
F1145.0
tp387
a(g65
F1145.0
F1159.0
tp388
atp389
a(L35L
g258
(lp390
(g123
I0
F11.0
tp391
a(g4
F22.0
F311.0
tp392
a(g127
F311.0
F576.0
tp393
a(g87
F1102.0
F1105.0
tp394
a(g20
F1148.0
F1383.0
tp395
a(g95
F1383.0
F1677.0
tp396
a(g44
F1904.0
F2197.0
tp397
atp398
a(L4L
g2
(lp399
(g16
I0
F6.0
tp400
a(g10
F1105.0
F1107.0
tp401
a(g91
F1159.0
F1276.0
tp402
atp403
a(L37L
g258
(lp404
(g75
I0
F11.0
tp405
a(g38
F22.0
F255.0
tp406
a(g28
F255.0
F679.0
tp407
a(g30
F1105.0
F1108.0
tp408
a(g56
F1118.0
F1422.0
tp409
a(g12
F1422.0
F1814.0
tp410
atp411
a(L39L
g298
(lp412
(g46
F2203.0
F2203.0
tp413
atp414
a(L8L
g174
(lp415
(g69
I0
F22.0
tp416
a(g73
F22.0
F43.0
tp417
a(g85
F43.0
F733.0
tp418
a(g40
F733.0
F1102.0
tp419
a(g32
F1108.0
F1898.0
tp420
a(g8
F1898.0
F1904.0
tp421
atp422
a(L42L
g174
(lp423
(g50
I0
F22.0
tp424
a(g52
F50.0
F351.0
tp425
a(g54
F351.0
F702.0
tp426
a(g111
F1105.0
F1111.0
tp427
a(g113
F1111.0
F1595.0
tp428
atp429
a(L11L
g258
(lp430
(g99
I0
F11.0
tp431
a(g61
F11.0
F22.0
tp432
a(g117
F43.0
F377.0
tp433
a(g119
F1108.0
F1531.0
tp434
a(g22
F1531.0
F1698.0
tp435
atp436
a(L44L
g59
(lp437
(g6
F1105.0
F1118.0
tp438
atp439
a(L14L
g258
(lp440
(g109
F6.0
F414.0
tp441
atp442
a(L47L
g258
(lp443
(g71
I0
F11.0
tp444
a(g77
F11.0
F308.0
tp445
a(g42
F1105.0
F1108.0
tp446
a(g131
F1132.0
F1423.0
tp447
atp448
a(L48L
g364
(lp449
(g89
F1105.0
F1148.0
tp450
atp451
a(L19L
g59
(lp452
(g103
F1105.0
F1118.0
tp453
atp454
a(L20L
g174
(lp455
(g36
I0
F23.0
tp456
a(g18
F23.0
F632.0
tp457
a(g79
F1111.0
F1870.0
tp458
a(g81
F2197.0
F2203.0
tp459
atp460
a(L26L
g2
(lp461
(g107
I0
F0.0
tp462
atp463
atp464
a(F2705.0
F3.94
(lp465
(L34L
g59
(lp466
(g26
I0
F50.0
tp467
a(g125
F50.0
F99.0
tp468
a(g129
F1451.0
F1464.0
tp469
a(g101
F1464.0
F1478.0
tp470
a(g63
F1478.0
F1491.0
tp471
a(g65
F1491.0
F1505.0
tp472
atp473
a(L35L
g258
(lp474
(g123
I0
F11.0
tp475
a(g4
F98.0
F387.0
tp476
a(g127
F387.0
F652.0
tp477
a(g87
F1448.0
F1451.0
tp478
a(g20
F1454.0
F1689.0
tp479
a(g119
F1689.0
F2112.0
tp480
a(g95
F2112.0
F2406.0
tp481
a(g44
F2406.0
F2699.0
tp482
atp483
a(L4L
g59
(lp484
(g16
I0
F48.0
tp485
a(g6
F1451.0
F1464.0
tp486
a(g10
F1464.0
F1479.0
tp487
a(g91
F1505.0
F2523.0
tp488
atp489
a(L37L
g258
(lp490
(g75
I0
F11.0
tp491
a(g38
F22.0
F255.0
tp492
a(g28
F255.0
F679.0
tp493
a(g30
F1451.0
F1454.0
tp494
a(g56
F1464.0
F1768.0
tp495
a(g12
F1768.0
F2160.0
tp496
atp497
a(L39L
g298
(lp498
(g46
F2705.0
F2705.0
tp499
atp500
a(L8L
g174
(lp501
(g69
I0
F22.0
tp502
a(g85
F49.0
F739.0
tp503
a(g40
F739.0
F1108.0
tp504
a(g32
F1454.0
F2244.0
tp505
a(g8
F2244.0
F2250.0
tp506
atp507
a(L42L
g174
(lp508
(g50
I0
F22.0
tp509
a(g54
F22.0
F373.0
tp510
a(g111
F1451.0
F1457.0
tp511
a(g113
F1479.0
F1963.0
tp512
atp513
a(L11L
g258
(lp514
(g73
I0
F11.0
tp515
a(g99
F11.0
F22.0
tp516
a(g52
F50.0
F200.0
tp517
a(g117
F200.0
F534.0
tp518
a(g89
F1451.0
F1454.0
tp519
a(g22
F1464.0
F1631.0
tp520
atp521
a(L47L
g258
(lp522
(g77
F22.0
F319.0
tp523
a(g42
F1451.0
F1454.0
tp524
a(g131
F1478.0
F1769.0
tp525
atp526
a(L19L
g59
(lp527
(g71
I0
F49.0
tp528
a(g61
F49.0
F98.0
tp529
a(g103
F1451.0
F1464.0
tp530
atp531
a(L20L
g174
(lp532
(g36
I0
F23.0
tp533
a(g18
F23.0
F632.0
tp534
a(g109
F632.0
F1448.0
tp535
a(g79
F1457.0
F2216.0
tp536
a(g81
F2699.0
F2705.0
tp537
atp538
a(L26L
g2
(lp539
(g107
I0
F0.0
tp540
atp541
atp542
a(F3110.0
F2.21
(lp543
(L34L
g364
(lp544
(g26
I0
F150.0
tp545
a(g125
F150.0
F296.0
tp546
a(g129
F1455.0
F1495.0
tp547
a(g101
F1495.0
F1538.0
tp548
a(g63
F1538.0
F1577.0
tp549
a(g65
F1577.0
F1619.0
tp550
atp551
a(L35L
g174
(lp552
(g123
I0
F22.0
tp553
a(g4
F292.0
F871.0
tp554
a(g127
F871.0
F1401.0
tp555
a(g87
F1448.0
F1455.0
tp556
a(g20
F1462.0
F1931.0
tp557
a(g95
F1931.0
F2519.0
tp558
a(g44
F2519.0
F3104.0
tp559
atp560
a(L4L
g59
(lp561
(g16
I0
F48.0
tp562
a(g6
F1455.0
F1468.0
tp563
a(g10
F1468.0
F1483.0
tp564
a(g91
F1619.0
F2637.0
tp565
atp566
a(L37L
g174
(lp567
(g75
I0
F23.0
tp568
a(g38
F48.0
F513.0
tp569
a(g28
F513.0
F1361.0
tp570
a(g30
F1455.0
F1461.0
tp571
a(g56
F1468.0
F2076.0
tp572
a(g12
F2076.0
F2860.0
tp573
atp574
a(L39L
g364
(lp575
(g46
F3110.0
F3110.0
tp576
atp577
a(L8L
g174
(lp578
(g69
I0
F22.0
tp579
a(g85
F146.0
F836.0
tp580
a(g40
F836.0
F1205.0
tp581
a(g32
F1461.0
F2251.0
tp582
a(g8
F2251.0
F2257.0
tp583
atp584
a(L42L
g59
(lp585
(g50
I0
F48.0
tp586
a(g54
F48.0
F808.0
tp587
a(g111
F1455.0
F1468.0
tp588
a(g113
F1483.0
F2532.0
tp589
atp590
a(L11L
g174
(lp591
(g73
I0
F21.0
tp592
a(g99
F21.0
F43.0
tp593
a(g52
F150.0
F451.0
tp594
a(g117
F451.0
F1119.0
tp595
a(g89
F1455.0
F1462.0
tp596
a(g119
F1469.0
F2315.0
tp597
a(g22
F2315.0
F2649.0
tp598
atp599
a(L47L
g59
(lp600
(g77
F43.0
F1332.0
tp601
a(g42
F1455.0
F1469.0
tp602
a(g131
F1538.0
F2798.0
tp603
atp604
a(L19L
g364
(lp605
(g71
I0
F146.0
tp606
a(g61
F146.0
F292.0
tp607
a(g103
F1455.0
F1494.0
tp608
atp609
a(L20L
g174
(lp610
(g36
I0
F23.0
tp611
a(g18
F23.0
F632.0
tp612
a(g109
F632.0
F1448.0
tp613
a(g79
F1468.0
F2227.0
tp614
a(g81
F3104.0
F3110.0
tp615
atp616
a(L26L
g2
(lp617
(g107
I0
F0.0
tp618
atp619
atp620
a.