(lp0
(F15.0
F6.3
(lp1
(L0L
Vapac-sin#m3.2xlarge
p2
(lp3
(VID00002
p4
I0
F4.0
tp5
a(VID00009
p6
F4.0
F7.0
tp7
a(VID00011
p8
F7.0
F10.0
tp9
a(VID00017
p10
F10.0
F13.0
tp11
atp12
a(L5L
g2
(lp13
(VID00014
p14
F10.0
F10.0
tp15
atp16
a(L6L
Vapac-sin#m3.medium
p17
(lp18
(S'exit'
p19
F15.0
F15.0
tp20
atp21
a(L8L
g2
(lp22
(VID00004
p23
I0
F4.0
tp24
a(VID00005
p25
F4.0
F7.0
tp26
a(VID00012
p27
F7.0
F10.0
tp28
a(VID00018
p29
F10.0
F13.0
tp30
atp31
a(L10L
g2
(lp32
(VID00000
p33
I0
F4.0
tp34
a(VID00006
p35
F4.0
F7.0
tp36
a(VID00010
p37
F7.0
F10.0
tp38
a(VID00020
p39
F10.0
F13.0
tp40
atp41
a(L11L
g2
(lp42
(VID00024
p43
F15.0
F15.0
tp44
atp45
a(L22L
g2
(lp46
(VID00003
p47
I0
F4.0
tp48
a(VID00008
p49
F4.0
F7.0
tp50
a(VID00013
p51
F7.0
F10.0
tp52
a(VID00016
p53
F10.0
F13.0
tp54
a(VID00021
p55
F13.0
F13.0
tp56
atp57
a(L23L
g2
(lp58
(S'entry'
p59
I0
F0.0
tp60
a(VID00001
p61
I0
F4.0
tp62
a(VID00007
p63
F4.0
F7.0
tp64
a(VID00019
p65
F10.0
F13.0
tp66
a(VID00022
p67
F13.0
F14.0
tp68
a(VID00023
p69
F14.0
F15.0
tp70
atp71
a(L24L
g2
(lp72
(VID00015
p73
F10.0
F10.0
tp74
atp75
atp76
a(F58.0
F5.67
(lp77
(L0L
g2
(lp78
(g59
I0
F0.0
tp79
a(g4
I0
F4.0
tp80
a(g6
F4.0
F7.0
tp81
a(g8
F7.0
F10.0
tp82
a(g10
F42.0
F45.0
tp83
atp84
a(L5L
g2
(lp85
(g14
F42.0
F42.0
tp86
atp87
a(L6L
g17
(lp88
(g19
F58.0
F58.0
tp89
atp90
a(L8L
g2
(lp91
(g23
I0
F4.0
tp92
a(g25
F16.0
F19.0
tp93
a(g27
F19.0
F22.0
tp94
a(g29
F42.0
F45.0
tp95
atp96
a(L10L
Vapac-sin#m3.large
p97
(lp98
(g33
I0
F16.0
tp99
a(g35
F16.0
F29.0
tp100
a(g37
F29.0
F42.0
tp101
a(g39
F42.0
F55.0
tp102
atp103
a(L11L
Vapac-sin#m1.large
p104
(lp105
(g43
F57.0
F58.0
tp106
atp107
a(L22L
g2
(lp108
(g47
I0
F4.0
tp109
a(g49
F16.0
F19.0
tp110
a(g51
F19.0
F22.0
tp111
a(g53
F42.0
F45.0
tp112
a(g55
F55.0
F55.0
tp113
atp114
a(L23L
g2
(lp115
(g61
I0
F4.0
tp116
a(g63
F4.0
F7.0
tp117
a(g65
F42.0
F45.0
tp118
a(g67
F55.0
F56.0
tp119
a(g69
F56.0
F57.0
tp120
atp121
a(L24L
g2
(lp122
(g73
F42.0
F42.0
tp123
atp124
atp125
a(F66.0
F3.15
(lp126
(L0L
g2
(lp127
(g59
I0
F0.0
tp128
a(g25
F17.0
F20.0
tp129
a(g4
F20.0
F24.0
tp130
a(g6
F24.0
F27.0
tp131
a(g49
F27.0
F30.0
tp132
a(g51
F34.0
F37.0
tp133
a(g10
F50.0
F53.0
tp134
a(g53
F53.0
F56.0
tp135
a(g67
F63.0
F64.0
tp136
atp137
a(L5L
g2
(lp138
(g43
F66.0
F66.0
tp139
atp140
a(L8L
g2
(lp141
(g23
I0
F4.0
tp142
a(g35
F17.0
F20.0
tp143
a(g27
F20.0
F23.0
tp144
a(g65
F50.0
F53.0
tp145
a(g69
F65.0
F66.0
tp146
atp147
a(L10L
g97
(lp148
(g33
I0
F16.0
tp149
a(g37
F24.0
F37.0
tp150
a(g8
F37.0
F50.0
tp151
a(g29
F50.0
F63.0
tp152
atp153
a(L13L
g97
(lp154
(g19
F66.0
F66.0
tp155
atp156
a(L22L
g97
(lp157
(g61
I0
F17.0
tp158
a(g47
F17.0
F34.0
tp159
a(g63
F34.0
F47.0
tp160
a(g39
F50.0
F63.0
tp161
atp162
a(L23L
g2
(lp163
(g14
F50.0
F50.0
tp164
a(g73
F50.0
F50.0
tp165
atp166
a(L25L
g2
(lp167
(g55
F63.0
F63.0
tp168
atp169
atp170
a(F150.0
F2.21
(lp171
(L0L
g2
(lp172
(g59
I0
F0.0
tp173
a(g4
I0
F4.0
tp174
a(g6
F17.0
F20.0
tp175
a(g51
F37.0
F40.0
tp176
a(g10
F93.0
F96.0
tp177
a(g53
F96.0
F99.0
tp178
atp179
a(L5L
Vapac-sin#m1.medium
p180
(lp181
(g69
F135.0
F150.0
tp182
atp183
a(L8L
g17
(lp184
(g23
I0
F37.0
tp185
a(g25
F37.0
F65.0
tp186
a(g27
F65.0
F93.0
tp187
a(g65
F93.0
F122.0
tp188
a(g55
F122.0
F126.0
tp189
a(g67
F126.0
F134.0
tp190
atp191
a(L10L
g97
(lp192
(g33
I0
F16.0
tp193
a(g35
F17.0
F30.0
tp194
a(g37
F30.0
F43.0
tp195
a(g8
F43.0
F56.0
tp196
a(g29
F93.0
F106.0
tp197
atp198
a(L16L
g104
(lp199
(g19
F150.0
F150.0
tp200
atp201
a(L22L
g97
(lp202
(g61
I0
F17.0
tp203
a(g47
F17.0
F34.0
tp204
a(g63
F34.0
F47.0
tp205
a(g49
F47.0
F60.0
tp206
a(g39
F93.0
F106.0
tp207
atp208
a(L23L
g2
(lp209
(g14
F93.0
F93.0
tp210
a(g73
F93.0
F93.0
tp211
atp212
a(L25L
Vapac-sin#m3.xlarge
p213
(lp214
(g43
F150.0
F150.0
tp215
atp216
atp217
a(F172.0
F0.95
(lp218
(L0L
g17
(lp219
(g59
I0
F0.0
tp220
a(g4
I0
F36.0
tp221
a(g6
F36.0
F64.0
tp222
a(g51
F64.0
F92.0
tp223
a(g10
F93.0
F121.0
tp224
a(g53
F121.0
F149.0
tp225
a(g69
F162.0
F172.0
tp226
atp227
a(L8L
g17
(lp228
(g23
I0
F37.0
tp229
a(g25
F37.0
F65.0
tp230
a(g27
F65.0
F93.0
tp231
a(g65
F93.0
F122.0
tp232
a(g55
F149.0
F153.0
tp233
a(g67
F153.0
F161.0
tp234
atp235
a(L10L
g97
(lp236
(g33
I0
F16.0
tp237
a(g35
F17.0
F30.0
tp238
a(g37
F36.0
F49.0
tp239
a(g8
F49.0
F62.0
tp240
a(g29
F93.0
F106.0
tp241
atp242
a(L16L
g104
(lp243
(g19
F172.0
F172.0
tp244
atp245
a(L22L
g97
(lp246
(g61
I0
F17.0
tp247
a(g47
F17.0
F34.0
tp248
a(g63
F34.0
F47.0
tp249
a(g49
F47.0
F60.0
tp250
a(g39
F93.0
F106.0
tp251
atp252
a(L23L
g2
(lp253
(g14
F93.0
F93.0
tp254
a(g73
F93.0
F93.0
tp255
atp256
a(L25L
g213
(lp257
(g43
F172.0
F172.0
tp258
atp259
atp260
a(F408.0
F0.63
(lp261
(L0L
g17
(lp262
(g59
I0
F0.0
tp263
a(g61
I0
F37.0
tp264
a(g25
F37.0
F65.0
tp265
a(g4
F65.0
F101.0
tp266
a(g6
F101.0
F129.0
tp267
a(g49
F129.0
F158.0
tp268
a(g51
F158.0
F186.0
tp269
a(g10
F280.0
F308.0
tp270
a(g53
F308.0
F336.0
tp271
a(g67
F367.0
F375.0
tp272
atp273
a(L5L
g213
(lp274
(g43
F408.0
F408.0
tp275
atp276
a(L8L
Vapac-sin#m1.small
p277
(lp278
(g23
I0
F110.0
tp279
a(g35
F110.0
F195.0
tp280
a(g27
F195.0
F280.0
tp281
a(g65
F280.0
F367.0
tp282
a(g69
F377.0
F408.0
tp283
atp284
a(L10L
g97
(lp285
(g33
I0
F16.0
tp286
a(g37
F101.0
F114.0
tp287
a(g8
F114.0
F127.0
tp288
a(g29
F280.0
F293.0
tp289
atp290
a(L13L
g97
(lp291
(g19
F408.0
F408.0
tp292
atp293
a(L22L
g277
(lp294
(g47
I0
F109.0
tp295
a(g63
F109.0
F196.0
tp296
a(g39
F280.0
F366.0
tp297
atp298
a(L23L
g2
(lp299
(g14
F280.0
F280.0
tp300
a(g73
F280.0
F280.0
tp301
atp302
a(L25L
g2
(lp303
(g55
F367.0
F367.0
tp304
atp305
atp306
a(F587.0
F0.32
(lp307
(L0L
g277
(lp308
(g4
I0
F107.0
tp309
a(g6
F111.0
F195.0
tp310
a(g49
F195.0
F281.0
tp311
a(g51
F281.0
F364.0
tp312
a(g10
F364.0
F449.0
tp313
a(g53
F449.0
F532.0
tp314
atp315
a(L3L
Vapac-sin#m1.xlarge
p316
(lp317
(g43
F587.0
F587.0
tp318
atp319
a(L4L
g213
(lp320
(g59
I0
F0.0
tp321
atp322
a(L8L
g277
(lp323
(g23
I0
F110.0
tp324
a(g25
F111.0
F196.0
tp325
a(g27
F196.0
F281.0
tp326
a(g65
F364.0
F451.0
tp327
a(g67
F532.0
F556.0
tp328
a(g69
F556.0
F587.0
tp329
atp330
a(L10L
g277
(lp331
(g61
I0
F111.0
tp332
a(g35
F111.0
F196.0
tp333
a(g37
F196.0
F280.0
tp334
a(g8
F280.0
F364.0
tp335
a(g29
F364.0
F451.0
tp336
a(g19
F587.0
F587.0
tp337
atp338
a(L22L
g277
(lp339
(g33
I0
F107.0
tp340
a(g47
F107.0
F216.0
tp341
a(g63
F216.0
F303.0
tp342
a(g39
F364.0
F450.0
tp343
atp344
a(L23L
g2
(lp345
(g14
F364.0
F364.0
tp346
a(g73
F364.0
F364.0
tp347
atp348
a(L25L
g2
(lp349
(g55
F532.0
F532.0
tp350
atp351
atp352
a.