(lp0
(F35.0
F7.56
(lp1
(L48L
Vapac-sin#m3.xlarge
p2
(lp3
(VID00006
p4
I0
F8.0
tp5
a(VID00023
p6
F8.0
F14.0
tp7
a(VID00014
p8
F14.0
F21.0
tp9
a(VID00045
p10
F25.0
F31.0
tp11
atp12
a(L2L
Vapac-sin#m1.large
p13
(lp14
(S'exit'
p15
F35.0
F35.0
tp16
atp17
a(L35L
Vapac-sin#m3.large
p18
(lp19
(VID00030
p20
F8.0
F21.0
tp21
atp22
a(L4L
g2
(lp23
(VID00000
p24
I0
F8.0
tp25
a(VID00009
p26
F8.0
F15.0
tp27
a(VID00018
p28
F15.0
F21.0
tp29
atp30
a(L33L
Vapac-sin#m3.2xlarge
p31
(lp32
(VID00003
p33
I0
F4.0
tp34
a(VID00002
p35
F4.0
F8.0
tp36
a(VID00025
p37
F8.0
F11.0
tp38
a(VID00024
p39
F11.0
F14.0
tp40
a(VID00013
p41
F14.0
F17.0
tp42
a(VID00019
p43
F17.0
F20.0
tp44
a(VID00033
p45
F20.0
F23.0
tp46
a(VID00039
p47
F25.0
F28.0
tp48
atp49
a(L8L
g31
(lp50
(VID00012
p51
F8.0
F11.0
tp52
a(VID00011
p53
F11.0
F14.0
tp54
a(VID00016
p55
F14.0
F17.0
tp56
a(VID00029
p57
F17.0
F20.0
tp58
a(VID00035
p59
F20.0
F23.0
tp60
a(VID00037
p61
F24.0
F25.0
tp62
a(VID00044
p63
F25.0
F28.0
tp64
a(VID00042
p65
F28.0
F31.0
tp66
atp67
a(L7L
g2
(lp68
(VID00021
p69
F4.0
F10.0
tp70
a(VID00017
p71
F10.0
F17.0
tp72
a(VID00015
p73
F17.0
F23.0
tp74
a(VID00041
p75
F25.0
F31.0
tp76
atp77
a(L45L
g18
(lp78
(S'entry'
p79
I0
F0.0
tp80
atp81
a(L14L
g18
(lp82
(VID00020
p83
F8.0
F21.0
tp84
atp85
a(L13L
g31
(lp86
(VID00005
p87
I0
F4.0
tp88
a(VID00001
p89
F4.0
F8.0
tp90
a(VID00022
p91
F8.0
F11.0
tp92
a(VID00026
p93
F11.0
F14.0
tp94
a(VID00008
p95
F14.0
F17.0
tp96
a(VID00028
p97
F17.0
F20.0
tp98
a(VID00034
p99
F20.0
F23.0
tp100
a(VID00036
p101
F23.0
F24.0
tp102
a(VID00038
p103
F25.0
F28.0
tp104
a(VID00040
p105
F28.0
F31.0
tp106
a(VID00046
p107
F31.0
F32.0
tp108
a(VID00047
p109
F32.0
F33.0
tp110
a(VID00048
p111
F33.0
F35.0
tp112
atp113
a(L16L
g2
(lp114
(VID00007
p115
I0
F8.0
tp116
a(VID00027
p117
F8.0
F14.0
tp118
a(VID00031
p119
F14.0
F21.0
tp120
a(VID00043
p121
F25.0
F31.0
tp122
atp123
a(L26L
g31
(lp124
(VID00049
p125
F35.0
F35.0
tp126
atp127
a(L27L
g2
(lp128
(VID00004
p129
I0
F8.0
tp130
a(VID00032
p131
F8.0
F15.0
tp132
a(VID00010
p133
F15.0
F22.0
tp134
atp135
atp136
a(F61.0
F6.93
(lp137
(L48L
g2
(lp138
(g4
I0
F8.0
tp139
a(g6
F8.0
F14.0
tp140
a(g8
F14.0
F21.0
tp141
a(g10
F50.0
F56.0
tp142
atp143
a(L2L
Vapac-sin#m3.medium
p144
(lp145
(g15
F61.0
F61.0
tp146
atp147
a(L35L
g18
(lp148
(g20
F8.0
F21.0
tp149
atp150
a(L4L
g2
(lp151
(g24
I0
F8.0
tp152
a(g26
F8.0
F15.0
tp153
a(g28
F16.0
F22.0
tp154
atp155
a(L33L
g2
(lp156
(g33
I0
F8.0
tp157
a(g35
F8.0
F16.0
tp158
a(g37
F16.0
F22.0
tp159
a(g39
F22.0
F28.0
tp160
a(g41
F28.0
F35.0
tp161
a(g43
F35.0
F41.0
tp162
a(g45
F41.0
F48.0
tp163
a(g47
F50.0
F57.0
tp164
atp165
a(L8L
g31
(lp166
(g51
F8.0
F11.0
tp167
a(g53
F11.0
F14.0
tp168
a(g55
F14.0
F17.0
tp169
a(g57
F17.0
F20.0
tp170
a(g59
F20.0
F23.0
tp171
a(g61
F49.0
F50.0
tp172
a(g63
F50.0
F53.0
tp173
a(g65
F53.0
F56.0
tp174
atp175
a(L7L
g2
(lp176
(g69
F8.0
F14.0
tp177
a(g71
F14.0
F21.0
tp178
a(g73
F21.0
F27.0
tp179
a(g75
F50.0
F56.0
tp180
atp181
a(L45L
g18
(lp182
(g79
I0
F0.0
tp183
atp184
a(L14L
g18
(lp185
(g83
F8.0
F21.0
tp186
atp187
a(L13L
g31
(lp188
(g87
I0
F4.0
tp189
a(g89
F4.0
F8.0
tp190
a(g91
F8.0
F11.0
tp191
a(g93
F11.0
F14.0
tp192
a(g95
F14.0
F17.0
tp193
a(g97
F17.0
F20.0
tp194
a(g99
F20.0
F23.0
tp195
a(g101
F48.0
F49.0
tp196
a(g103
F50.0
F53.0
tp197
a(g105
F53.0
F56.0
tp198
a(g107
F57.0
F58.0
tp199
a(g109
F58.0
F59.0
tp200
a(g111
F59.0
F61.0
tp201
atp202
a(L16L
g2
(lp203
(g115
I0
F8.0
tp204
a(g117
F8.0
F14.0
tp205
a(g119
F14.0
F21.0
tp206
a(g121
F50.0
F56.0
tp207
atp208
a(L26L
g31
(lp209
(g125
F61.0
F61.0
tp210
atp211
a(L27L
g2
(lp212
(g129
I0
F8.0
tp213
a(g131
F16.0
F23.0
tp214
a(g133
F23.0
F30.0
tp215
atp216
atp217
a(F90.0
F4.09
(lp218
(L33L
g2
(lp219
(g35
I0
F8.0
tp220
a(g37
F17.0
F23.0
tp221
a(g39
F23.0
F29.0
tp222
a(g8
F29.0
F36.0
tp223
a(g45
F36.0
F43.0
tp224
a(g47
F73.0
F80.0
tp225
atp226
a(L2L
g13
(lp227
(g15
F90.0
F90.0
tp228
atp229
a(L4L
g2
(lp230
(g24
I0
F8.0
tp231
a(g91
F17.0
F24.0
tp232
a(g26
F24.0
F31.0
tp233
a(g53
F31.0
F38.0
tp234
a(g55
F38.0
F44.0
tp235
a(g43
F44.0
F50.0
tp236
a(g99
F50.0
F56.0
tp237
a(g61
F70.0
F73.0
tp238
a(g65
F73.0
F80.0
tp239
atp240
a(L7L
g18
(lp241
(g129
I0
F17.0
tp242
a(g6
F17.0
F30.0
tp243
a(g69
F30.0
F43.0
tp244
a(g51
F43.0
F56.0
tp245
a(g71
F56.0
F69.0
tp246
a(g75
F73.0
F86.0
tp247
atp248
a(L45L
g31
(lp249
(g79
I0
F0.0
tp250
atp251
a(L13L
g31
(lp252
(g87
I0
F4.0
tp253
a(g89
F4.0
F8.0
tp254
a(g93
F17.0
F20.0
tp255
a(g73
F20.0
F23.0
tp256
a(g28
F23.0
F26.0
tp257
a(g20
F26.0
F29.0
tp258
a(g97
F29.0
F32.0
tp259
a(g101
F69.0
F70.0
tp260
a(g103
F73.0
F76.0
tp261
a(g107
F86.0
F87.0
tp262
a(g109
F87.0
F88.0
tp263
a(g111
F88.0
F90.0
tp264
atp265
a(L16L
g2
(lp266
(g115
I0
F8.0
tp267
a(g4
F8.0
F16.0
tp268
a(g117
F16.0
F22.0
tp269
a(g95
F22.0
F29.0
tp270
a(g83
F29.0
F36.0
tp271
a(g59
F36.0
F42.0
tp272
a(g121
F73.0
F79.0
tp273
a(g105
F79.0
F85.0
tp274
atp275
a(L26L
g31
(lp276
(g125
F90.0
F90.0
tp277
atp278
a(L27L
g2
(lp279
(g33
I0
F8.0
tp280
a(g131
F8.0
F15.0
tp281
a(g41
F15.0
F22.0
tp282
a(g133
F22.0
F29.0
tp283
a(g57
F29.0
F36.0
tp284
a(g119
F36.0
F43.0
tp285
a(g63
F73.0
F79.0
tp286
a(g10
F79.0
F85.0
tp287
atp288
atp289
a(F250.0
F3.87
(lp290
(L33L
g2
(lp291
(g35
F1.0
F9.0
tp292
a(g37
F37.0
F43.0
tp293
a(g39
F43.0
F49.0
tp294
a(g8
F49.0
F56.0
tp295
a(g45
F56.0
F63.0
tp296
a(g47
F217.0
F224.0
tp297
atp298
a(L2L
Vapac-sin#m1.medium
p299
(lp300
(g15
F250.0
F250.0
tp301
atp302
a(L4L
g144
(lp303
(g24
F1.0
F36.0
tp304
a(g91
F37.0
F65.0
tp305
a(g26
F65.0
F93.0
tp306
a(g53
F93.0
F122.0
tp307
a(g55
F122.0
F150.0
tp308
a(g43
F150.0
F177.0
tp309
a(g99
F177.0
F205.0
tp310
a(g61
F206.0
F217.0
tp311
a(g65
F217.0
F246.0
tp312
atp313
a(L7L
g144
(lp314
(g129
F1.0
F37.0
tp315
a(g6
F37.0
F65.0
tp316
a(g69
F65.0
F93.0
tp317
a(g51
F93.0
F121.0
tp318
a(g71
F121.0
F150.0
tp319
a(g75
F217.0
F245.0
tp320
atp321
a(L13L
g31
(lp322
(g89
F1.0
F5.0
tp323
a(g93
F37.0
F40.0
tp324
a(g73
F40.0
F43.0
tp325
a(g28
F43.0
F46.0
tp326
a(g20
F46.0
F49.0
tp327
a(g97
F49.0
F52.0
tp328
a(g101
F205.0
F206.0
tp329
a(g103
F217.0
F220.0
tp330
a(g107
F246.0
F247.0
tp331
a(g109
F247.0
F248.0
tp332
a(g111
F248.0
F250.0
tp333
atp334
a(L16L
g2
(lp335
(g115
F1.0
F9.0
tp336
a(g4
F9.0
F17.0
tp337
a(g117
F36.0
F42.0
tp338
a(g95
F42.0
F49.0
tp339
a(g83
F49.0
F56.0
tp340
a(g59
F56.0
F62.0
tp341
a(g121
F217.0
F223.0
tp342
a(g105
F223.0
F229.0
tp343
atp344
a(L17L
Vapac-sin#m1.small
p345
(lp346
(g79
I0
F1.0
tp347
atp348
a(L50L
g13
(lp349
(g87
F1.0
F28.0
tp350
atp351
a(L26L
g31
(lp352
(g125
F250.0
F250.0
tp353
atp354
a(L27L
g2
(lp355
(g33
F1.0
F9.0
tp356
a(g131
F9.0
F16.0
tp357
a(g41
F36.0
F43.0
tp358
a(g133
F43.0
F50.0
tp359
a(g57
F50.0
F57.0
tp360
a(g119
F57.0
F64.0
tp361
a(g63
F217.0
F223.0
tp362
a(g10
F223.0
F229.0
tp363
atp364
atp365
a(F312.0
F2.77
(lp366
(L33L
g2
(lp367
(g37
F37.0
F43.0
tp368
a(g39
F43.0
F49.0
tp369
a(g45
F49.0
F56.0
tp370
a(g47
F221.0
F228.0
tp371
atp372
a(L2L
g299
(lp373
(g15
F312.0
F312.0
tp374
atp375
a(L4L
g144
(lp376
(g24
F1.0
F36.0
tp377
a(g91
F37.0
F65.0
tp378
a(g93
F65.0
F93.0
tp379
a(g26
F93.0
F121.0
tp380
a(g55
F121.0
F149.0
tp381
a(g43
F149.0
F176.0
tp382
a(g99
F176.0
F204.0
tp383
a(g61
F210.0
F221.0
tp384
a(g65
F221.0
F250.0
tp385
atp386
a(L7L
g144
(lp387
(g129
F1.0
F37.0
tp388
a(g6
F37.0
F65.0
tp389
a(g117
F65.0
F93.0
tp390
a(g69
F93.0
F121.0
tp391
a(g51
F121.0
F149.0
tp392
a(g133
F149.0
F178.0
tp393
a(g75
F221.0
F249.0
tp394
atp395
a(L13L
g144
(lp396
(g89
F1.0
F37.0
tp397
a(g73
F37.0
F65.0
tp398
a(g59
F65.0
F93.0
tp399
a(g28
F93.0
F121.0
tp400
a(g20
F121.0
F149.0
tp401
a(g97
F149.0
F177.0
tp402
a(g101
F204.0
F210.0
tp403
a(g103
F221.0
F250.0
tp404
a(g107
F277.0
F286.0
tp405
a(g109
F286.0
F299.0
tp406
a(g111
F299.0
F312.0
tp407
atp408
a(L16L
g144
(lp409
(g115
F1.0
F36.0
tp410
a(g4
F36.0
F72.0
tp411
a(g95
F72.0
F100.0
tp412
a(g53
F100.0
F129.0
tp413
a(g8
F129.0
F158.0
tp414
a(g121
F221.0
F249.0
tp415
a(g105
F249.0
F277.0
tp416
atp417
a(L17L
g345
(lp418
(g79
I0
F1.0
tp419
atp420
a(L50L
g13
(lp421
(g87
F1.0
F28.0
tp422
atp423
a(L24L
g18
(lp424
(g83
F37.0
F50.0
tp425
atp426
a(L26L
g31
(lp427
(g125
F312.0
F312.0
tp428
atp429
a(L27L
g2
(lp430
(g33
F1.0
F9.0
tp431
a(g35
F9.0
F17.0
tp432
a(g131
F36.0
F43.0
tp433
a(g41
F43.0
F50.0
tp434
a(g57
F50.0
F57.0
tp435
a(g119
F72.0
F79.0
tp436
a(g63
F221.0
F227.0
tp437
a(g10
F227.0
F233.0
tp438
atp439
a(L30L
g144
(lp440
(g71
F37.0
F66.0
tp441
atp442
atp443
a(F321.0
F0.87
(lp444
(L33L
g345
(lp445
(g37
F36.0
F120.0
tp446
a(g39
F120.0
F202.0
tp447
atp448
a(L2L
g299
(lp449
(g15
F321.0
F321.0
tp450
atp451
a(L4L
g144
(lp452
(g24
I0
F35.0
tp453
a(g91
F36.0
F64.0
tp454
a(g93
F64.0
F92.0
tp455
a(g26
F92.0
F120.0
tp456
a(g55
F120.0
F148.0
tp457
a(g43
F148.0
F175.0
tp458
a(g99
F175.0
F203.0
tp459
a(g61
F218.0
F229.0
tp460
a(g65
F229.0
F258.0
tp461
a(g47
F258.0
F286.0
tp462
atp463
a(L7L
g144
(lp464
(g129
I0
F36.0
tp465
a(g6
F36.0
F64.0
tp466
a(g117
F64.0
F92.0
tp467
a(g69
F92.0
F120.0
tp468
a(g51
F120.0
F148.0
tp469
a(g133
F148.0
F177.0
tp470
a(g71
F177.0
F206.0
tp471
atp472
a(L13L
g144
(lp473
(g87
I0
F36.0
tp474
a(g89
F36.0
F72.0
tp475
a(g73
F72.0
F100.0
tp476
a(g59
F100.0
F128.0
tp477
a(g28
F128.0
F156.0
tp478
a(g20
F156.0
F184.0
tp479
a(g97
F184.0
F212.0
tp480
a(g101
F212.0
F218.0
tp481
a(g103
F229.0
F258.0
tp482
a(g105
F258.0
F286.0
tp483
a(g107
F286.0
F295.0
tp484
a(g109
F295.0
F308.0
tp485
a(g111
F308.0
F321.0
tp486
atp487
a(L16L
g144
(lp488
(g115
I0
F35.0
tp489
a(g4
F35.0
F71.0
tp490
a(g95
F71.0
F99.0
tp491
a(g83
F99.0
F127.0
tp492
a(g53
F127.0
F156.0
tp493
a(g8
F156.0
F185.0
tp494
a(g121
F229.0
F257.0
tp495
a(g75
F257.0
F285.0
tp496
atp497
a(L17L
g18
(lp498
(g79
I0
F0.0
tp499
atp500
a(L26L
g31
(lp501
(g125
F321.0
F321.0
tp502
atp503
a(L27L
g144
(lp504
(g33
I0
F35.0
tp505
a(g35
F35.0
F71.0
tp506
a(g131
F71.0
F100.0
tp507
a(g41
F100.0
F128.0
tp508
a(g57
F128.0
F156.0
tp509
a(g119
F156.0
F184.0
tp510
a(g45
F184.0
F212.0
tp511
a(g63
F229.0
F257.0
tp512
a(g10
F257.0
F285.0
tp513
atp514
atp515
a(F671.0
F0.79
(lp516
(L33L
g345
(lp517
(g35
I0
F108.0
tp518
a(g37
F108.0
F192.0
tp519
a(g39
F192.0
F274.0
tp520
a(g8
F274.0
F360.0
tp521
a(g20
F360.0
F445.0
tp522
a(g45
F445.0
F530.0
tp523
atp524
a(L2L
g2
(lp525
(g15
F671.0
F671.0
tp526
atp527
a(L4L
g144
(lp528
(g24
I0
F35.0
tp529
a(g91
F106.0
F134.0
tp530
a(g26
F134.0
F162.0
tp531
a(g53
F162.0
F191.0
tp532
a(g55
F191.0
F219.0
tp533
a(g99
F219.0
F247.0
tp534
a(g61
F541.0
F552.0
tp535
a(g65
F552.0
F581.0
tp536
a(g47
F581.0
F609.0
tp537
atp538
a(L7L
g144
(lp539
(g129
I0
F36.0
tp540
a(g6
F106.0
F134.0
tp541
a(g69
F134.0
F162.0
tp542
a(g51
F162.0
F190.0
tp543
a(g71
F190.0
F219.0
tp544
a(g43
F219.0
F246.0
tp545
a(g10
F552.0
F580.0
tp546
a(g75
F580.0
F608.0
tp547
atp548
a(L45L
g18
(lp549
(g79
I0
F0.0
tp550
atp551
a(L13L
g144
(lp552
(g87
I0
F36.0
tp553
a(g89
F36.0
F72.0
tp554
a(g93
F72.0
F100.0
tp555
a(g73
F108.0
F136.0
tp556
a(g28
F136.0
F164.0
tp557
a(g97
F164.0
F192.0
tp558
a(g101
F535.0
F541.0
tp559
a(g103
F552.0
F581.0
tp560
a(g105
F581.0
F609.0
tp561
a(g107
F636.0
F645.0
tp562
a(g109
F645.0
F658.0
tp563
a(g111
F658.0
F671.0
tp564
atp565
a(L16L
g144
(lp566
(g115
I0
F35.0
tp567
a(g4
F35.0
F71.0
tp568
a(g117
F71.0
F99.0
tp569
a(g95
F99.0
F127.0
tp570
a(g83
F127.0
F155.0
tp571
a(g59
F155.0
F183.0
tp572
a(g121
F552.0
F580.0
tp573
atp574
a(L26L
g31
(lp575
(g125
F671.0
F671.0
tp576
atp577
a(L27L
g345
(lp578
(g33
I0
F106.0
tp579
a(g131
F108.0
F194.0
tp580
a(g41
F194.0
F279.0
tp581
a(g133
F279.0
F365.0
tp582
a(g57
F365.0
F450.0
tp583
a(g119
F450.0
F535.0
tp584
a(g63
F552.0
F636.0
tp585
atp586
atp587
a(F881.0
F0.48
(lp588
(L33L
g345
(lp589
(g35
I0
F108.0
tp590
a(g37
F108.0
F192.0
tp591
a(g39
F192.0
F274.0
tp592
a(g8
F274.0
F360.0
tp593
a(g20
F360.0
F445.0
tp594
a(g45
F445.0
F530.0
tp595
a(g47
F610.0
F695.0
tp596
atp597
a(L2L
g2
(lp598
(g15
F881.0
F881.0
tp599
atp600
a(L4L
g345
(lp601
(g24
I0
F105.0
tp602
a(g91
F107.0
F192.0
tp603
a(g26
F217.0
F302.0
tp604
a(g53
F302.0
F388.0
tp605
a(g55
F388.0
F472.0
tp606
a(g99
F472.0
F556.0
tp607
a(g61
F576.0
F610.0
tp608
a(g65
F610.0
F696.0
tp609
atp610
a(L5L
g18
(lp611
(g79
I0
F0.0
tp612
atp613
a(L7L
g345
(lp614
(g129
I0
F107.0
tp615
a(g6
F109.0
F193.0
tp616
a(g69
F193.0
F276.0
tp617
a(g51
F276.0
F360.0
tp618
a(g71
F360.0
F446.0
tp619
a(g43
F446.0
F528.0
tp620
a(g75
F610.0
F694.0
tp621
atp622
a(L13L
g345
(lp623
(g87
I0
F109.0
tp624
a(g89
F109.0
F217.0
tp625
a(g93
F217.0
F300.0
tp626
a(g73
F300.0
F384.0
tp627
a(g28
F384.0
F468.0
tp628
a(g97
F468.0
F553.0
tp629
a(g101
F558.0
F576.0
tp630
a(g103
F610.0
F698.0
tp631
a(g107
F778.0
F804.0
tp632
a(g109
F804.0
F842.0
tp633
a(g111
F842.0
F881.0
tp634
atp635
a(L16L
g345
(lp636
(g115
I0
F105.0
tp637
a(g4
F105.0
F214.0
tp638
a(g117
F214.0
F298.0
tp639
a(g95
F298.0
F383.0
tp640
a(g83
F383.0
F468.0
tp641
a(g59
F468.0
F552.0
tp642
a(g121
F610.0
F694.0
tp643
a(g105
F694.0
F778.0
tp644
atp645
a(L26L
g31
(lp646
(g125
F881.0
F881.0
tp647
atp648
a(L27L
g345
(lp649
(g33
I0
F106.0
tp650
a(g131
F108.0
F194.0
tp651
a(g41
F217.0
F302.0
tp652
a(g133
F302.0
F388.0
tp653
a(g57
F388.0
F473.0
tp654
a(g119
F473.0
F558.0
tp655
a(g63
F610.0
F694.0
tp656
a(g10
F694.0
F777.0
tp657
atp658
atp659
a.