(lp0
(F95.0
F10.87
(lp1
(L0L
Vapac-sin#m3.xlarge
p2
(lp3
(VID00004
p4
I0
F8.0
tp5
a(VID00025
p6
F16.0
F23.0
tp7
a(VID00065
p8
F27.0
F34.0
tp9
a(VID00044
p10
F34.0
F40.0
tp11
a(VID00072
p12
F40.0
F47.0
tp13
a(VID00016
p14
F47.0
F54.0
tp15
atp16
a(L2L
g2
(lp17
(VID00011
p18
I0
F8.0
tp19
a(VID00062
p20
F17.0
F23.0
tp21
a(VID00064
p22
F33.0
F40.0
tp23
a(VID00077
p24
F40.0
F47.0
tp25
a(VID00082
p26
F59.0
F66.0
tp27
atp28
a(L4L
Vapac-sin#m3.large
p29
(lp30
(VID00003
p31
I0
F16.0
tp32
a(VID00047
p33
F16.0
F29.0
tp34
a(VID00032
p35
F29.0
F42.0
tp36
a(VID00086
p37
F59.0
F72.0
tp38
a(VID00085
p39
F72.0
F85.0
tp40
atp41
a(L5L
g29
(lp42
(VID00000
p43
I0
F17.0
tp44
a(VID00021
p45
F17.0
F30.0
tp46
a(VID00018
p47
F30.0
F43.0
tp48
atp49
a(L10L
g29
(lp50
(VID00022
p51
F16.0
F29.0
tp52
a(VID00073
p53
F29.0
F42.0
tp54
a(VID00095
p55
F59.0
F72.0
tp56
atp57
a(L14L
g2
(lp58
(VID00009
p59
I0
F8.0
tp60
a(VID00052
p61
F17.0
F24.0
tp62
a(VID00017
p63
F24.0
F31.0
tp64
atp65
a(L15L
g29
(lp66
(VID00040
p67
F16.0
F29.0
tp68
a(VID00039
p69
F29.0
F42.0
tp70
a(VID00067
p71
F42.0
F55.0
tp72
atp73
a(L19L
g29
(lp74
(VID00070
p75
F16.0
F29.0
tp76
a(VID00027
p77
F29.0
F42.0
tp78
a(VID00063
p79
F42.0
F55.0
tp80
atp81
a(L20L
g29
(lp82
(VID00006
p83
I0
F16.0
tp84
a(VID00031
p85
F16.0
F29.0
tp86
atp87
a(L22L
g29
(lp88
(VID00046
p89
F8.0
F21.0
tp90
a(VID00074
p91
F29.0
F42.0
tp92
a(VID00019
p93
F42.0
F55.0
tp94
a(VID00092
p95
F59.0
F72.0
tp96
atp97
a(L25L
Vapac-sin#m3.medium
p98
(lp99
(VID00057
p100
F17.0
F45.0
tp101
a(VID00094
p102
F59.0
F88.0
tp103
atp104
a(L26L
g29
(lp105
(VID00042
p106
F16.0
F29.0
tp107
a(VID00050
p108
F29.0
F42.0
tp109
a(VID00059
p110
F42.0
F55.0
tp111
a(VID00089
p112
F59.0
F72.0
tp113
atp114
a(L30L
Vapac-sin#m1.xlarge
p115
(lp116
(S'exit'
p117
F95.0
F95.0
tp118
atp119
a(L33L
g2
(lp120
(VID00002
p121
I0
F8.0
tp122
a(VID00041
p123
F16.0
F23.0
tp124
a(VID00036
p125
F27.0
F34.0
tp126
a(VID00071
p127
F34.0
F40.0
tp128
a(VID00043
p129
F40.0
F46.0
tp130
a(VID00028
p131
F46.0
F53.0
tp132
atp133
a(L34L
g29
(lp134
(VID00030
p135
F16.0
F29.0
tp136
a(VID00058
p137
F29.0
F42.0
tp138
a(VID00053
p139
F42.0
F55.0
tp140
atp141
a(L37L
Vapac-sin#m3.2xlarge
p142
(lp143
(VID00007
p144
I0
F4.0
tp145
a(VID00051
p146
F8.0
F11.0
tp147
a(VID00024
p148
F16.0
F19.0
tp149
a(VID00069
p150
F19.0
F22.0
tp151
a(VID00060
p152
F22.0
F25.0
tp153
a(VID00015
p154
F25.0
F29.0
tp155
a(VID00079
p156
F57.0
F59.0
tp157
a(VID00088
p158
F59.0
F62.0
tp159
atp160
a(L39L
Vapac-sin#m1.large
p161
(lp162
(VID00012
p163
I0
F27.0
tp164
a(VID00068
p165
F27.0
F48.0
tp166
atp167
a(L49L
g29
(lp168
(VID00020
p169
F17.0
F30.0
tp170
a(VID00029
p171
F30.0
F43.0
tp172
atp173
a(L55L
g98
(lp174
(VID00054
p175
F8.0
F36.0
tp176
a(VID00080
p177
F59.0
F88.0
tp178
atp179
a(L67L
g29
(lp180
(VID00049
p181
F8.0
F21.0
tp182
a(VID00066
p183
F27.0
F40.0
tp184
a(VID00061
p185
F40.0
F53.0
tp186
a(VID00091
p187
F59.0
F72.0
tp188
atp189
a(L74L
g29
(lp190
(VID00038
p191
F16.0
F29.0
tp192
a(VID00023
p193
F29.0
F42.0
tp194
a(VID00076
p195
F42.0
F55.0
tp196
a(VID00087
p197
F59.0
F72.0
tp198
atp199
a(L76L
g142
(lp200
(VID00005
p201
I0
F4.0
tp202
a(VID00008
p203
F4.0
F8.0
tp204
a(VID00075
p205
F29.0
F32.0
tp206
a(VID00034
p207
F32.0
F35.0
tp208
a(VID00078
p209
F55.0
F57.0
tp210
a(VID00096
p211
F88.0
F90.0
tp212
a(VID00097
p213
F90.0
F93.0
tp214
a(VID00098
p215
F93.0
F95.0
tp216
atp217
a(L79L
g29
(lp218
(S'entry'
p219
I0
F0.0
tp220
atp221
a(L93L
g29
(lp222
(VID00045
p223
F17.0
F30.0
tp224
a(VID00026
p225
F30.0
F43.0
tp226
atp227
a(L95L
g142
(lp228
(VID00099
p229
F95.0
F95.0
tp230
atp231
a(L96L
g98
(lp232
(VID00056
p233
F17.0
F45.0
tp234
a(VID00090
p235
F59.0
F88.0
tp236
atp237
a(L97L
g29
(lp238
(VID00001
p239
I0
F16.0
tp240
a(VID00035
p241
F16.0
F29.0
tp242
a(VID00037
p243
F29.0
F42.0
tp244
a(VID00048
p245
F42.0
F55.0
tp246
a(VID00093
p247
F59.0
F72.0
tp248
atp249
a(L98L
g29
(lp250
(VID00010
p251
I0
F17.0
tp252
a(VID00014
p253
F17.0
F33.0
tp254
a(VID00084
p255
F59.0
F72.0
tp256
atp257
a(L99L
g29
(lp258
(VID00013
p259
I0
F16.0
tp260
a(VID00033
p261
F16.0
F29.0
tp262
a(VID00055
p263
F29.0
F42.0
tp264
a(VID00083
p265
F59.0
F72.0
tp266
a(VID00081
p267
F72.0
F85.0
tp268
atp269
atp270
a(F171.0
F7.09
(lp271
(L2L
g2
(lp272
(g59
I0
F8.0
tp273
a(g261
F27.0
F34.0
tp274
a(g20
F34.0
F40.0
tp275
a(g24
F50.0
F57.0
tp276
a(g26
F135.0
F142.0
tp277
atp278
a(L4L
g29
(lp279
(g85
F27.0
F40.0
tp280
a(g35
F40.0
F53.0
tp281
a(g127
F53.0
F66.0
tp282
a(g22
F66.0
F79.0
tp283
a(g39
F135.0
F148.0
tp284
atp285
a(L5L
g29
(lp286
(g239
I0
F16.0
tp287
a(g165
F16.0
F29.0
tp288
a(g243
F29.0
F42.0
tp289
a(g152
F42.0
F55.0
tp290
a(g139
F55.0
F68.0
tp291
atp292
a(L10L
g29
(lp293
(g191
F16.0
F29.0
tp294
a(g183
F36.0
F49.0
tp295
a(g110
F49.0
F62.0
tp296
a(g14
F62.0
F75.0
tp297
a(g47
F75.0
F88.0
tp298
a(g209
F122.0
F128.0
tp299
a(g156
F128.0
F135.0
tp300
a(g197
F135.0
F148.0
tp301
a(g55
F148.0
F161.0
tp302
atp303
a(L15L
g29
(lp304
(g219
I0
F0.0
tp305
atp306
a(L20L
g29
(lp307
(g4
I0
F16.0
tp308
a(g135
F36.0
F49.0
tp309
a(g171
F49.0
F62.0
tp310
a(g10
F62.0
F75.0
tp311
a(g79
F75.0
F88.0
tp312
a(g207
F88.0
F101.0
tp313
a(g267
F135.0
F148.0
tp314
atp315
a(L22L
g29
(lp316
(g45
F27.0
F40.0
tp317
a(g89
F40.0
F53.0
tp318
a(g8
F53.0
F66.0
tp319
a(g93
F66.0
F79.0
tp320
a(g95
F135.0
F148.0
tp321
atp322
a(L25L
g98
(lp323
(g69
F35.0
F63.0
tp324
a(g223
F63.0
F91.0
tp325
a(g150
F91.0
F119.0
tp326
a(g102
F135.0
F164.0
tp327
atp328
a(L26L
g29
(lp329
(g203
I0
F17.0
tp330
a(g137
F17.0
F30.0
tp331
a(g245
F33.0
F46.0
tp332
a(g63
F46.0
F59.0
tp333
a(g112
F135.0
F148.0
tp334
atp335
a(L30L
g115
(lp336
(g117
F171.0
F171.0
tp337
atp338
a(L33L
g2
(lp339
(g67
F35.0
F41.0
tp340
a(g169
F41.0
F47.0
tp341
a(g241
F47.0
F53.0
tp342
a(g123
F53.0
F60.0
tp343
a(g181
F60.0
F67.0
tp344
a(g125
F67.0
F74.0
tp345
a(g37
F135.0
F142.0
tp346
atp347
a(L34L
g29
(lp348
(g146
F17.0
F30.0
tp349
a(g108
F30.0
F43.0
tp350
a(g265
F135.0
F148.0
tp351
atp352
a(L37L
g98
(lp353
(g121
I0
F36.0
tp354
a(g148
F36.0
F64.0
tp355
a(g158
F135.0
F164.0
tp356
atp357
a(L43L
g98
(lp358
(g163
I0
F36.0
tp359
a(g12
F36.0
F65.0
tp360
a(g75
F65.0
F94.0
tp361
a(g263
F94.0
F122.0
tp362
atp363
a(L46L
g98
(lp364
(g83
I0
F35.0
tp365
a(g193
F35.0
F64.0
tp366
a(g100
F64.0
F92.0
tp367
atp368
a(L67L
g29
(lp369
(g33
F27.0
F40.0
tp370
a(g129
F40.0
F53.0
tp371
a(g131
F53.0
F66.0
tp372
a(g187
F135.0
F148.0
tp373
atp374
a(L76L
g142
(lp375
(g201
I0
F4.0
tp376
a(g144
F4.0
F8.0
tp377
a(g225
F36.0
F39.0
tp378
a(g77
F39.0
F42.0
tp379
a(g185
F46.0
F49.0
tp380
a(g177
F135.0
F138.0
tp381
a(g211
F164.0
F166.0
tp382
a(g213
F166.0
F169.0
tp383
a(g215
F169.0
F171.0
tp384
atp385
a(L92L
g161
(lp386
(g31
I0
F27.0
tp387
a(g6
F27.0
F48.0
tp388
a(g91
F50.0
F71.0
tp389
a(g205
F71.0
F92.0
tp390
atp391
a(L95L
g142
(lp392
(g229
F171.0
F171.0
tp393
atp394
a(L96L
g98
(lp395
(g51
F35.0
F63.0
tp396
a(g233
F63.0
F91.0
tp397
a(g235
F135.0
F164.0
tp398
atp399
a(L97L
g29
(lp400
(g43
I0
F17.0
tp401
a(g106
F35.0
F48.0
tp402
a(g175
F48.0
F61.0
tp403
a(g53
F61.0
F74.0
tp404
a(g247
F135.0
F148.0
tp405
atp406
a(L98L
g29
(lp407
(g251
I0
F17.0
tp408
a(g61
F17.0
F30.0
tp409
a(g253
F30.0
F46.0
tp410
a(g71
F50.0
F63.0
tp411
a(g255
F135.0
F148.0
tp412
atp413
a(L99L
g29
(lp414
(g259
I0
F16.0
tp415
a(g18
F16.0
F33.0
tp416
a(g154
F33.0
F50.0
tp417
a(g195
F50.0
F63.0
tp418
atp419
atp420
a(F395.0
F5.38
(lp421
(L2L
g161
(lp422
(g59
I0
F27.0
tp423
a(g261
F27.0
F48.0
tp424
a(g20
F48.0
F69.0
tp425
a(g24
F69.0
F90.0
tp426
a(g26
F302.0
F323.0
tp427
atp428
a(L4L
g29
(lp429
(g85
F27.0
F40.0
tp430
a(g35
F40.0
F53.0
tp431
a(g127
F53.0
F66.0
tp432
a(g22
F66.0
F79.0
tp433
a(g39
F302.0
F315.0
tp434
a(g55
F315.0
F328.0
tp435
atp436
a(L5L
g98
(lp437
(g239
I0
F35.0
tp438
a(g165
F35.0
F63.0
tp439
a(g243
F63.0
F91.0
tp440
a(g152
F91.0
F119.0
tp441
a(g139
F119.0
F147.0
tp442
atp443
a(L10L
g29
(lp444
(g191
F35.0
F48.0
tp445
a(g110
F48.0
F61.0
tp446
a(g14
F61.0
F74.0
tp447
a(g47
F74.0
F87.0
tp448
a(g209
F289.0
F295.0
tp449
a(g156
F295.0
F302.0
tp450
a(g197
F302.0
F315.0
tp451
atp452
a(L15L
g29
(lp453
(g219
I0
F0.0
tp454
atp455
a(L20L
g98
(lp456
(g4
I0
F35.0
tp457
a(g135
F54.0
F83.0
tp458
a(g171
F83.0
F112.0
tp459
a(g10
F112.0
F140.0
tp460
a(g79
F140.0
F168.0
tp461
a(g207
F168.0
F196.0
tp462
a(g267
F302.0
F331.0
tp463
atp464
a(L22L
g98
(lp465
(g45
F35.0
F63.0
tp466
a(g89
F63.0
F91.0
tp467
a(g8
F91.0
F119.0
tp468
a(g93
F119.0
F147.0
tp469
a(g95
F302.0
F331.0
tp470
atp471
a(L25L
Vapac-sin#m1.small
p472
(lp473
(g69
F35.0
F120.0
tp474
a(g223
F120.0
F204.0
tp475
a(g150
F204.0
F289.0
tp476
a(g102
F302.0
F388.0
tp477
atp478
a(L26L
g98
(lp479
(g203
I0
F36.0
tp480
a(g137
F36.0
F64.0
tp481
a(g245
F64.0
F92.0
tp482
a(g63
F92.0
F120.0
tp483
a(g112
F302.0
F331.0
tp484
atp485
a(L30L
Vapac-sin#m1.medium
p486
(lp487
(g117
F395.0
F395.0
tp488
atp489
a(L33L
g98
(lp490
(g67
F35.0
F63.0
tp491
a(g169
F63.0
F91.0
tp492
a(g241
F91.0
F119.0
tp493
a(g123
F119.0
F148.0
tp494
a(g181
F148.0
F177.0
tp495
a(g125
F177.0
F205.0
tp496
atp497
a(L34L
g486
(lp498
(g146
F36.0
F78.0
tp499
a(g108
F78.0
F121.0
tp500
a(g265
F302.0
F345.0
tp501
atp502
a(L37L
g486
(lp503
(g121
I0
F54.0
tp504
a(g148
F54.0
F96.0
tp505
a(g158
F302.0
F345.0
tp506
atp507
a(L43L
g98
(lp508
(g163
I0
F36.0
tp509
a(g12
F36.0
F65.0
tp510
a(g75
F65.0
F94.0
tp511
a(g263
F94.0
F122.0
tp512
atp513
a(L46L
g472
(lp514
(g193
F35.0
F121.0
tp515
a(g100
F121.0
F205.0
tp516
a(g195
F205.0
F289.0
tp517
atp518
a(L67L
g29
(lp519
(g33
F27.0
F40.0
tp520
a(g183
F40.0
F53.0
tp521
a(g129
F53.0
F66.0
tp522
a(g131
F66.0
F79.0
tp523
a(g187
F302.0
F315.0
tp524
atp525
a(L76L
g142
(lp526
(g201
I0
F4.0
tp527
a(g144
F4.0
F8.0
tp528
a(g225
F36.0
F39.0
tp529
a(g77
F39.0
F42.0
tp530
a(g185
F65.0
F68.0
tp531
a(g177
F302.0
F305.0
tp532
a(g211
F388.0
F390.0
tp533
a(g213
F390.0
F393.0
tp534
a(g215
F393.0
F395.0
tp535
atp536
a(L92L
g161
(lp537
(g31
I0
F27.0
tp538
a(g6
F35.0
F56.0
tp539
a(g91
F56.0
F77.0
tp540
a(g205
F77.0
F98.0
tp541
a(g37
F302.0
F324.0
tp542
atp543
a(L95L
g142
(lp544
(g229
F395.0
F395.0
tp545
atp546
a(L96L
g98
(lp547
(g51
F35.0
F63.0
tp548
a(g233
F63.0
F91.0
tp549
a(g235
F302.0
F331.0
tp550
atp551
a(L97L
g29
(lp552
(g83
I0
F16.0
tp553
a(g43
F16.0
F33.0
tp554
a(g106
F33.0
F46.0
tp555
a(g175
F46.0
F59.0
tp556
a(g53
F59.0
F72.0
tp557
a(g247
F302.0
F315.0
tp558
atp559
a(L98L
g29
(lp560
(g251
I0
F17.0
tp561
a(g61
F36.0
F49.0
tp562
a(g253
F49.0
F65.0
tp563
a(g71
F65.0
F78.0
tp564
a(g255
F302.0
F315.0
tp565
atp566
a(L99L
g29
(lp567
(g259
I0
F16.0
tp568
a(g18
F16.0
F33.0
tp569
a(g154
F33.0
F50.0
tp570
atp571
atp572
a(F576.0
F4.67
(lp573
(L2L
g161
(lp574
(g59
I0
F27.0
tp575
a(g261
F107.0
F128.0
tp576
a(g20
F217.0
F238.0
tp577
a(g24
F326.0
F347.0
tp578
a(g26
F483.0
F504.0
tp579
atp580
a(L4L
g29
(lp581
(g85
F27.0
F40.0
tp582
a(g35
F40.0
F53.0
tp583
a(g127
F107.0
F120.0
tp584
a(g22
F298.0
F311.0
tp585
a(g39
F483.0
F496.0
tp586
a(g55
F496.0
F509.0
tp587
atp588
a(L5L
g98
(lp589
(g239
I0
F35.0
tp590
a(g165
F107.0
F135.0
tp591
a(g243
F135.0
F163.0
tp592
a(g152
F163.0
F191.0
tp593
a(g139
F217.0
F245.0
tp594
atp595
a(L10L
g29
(lp596
(g191
F35.0
F48.0
tp597
a(g110
F108.0
F121.0
tp598
a(g14
F217.0
F230.0
tp599
a(g47
F230.0
F243.0
tp600
a(g209
F470.0
F476.0
tp601
a(g156
F476.0
F483.0
tp602
a(g197
F483.0
F496.0
tp603
atp604
a(L15L
g29
(lp605
(g219
I0
F0.0
tp606
atp607
a(L20L
g98
(lp608
(g4
I0
F35.0
tp609
a(g135
F106.0
F135.0
tp610
a(g171
F135.0
F164.0
tp611
a(g10
F164.0
F192.0
tp612
a(g79
F217.0
F245.0
tp613
a(g207
F326.0
F354.0
tp614
a(g267
F483.0
F512.0
tp615
atp616
a(L22L
g98
(lp617
(g45
F35.0
F63.0
tp618
a(g89
F63.0
F91.0
tp619
a(g8
F91.0
F119.0
tp620
a(g93
F217.0
F245.0
tp621
a(g95
F483.0
F512.0
tp622
atp623
a(L25L
g472
(lp624
(g69
F106.0
F191.0
tp625
a(g223
F217.0
F301.0
tp626
a(g150
F301.0
F386.0
tp627
a(g102
F483.0
F569.0
tp628
atp629
a(L26L
g98
(lp630
(g203
I0
F36.0
tp631
a(g137
F108.0
F136.0
tp632
a(g245
F217.0
F245.0
tp633
a(g63
F245.0
F273.0
tp634
a(g112
F483.0
F512.0
tp635
atp636
a(L30L
g486
(lp637
(g117
F576.0
F576.0
tp638
atp639
a(L33L
g98
(lp640
(g67
F106.0
F134.0
tp641
a(g169
F217.0
F245.0
tp642
a(g241
F245.0
F273.0
tp643
a(g123
F273.0
F302.0
tp644
a(g181
F302.0
F331.0
tp645
a(g125
F331.0
F359.0
tp646
atp647
a(L34L
g486
(lp648
(g146
F36.0
F78.0
tp649
a(g108
F78.0
F121.0
tp650
a(g265
F483.0
F526.0
tp651
atp652
a(L37L
g486
(lp653
(g121
I0
F54.0
tp654
a(g148
F54.0
F96.0
tp655
a(g158
F483.0
F526.0
tp656
atp657
a(L43L
g98
(lp658
(g163
I0
F36.0
tp659
a(g12
F107.0
F136.0
tp660
a(g75
F136.0
F165.0
tp661
a(g263
F165.0
F193.0
tp662
atp663
a(L46L
g472
(lp664
(g193
F35.0
F121.0
tp665
a(g100
F121.0
F205.0
tp666
a(g195
F326.0
F410.0
tp667
atp668
a(L67L
g29
(lp669
(g33
F27.0
F40.0
tp670
a(g183
F40.0
F53.0
tp671
a(g129
F108.0
F121.0
tp672
a(g131
F326.0
F339.0
tp673
a(g187
F483.0
F496.0
tp674
atp675
a(L76L
g142
(lp676
(g201
I0
F4.0
tp677
a(g144
F4.0
F8.0
tp678
a(g225
F36.0
F39.0
tp679
a(g77
F107.0
F110.0
tp680
a(g185
F298.0
F301.0
tp681
a(g177
F483.0
F486.0
tp682
a(g211
F569.0
F571.0
tp683
a(g213
F571.0
F574.0
tp684
a(g215
F574.0
F576.0
tp685
atp686
a(L92L
g161
(lp687
(g31
I0
F27.0
tp688
a(g6
F35.0
F56.0
tp689
a(g91
F326.0
F347.0
tp690
a(g205
F347.0
F368.0
tp691
a(g37
F483.0
F505.0
tp692
atp693
a(L95L
g142
(lp694
(g229
F576.0
F576.0
tp695
atp696
a(L96L
g98
(lp697
(g51
F106.0
F134.0
tp698
a(g233
F134.0
F162.0
tp699
a(g235
F483.0
F512.0
tp700
atp701
a(L97L
g472
(lp702
(g83
I0
F106.0
tp703
a(g43
F106.0
F217.0
tp704
a(g106
F217.0
F301.0
tp705
a(g175
F301.0
F385.0
tp706
a(g53
F385.0
F470.0
tp707
a(g247
F483.0
F569.0
tp708
atp709
a(L98L
g472
(lp710
(g251
I0
F108.0
tp711
a(g61
F108.0
F193.0
tp712
a(g253
F193.0
F298.0
tp713
a(g71
F326.0
F411.0
tp714
a(g255
F483.0
F568.0
tp715
atp716
a(L99L
g472
(lp717
(g259
I0
F107.0
tp718
a(g18
F107.0
F217.0
tp719
a(g154
F217.0
F326.0
tp720
atp721
atp722
a(F730.0
F3.18
(lp723
(L2L
g472
(lp724
(g59
I0
F110.0
tp725
a(g261
F110.0
F195.0
tp726
a(g20
F217.0
F301.0
tp727
a(g24
F326.0
F411.0
tp728
a(g26
F553.0
F638.0
tp729
atp730
a(L4L
g472
(lp731
(g201
I0
F109.0
tp732
a(g85
F109.0
F193.0
tp733
a(g35
F193.0
F277.0
tp734
a(g127
F277.0
F360.0
tp735
a(g22
F360.0
F445.0
tp736
a(g39
F553.0
F637.0
tp737
a(g55
F637.0
F723.0
tp738
atp739
a(L5L
g472
(lp740
(g239
I0
F105.0
tp741
a(g165
F107.0
F192.0
tp742
a(g243
F192.0
F276.0
tp743
a(g152
F276.0
F360.0
tp744
a(g139
F360.0
F444.0
tp745
atp746
a(L10L
g472
(lp747
(g191
F109.0
F192.0
tp748
a(g110
F192.0
F278.0
tp749
a(g14
F278.0
F363.0
tp750
a(g47
F363.0
F448.0
tp751
a(g209
F470.0
F510.0
tp752
a(g156
F510.0
F553.0
tp753
a(g197
F553.0
F639.0
tp754
atp755
a(L20L
g472
(lp756
(g4
I0
F105.0
tp757
a(g171
F107.0
F193.0
tp758
a(g10
F193.0
F277.0
tp759
a(g79
F277.0
F360.0
tp760
a(g207
F360.0
F444.0
tp761
a(g267
F553.0
F641.0
tp762
atp763
a(L22L
g472
(lp764
(g45
F105.0
F190.0
tp765
a(g89
F190.0
F275.0
tp766
a(g8
F275.0
F360.0
tp767
a(g93
F360.0
F445.0
tp768
a(g95
F553.0
F639.0
tp769
atp770
a(L25L
g472
(lp771
(g69
F106.0
F191.0
tp772
a(g223
F217.0
F301.0
tp773
a(g241
F301.0
F385.0
tp774
a(g150
F385.0
F470.0
tp775
a(g102
F553.0
F639.0
tp776
atp777
a(L26L
g472
(lp778
(g203
I0
F109.0
tp779
a(g137
F109.0
F194.0
tp780
a(g245
F217.0
F301.0
tp781
a(g63
F301.0
F386.0
tp782
a(g112
F553.0
F640.0
tp783
atp784
a(L30L
g142
(lp785
(g117
F730.0
F730.0
tp786
atp787
a(L33L
g472
(lp788
(g67
F106.0
F190.0
tp789
a(g123
F190.0
F276.0
tp790
a(g181
F276.0
F362.0
tp791
a(g125
F362.0
F447.0
tp792
atp793
a(L34L
g472
(lp794
(g135
F107.0
F194.0
tp795
a(g146
F194.0
F278.0
tp796
a(g108
F278.0
F363.0
tp797
a(g265
F553.0
F639.0
tp798
atp799
a(L37L
g472
(lp800
(g121
I0
F107.0
tp801
a(g148
F109.0
F194.0
tp802
a(g158
F553.0
F639.0
tp803
atp804
a(L43L
g472
(lp805
(g163
I0
F109.0
tp806
a(g75
F109.0
F195.0
tp807
a(g263
F195.0
F279.0
tp808
atp809
a(L46L
g472
(lp810
(g193
F105.0
F191.0
tp811
a(g169
F217.0
F301.0
tp812
a(g100
F301.0
F385.0
tp813
a(g195
F385.0
F469.0
tp814
atp815
a(L54L
g472
(lp816
(g12
F107.0
F193.0
tp817
atp818
a(L67L
g472
(lp819
(g33
F27.0
F112.0
tp820
a(g183
F112.0
F198.0
tp821
a(g129
F198.0
F281.0
tp822
a(g131
F326.0
F411.0
tp823
a(g187
F553.0
F639.0
tp824
atp825
a(L73L
g29
(lp826
(g219
I0
F0.0
tp827
atp828
a(L76L
g142
(lp829
(g144
I0
F4.0
tp830
a(g225
F109.0
F112.0
tp831
a(g77
F112.0
F115.0
tp832
a(g185
F299.0
F302.0
tp833
a(g177
F553.0
F556.0
tp834
a(g211
F723.0
F725.0
tp835
a(g213
F725.0
F728.0
tp836
a(g215
F728.0
F730.0
tp837
atp838
a(L92L
g161
(lp839
(g31
I0
F27.0
tp840
a(g6
F110.0
F131.0
tp841
a(g91
F326.0
F347.0
tp842
a(g205
F347.0
F368.0
tp843
a(g37
F553.0
F575.0
tp844
atp845
a(L95L
g142
(lp846
(g229
F730.0
F730.0
tp847
atp848
a(L96L
g98
(lp849
(g51
F106.0
F134.0
tp850
a(g233
F134.0
F162.0
tp851
a(g235
F553.0
F582.0
tp852
atp853
a(L97L
g472
(lp854
(g83
I0
F106.0
tp855
a(g43
F106.0
F217.0
tp856
a(g106
F217.0
F301.0
tp857
a(g175
F301.0
F385.0
tp858
a(g53
F385.0
F470.0
tp859
a(g247
F553.0
F639.0
tp860
atp861
a(L98L
g472
(lp862
(g251
I0
F108.0
tp863
a(g61
F109.0
F194.0
tp864
a(g253
F194.0
F299.0
tp865
a(g71
F326.0
F411.0
tp866
a(g255
F553.0
F638.0
tp867
atp868
a(L99L
g472
(lp869
(g259
I0
F107.0
tp870
a(g18
F107.0
F217.0
tp871
a(g154
F217.0
F326.0
tp872
atp873
atp874
a(F941.0
F1.6
(lp875
(L2L
g472
(lp876
(g59
I0
F110.0
tp877
a(g261
F110.0
F195.0
tp878
a(g20
F217.0
F301.0
tp879
a(g24
F326.0
F411.0
tp880
a(g26
F578.0
F663.0
tp881
atp882
a(L4L
g472
(lp883
(g201
I0
F109.0
tp884
a(g85
F109.0
F193.0
tp885
a(g35
F193.0
F277.0
tp886
a(g127
F277.0
F360.0
tp887
a(g22
F360.0
F445.0
tp888
a(g39
F578.0
F662.0
tp889
a(g55
F662.0
F748.0
tp890
atp891
a(L5L
g472
(lp892
(g239
I0
F105.0
tp893
a(g165
F107.0
F192.0
tp894
a(g243
F192.0
F276.0
tp895
a(g152
F276.0
F360.0
tp896
a(g139
F360.0
F444.0
tp897
atp898
a(L10L
g472
(lp899
(g191
F109.0
F192.0
tp900
a(g110
F192.0
F278.0
tp901
a(g14
F278.0
F363.0
tp902
a(g47
F363.0
F448.0
tp903
a(g209
F495.0
F535.0
tp904
a(g156
F535.0
F578.0
tp905
a(g197
F578.0
F664.0
tp906
atp907
a(L20L
g472
(lp908
(g4
I0
F105.0
tp909
a(g171
F107.0
F193.0
tp910
a(g10
F193.0
F277.0
tp911
a(g79
F277.0
F360.0
tp912
a(g207
F360.0
F444.0
tp913
a(g267
F578.0
F666.0
tp914
atp915
a(L22L
g472
(lp916
(g45
F106.0
F191.0
tp917
a(g89
F191.0
F276.0
tp918
a(g8
F276.0
F361.0
tp919
a(g93
F361.0
F446.0
tp920
a(g95
F578.0
F664.0
tp921
atp922
a(L25L
g472
(lp923
(g69
F106.0
F191.0
tp924
a(g223
F217.0
F301.0
tp925
a(g241
F301.0
F385.0
tp926
a(g150
F385.0
F470.0
tp927
a(g102
F578.0
F664.0
tp928
atp929
a(L26L
g472
(lp930
(g203
I0
F109.0
tp931
a(g137
F109.0
F194.0
tp932
a(g245
F217.0
F301.0
tp933
a(g63
F301.0
F386.0
tp934
a(g112
F578.0
F665.0
tp935
atp936
a(L30L
g142
(lp937
(g117
F941.0
F941.0
tp938
atp939
a(L33L
g472
(lp940
(g67
F106.0
F190.0
tp941
a(g123
F190.0
F276.0
tp942
a(g181
F276.0
F362.0
tp943
a(g125
F362.0
F447.0
tp944
a(g37
F578.0
F665.0
tp945
atp946
a(L34L
g472
(lp947
(g135
F107.0
F194.0
tp948
a(g146
F194.0
F278.0
tp949
a(g108
F278.0
F363.0
tp950
a(g265
F578.0
F664.0
tp951
atp952
a(L37L
g472
(lp953
(g121
I0
F107.0
tp954
a(g148
F109.0
F194.0
tp955
a(g158
F578.0
F664.0
tp956
atp957
a(L43L
g472
(lp958
(g163
I0
F109.0
tp959
a(g12
F109.0
F195.0
tp960
a(g75
F195.0
F281.0
tp961
a(g263
F281.0
F365.0
tp962
atp963
a(L46L
g472
(lp964
(g193
F109.0
F195.0
tp965
a(g169
F217.0
F301.0
tp966
a(g100
F301.0
F385.0
tp967
atp968
a(L67L
g472
(lp969
(g33
F109.0
F194.0
tp970
a(g183
F194.0
F280.0
tp971
a(g129
F280.0
F363.0
tp972
a(g131
F363.0
F448.0
tp973
a(g187
F578.0
F664.0
tp974
atp975
a(L73L
g29
(lp976
(g219
I0
F0.0
tp977
atp978
a(L76L
g472
(lp979
(g144
I0
F109.0
tp980
a(g225
F109.0
F194.0
tp981
a(g77
F194.0
F279.0
tp982
a(g185
F299.0
F384.0
tp983
a(g177
F578.0
F665.0
tp984
a(g211
F748.0
F809.0
tp985
a(g213
F809.0
F886.0
tp986
a(g215
F886.0
F941.0
tp987
atp988
a(L92L
g472
(lp989
(g31
I0
F106.0
tp990
a(g6
F110.0
F195.0
tp991
a(g91
F326.0
F410.0
tp992
a(g205
F410.0
F495.0
tp993
atp994
a(L95L
g142
(lp995
(g229
F941.0
F941.0
tp996
atp997
a(L96L
g472
(lp998
(g51
F106.0
F191.0
tp999
a(g233
F191.0
F275.0
tp1000
a(g235
F578.0
F664.0
tp1001
atp1002
a(L97L
g472
(lp1003
(g83
I0
F106.0
tp1004
a(g43
F106.0
F217.0
tp1005
a(g106
F217.0
F301.0
tp1006
a(g175
F301.0
F385.0
tp1007
a(g53
F385.0
F470.0
tp1008
a(g247
F578.0
F664.0
tp1009
atp1010
a(L98L
g472
(lp1011
(g251
I0
F108.0
tp1012
a(g61
F109.0
F194.0
tp1013
a(g253
F194.0
F299.0
tp1014
a(g71
F326.0
F411.0
tp1015
a(g255
F578.0
F663.0
tp1016
atp1017
a(L99L
g472
(lp1018
(g259
I0
F107.0
tp1019
a(g18
F107.0
F217.0
tp1020
a(g154
F217.0
F326.0
tp1021
a(g195
F326.0
F410.0
tp1022
atp1023
atp1024
a.