(lp0
(F1357.0
F1.89
(lp1
(L0L
Vapac-sin#m3.xlarge
p2
(lp3
(VID00020
p4
I0
F27.0
tp5
a(VID00013
p6
F27.0
F28.0
tp7
a(VID00018
p8
F28.0
F632.0
tp9
a(VID00019
p10
F632.0
F661.0
tp11
a(VID00024
p12
F905.0
F909.0
tp13
a(VID00026
p14
F909.0
F929.0
tp15
a(VID00027
p16
F929.0
F931.0
tp17
atp18
a(L2L
Vapac-sin#m3.2xlarge
p19
(lp20
(VID00006
p21
I0
F0.0
tp22
a(VID00015
p23
I0
F0.0
tp24
atp25
a(L4L
g2
(lp26
(VID00005
p27
I0
F0.0
tp28
atp29
a(L9L
g19
(lp30
(VID00011
p31
I0
F0.0
tp32
a(VID00016
p33
I0
F0.0
tp34
a(VID00014
p35
I0
F0.0
tp36
atp37
a(L10L
Vapac-sin#m3.medium
p38
(lp39
(S'exit'
p40
F1357.0
F1357.0
tp41
atp42
a(L11L
g19
(lp43
(VID00023
p44
F905.0
F905.0
tp45
atp46
a(L13L
g19
(lp47
(VID00012
p48
I0
F0.0
tp49
a(VID00017
p50
I0
F0.0
tp51
atp52
a(L17L
g19
(lp53
(VID00021
p54
I0
F754.0
tp55
a(VID00022
p56
F754.0
F905.0
tp57
a(VID00025
p58
F905.0
F1356.0
tp59
a(VID00028
p60
F1356.0
F1357.0
tp61
atp62
a(L19L
g19
(lp63
(VID00004
p64
I0
F0.0
tp65
a(VID00007
p66
I0
F0.0
tp67
a(VID00003
p68
I0
F0.0
tp69
a(VID00008
p70
I0
F0.0
tp71
atp72
a(L22L
Vapac-sin#m1.medium
p73
(lp74
(VID00000
p75
F28.0
F28.0
tp76
atp77
a(L28L
g19
(lp78
(S'entry'
p79
I0
F0.0
tp80
atp81
a(L29L
g19
(lp82
(VID00001
p83
I0
F0.0
tp84
a(VID00002
p85
I0
F0.0
tp86
a(VID00009
p87
I0
F0.0
tp88
atp89
a(L30L
g19
(lp90
(VID00010
p91
I0
F0.0
tp92
atp93
atp94
a(F1659.0
F1.34
(lp95
(L0L
Vapac-sin#m1.small
p96
(lp97
(g4
I0
F356.0
tp98
a(g6
F356.0
F370.0
tp99
a(g33
F370.0
F378.0
tp100
a(g10
F378.0
F758.0
tp101
a(g12
F1207.0
F1255.0
tp102
a(g14
F1255.0
F1519.0
tp103
a(g16
F1519.0
F1547.0
tp104
atp105
a(L2L
g19
(lp106
(g21
I0
F0.0
tp107
a(g23
I0
F0.0
tp108
atp109
a(L9L
g19
(lp110
(g48
I0
F0.0
tp111
a(g91
I0
F0.0
tp112
a(g31
I0
F0.0
tp113
atp114
a(L10L
g38
(lp115
(g40
F1659.0
F1659.0
tp116
atp117
a(L11L
g19
(lp118
(g44
F1207.0
F1207.0
tp119
atp120
a(L13L
g19
(lp121
(g64
I0
F0.0
tp122
a(g50
I0
F0.0
tp123
atp124
a(L17L
g19
(lp125
(g27
I0
F0.0
tp126
a(g54
I0
F754.0
tp127
a(g8
F754.0
F1056.0
tp128
a(g56
F1056.0
F1207.0
tp129
a(g58
F1207.0
F1658.0
tp130
a(g60
F1658.0
F1659.0
tp131
atp132
a(L19L
g19
(lp133
(g66
I0
F0.0
tp134
a(g68
I0
F0.0
tp135
a(g70
I0
F0.0
tp136
a(g35
I0
F0.0
tp137
atp138
a(L25L
g2
(lp139
(g79
I0
F0.0
tp140
atp141
a(L28L
g19
(lp142
(g75
F378.0
F378.0
tp143
atp144
a(L29L
g19
(lp145
(g83
I0
F0.0
tp146
a(g85
I0
F0.0
tp147
a(g87
I0
F0.0
tp148
atp149
atp150
a(F2712.0
F0.94
(lp151
(L0L
Vapac-sin#m3.large
p152
(lp153
(g4
I0
F55.0
tp154
a(g6
F55.0
F57.0
tp155
a(g8
F57.0
F1264.0
tp156
a(g10
F1264.0
F1322.0
tp157
a(g12
F1809.0
F1816.0
tp158
a(g14
F1816.0
F1857.0
tp159
a(g16
F1857.0
F1861.0
tp160
atp161
a(L2L
g19
(lp162
(g21
I0
F0.0
tp163
a(g23
I0
F0.0
tp164
atp165
a(L4L
g152
(lp166
(g79
I0
F0.0
tp167
atp168
a(L9L
g19
(lp169
(g31
I0
F0.0
tp170
a(g33
I0
F0.0
tp171
a(g35
I0
F0.0
tp172
atp173
a(L10L
g38
(lp174
(g40
F2712.0
F2712.0
tp175
atp176
a(L11L
g19
(lp177
(g44
F1809.0
F1809.0
tp178
atp179
a(L13L
g19
(lp180
(g27
I0
F0.0
tp181
a(g48
I0
F0.0
tp182
atp183
a(L17L
g2
(lp184
(g54
I0
F1507.0
tp185
a(g56
F1507.0
F1809.0
tp186
a(g58
F1809.0
F2711.0
tp187
a(g60
F2711.0
F2712.0
tp188
atp189
a(L19L
g19
(lp190
(g64
I0
F0.0
tp191
a(g66
I0
F0.0
tp192
a(g68
I0
F0.0
tp193
a(g70
I0
F0.0
tp194
atp195
a(L22L
g73
(lp196
(g75
F57.0
F57.0
tp197
atp198
a(L28L
g19
(lp199
(g50
I0
F0.0
tp200
atp201
a(L29L
g19
(lp202
(g83
I0
F0.0
tp203
a(g85
I0
F0.0
tp204
a(g87
I0
F0.0
tp205
atp206
a(L30L
g19
(lp207
(g91
I0
F0.0
tp208
atp209
atp210
a(F3316.0
F0.71
(lp211
(L0L
g96
(lp212
(g4
I0
F356.0
tp213
a(g6
F356.0
F370.0
tp214
a(g33
F370.0
F378.0
tp215
a(g10
F378.0
F758.0
tp216
a(g12
F2413.0
F2461.0
tp217
a(g14
F2461.0
F2725.0
tp218
a(g16
F2725.0
F2753.0
tp219
atp220
a(L2L
g19
(lp221
(g21
I0
F0.0
tp222
a(g23
I0
F0.0
tp223
atp224
a(L4L
g152
(lp225
(g79
I0
F0.0
tp226
atp227
a(L9L
g19
(lp228
(g31
I0
F0.0
tp229
a(g35
I0
F0.0
tp230
atp231
a(L10L
g38
(lp232
(g40
F3316.0
F3316.0
tp233
atp234
a(L11L
g19
(lp235
(g44
F2413.0
F2413.0
tp236
atp237
a(L13L
g19
(lp238
(g27
I0
F0.0
tp239
a(g48
I0
F0.0
tp240
a(g50
I0
F0.0
tp241
atp242
a(L17L
g2
(lp243
(g54
I0
F1507.0
tp244
a(g8
F1507.0
F2111.0
tp245
a(g56
F2111.0
F2413.0
tp246
a(g58
F2413.0
F3315.0
tp247
a(g60
F3315.0
F3316.0
tp248
atp249
a(L19L
g19
(lp250
(g64
I0
F0.0
tp251
a(g66
I0
F0.0
tp252
a(g68
I0
F0.0
tp253
a(g70
I0
F0.0
tp254
atp255
a(L22L
g73
(lp256
(g75
F378.0
F378.0
tp257
atp258
a(L29L
g19
(lp259
(g83
I0
F0.0
tp260
a(g85
I0
F0.0
tp261
a(g87
I0
F0.0
tp262
atp263
a(L30L
g19
(lp264
(g91
I0
F0.0
tp265
atp266
atp267
a.