(lp0
(F1376.0
F8.28
(lp1
(L3L
Vapac-sin#m3.2xlarge
p2
(lp3
(VID00050
p4
I0
F0.0
tp5
a(VID00065
p6
I0
F0.0
tp7
a(VID00019
p8
I0
F0.0
tp9
atp10
a(L4L
g2
(lp11
(VID00003
p12
I0
F0.0
tp13
a(VID00010
p14
I0
F0.0
tp15
atp16
a(L6L
Vapac-sin#m1.small
p17
(lp18
(VID00026
p19
F742.0
F790.0
tp20
a(VID00029
p21
F790.0
F836.0
tp22
a(VID00006
p23
F836.0
F847.0
tp24
atp25
a(L7L
g2
(lp26
(VID00053
p27
I0
F19.0
tp28
a(VID00086
p29
F19.0
F456.0
tp30
a(VID00093
p31
F832.0
F1242.0
tp32
atp33
a(L11L
g2
(lp34
(VID00020
p35
I0
F571.0
tp36
a(VID00027
p37
F742.0
F1127.0
tp38
a(VID00028
p39
F1127.0
F1137.0
tp40
a(VID00048
p41
F1137.0
F1137.0
tp42
a(VID00013
p43
F1137.0
F1137.0
tp44
atp45
a(L13L
Vapac-sin#m3.medium
p46
(lp47
(VID00031
p48
F1137.0
F1137.0
tp49
atp50
a(L15L
g2
(lp51
(VID00044
p52
I0
F0.0
tp53
a(VID00070
p54
I0
F0.0
tp55
a(VID00078
p56
I0
F0.0
tp57
atp58
a(L18L
g17
(lp59
(VID00088
p60
I0
F438.0
tp61
a(VID00009
p62
F438.0
F445.0
tp63
atp64
a(L23L
g2
(lp65
(VID00071
p66
I0
F0.0
tp67
a(VID00079
p68
I0
F0.0
tp69
atp70
a(L25L
g2
(lp71
(VID00011
p72
I0
F0.0
tp73
atp74
a(L26L
Vapac-sin#m3.xlarge
p75
(lp76
(S'exit'
p77
F1376.0
F1376.0
tp78
atp79
a(L32L
g2
(lp80
(VID00034
p81
I0
F0.0
tp82
a(VID00035
p83
I0
F0.0
tp84
a(VID00004
p85
I0
F0.0
tp86
a(VID00007
p87
I0
F0.0
tp88
atp89
a(L35L
g2
(lp90
(VID00047
p91
I0
F0.0
tp92
a(VID00064
p93
I0
F0.0
tp94
atp95
a(L36L
g2
(lp96
(VID00051
p97
I0
F448.0
tp98
a(VID00076
p99
F448.0
F448.0
tp100
a(VID00091
p101
F832.0
F833.0
tp102
atp103
a(L37L
g2
(lp104
(VID00041
p105
I0
F0.0
tp106
a(VID00068
p107
I0
F0.0
tp108
atp109
a(L38L
g17
(lp110
(VID00087
p111
I0
F191.0
tp112
a(VID00082
p113
F191.0
F203.0
tp114
a(VID00062
p115
F1002.0
F1003.0
tp116
atp117
a(L41L
g2
(lp118
(VID00083
p119
I0
F0.0
tp120
atp121
a(L45L
g17
(lp122
(VID00021
p123
I0
F310.0
tp124
a(VID00075
p125
F310.0
F322.0
tp126
atp127
a(L48L
g2
(lp128
(VID00046
p129
I0
F0.0
tp130
a(VID00084
p131
I0
F0.0
tp132
a(VID00015
p133
I0
F0.0
tp134
atp135
a(L49L
g2
(lp136
(VID00054
p137
I0
F862.0
tp138
a(VID00055
p139
F862.0
F971.0
tp140
a(VID00094
p141
F971.0
F981.0
tp142
a(VID00096
p143
F1242.0
F1242.0
tp144
atp145
a(L50L
g2
(lp146
(VID00037
p147
I0
F0.0
tp148
atp149
a(L53L
g2
(lp150
(VID00061
p151
F1376.0
F1376.0
tp152
atp153
a(L58L
g17
(lp154
(VID00045
p155
I0
F12.0
tp156
a(VID00056
p157
F971.0
F981.0
tp158
a(VID00059
p159
F981.0
F1245.0
tp160
atp161
a(L61L
g17
(lp162
(VID00063
p163
I0
F11.0
tp164
a(VID00060
p165
F971.0
F993.0
tp166
a(VID00069
p167
F993.0
F1002.0
tp168
a(VID00092
p169
F1002.0
F1036.0
tp170
atp171
a(L62L
g2
(lp172
(VID00049
p173
I0
F0.0
tp174
a(VID00042
p175
I0
F0.0
tp176
a(VID00005
p177
I0
F0.0
tp178
atp179
a(L63L
g2
(lp180
(VID00074
p181
I0
F0.0
tp182
a(VID00014
p183
I0
F0.0
tp184
atp185
a(L66L
g2
(lp186
(VID00073
p187
I0
F0.0
tp188
atp189
a(L67L
g17
(lp190
(VID00057
p191
F971.0
F1013.0
tp192
a(VID00095
p193
F1013.0
F1044.0
tp194
a(VID00018
p195
F1044.0
F1051.0
tp196
atp197
a(L68L
g17
(lp198
(VID00038
p199
I0
F10.0
tp200
a(VID00052
p201
F10.0
F281.0
tp202
a(VID00066
p203
F281.0
F293.0
tp204
atp205
a(L69L
g75
(lp206
(VID00077
p207
I0
F0.0
tp208
atp209
a(L76L
g2
(lp210
(VID00039
p211
I0
F0.0
tp212
a(VID00072
p213
I0
F0.0
tp214
a(VID00085
p215
I0
F0.0
tp216
atp217
a(L77L
g2
(lp218
(VID00033
p219
I0
F0.0
tp220
atp221
a(L79L
g17
(lp222
(VID00022
p223
I0
F400.0
tp224
a(VID00067
p225
F400.0
F409.0
tp226
a(VID00080
p227
F409.0
F419.0
tp228
a(VID00012
p229
F419.0
F434.0
tp230
a(VID00016
p231
F434.0
F448.0
tp232
atp233
a(L80L
g2
(lp234
(VID00043
p235
I0
F0.0
tp236
a(VID00008
p237
I0
F0.0
tp238
atp239
a(L83L
g2
(lp240
(VID00032
p241
I0
F0.0
tp242
a(VID00089
p243
I0
F671.0
tp244
a(VID00090
p245
F671.0
F832.0
tp246
atp247
a(L84L
g2
(lp248
(S'entry'
p249
I0
F0.0
tp250
a(VID00023
p251
I0
F602.0
tp252
a(VID00024
p253
F602.0
F742.0
tp254
a(VID00036
p255
F742.0
F742.0
tp256
a(VID00040
p257
F742.0
F742.0
tp258
a(VID00058
p259
F971.0
F1376.0
tp260
atp261
a(L86L
Vapac-sin#m1.medium
p262
(lp263
(VID00000
p264
F1137.0
F1137.0
tp265
atp266
a(L89L
g2
(lp267
(VID00081
p268
I0
F0.0
tp269
a(VID00002
p270
I0
F0.0
tp271
atp272
a(L91L
g2
(lp273
(VID00025
p274
F742.0
F742.0
tp275
a(VID00001
p276
F742.0
F742.0
tp277
atp278
a(L92L
g2
(lp279
(VID00017
p280
I0
F0.0
tp281
atp282
a(L94L
g2
(lp283
(VID00030
p284
F1137.0
F1137.0
tp285
atp286
atp287
a(F1450.0
F7.25
(lp288
(L1L
g2
(lp289
(g41
I0
F0.0
tp290
a(g203
I0
F0.0
tp291
a(g87
I0
F0.0
tp292
a(g237
I0
F0.0
tp293
atp294
a(L3L
g2
(lp295
(g255
I0
F0.0
tp296
a(g133
I0
F0.0
tp297
atp298
a(L7L
g2
(lp299
(g163
I0
F0.0
tp300
atp301
a(L8L
g2
(lp302
(g83
I0
F0.0
tp303
a(g215
I0
F0.0
tp304
a(g270
I0
F0.0
tp305
a(g43
I0
F0.0
tp306
atp307
a(L10L
g2
(lp308
(g268
I0
F0.0
tp309
atp310
a(L11L
g2
(lp311
(g35
I0
F571.0
tp312
a(g253
F602.0
F742.0
tp313
a(g37
F742.0
F1127.0
tp314
a(g21
F1127.0
F1129.0
tp315
a(g23
F1129.0
F1129.0
tp316
a(g169
F1129.0
F1130.0
tp317
atp318
a(L12L
g2
(lp319
(g143
F1450.0
F1450.0
tp320
atp321
a(L16L
g75
(lp322
(g29
I0
F874.0
tp323
atp324
a(L17L
g2
(lp325
(g219
I0
F0.0
tp326
a(g105
I0
F0.0
tp327
a(g125
I0
F0.0
tp328
a(g195
I0
F0.0
tp329
atp330
a(L19L
Vapac-sin#m1.xlarge
p331
(lp332
(g115
F1298.0
F1298.0
tp333
atp334
a(L26L
g46
(lp335
(g77
F1450.0
F1450.0
tp336
atp337
a(L27L
g2
(lp338
(g157
F1027.0
F1027.0
tp339
atp340
a(L28L
g17
(lp341
(g201
I0
F271.0
tp342
a(g111
F271.0
F462.0
tp343
a(g141
F1083.0
F1347.0
tp344
atp345
a(L29L
g2
(lp346
(g91
I0
F0.0
tp347
a(g56
I0
F0.0
tp348
a(g183
I0
F0.0
tp349
atp350
a(L38L
g2
(lp351
(g177
I0
F0.0
tp352
atp353
a(L40L
g2
(lp354
(g129
I0
F0.0
tp355
a(g4
I0
F0.0
tp356
atp357
a(L42L
g2
(lp358
(g52
I0
F0.0
tp359
a(g85
I0
F0.0
tp360
atp361
a(L43L
g2
(lp362
(g274
F742.0
F742.0
tp363
a(g276
F742.0
F742.0
tp364
atp365
a(L44L
g2
(lp366
(g48
F602.0
F602.0
tp367
a(g131
F602.0
F602.0
tp368
atp369
a(L45L
g17
(lp370
(g39
F742.0
F1006.0
tp371
a(g191
F1027.0
F1069.0
tp372
a(g101
F1069.0
F1083.0
tp373
a(g231
F1083.0
F1097.0
tp374
atp375
a(L47L
g2
(lp376
(g227
I0
F0.0
tp377
atp378
a(L49L
g2
(lp379
(g81
I0
F0.0
tp380
a(g137
I0
F862.0
tp381
a(g181
F862.0
F862.0
tp382
a(g60
F862.0
F879.0
tp383
a(g31
F1040.0
F1450.0
tp384
atp385
a(L53L
g2
(lp386
(g225
I0
F0.0
tp387
a(g99
I0
F0.0
tp388
atp389
a(L56L
g2
(lp390
(g14
I0
F0.0
tp391
atp392
a(L58L
g2
(lp393
(g251
I0
F602.0
tp394
a(g175
F602.0
F602.0
tp395
atp396
a(L59L
g2
(lp397
(g173
I0
F0.0
tp398
a(g66
I0
F0.0
tp399
a(g187
I0
F0.0
tp400
a(g119
I0
F0.0
tp401
atp402
a(L60L
g2
(lp403
(g93
I0
F0.0
tp404
a(g54
I0
F0.0
tp405
atp406
a(L62L
g2
(lp407
(g147
I0
F0.0
tp408
a(g257
I0
F0.0
tp409
a(g62
I0
F0.0
tp410
atp411
a(L63L
g2
(lp412
(g167
I0
F0.0
tp413
atp414
a(L67L
g17
(lp415
(g123
I0
F310.0
tp416
a(g19
F742.0
F790.0
tp417
a(g165
F1027.0
F1049.0
tp418
a(g113
F1049.0
F1061.0
tp419
atp420
a(L76L
g2
(lp421
(g211
I0
F0.0
tp422
a(g107
I0
F0.0
tp423
a(g207
I0
F0.0
tp424
atp425
a(L79L
g17
(lp426
(g223
I0
F400.0
tp427
a(g199
F400.0
F410.0
tp428
a(g155
F410.0
F422.0
tp429
a(g27
F422.0
F918.0
tp430
a(g159
F1027.0
F1291.0
tp431
a(g68
F1291.0
F1298.0
tp432
a(g229
F1298.0
F1313.0
tp433
atp434
a(L80L
g2
(lp435
(g241
I0
F0.0
tp436
atp437
a(L83L
g2
(lp438
(g243
I0
F671.0
tp439
a(g12
F671.0
F671.0
tp440
a(g245
F879.0
F1040.0
tp441
a(g193
F1040.0
F1041.0
tp442
atp443
a(L84L
g2
(lp444
(g249
I0
F0.0
tp445
a(g97
I0
F448.0
tp446
a(g139
F918.0
F1027.0
tp447
a(g259
F1027.0
F1432.0
tp448
a(g8
F1432.0
F1432.0
tp449
atp450
a(L89L
g2
(lp451
(g72
I0
F0.0
tp452
atp453
a(L91L
g262
(lp454
(g264
F1432.0
F1432.0
tp455
atp456
a(L92L
g2
(lp457
(g213
I0
F0.0
tp458
atp459
a(L94L
g2
(lp460
(g151
F1432.0
F1432.0
tp461
a(g284
F1432.0
F1432.0
tp462
atp463
a(L95L
g2
(lp464
(g6
I0
F0.0
tp465
a(g280
I0
F0.0
tp466
atp467
a(L96L
g2
(lp468
(g235
I0
F0.0
tp469
atp470
atp471
a(F1564.0
F5.99
(lp472
(L1L
g2
(lp473
(g41
I0
F0.0
tp474
a(g203
I0
F0.0
tp475
a(g87
I0
F0.0
tp476
a(g237
I0
F0.0
tp477
atp478
a(L3L
g2
(lp479
(g91
I0
F0.0
tp480
a(g133
I0
F0.0
tp481
atp482
a(L7L
g2
(lp483
(g163
I0
F0.0
tp484
atp485
a(L8L
g2
(lp486
(g83
I0
F0.0
tp487
a(g215
I0
F0.0
tp488
a(g270
I0
F0.0
tp489
a(g43
I0
F0.0
tp490
atp491
a(L10L
g2
(lp492
(g268
I0
F0.0
tp493
atp494
a(L11L
g2
(lp495
(g35
I0
F571.0
tp496
a(g253
F602.0
F742.0
tp497
a(g37
F742.0
F1127.0
tp498
a(g21
F1127.0
F1129.0
tp499
a(g23
F1129.0
F1129.0
tp500
a(g169
F1129.0
F1130.0
tp501
atp502
a(L12L
g2
(lp503
(g143
F1479.0
F1479.0
tp504
atp505
a(L16L
g75
(lp506
(g29
I0
F874.0
tp507
atp508
a(L17L
g2
(lp509
(g219
I0
F0.0
tp510
a(g125
I0
F0.0
tp511
a(g195
I0
F0.0
tp512
atp513
a(L19L
g331
(lp514
(g115
F1430.0
F1430.0
tp515
atp516
a(L26L
g46
(lp517
(g77
F1564.0
F1564.0
tp518
atp519
a(L27L
g2
(lp520
(g157
F1159.0
F1159.0
tp521
atp522
a(L28L
g17
(lp523
(g147
I0
F12.0
tp524
a(g201
F12.0
F283.0
tp525
a(g111
F283.0
F474.0
tp526
a(g141
F1215.0
F1479.0
tp527
atp528
a(L29L
g2
(lp529
(g56
I0
F0.0
tp530
a(g183
I0
F0.0
tp531
atp532
a(L38L
g2
(lp533
(g177
I0
F0.0
tp534
atp535
a(L40L
g2
(lp536
(g257
I0
F0.0
tp537
a(g4
I0
F0.0
tp538
atp539
a(L42L
g2
(lp540
(g52
I0
F0.0
tp541
a(g129
I0
F0.0
tp542
a(g85
I0
F0.0
tp543
atp544
a(L43L
g2
(lp545
(g274
F742.0
F742.0
tp546
a(g276
F742.0
F742.0
tp547
atp548
a(L44L
g2
(lp549
(g48
F800.0
F800.0
tp550
a(g131
F800.0
F800.0
tp551
atp552
a(L45L
g17
(lp553
(g39
F742.0
F1006.0
tp554
a(g191
F1159.0
F1201.0
tp555
a(g101
F1201.0
F1215.0
tp556
a(g231
F1215.0
F1229.0
tp557
atp558
a(L47L
g2
(lp559
(g227
I0
F0.0
tp560
atp561
a(L49L
g2
(lp562
(g81
I0
F0.0
tp563
a(g137
I0
F862.0
tp564
a(g181
F862.0
F862.0
tp565
a(g60
F862.0
F879.0
tp566
a(g31
F1040.0
F1450.0
tp567
atp568
a(L53L
g2
(lp569
(g225
I0
F0.0
tp570
a(g99
I0
F0.0
tp571
atp572
a(L56L
g2
(lp573
(g14
I0
F0.0
tp574
atp575
a(L58L
g2
(lp576
(g175
I0
F0.0
tp577
atp578
a(L59L
g2
(lp579
(g249
I0
F0.0
tp580
a(g173
I0
F0.0
tp581
a(g66
I0
F0.0
tp582
a(g187
I0
F0.0
tp583
a(g119
I0
F0.0
tp584
atp585
a(L60L
g2
(lp586
(g93
I0
F0.0
tp587
a(g54
I0
F0.0
tp588
atp589
a(L62L
g2
(lp590
(g62
I0
F0.0
tp591
atp592
a(L63L
g2
(lp593
(g167
I0
F0.0
tp594
atp595
a(L67L
g17
(lp596
(g123
I0
F310.0
tp597
a(g19
F742.0
F790.0
tp598
a(g235
F790.0
F800.0
tp599
a(g165
F1159.0
F1181.0
tp600
a(g113
F1181.0
F1193.0
tp601
atp602
a(L71L
g2
(lp603
(g155
I0
F0.0
tp604
atp605
a(L76L
g2
(lp606
(g211
I0
F0.0
tp607
a(g107
I0
F0.0
tp608
a(g207
I0
F0.0
tp609
atp610
a(L79L
g17
(lp611
(g223
I0
F400.0
tp612
a(g199
F400.0
F410.0
tp613
a(g27
F410.0
F906.0
tp614
a(g159
F1159.0
F1423.0
tp615
a(g68
F1423.0
F1430.0
tp616
a(g229
F1430.0
F1445.0
tp617
atp618
a(L80L
g2
(lp619
(g241
I0
F0.0
tp620
atp621
a(L83L
g2
(lp622
(g243
I0
F671.0
tp623
a(g12
F671.0
F671.0
tp624
a(g245
F879.0
F1040.0
tp625
a(g193
F1040.0
F1041.0
tp626
atp627
a(L84L
g2
(lp628
(g251
I0
F602.0
tp629
a(g97
F602.0
F1050.0
tp630
a(g139
F1050.0
F1159.0
tp631
a(g259
F1159.0
F1564.0
tp632
a(g8
F1564.0
F1564.0
tp633
atp634
a(L89L
g2
(lp635
(g72
I0
F0.0
tp636
atp637
a(L91L
g262
(lp638
(g264
F1564.0
F1564.0
tp639
atp640
a(L92L
g2
(lp641
(g213
I0
F0.0
tp642
atp643
a(L94L
g2
(lp644
(g151
F1564.0
F1564.0
tp645
a(g284
F1564.0
F1564.0
tp646
atp647
a(L95L
g2
(lp648
(g255
I0
F0.0
tp649
a(g105
I0
F0.0
tp650
a(g6
I0
F0.0
tp651
a(g280
I0
F0.0
tp652
atp653
atp654
a(F1679.0
F5.36
(lp655
(L1L
g2
(lp656
(g41
I0
F0.0
tp657
a(g203
I0
F0.0
tp658
a(g87
I0
F0.0
tp659
a(g237
I0
F0.0
tp660
atp661
a(L3L
g2
(lp662
(g91
I0
F0.0
tp663
a(g133
I0
F0.0
tp664
atp665
a(L7L
g2
(lp666
(g163
I0
F0.0
tp667
atp668
a(L8L
g2
(lp669
(g83
I0
F0.0
tp670
a(g215
I0
F0.0
tp671
a(g270
I0
F0.0
tp672
a(g43
I0
F0.0
tp673
atp674
a(L11L
g2
(lp675
(g35
I0
F571.0
tp676
a(g253
F602.0
F742.0
tp677
a(g37
F742.0
F1127.0
tp678
a(g21
F1127.0
F1129.0
tp679
a(g23
F1129.0
F1129.0
tp680
a(g169
F1269.0
F1270.0
tp681
atp682
a(L12L
g2
(lp683
(g143
F1679.0
F1679.0
tp684
atp685
a(L17L
g2
(lp686
(g219
I0
F0.0
tp687
a(g125
I0
F0.0
tp688
a(g195
I0
F0.0
tp689
atp690
a(L19L
g331
(lp691
(g115
F1430.0
F1430.0
tp692
atp693
a(L26L
g46
(lp694
(g77
F1679.0
F1679.0
tp695
atp696
a(L27L
g2
(lp697
(g157
F1159.0
F1159.0
tp698
atp699
a(L28L
g17
(lp700
(g147
I0
F12.0
tp701
a(g201
F12.0
F283.0
tp702
a(g111
F283.0
F474.0
tp703
a(g141
F1283.0
F1547.0
tp704
atp705
a(L29L
g2
(lp706
(g107
I0
F0.0
tp707
a(g56
I0
F0.0
tp708
a(g183
I0
F0.0
tp709
atp710
a(L38L
g2
(lp711
(g177
I0
F0.0
tp712
atp713
a(L40L
g2
(lp714
(g257
I0
F0.0
tp715
a(g4
I0
F0.0
tp716
atp717
a(L42L
g2
(lp718
(g52
I0
F0.0
tp719
a(g129
I0
F0.0
tp720
a(g85
I0
F0.0
tp721
atp722
a(L43L
g2
(lp723
(g274
F742.0
F742.0
tp724
a(g276
F742.0
F742.0
tp725
atp726
a(L44L
g2
(lp727
(g48
F800.0
F800.0
tp728
atp729
a(L45L
g17
(lp730
(g39
F742.0
F1006.0
tp731
a(g191
F1159.0
F1201.0
tp732
a(g101
F1269.0
F1283.0
tp733
a(g231
F1283.0
F1297.0
tp734
atp735
a(L46L
g2
(lp736
(g155
I0
F0.0
tp737
atp738
a(L47L
g2
(lp739
(g227
I0
F0.0
tp740
atp741
a(L49L
g2
(lp742
(g81
I0
F0.0
tp743
a(g137
I0
F862.0
tp744
a(g181
F862.0
F862.0
tp745
a(g60
F862.0
F879.0
tp746
a(g31
F1269.0
F1679.0
tp747
atp748
a(L53L
g2
(lp749
(g225
I0
F0.0
tp750
a(g99
I0
F0.0
tp751
atp752
a(L56L
g2
(lp753
(g14
I0
F0.0
tp754
atp755
a(L58L
g2
(lp756
(g175
I0
F0.0
tp757
a(g268
I0
F0.0
tp758
atp759
a(L59L
g2
(lp760
(g249
I0
F0.0
tp761
a(g173
I0
F0.0
tp762
a(g66
I0
F0.0
tp763
a(g187
I0
F0.0
tp764
a(g119
I0
F0.0
tp765
atp766
a(L60L
g2
(lp767
(g93
I0
F0.0
tp768
a(g54
I0
F0.0
tp769
atp770
a(L62L
g2
(lp771
(g62
I0
F0.0
tp772
atp773
a(L63L
g2
(lp774
(g167
I0
F0.0
tp775
atp776
a(L67L
g17
(lp777
(g123
I0
F310.0
tp778
a(g19
F742.0
F790.0
tp779
a(g235
F790.0
F800.0
tp780
a(g165
F1159.0
F1181.0
tp781
a(g207
F1181.0
F1187.0
tp782
a(g113
F1187.0
F1199.0
tp783
atp784
a(L71L
g2
(lp785
(g131
I0
F0.0
tp786
atp787
a(L76L
g2
(lp788
(g211
I0
F0.0
tp789
atp790
a(L79L
g17
(lp791
(g223
I0
F400.0
tp792
a(g199
F400.0
F410.0
tp793
a(g27
F410.0
F906.0
tp794
a(g159
F1159.0
F1423.0
tp795
a(g68
F1423.0
F1430.0
tp796
a(g229
F1430.0
F1445.0
tp797
atp798
a(L80L
g2
(lp799
(g241
I0
F0.0
tp800
atp801
a(L83L
g2
(lp802
(g243
I0
F671.0
tp803
a(g29
F671.0
F1108.0
tp804
a(g12
F1108.0
F1108.0
tp805
a(g245
F1108.0
F1269.0
tp806
a(g193
F1269.0
F1270.0
tp807
atp808
a(L84L
g2
(lp809
(g251
I0
F602.0
tp810
a(g97
F602.0
F1050.0
tp811
a(g139
F1050.0
F1159.0
tp812
a(g259
F1159.0
F1564.0
tp813
a(g8
F1564.0
F1564.0
tp814
atp815
a(L89L
g2
(lp816
(g72
I0
F0.0
tp817
atp818
a(L91L
g262
(lp819
(g264
F1564.0
F1564.0
tp820
atp821
a(L92L
g2
(lp822
(g213
I0
F0.0
tp823
atp824
a(L94L
g2
(lp825
(g151
F1564.0
F1564.0
tp826
a(g284
F1564.0
F1564.0
tp827
atp828
a(L95L
g2
(lp829
(g255
I0
F0.0
tp830
a(g105
I0
F0.0
tp831
a(g6
I0
F0.0
tp832
a(g280
I0
F0.0
tp833
atp834
atp835
a(F2192.0
F4.89
(lp836
(L1L
g2
(lp837
(g199
I0
F0.0
tp838
a(g125
I0
F0.0
tp839
atp840
a(L6L
g17
(lp841
(g19
F1421.0
F1469.0
tp842
a(g191
F1469.0
F1511.0
tp843
atp844
a(L7L
g2
(lp845
(g181
I0
F0.0
tp846
atp847
a(L11L
g75
(lp848
(g35
I0
F1141.0
tp849
a(g253
F1141.0
F1421.0
tp850
a(g37
F1421.0
F2192.0
tp851
atp852
a(L15L
g2
(lp853
(g177
I0
F0.0
tp854
a(g43
I0
F0.0
tp855
atp856
a(L20L
g2
(lp857
(g113
I0
F0.0
tp858
atp859
a(L25L
g2
(lp860
(g241
I0
F0.0
tp861
a(g99
I0
F0.0
tp862
a(g72
I0
F0.0
tp863
atp864
a(L26L
Vapac-sin#m1.large
p865
(lp866
(g77
F2192.0
F2192.0
tp867
atp868
a(L27L
g331
(lp869
(g249
I0
F0.0
tp870
atp871
a(L28L
g17
(lp872
(g223
I0
F400.0
tp873
a(g201
F400.0
F671.0
tp874
a(g213
F671.0
F681.0
tp875
a(g111
F681.0
F872.0
tp876
a(g141
F1351.0
F1615.0
tp877
atp878
a(L31L
g2
(lp879
(g81
I0
F0.0
tp880
a(g93
I0
F0.0
tp881
a(g131
I0
F0.0
tp882
a(g280
I0
F0.0
tp883
atp884
a(L33L
g2
(lp885
(g83
I0
F0.0
tp886
a(g155
I0
F0.0
tp887
a(g91
I0
F0.0
tp888
atp889
a(L34L
g2
(lp890
(g87
I0
F0.0
tp891
atp892
a(L37L
g2
(lp893
(g151
F1763.0
F1763.0
tp894
atp895
a(L41L
g2
(lp896
(g235
I0
F0.0
tp897
atp898
a(L42L
g2
(lp899
(g167
I0
F0.0
tp900
a(g270
I0
F0.0
tp901
atp902
a(L43L
g2
(lp903
(g14
I0
F0.0
tp904
atp905
a(L44L
g2
(lp906
(g211
I0
F0.0
tp907
a(g183
I0
F0.0
tp908
atp909
a(L45L
g17
(lp910
(g123
I0
F310.0
tp911
a(g101
F1337.0
F1351.0
tp912
atp913
a(L48L
g2
(lp914
(g115
F1564.0
F1564.0
tp915
a(g133
F1564.0
F1564.0
tp916
atp917
a(L49L
g2
(lp918
(g137
I0
F862.0
tp919
a(g27
F862.0
F881.0
tp920
a(g139
F1050.0
F1159.0
tp921
a(g60
F1159.0
F1176.0
tp922
a(g237
F1176.0
F1176.0
tp923
a(g31
F1337.0
F1747.0
tp924
atp925
a(L52L
g2
(lp926
(g4
I0
F0.0
tp927
a(g68
I0
F0.0
tp928
atp929
a(L53L
g2
(lp930
(g219
I0
F0.0
tp931
a(g173
I0
F0.0
tp932
a(g187
I0
F0.0
tp933
atp934
a(L55L
g2
(lp935
(g255
I0
F0.0
tp936
a(g6
I0
F0.0
tp937
a(g227
I0
F0.0
tp938
atp939
a(L59L
g2
(lp940
(g107
I0
F0.0
tp941
a(g54
I0
F0.0
tp942
a(g276
I0
F0.0
tp943
atp944
a(L60L
g2
(lp945
(g143
F1794.0
F1794.0
tp946
atp947
a(L61L
g17
(lp948
(g147
I0
F12.0
tp949
a(g12
F12.0
F21.0
tp950
a(g169
F1337.0
F1371.0
tp951
atp952
a(L62L
g2
(lp953
(g56
I0
F0.0
tp954
atp955
a(L66L
g46
(lp956
(g48
F1741.0
F1741.0
tp957
atp958
a(L67L
g17
(lp959
(g39
F1421.0
F1685.0
tp960
a(g21
F1685.0
F1731.0
tp961
a(g257
F1731.0
F1741.0
tp962
a(g165
F1741.0
F1763.0
tp963
a(g193
F1763.0
F1794.0
tp964
a(g195
F1794.0
F1801.0
tp965
atp966
a(L72L
g2
(lp967
(g62
I0
F0.0
tp968
atp969
a(L77L
g2
(lp970
(g274
F1421.0
F1421.0
tp971
a(g52
F1421.0
F1421.0
tp972
a(g23
F1421.0
F1421.0
tp973
atp974
a(L78L
g2
(lp975
(g203
I0
F0.0
tp976
atp977
a(L79L
g17
(lp978
(g159
F1159.0
F1423.0
tp979
a(g229
F1423.0
F1438.0
tp980
a(g231
F1438.0
F1452.0
tp981
atp982
a(L80L
g2
(lp983
(g163
I0
F0.0
tp984
a(g85
I0
F0.0
tp985
atp986
a(L83L
g2
(lp987
(g243
I0
F671.0
tp988
a(g215
F671.0
F671.0
tp989
a(g29
F671.0
F1108.0
tp990
a(g245
F1176.0
F1337.0
tp991
atp992
a(L84L
g2
(lp993
(g251
I0
F602.0
tp994
a(g97
F602.0
F1050.0
tp995
a(g259
F1159.0
F1564.0
tp996
a(g225
F1564.0
F1564.0
tp997
atp998
a(L86L
g17
(lp999
(g264
F1801.0
F1801.0
tp1000
atp1001
a(L88L
g2
(lp1002
(g175
I0
F0.0
tp1003
a(g66
I0
F0.0
tp1004
a(g8
I0
F0.0
tp1005
atp1006
a(L89L
g2
(lp1007
(g157
F1159.0
F1159.0
tp1008
atp1009
a(L90L
g2
(lp1010
(g41
I0
F0.0
tp1011
atp1012
a(L91L
g2
(lp1013
(g105
I0
F0.0
tp1014
a(g207
I0
F0.0
tp1015
a(g119
I0
F0.0
tp1016
atp1017
a(L92L
g2
(lp1018
(g129
I0
F0.0
tp1019
a(g268
I0
F0.0
tp1020
atp1021
a(L94L
g2
(lp1022
(g284
F2192.0
F2192.0
tp1023
atp1024
atp1025
a(F2319.0
F3.94
(lp1026
(L1L
g2
(lp1027
(g274
F1484.0
F1484.0
tp1028
a(g4
F1484.0
F1484.0
tp1029
a(g183
F1484.0
F1484.0
tp1030
atp1031
a(L5L
g2
(lp1032
(g83
I0
F0.0
tp1033
atp1034
a(L7L
g2
(lp1035
(g219
I0
F0.0
tp1036
a(g155
I0
F0.0
tp1037
atp1038
a(L11L
g75
(lp1039
(g35
I0
F1141.0
tp1040
a(g253
F1204.0
F1484.0
tp1041
a(g37
F1484.0
F2255.0
tp1042
atp1043
a(L13L
g2
(lp1044
(g99
I0
F0.0
tp1045
atp1046
a(L14L
g2
(lp1047
(g255
I0
F0.0
tp1048
a(g225
I0
F0.0
tp1049
atp1050
a(L15L
g2
(lp1051
(g257
I0
F0.0
tp1052
atp1053
a(L16L
g2
(lp1054
(g163
I0
F0.0
tp1055
atp1056
a(L18L
g17
(lp1057
(g27
I0
F496.0
tp1058
a(g60
F496.0
F934.0
tp1059
a(g62
F934.0
F941.0
tp1060
a(g229
F941.0
F956.0
tp1061
atp1062
a(L21L
g2
(lp1063
(g66
I0
F0.0
tp1064
a(g213
I0
F0.0
tp1065
atp1066
a(L22L
g2
(lp1067
(g147
I0
F0.0
tp1068
atp1069
a(L26L
g2
(lp1070
(g143
F2319.0
F2319.0
tp1071
a(g195
F2319.0
F2319.0
tp1072
atp1073
a(L28L
g17
(lp1074
(g159
F1419.0
F1683.0
tp1075
a(g87
F1683.0
F1693.0
tp1076
a(g169
F1909.0
F1943.0
tp1077
a(g264
F2319.0
F2319.0
tp1078
atp1079
a(L29L
g2
(lp1080
(g175
I0
F0.0
tp1081
a(g113
I0
F0.0
tp1082
atp1083
a(L30L
g2
(lp1084
(g241
I0
F0.0
tp1085
atp1086
a(L32L
g2
(lp1087
(g48
F1484.0
F1484.0
tp1088
a(g207
F1484.0
F1484.0
tp1089
a(g68
F1484.0
F1484.0
tp1090
atp1091
a(L34L
g46
(lp1092
(g249
I0
F0.0
tp1093
atp1094
a(L36L
g2
(lp1095
(g157
F1419.0
F1419.0
tp1096
atp1097
a(L39L
g2
(lp1098
(g129
I0
F0.0
tp1099
atp1100
a(L45L
g17
(lp1101
(g123
I0
F310.0
tp1102
a(g177
F310.0
F318.0
tp1103
a(g101
F1909.0
F1923.0
tp1104
atp1105
a(L47L
g2
(lp1106
(g270
I0
F0.0
tp1107
atp1108
a(L49L
g2
(lp1109
(g137
I0
F862.0
tp1110
a(g97
F862.0
F1310.0
tp1111
a(g139
F1310.0
F1419.0
tp1112
a(g107
F1419.0
F1419.0
tp1113
a(g268
F1419.0
F1419.0
tp1114
a(g245
F1748.0
F1909.0
tp1115
a(g31
F1909.0
F2319.0
tp1116
a(g43
F2319.0
F2319.0
tp1117
atp1118
a(L54L
g2
(lp1119
(g56
I0
F0.0
tp1120
a(g14
I0
F0.0
tp1121
atp1122
a(L55L
Vapac-sin#m3.large
p1123
(lp1124
(g29
I0
F1748.0
tp1125
a(g193
F1909.0
F1914.0
tp1126
atp1127
a(L58L
g2
(lp1128
(g151
F2315.0
F2315.0
tp1129
a(g72
F2315.0
F2315.0
tp1130
atp1131
a(L61L
g17
(lp1132
(g105
I0
F10.0
tp1133
a(g201
F10.0
F281.0
tp1134
a(g165
F1419.0
F1441.0
tp1135
a(g111
F1441.0
F1632.0
tp1136
a(g133
F1632.0
F1640.0
tp1137
atp1138
a(L66L
g2
(lp1139
(g23
I0
F0.0
tp1140
a(g280
I0
F0.0
tp1141
atp1142
a(L67L
g17
(lp1143
(g19
F1484.0
F1532.0
tp1144
a(g21
F1532.0
F1578.0
tp1145
a(g191
F1578.0
F1620.0
tp1146
atp1147
a(L71L
g1123
(lp1148
(g77
F2319.0
F2319.0
tp1149
atp1150
a(L75L
g2
(lp1151
(g119
I0
F0.0
tp1152
atp1153
a(L76L
g2
(lp1154
(g91
I0
F0.0
tp1155
a(g6
I0
F0.0
tp1156
a(g93
I0
F0.0
tp1157
atp1158
a(L77L
g2
(lp1159
(g54
I0
F0.0
tp1160
a(g187
I0
F0.0
tp1161
a(g125
I0
F0.0
tp1162
atp1163
a(L78L
g2
(lp1164
(g276
I0
F0.0
tp1165
a(g12
I0
F0.0
tp1166
atp1167
a(L79L
g17
(lp1168
(g223
I0
F400.0
tp1169
a(g235
F400.0
F410.0
tp1170
a(g141
F1923.0
F2187.0
tp1171
a(g231
F2187.0
F2201.0
tp1172
atp1173
a(L81L
g2
(lp1174
(g199
I0
F0.0
tp1175
atp1176
a(L82L
g2
(lp1177
(g41
I0
F0.0
tp1178
a(g52
I0
F0.0
tp1179
a(g181
I0
F0.0
tp1180
a(g131
I0
F0.0
tp1181
a(g8
I0
F0.0
tp1182
atp1183
a(L83L
g75
(lp1184
(g243
I0
F1342.0
tp1185
a(g215
F1342.0
F1343.0
tp1186
a(g227
F1343.0
F1344.0
tp1187
atp1188
a(L84L
g75
(lp1189
(g251
I0
F1204.0
tp1190
a(g39
F1484.0
F1504.0
tp1191
a(g259
F1504.0
F2315.0
tp1192
atp1193
a(L85L
g2
(lp1194
(g203
I0
F0.0
tp1195
atp1196
a(L88L
g1123
(lp1197
(g115
F1484.0
F1484.0
tp1198
atp1199
a(L89L
g2
(lp1200
(g211
I0
F0.0
tp1201
atp1202
a(L92L
g2
(lp1203
(g81
I0
F0.0
tp1204
a(g237
I0
F0.0
tp1205
atp1206
a(L94L
g2
(lp1207
(g284
F2319.0
F2319.0
tp1208
atp1209
a(L95L
g2
(lp1210
(g85
I0
F0.0
tp1211
atp1212
a(L96L
g2
(lp1213
(g173
I0
F0.0
tp1214
a(g167
I0
F0.0
tp1215
atp1216
atp1217
a(F2588.0
F3.71
(lp1218
(L0L
g2
(lp1219
(g175
I0
F0.0
tp1220
atp1221
a(L3L
g2
(lp1222
(g207
I0
F0.0
tp1223
a(g8
I0
F0.0
tp1224
atp1225
a(L6L
g17
(lp1226
(g123
I0
F310.0
tp1227
a(g225
F310.0
F319.0
tp1228
a(g229
F319.0
F334.0
tp1229
atp1230
a(L8L
g2
(lp1231
(g173
I0
F0.0
tp1232
a(g43
I0
F0.0
tp1233
atp1234
a(L10L
g2
(lp1235
(g163
I0
F0.0
tp1236
atp1237
a(L11L
g75
(lp1238
(g35
I0
F1141.0
tp1239
a(g253
F1204.0
F1484.0
tp1240
a(g37
F1484.0
F2255.0
tp1241
a(g39
F2255.0
F2275.0
tp1242
a(g41
F2275.0
F2276.0
tp1243
a(g235
F2276.0
F2277.0
tp1244
a(g48
F2277.0
F2277.0
tp1245
a(g159
F2277.0
F2297.0
tp1246
a(g165
F2297.0
F2299.0
tp1247
atp1248
a(L16L
g2
(lp1249
(g270
I0
F0.0
tp1250
a(g14
I0
F0.0
tp1251
atp1252
a(L17L
g2
(lp1253
(g72
I0
F0.0
tp1254
atp1255
a(L18L
g17
(lp1256
(g257
I0
F10.0
tp1257
a(g27
F10.0
F506.0
tp1258
a(g60
F506.0
F944.0
tp1259
atp1260
a(L23L
g2
(lp1261
(g157
F1419.0
F1419.0
tp1262
atp1263
a(L24L
g2
(lp1264
(g199
I0
F0.0
tp1265
a(g129
I0
F0.0
tp1266
atp1267
a(L26L
g75
(lp1268
(g77
F2588.0
F2588.0
tp1269
atp1270
a(L27L
g2
(lp1271
(g255
I0
F0.0
tp1272
a(g241
I0
F0.0
tp1273
a(g155
I0
F0.0
tp1274
a(g203
I0
F0.0
tp1275
atp1276
a(L28L
g17
(lp1277
(g201
I0
F271.0
tp1278
a(g107
F271.0
F283.0
tp1279
a(g181
F283.0
F294.0
tp1280
a(g85
F294.0
F306.0
tp1281
a(g276
F306.0
F316.0
tp1282
atp1283
a(L35L
g2
(lp1284
(g151
F2299.0
F2299.0
tp1285
atp1286
a(L41L
g2
(lp1287
(g105
I0
F0.0
tp1288
atp1289
a(L42L
g2
(lp1290
(g215
I0
F0.0
tp1291
atp1292
a(L43L
g2
(lp1293
(g274
F1484.0
F1484.0
tp1294
a(g131
F1484.0
F1484.0
tp1295
a(g12
F1484.0
F1484.0
tp1296
a(g133
F1484.0
F1484.0
tp1297
atp1298
a(L45L
g17
(lp1299
(g141
F2192.0
F2456.0
tp1300
atp1301
a(L48L
g2
(lp1302
(g6
I0
F0.0
tp1303
atp1304
a(L49L
g2
(lp1305
(g137
I0
F862.0
tp1306
a(g97
F862.0
F1310.0
tp1307
a(g139
F1310.0
F1419.0
tp1308
a(g29
F1419.0
F1856.0
tp1309
a(g227
F1856.0
F1856.0
tp1310
a(g31
F2178.0
F2588.0
tp1311
a(g143
F2588.0
F2588.0
tp1312
atp1313
a(L55L
g2
(lp1314
(g219
I0
F0.0
tp1315
a(g213
I0
F0.0
tp1316
a(g113
I0
F0.0
tp1317
atp1318
a(L59L
g331
(lp1319
(g249
I0
F0.0
tp1320
atp1321
a(L61L
g17
(lp1322
(g21
F1484.0
F1530.0
tp1323
a(g147
F1530.0
F1542.0
tp1324
a(g52
F1542.0
F1555.0
tp1325
a(g93
F1555.0
F1563.0
tp1326
a(g119
F1563.0
F1569.0
tp1327
a(g169
F2178.0
F2212.0
tp1328
atp1329
a(L65L
g75
(lp1330
(g115
F2231.0
F2231.0
tp1331
atp1332
a(L67L
g17
(lp1333
(g19
F1484.0
F1532.0
tp1334
a(g191
F1532.0
F1574.0
tp1335
a(g167
F1574.0
F1583.0
tp1336
a(g62
F1583.0
F1590.0
tp1337
a(g193
F2178.0
F2209.0
tp1338
a(g195
F2209.0
F2216.0
tp1339
atp1340
a(L74L
g2
(lp1341
(g54
I0
F0.0
tp1342
atp1343
a(L77L
g2
(lp1344
(g211
I0
F0.0
tp1345
a(g268
I0
F0.0
tp1346
atp1347
a(L79L
g17
(lp1348
(g223
I0
F400.0
tp1349
a(g99
F400.0
F412.0
tp1350
a(g23
F412.0
F423.0
tp1351
a(g101
F2178.0
F2192.0
tp1352
a(g231
F2192.0
F2206.0
tp1353
atp1354
a(L80L
g2
(lp1355
(g66
I0
F0.0
tp1356
a(g237
I0
F0.0
tp1357
atp1358
a(L81L
g2
(lp1359
(g83
I0
F0.0
tp1360
atp1361
a(L83L
g75
(lp1362
(g243
I0
F1342.0
tp1363
a(g111
F1342.0
F1357.0
tp1364
a(g245
F1856.0
F2178.0
tp1365
atp1366
a(L84L
g75
(lp1367
(g251
I0
F1204.0
tp1368
a(g81
F1204.0
F1205.0
tp1369
a(g259
F1419.0
F2230.0
tp1370
a(g68
F2230.0
F2231.0
tp1371
atp1372
a(L86L
g262
(lp1373
(g264
F2216.0
F2216.0
tp1374
atp1375
a(L87L
g2
(lp1376
(g91
I0
F0.0
tp1377
a(g56
I0
F0.0
tp1378
atp1379
a(L91L
g2
(lp1380
(g187
I0
F0.0
tp1381
a(g183
I0
F0.0
tp1382
atp1383
a(L92L
g2
(lp1384
(g4
I0
F0.0
tp1385
a(g125
I0
F0.0
tp1386
a(g177
I0
F0.0
tp1387
a(g280
I0
F0.0
tp1388
atp1389
a(L93L
g2
(lp1390
(g87
I0
F0.0
tp1391
atp1392
a(L94L
g2
(lp1393
(g284
F2275.0
F2275.0
tp1394
atp1395
atp1396
a(F3254.0
F3.63
(lp1397
(L1L
g2
(lp1398
(g274
F1484.0
F1484.0
tp1399
a(g4
F1484.0
F1484.0
tp1400
a(g183
F1484.0
F1484.0
tp1401
atp1402
a(L5L
g2
(lp1403
(g83
I0
F0.0
tp1404
atp1405
a(L7L
g2
(lp1406
(g219
I0
F0.0
tp1407
a(g155
I0
F0.0
tp1408
atp1409
a(L10L
g2
(lp1410
(g199
I0
F0.0
tp1411
atp1412
a(L11L
g75
(lp1413
(g35
I0
F1141.0
tp1414
a(g253
F1204.0
F1484.0
tp1415
a(g37
F1484.0
F2255.0
tp1416
atp1417
a(L13L
g2
(lp1418
(g99
I0
F0.0
tp1419
atp1420
a(L14L
g2
(lp1421
(g255
I0
F0.0
tp1422
a(g225
I0
F0.0
tp1423
atp1424
a(L15L
g2
(lp1425
(g257
I0
F0.0
tp1426
atp1427
a(L16L
g2
(lp1428
(g163
I0
F0.0
tp1429
atp1430
a(L18L
g17
(lp1431
(g27
I0
F496.0
tp1432
a(g60
F496.0
F934.0
tp1433
a(g62
F934.0
F941.0
tp1434
a(g229
F941.0
F956.0
tp1435
atp1436
a(L21L
g2
(lp1437
(g66
I0
F0.0
tp1438
a(g213
I0
F0.0
tp1439
a(g56
I0
F0.0
tp1440
atp1441
a(L22L
g2
(lp1442
(g147
I0
F0.0
tp1443
atp1444
a(L26L
g2
(lp1445
(g143
F3254.0
F3254.0
tp1446
a(g195
F3254.0
F3254.0
tp1447
atp1448
a(L28L
g17
(lp1449
(g159
F1419.0
F1683.0
tp1450
a(g87
F1683.0
F1693.0
tp1451
a(g169
F2844.0
F2878.0
tp1452
a(g264
F3254.0
F3254.0
tp1453
atp1454
a(L29L
g2
(lp1455
(g175
I0
F0.0
tp1456
a(g113
I0
F0.0
tp1457
atp1458
a(L30L
g2
(lp1459
(g241
I0
F0.0
tp1460
atp1461
a(L32L
g2
(lp1462
(g48
F1484.0
F1484.0
tp1463
a(g207
F1484.0
F1484.0
tp1464
a(g68
F1484.0
F1484.0
tp1465
atp1466
a(L36L
g2
(lp1467
(g157
F1419.0
F1419.0
tp1468
atp1469
a(L39L
g2
(lp1470
(g129
I0
F0.0
tp1471
atp1472
a(L45L
g17
(lp1473
(g123
I0
F310.0
tp1474
a(g177
F310.0
F318.0
tp1475
a(g101
F2844.0
F2858.0
tp1476
atp1477
a(L47L
g2
(lp1478
(g270
I0
F0.0
tp1479
atp1480
a(L49L
g2
(lp1481
(g137
I0
F862.0
tp1482
a(g97
F862.0
F1310.0
tp1483
a(g139
F1310.0
F1419.0
tp1484
a(g107
F1419.0
F1419.0
tp1485
a(g268
F1419.0
F1419.0
tp1486
a(g237
F1419.0
F1419.0
tp1487
a(g245
F2683.0
F2844.0
tp1488
a(g31
F2844.0
F3254.0
tp1489
a(g43
F3254.0
F3254.0
tp1490
atp1491
a(L54L
g2
(lp1492
(g14
I0
F0.0
tp1493
atp1494
a(L55L
g1123
(lp1495
(g29
I0
F1748.0
tp1496
a(g193
F2844.0
F2849.0
tp1497
atp1498
a(L58L
g2
(lp1499
(g151
F2315.0
F2315.0
tp1500
a(g72
F2315.0
F2315.0
tp1501
atp1502
a(L61L
g17
(lp1503
(g201
I0
F271.0
tp1504
a(g165
F1419.0
F1441.0
tp1505
a(g111
F1441.0
F1632.0
tp1506
a(g133
F1632.0
F1640.0
tp1507
atp1508
a(L66L
g2
(lp1509
(g23
I0
F0.0
tp1510
a(g280
I0
F0.0
tp1511
atp1512
a(L67L
g17
(lp1513
(g19
F1484.0
F1532.0
tp1514
a(g21
F1532.0
F1578.0
tp1515
a(g191
F1578.0
F1620.0
tp1516
atp1517
a(L71L
g1123
(lp1518
(g77
F3254.0
F3254.0
tp1519
atp1520
a(L75L
g2
(lp1521
(g105
I0
F0.0
tp1522
a(g181
I0
F0.0
tp1523
a(g119
I0
F0.0
tp1524
atp1525
a(L76L
g2
(lp1526
(g91
I0
F0.0
tp1527
a(g6
I0
F0.0
tp1528
a(g93
I0
F0.0
tp1529
atp1530
a(L77L
g2
(lp1531
(g54
I0
F0.0
tp1532
a(g187
I0
F0.0
tp1533
a(g125
I0
F0.0
tp1534
atp1535
a(L78L
g2
(lp1536
(g276
I0
F0.0
tp1537
a(g12
I0
F0.0
tp1538
atp1539
a(L79L
g17
(lp1540
(g223
I0
F400.0
tp1541
a(g235
F400.0
F410.0
tp1542
a(g141
F2858.0
F3122.0
tp1543
a(g231
F3122.0
F3136.0
tp1544
atp1545
a(L82L
g2
(lp1546
(g41
I0
F0.0
tp1547
a(g131
I0
F0.0
tp1548
a(g8
I0
F0.0
tp1549
atp1550
a(L83L
g1123
(lp1551
(g243
I0
F2683.0
tp1552
a(g215
F2683.0
F2685.0
tp1553
a(g227
F2685.0
F2687.0
tp1554
atp1555
a(L84L
g75
(lp1556
(g249
I0
F0.0
tp1557
a(g251
I0
F1204.0
tp1558
a(g39
F1484.0
F1504.0
tp1559
a(g259
F1504.0
F2315.0
tp1560
atp1561
a(L85L
g2
(lp1562
(g203
I0
F0.0
tp1563
atp1564
a(L88L
g331
(lp1565
(g115
F2687.0
F2687.0
tp1566
atp1567
a(L89L
g2
(lp1568
(g211
I0
F0.0
tp1569
atp1570
a(L91L
g2
(lp1571
(g52
I0
F0.0
tp1572
atp1573
a(L92L
g2
(lp1574
(g81
I0
F0.0
tp1575
atp1576
a(L94L
g2
(lp1577
(g284
F3254.0
F3254.0
tp1578
atp1579
a(L95L
g2
(lp1580
(g85
I0
F0.0
tp1581
atp1582
a(L96L
g2
(lp1583
(g173
I0
F0.0
tp1584
a(g167
I0
F0.0
tp1585
atp1586
atp1587
a.