(lp0
(F1429.0
F4.57
(lp1
(L2L
Vapac-sin#m3.2xlarge
p2
(lp3
(VID00007
p4
I0
F0.0
tp5
atp6
a(L9L
g2
(lp7
(VID00033
p8
I0
F0.0
tp9
atp10
a(L15L
Vapac-sin#m3.large
p11
(lp12
(VID00000
p13
F761.0
F761.0
tp14
atp15
a(L17L
g2
(lp16
(S'entry'
p17
I0
F0.0
tp18
a(VID00046
p19
I0
F0.0
tp20
a(VID00020
p21
I0
F932.0
tp22
a(VID00056
p23
F932.0
F934.0
tp24
a(VID00038
p25
F934.0
F935.0
tp26
a(VID00022
p27
F1025.0
F1025.0
tp28
a(VID00057
p29
F1142.0
F1143.0
tp30
atp31
a(L21L
Vapac-sin#m1.small
p32
(lp33
(VID00014
p34
I0
F10.0
tp35
a(VID00018
p36
F10.0
F325.0
tp37
a(VID00019
p38
F325.0
F683.0
tp39
atp40
a(L24L
g2
(lp41
(VID00040
p42
I0
F0.0
tp43
atp44
a(L25L
g2
(lp45
(VID00050
p46
I0
F635.0
tp47
a(VID00029
p48
F635.0
F635.0
tp49
a(VID00021
p50
F932.0
F1025.0
tp51
a(VID00024
p52
F1025.0
F1428.0
tp53
atp54
a(L26L
g2
(lp55
(VID00002
p56
I0
F0.0
tp57
a(VID00016
p58
I0
F0.0
tp59
atp60
a(L27L
g2
(lp61
(VID00043
p62
I0
F0.0
tp63
a(VID00006
p64
I0
F0.0
tp65
atp66
a(L28L
g32
(lp67
(VID00028
p68
F935.0
F935.0
tp69
atp70
a(L29L
g2
(lp71
(VID00005
p72
I0
F0.0
tp73
a(VID00004
p74
I0
F0.0
tp75
a(VID00039
p76
I0
F0.0
tp77
a(VID00035
p78
I0
F0.0
tp79
atp80
a(L34L
g2
(lp81
(VID00034
p82
I0
F0.0
tp83
atp84
a(L36L
g2
(lp85
(VID00042
p86
I0
F0.0
tp87
a(VID00049
p88
I0
F10.0
tp89
a(VID00047
p90
F10.0
F567.0
tp91
a(VID00051
p92
F635.0
F698.0
tp93
a(VID00055
p94
F698.0
F708.0
tp95
a(VID00054
p96
F708.0
F1142.0
tp97
a(VID00025
p98
F1142.0
F1152.0
tp99
a(VID00027
p100
F1428.0
F1429.0
tp101
atp102
a(L45L
Vapac-sin#m3.xlarge
p103
(lp104
(VID00017
p105
I0
F777.0
tp106
atp107
a(L46L
g32
(lp108
(S'exit'
p109
F1429.0
F1429.0
tp110
atp111
a(L47L
g32
(lp112
(VID00032
p113
I0
F12.0
tp114
a(VID00037
p115
F12.0
F26.0
tp116
a(VID00036
p117
F26.0
F40.0
tp118
a(VID00001
p119
F40.0
F49.0
tp120
a(VID00003
p121
F49.0
F63.0
tp122
a(VID00009
p123
F63.0
F73.0
tp124
a(VID00048
p125
F73.0
F268.0
tp126
a(VID00053
p127
F698.0
F739.0
tp128
a(VID00013
p129
F739.0
F748.0
tp130
a(VID00011
p131
F748.0
F761.0
tp132
a(VID00023
p133
F1025.0
F1065.0
tp134
a(VID00026
p135
F1065.0
F1114.0
tp136
atp137
a(L49L
g2
(lp138
(VID00044
p139
I0
F0.0
tp140
atp141
a(L51L
g2
(lp142
(VID00045
p143
I0
F0.0
tp144
a(VID00010
p145
I0
F0.0
tp146
a(VID00015
p147
I0
F0.0
tp148
atp149
a(L54L
g2
(lp150
(VID00031
p151
I0
F0.0
tp152
atp153
a(L56L
g2
(lp154
(VID00041
p155
I0
F0.0
tp156
atp157
a(L57L
g2
(lp158
(VID00008
p159
I0
F0.0
tp160
atp161
a(L58L
g2
(lp162
(VID00012
p163
I0
F0.0
tp164
a(VID00030
p165
I0
F0.0
tp166
atp167
a(L59L
g2
(lp168
(VID00052
p169
F698.0
F698.0
tp170
atp171
atp172
a(F1521.0
F3.94
(lp173
(L58L
g2
(lp174
(g163
I0
F0.0
tp175
a(g165
I0
F0.0
tp176
atp177
a(L2L
g2
(lp178
(g4
I0
F0.0
tp179
atp180
a(L36L
g2
(lp181
(g86
I0
F0.0
tp182
a(g90
I0
F557.0
tp183
a(g94
F995.0
F1005.0
tp184
a(g23
F1005.0
F1007.0
tp185
a(g25
F1007.0
F1008.0
tp186
a(g98
F1429.0
F1439.0
tp187
a(g100
F1520.0
F1521.0
tp188
atp189
a(L49L
g2
(lp190
(g139
I0
F0.0
tp191
atp192
a(L15L
g11
(lp193
(g13
F1058.0
F1058.0
tp194
atp195
a(L9L
g2
(lp196
(g8
I0
F0.0
tp197
atp198
a(L24L
g2
(lp199
(g42
I0
F0.0
tp200
atp201
a(L34L
g2
(lp202
(g82
I0
F0.0
tp203
atp204
a(L46L
g32
(lp205
(g109
F1521.0
F1521.0
tp206
atp207
a(L47L
g32
(lp208
(g113
I0
F12.0
tp209
a(g115
F12.0
F26.0
tp210
a(g117
F26.0
F40.0
tp211
a(g119
F40.0
F49.0
tp212
a(g121
F49.0
F63.0
tp213
a(g123
F63.0
F73.0
tp214
a(g88
F73.0
F334.0
tp215
a(g125
F334.0
F529.0
tp216
a(g127
F995.0
F1036.0
tp217
a(g129
F1036.0
F1045.0
tp218
a(g131
F1045.0
F1058.0
tp219
a(g133
F1117.0
F1157.0
tp220
a(g135
F1157.0
F1206.0
tp221
atp222
a(L17L
g2
(lp223
(g17
I0
F0.0
tp224
a(g19
I0
F0.0
tp225
a(g21
I0
F932.0
tp226
a(g92
F932.0
F995.0
tp227
a(g169
F995.0
F995.0
tp228
a(g96
F995.0
F1429.0
tp229
a(g27
F1429.0
F1429.0
tp230
a(g29
F1429.0
F1430.0
tp231
atp232
a(L51L
g2
(lp233
(g143
I0
F0.0
tp234
a(g145
I0
F0.0
tp235
atp236
a(L21L
g32
(lp237
(g34
I0
F10.0
tp238
a(g36
F10.0
F325.0
tp239
a(g38
F325.0
F683.0
tp240
atp241
a(L54L
g2
(lp242
(g151
I0
F0.0
tp243
atp244
a(L25L
g2
(lp245
(g46
I0
F635.0
tp246
a(g105
F635.0
F1024.0
tp247
a(g48
F1024.0
F1024.0
tp248
a(g50
F1024.0
F1117.0
tp249
a(g52
F1117.0
F1520.0
tp250
atp251
a(L56L
g2
(lp252
(g155
I0
F0.0
tp253
atp254
a(L57L
g2
(lp255
(g159
I0
F0.0
tp256
atp257
a(L26L
g2
(lp258
(g56
I0
F0.0
tp259
a(g58
I0
F0.0
tp260
a(g147
I0
F0.0
tp261
atp262
a(L27L
g2
(lp263
(g62
I0
F0.0
tp264
a(g64
I0
F0.0
tp265
atp266
a(L28L
g32
(lp267
(g68
F1024.0
F1024.0
tp268
atp269
a(L29L
g2
(lp270
(g72
I0
F0.0
tp271
a(g74
I0
F0.0
tp272
a(g76
I0
F0.0
tp273
a(g78
I0
F0.0
tp274
atp275
atp276
a(F1611.0
F3.31
(lp277
(L58L
g2
(lp278
(g163
I0
F0.0
tp279
a(g165
I0
F0.0
tp280
atp281
a(L2L
g2
(lp282
(g4
I0
F0.0
tp283
atp284
a(L36L
g103
(lp285
(g86
I0
F0.0
tp286
a(g90
I0
F1113.0
tp287
a(g94
F1176.0
F1196.0
tp288
a(g23
F1196.0
F1200.0
tp289
a(g25
F1200.0
F1201.0
tp290
a(g98
F1201.0
F1221.0
tp291
a(g100
F1520.0
F1521.0
tp292
atp293
a(L38L
Vapac-sin#m1.large
p294
(lp295
(g109
F1611.0
F1611.0
tp296
atp297
a(L15L
g11
(lp298
(g13
F1239.0
F1239.0
tp299
atp300
a(L24L
g2
(lp301
(g42
I0
F0.0
tp302
atp303
a(L34L
g2
(lp304
(g82
I0
F0.0
tp305
atp306
a(L47L
g32
(lp307
(g113
I0
F12.0
tp308
a(g115
F12.0
F26.0
tp309
a(g117
F26.0
F40.0
tp310
a(g119
F40.0
F49.0
tp311
a(g121
F49.0
F63.0
tp312
a(g123
F63.0
F73.0
tp313
a(g88
F73.0
F334.0
tp314
a(g125
F334.0
F529.0
tp315
a(g127
F1176.0
F1217.0
tp316
a(g129
F1217.0
F1226.0
tp317
a(g131
F1226.0
F1239.0
tp318
a(g78
F1239.0
F1249.0
tp319
a(g133
F1249.0
F1289.0
tp320
a(g135
F1289.0
F1338.0
tp321
atp322
a(L17L
g2
(lp323
(g17
I0
F0.0
tp324
a(g19
I0
F0.0
tp325
a(g21
I0
F932.0
tp326
a(g92
F1113.0
F1176.0
tp327
a(g169
F1176.0
F1176.0
tp328
a(g96
F1176.0
F1610.0
tp329
a(g29
F1610.0
F1611.0
tp330
atp331
a(L51L
g2
(lp332
(g143
I0
F0.0
tp333
a(g145
I0
F0.0
tp334
a(g147
I0
F0.0
tp335
a(g8
I0
F0.0
tp336
atp337
a(L21L
g32
(lp338
(g139
I0
F8.0
tp339
a(g34
F8.0
F18.0
tp340
a(g36
F18.0
F333.0
tp341
a(g38
F333.0
F691.0
tp342
atp343
a(L54L
g2
(lp344
(g27
F1117.0
F1117.0
tp345
a(g151
F1117.0
F1117.0
tp346
atp347
a(L25L
g2
(lp348
(g46
I0
F635.0
tp349
a(g105
F635.0
F1024.0
tp350
a(g50
F1024.0
F1117.0
tp351
a(g52
F1117.0
F1520.0
tp352
atp353
a(L56L
g2
(lp354
(g155
I0
F0.0
tp355
atp356
a(L57L
g2
(lp357
(g159
I0
F0.0
tp358
atp359
a(L26L
g2
(lp360
(g56
I0
F0.0
tp361
a(g58
I0
F0.0
tp362
a(g48
I0
F0.0
tp363
atp364
a(L27L
g2
(lp365
(g62
I0
F0.0
tp366
a(g64
I0
F0.0
tp367
atp368
a(L28L
g32
(lp369
(g68
F1249.0
F1249.0
tp370
atp371
a(L29L
g2
(lp372
(g72
I0
F0.0
tp373
a(g74
I0
F0.0
tp374
a(g76
I0
F0.0
tp375
atp376
atp377
a(F2360.0
F2.68
(lp378
(L2L
g2
(lp379
(g4
I0
F0.0
tp380
atp381
a(L9L
g2
(lp382
(g19
I0
F0.0
tp383
a(g8
I0
F0.0
tp384
atp385
a(L15L
g11
(lp386
(g13
F281.0
F281.0
tp387
atp388
a(L16L
Vapac-sin#m1.xlarge
p389
(lp390
(g17
I0
F0.0
tp391
atp392
a(L17L
g103
(lp393
(g21
I0
F1863.0
tp394
a(g127
F1863.0
F1866.0
tp395
a(g25
F1866.0
F1867.0
tp396
a(g27
F1956.0
F1957.0
tp397
a(g29
F2150.0
F2151.0
tp398
atp399
a(L21L
g32
(lp400
(g34
I0
F10.0
tp401
a(g36
F10.0
F325.0
tp402
a(g38
F325.0
F683.0
tp403
atp404
a(L24L
g2
(lp405
(g42
I0
F0.0
tp406
atp407
a(L25L
g2
(lp408
(g46
I0
F635.0
tp409
a(g105
F635.0
F1024.0
tp410
a(g48
F1024.0
F1024.0
tp411
a(g50
F1863.0
F1956.0
tp412
a(g52
F1956.0
F2359.0
tp413
atp414
a(L26L
g2
(lp415
(g56
I0
F0.0
tp416
a(g58
I0
F0.0
tp417
atp418
a(L27L
g2
(lp419
(g62
I0
F0.0
tp420
atp421
a(L28L
g32
(lp422
(g68
F1867.0
F1867.0
tp423
atp424
a(L29L
g2
(lp425
(g72
I0
F0.0
tp426
a(g64
I0
F0.0
tp427
a(g78
I0
F0.0
tp428
atp429
a(L34L
g2
(lp430
(g82
I0
F0.0
tp431
atp432
a(L36L
g103
(lp433
(g86
I0
F0.0
tp434
a(g88
I0
F20.0
tp435
a(g90
F20.0
F1133.0
tp436
a(g92
F1133.0
F1259.0
tp437
a(g94
F1259.0
F1279.0
tp438
a(g96
F1279.0
F2146.0
tp439
a(g23
F2146.0
F2150.0
tp440
a(g98
F2150.0
F2170.0
tp441
a(g100
F2359.0
F2360.0
tp442
atp443
a(L41L
g2
(lp444
(g155
I0
F0.0
tp445
atp446
a(L46L
g11
(lp447
(g109
F2360.0
F2360.0
tp448
atp449
a(L47L
g32
(lp450
(g113
I0
F12.0
tp451
a(g115
F12.0
F26.0
tp452
a(g117
F26.0
F40.0
tp453
a(g121
F40.0
F54.0
tp454
a(g123
F54.0
F64.0
tp455
a(g125
F64.0
F259.0
tp456
a(g129
F259.0
F268.0
tp457
a(g131
F268.0
F281.0
tp458
a(g133
F1956.0
F1996.0
tp459
a(g135
F1996.0
F2045.0
tp460
atp461
a(L51L
g2
(lp462
(g143
I0
F0.0
tp463
a(g145
I0
F0.0
tp464
a(g147
I0
F0.0
tp465
atp466
a(L54L
g2
(lp467
(g151
I0
F0.0
tp468
atp469
a(L56L
g2
(lp470
(g169
F1259.0
F1259.0
tp471
atp472
a(L57L
g2
(lp473
(g159
I0
F0.0
tp474
a(g76
I0
F0.0
tp475
a(g139
I0
F0.0
tp476
atp477
a(L58L
g2
(lp478
(g74
I0
F0.0
tp479
a(g119
I0
F0.0
tp480
a(g163
I0
F0.0
tp481
a(g165
I0
F0.0
tp482
atp483
atp484
a(F2855.0
F2.36
(lp485
(L2L
g2
(lp486
(g4
I0
F0.0
tp487
atp488
a(L4L
g11
(lp489
(g105
I0
F1554.0
tp490
atp491
a(L9L
g2
(lp492
(g19
I0
F0.0
tp493
atp494
a(L15L
g103
(lp495
(g13
F1460.0
F1460.0
tp496
atp497
a(L17L
g103
(lp498
(g17
I0
F0.0
tp499
a(g21
I0
F1863.0
tp500
a(g23
F1863.0
F1867.0
tp501
a(g25
F1867.0
F1868.0
tp502
a(g29
F2284.0
F2285.0
tp503
atp504
a(L21L
g32
(lp505
(g34
I0
F10.0
tp506
a(g36
F10.0
F325.0
tp507
a(g38
F325.0
F683.0
tp508
atp509
a(L24L
g2
(lp510
(g139
I0
F0.0
tp511
a(g42
I0
F0.0
tp512
atp513
a(L25L
g103
(lp514
(g46
I0
F1271.0
tp515
a(g50
F1863.0
F2049.0
tp516
a(g52
F2049.0
F2854.0
tp517
atp518
a(L26L
g2
(lp519
(g56
I0
F0.0
tp520
a(g58
I0
F0.0
tp521
a(g48
I0
F0.0
tp522
atp523
a(L27L
g2
(lp524
(g62
I0
F0.0
tp525
a(g64
I0
F0.0
tp526
a(g143
I0
F0.0
tp527
atp528
a(L28L
g32
(lp529
(g68
F2049.0
F2049.0
tp530
atp531
a(L29L
g2
(lp532
(g72
I0
F0.0
tp533
a(g74
I0
F0.0
tp534
a(g76
I0
F0.0
tp535
atp536
a(L34L
g2
(lp537
(g82
I0
F0.0
tp538
atp539
a(L36L
g103
(lp540
(g86
I0
F0.0
tp541
a(g88
I0
F20.0
tp542
a(g90
F20.0
F1133.0
tp543
a(g92
F1271.0
F1397.0
tp544
a(g94
F1397.0
F1417.0
tp545
a(g96
F1417.0
F2284.0
tp546
a(g98
F2284.0
F2304.0
tp547
a(g100
F2854.0
F2855.0
tp548
atp549
a(L38L
g294
(lp550
(g109
F2855.0
F2855.0
tp551
atp552
a(L41L
g2
(lp553
(g155
I0
F0.0
tp554
atp555
a(L47L
g32
(lp556
(g113
I0
F12.0
tp557
a(g115
F12.0
F26.0
tp558
a(g117
F26.0
F40.0
tp559
a(g119
F40.0
F49.0
tp560
a(g121
F49.0
F63.0
tp561
a(g123
F63.0
F73.0
tp562
a(g125
F73.0
F268.0
tp563
a(g127
F1397.0
F1438.0
tp564
a(g129
F1438.0
F1447.0
tp565
a(g131
F1447.0
F1460.0
tp566
a(g78
F1460.0
F1470.0
tp567
a(g133
F2049.0
F2089.0
tp568
a(g135
F2089.0
F2138.0
tp569
atp570
a(L51L
g2
(lp571
(g145
I0
F0.0
tp572
a(g147
I0
F0.0
tp573
a(g8
I0
F0.0
tp574
atp575
a(L54L
g2
(lp576
(g27
F2049.0
F2049.0
tp577
a(g151
F2049.0
F2049.0
tp578
atp579
a(L57L
g2
(lp580
(g159
I0
F0.0
tp581
atp582
a(L58L
g2
(lp583
(g163
I0
F0.0
tp584
a(g165
I0
F0.0
tp585
atp586
a(L59L
g2
(lp587
(g169
F1397.0
F1397.0
tp588
atp589
atp590
a(F3040.0
F2.05
(lp591
(L2L
g2
(lp592
(g4
I0
F0.0
tp593
atp594
a(L9L
g2
(lp595
(g19
I0
F0.0
tp596
atp597
a(L15L
g103
(lp598
(g13
F1460.0
F1460.0
tp599
atp600
a(L17L
g103
(lp601
(g21
I0
F1863.0
tp602
a(g23
F1863.0
F1867.0
tp603
a(g25
F1867.0
F1868.0
tp604
a(g29
F2284.0
F2285.0
tp605
atp606
a(L21L
g32
(lp607
(g34
I0
F10.0
tp608
a(g36
F10.0
F325.0
tp609
a(g38
F325.0
F683.0
tp610
atp611
a(L24L
g2
(lp612
(g139
I0
F0.0
tp613
a(g42
I0
F0.0
tp614
atp615
a(L25L
g103
(lp616
(g46
I0
F1271.0
tp617
a(g105
F1271.0
F2048.0
tp618
a(g50
F2048.0
F2234.0
tp619
a(g52
F2234.0
F3039.0
tp620
atp621
a(L26L
g2
(lp622
(g56
I0
F0.0
tp623
a(g58
I0
F0.0
tp624
a(g48
I0
F0.0
tp625
atp626
a(L27L
g2
(lp627
(g62
I0
F0.0
tp628
a(g64
I0
F0.0
tp629
a(g143
I0
F0.0
tp630
atp631
a(L28L
g32
(lp632
(g68
F2234.0
F2234.0
tp633
atp634
a(L29L
g2
(lp635
(g72
I0
F0.0
tp636
a(g74
I0
F0.0
tp637
a(g76
I0
F0.0
tp638
atp639
a(L34L
g2
(lp640
(g82
I0
F0.0
tp641
atp642
a(L36L
g103
(lp643
(g86
I0
F0.0
tp644
a(g88
I0
F20.0
tp645
a(g90
F20.0
F1133.0
tp646
a(g92
F1271.0
F1397.0
tp647
a(g94
F1397.0
F1417.0
tp648
a(g96
F1417.0
F2284.0
tp649
a(g98
F2284.0
F2304.0
tp650
a(g100
F3039.0
F3040.0
tp651
atp652
a(L38L
g294
(lp653
(g109
F3040.0
F3040.0
tp654
atp655
a(L41L
g2
(lp656
(g155
I0
F0.0
tp657
atp658
a(L47L
g32
(lp659
(g113
I0
F12.0
tp660
a(g115
F12.0
F26.0
tp661
a(g117
F26.0
F40.0
tp662
a(g119
F40.0
F49.0
tp663
a(g121
F49.0
F63.0
tp664
a(g123
F63.0
F73.0
tp665
a(g125
F73.0
F268.0
tp666
a(g127
F1397.0
F1438.0
tp667
a(g129
F1438.0
F1447.0
tp668
a(g131
F1447.0
F1460.0
tp669
a(g78
F1460.0
F1470.0
tp670
a(g133
F2234.0
F2274.0
tp671
a(g135
F2274.0
F2323.0
tp672
atp673
a(L51L
g2
(lp674
(g145
I0
F0.0
tp675
a(g147
I0
F0.0
tp676
a(g8
I0
F0.0
tp677
atp678
a(L54L
g2
(lp679
(g27
F2234.0
F2234.0
tp680
a(g151
F2234.0
F2234.0
tp681
atp682
a(L56L
g2
(lp683
(g17
I0
F0.0
tp684
atp685
a(L57L
g2
(lp686
(g159
I0
F0.0
tp687
atp688
a(L58L
g2
(lp689
(g163
I0
F0.0
tp690
a(g165
I0
F0.0
tp691
atp692
a(L59L
g2
(lp693
(g169
F1397.0
F1397.0
tp694
atp695
atp696
a(F3221.0
F1.73
(lp697
(L9L
g2
(lp698
(g19
I0
F0.0
tp699
atp700
a(L11L
g32
(lp701
(g68
F2404.0
F2404.0
tp702
atp703
a(L15L
g103
(lp704
(g13
F2416.0
F2416.0
tp705
atp706
a(L17L
g103
(lp707
(g17
I0
F0.0
tp708
a(g21
I0
F1863.0
tp709
a(g92
F2227.0
F2353.0
tp710
a(g96
F2353.0
F3220.0
tp711
a(g29
F3220.0
F3221.0
tp712
atp713
a(L21L
g32
(lp714
(g113
I0
F12.0
tp715
a(g34
F12.0
F22.0
tp716
a(g36
F22.0
F337.0
tp717
a(g38
F337.0
F695.0
tp718
atp719
a(L24L
g2
(lp720
(g139
I0
F0.0
tp721
a(g42
I0
F0.0
tp722
atp723
a(L25L
g103
(lp724
(g46
I0
F1271.0
tp725
a(g105
F1271.0
F2048.0
tp726
a(g48
F2048.0
F2049.0
tp727
a(g50
F2049.0
F2235.0
tp728
a(g52
F2235.0
F3040.0
tp729
atp730
a(L26L
g2
(lp731
(g56
I0
F0.0
tp732
a(g58
I0
F0.0
tp733
atp734
a(L27L
g2
(lp735
(g62
I0
F0.0
tp736
a(g64
I0
F0.0
tp737
atp738
a(L29L
g2
(lp739
(g72
I0
F0.0
tp740
a(g76
I0
F0.0
tp741
a(g78
I0
F0.0
tp742
atp743
a(L34L
g2
(lp744
(g4
I0
F0.0
tp745
a(g82
I0
F0.0
tp746
atp747
a(L36L
g11
(lp748
(g90
I0
F2227.0
tp749
a(g94
F2353.0
F2394.0
tp750
a(g23
F2394.0
F2402.0
tp751
a(g25
F2402.0
F2404.0
tp752
a(g98
F2404.0
F2445.0
tp753
a(g100
F3040.0
F3042.0
tp754
atp755
a(L45L
g103
(lp756
(g86
I0
F0.0
tp757
atp758
a(L46L
g32
(lp759
(g109
F3221.0
F3221.0
tp760
atp761
a(L47L
g32
(lp762
(g115
I0
F14.0
tp763
a(g117
F14.0
F28.0
tp764
a(g121
F28.0
F42.0
tp765
a(g123
F42.0
F52.0
tp766
a(g88
F52.0
F313.0
tp767
a(g125
F313.0
F508.0
tp768
a(g127
F2353.0
F2394.0
tp769
a(g129
F2394.0
F2403.0
tp770
a(g131
F2403.0
F2416.0
tp771
a(g133
F2416.0
F2456.0
tp772
a(g135
F2456.0
F2505.0
tp773
atp774
a(L49L
g2
(lp775
(g119
I0
F0.0
tp776
atp777
a(L51L
g2
(lp778
(g143
I0
F0.0
tp779
a(g145
I0
F0.0
tp780
a(g147
I0
F0.0
tp781
atp782
a(L54L
g2
(lp783
(g27
F2235.0
F2235.0
tp784
a(g151
F2235.0
F2235.0
tp785
atp786
a(L56L
g2
(lp787
(g155
I0
F0.0
tp788
atp789
a(L57L
g2
(lp790
(g159
I0
F0.0
tp791
a(g8
I0
F0.0
tp792
atp793
a(L58L
g2
(lp794
(g74
I0
F0.0
tp795
a(g163
I0
F0.0
tp796
a(g165
I0
F0.0
tp797
atp798
a(L59L
g2
(lp799
(g169
F2353.0
F2353.0
tp800
atp801
atp802
a.