(lp0
(F402.0
F14.5
(lp1
(L2L
Vapac-sin#m3.large
p2
(lp3
(VID00027
p4
F330.0
F372.0
tp5
a(VID00040
p6
F372.0
F399.0
tp7
a(VID00074
p8
F399.0
F400.0
tp9
atp10
a(L3L
Vapac-sin#m3.xlarge
p11
(lp12
(VID00029
p13
F330.0
F364.0
tp14
a(VID00051
p15
F364.0
F401.0
tp16
a(VID00010
p17
F401.0
F401.0
tp18
atp19
a(L5L
Vapac-sin#m3.2xlarge
p20
(lp21
(VID00078
p22
F220.0
F220.0
tp23
atp24
a(L8L
g11
(lp25
(VID00073
p26
F204.0
F232.0
tp27
a(VID00096
p28
F350.0
F385.0
tp29
a(VID00014
p30
F385.0
F401.0
tp31
atp32
a(L10L
g20
(lp33
(VID00077
p34
F204.0
F220.0
tp35
a(VID00079
p36
F220.0
F236.0
tp37
a(VID00080
p38
F236.0
F236.0
tp39
a(VID00002
p40
F307.0
F355.0
tp41
a(VID00003
p42
F355.0
F372.0
tp43
a(VID00009
p44
F372.0
F388.0
tp45
a(VID00012
p46
F388.0
F396.0
tp47
atp48
a(L15L
g20
(lp49
(VID00041
p50
F399.0
F399.0
tp51
a(VID00069
p52
F399.0
F399.0
tp53
atp54
a(L16L
g20
(lp55
(VID00075
p56
F204.0
F217.0
tp57
a(VID00085
p58
F297.0
F350.0
tp59
a(VID00088
p60
F350.0
F370.0
tp61
a(VID00007
p62
F370.0
F385.0
tp63
a(VID00005
p64
F385.0
F402.0
tp65
atp66
a(L18L
g20
(lp67
(VID00043
p68
F355.0
F355.0
tp69
a(VID00084
p70
F355.0
F355.0
tp71
atp72
a(L21L
g20
(lp73
(VID00057
p74
F314.0
F367.0
tp75
a(VID00086
p76
F367.0
F385.0
tp77
a(VID00082
p78
F385.0
F385.0
tp79
a(VID00092
p80
F385.0
F402.0
tp81
a(VID00097
p82
F402.0
F402.0
tp83
a(VID00021
p84
F402.0
F402.0
tp85
atp86
a(L26L
Vapac-sin#m1.small
p87
(lp88
(S'exit'
p89
F402.0
F402.0
tp90
atp91
a(L27L
g20
(lp92
(VID00030
p93
F364.0
F364.0
tp94
a(VID00037
p95
F364.0
F364.0
tp96
atp97
a(L28L
g2
(lp98
(VID00045
p99
F364.0
F395.0
tp100
a(VID00072
p101
F395.0
F397.0
tp102
atp103
a(L34L
g20
(lp104
(VID00026
p105
F356.0
F356.0
tp106
atp107
a(L35L
g20
(lp108
(VID00087
p109
F385.0
F385.0
tp110
atp111
a(L37L
g11
(lp112
(VID00095
p113
F385.0
F385.0
tp114
atp115
a(L39L
g20
(lp116
(VID00093
p117
F402.0
F402.0
tp118
atp119
a(L40L
g20
(lp120
(VID00067
p121
F399.0
F399.0
tp122
atp123
a(L41L
g20
(lp124
(VID00099
p125
F381.0
F381.0
tp126
atp127
a(L42L
g20
(lp128
(VID00061
p129
F391.0
F391.0
tp130
a(VID00076
p131
F391.0
F391.0
tp132
atp133
a(L44L
g20
(lp134
(VID00032
p135
F363.0
F363.0
tp136
atp137
a(L46L
g20
(lp138
(VID00006
p139
F402.0
F402.0
tp140
atp141
a(L52L
g11
(lp142
(VID00025
p143
F330.0
F356.0
tp144
a(VID00039
p145
F356.0
F356.0
tp146
a(VID00049
p147
F364.0
F387.0
tp148
a(VID00048
p149
F387.0
F388.0
tp150
a(VID00054
p151
F388.0
F389.0
tp152
atp153
a(L53L
g11
(lp154
(VID00036
p155
F332.0
F356.0
tp156
a(VID00066
p157
F367.0
F399.0
tp158
a(VID00019
p159
F399.0
F400.0
tp160
atp161
a(L54L
Vapac-sin#m1.xlarge
p162
(lp163
(S'entry'
p164
I0
F0.0
tp165
a(VID00070
p166
I0
F204.0
tp167
a(VID00071
p168
F204.0
F233.0
tp169
a(VID00011
p170
F233.0
F356.0
tp171
atp172
a(L57L
g20
(lp173
(VID00059
p174
F384.0
F384.0
tp175
a(VID00089
p176
F384.0
F384.0
tp177
atp178
a(L61L
g20
(lp179
(VID00022
p180
F296.0
F330.0
tp181
a(VID00023
p182
F330.0
F344.0
tp183
a(VID00038
p184
F344.0
F356.0
tp185
a(VID00081
p186
F356.0
F366.0
tp187
a(VID00098
p188
F366.0
F381.0
tp189
a(VID00020
p190
F381.0
F393.0
tp191
atp192
a(L62L
g20
(lp193
(VID00033
p194
F306.0
F332.0
tp195
a(VID00083
p196
F332.0
F350.0
tp197
a(VID00090
p198
F350.0
F370.0
tp199
a(VID00094
p200
F370.0
F385.0
tp201
a(VID00018
p202
F385.0
F396.0
tp203
atp204
a(L65L
g20
(lp205
(VID00034
p206
F332.0
F344.0
tp207
a(VID00035
p208
F344.0
F344.0
tp209
a(VID00042
p210
F344.0
F355.0
tp211
a(VID00053
p212
F364.0
F377.0
tp213
a(VID00058
p214
F377.0
F384.0
tp215
a(VID00062
p216
F384.0
F399.0
tp217
a(VID00091
p218
F399.0
F399.0
tp219
atp220
a(L71L
g20
(lp221
(VID00056
p222
F379.0
F379.0
tp223
atp224
a(L79L
g11
(lp225
(VID00008
p226
F385.0
F385.0
tp227
atp228
a(L81L
g20
(lp229
(VID00028
p230
F372.0
F372.0
tp231
atp232
a(L86L
g2
(lp233
(VID00000
p234
F402.0
F402.0
tp235
atp236
a(L87L
g11
(lp237
(VID00031
p238
F337.0
F363.0
tp239
a(VID00047
p240
F364.0
F380.0
tp241
a(VID00016
p242
F380.0
F398.0
tp243
a(VID00015
p244
F401.0
F402.0
tp245
atp246
a(L88L
g20
(lp247
(VID00024
p248
F344.0
F344.0
tp249
atp250
a(L90L
g11
(lp251
(VID00050
p252
F387.0
F387.0
tp253
atp254
a(L93L
g20
(lp255
(VID00055
p256
F368.0
F379.0
tp257
a(VID00060
p258
F379.0
F391.0
tp259
atp260
a(L94L
g20
(lp261
(VID00013
p262
F396.0
F396.0
tp263
atp264
a(L95L
g20
(lp265
(VID00046
p266
F395.0
F395.0
tp267
a(VID00065
p268
F395.0
F395.0
tp269
atp270
a(L96L
g20
(lp271
(VID00044
p272
F303.0
F364.0
tp273
a(VID00064
p274
F367.0
F385.0
tp275
a(VID00068
p276
F385.0
F393.0
tp277
a(VID00017
p278
F398.0
F398.0
tp279
a(VID00001
p280
F402.0
F402.0
tp281
atp282
a(L97L
g20
(lp283
(VID00063
p284
F399.0
F399.0
tp285
atp286
a(L100L
g20
(lp287
(VID00052
p288
F401.0
F401.0
tp289
atp290
a(L101L
g20
(lp291
(VID00004
p292
F372.0
F372.0
tp293
atp294
atp295
a(F979.0
F12.85
(lp296
(L2L
g2
(lp297
(g4
F330.0
F372.0
tp298
a(g6
F372.0
F399.0
tp299
a(g8
F399.0
F400.0
tp300
atp301
a(L3L
g11
(lp302
(g13
F330.0
F364.0
tp303
a(g15
F364.0
F401.0
tp304
a(g17
F401.0
F401.0
tp305
atp306
a(L5L
g20
(lp307
(g22
F220.0
F220.0
tp308
atp309
a(L8L
g11
(lp310
(g26
F204.0
F232.0
tp311
a(g28
F350.0
F385.0
tp312
a(g30
F385.0
F401.0
tp313
atp314
a(L10L
g20
(lp315
(g34
F204.0
F220.0
tp316
a(g36
F220.0
F236.0
tp317
a(g38
F236.0
F236.0
tp318
a(g40
F307.0
F355.0
tp319
a(g42
F355.0
F372.0
tp320
a(g44
F372.0
F388.0
tp321
a(g46
F388.0
F396.0
tp322
atp323
a(L15L
g20
(lp324
(g50
F399.0
F399.0
tp325
a(g52
F399.0
F399.0
tp326
atp327
a(L16L
g20
(lp328
(g56
F204.0
F217.0
tp329
a(g58
F297.0
F350.0
tp330
a(g60
F350.0
F370.0
tp331
a(g62
F370.0
F385.0
tp332
a(g64
F385.0
F402.0
tp333
atp334
a(L18L
g20
(lp335
(g68
F355.0
F355.0
tp336
a(g70
F355.0
F355.0
tp337
atp338
a(L21L
g20
(lp339
(g74
F314.0
F367.0
tp340
a(g101
F367.0
F367.0
tp341
a(g76
F367.0
F385.0
tp342
a(g78
F385.0
F385.0
tp343
a(g80
F385.0
F402.0
tp344
a(g82
F402.0
F402.0
tp345
a(g84
F402.0
F402.0
tp346
atp347
a(L27L
g20
(lp348
(g93
F364.0
F364.0
tp349
a(g95
F364.0
F364.0
tp350
atp351
a(L28L
g2
(lp352
(g99
F364.0
F395.0
tp353
atp354
a(L33L
g2
(lp355
(g89
F979.0
F979.0
tp356
atp357
a(L34L
g20
(lp358
(g105
F356.0
F356.0
tp359
atp360
a(L35L
g20
(lp361
(g109
F385.0
F385.0
tp362
atp363
a(L39L
g20
(lp364
(g117
F402.0
F402.0
tp365
atp366
a(L40L
g20
(lp367
(g121
F399.0
F399.0
tp368
atp369
a(L41L
g20
(lp370
(g125
F381.0
F381.0
tp371
atp372
a(L42L
g20
(lp373
(g129
F979.0
F979.0
tp374
a(g131
F979.0
F979.0
tp375
atp376
a(L44L
g20
(lp377
(g135
F450.0
F450.0
tp378
atp379
a(L46L
g20
(lp380
(g139
F402.0
F402.0
tp381
atp382
a(L52L
g11
(lp383
(g143
F330.0
F356.0
tp384
a(g145
F356.0
F356.0
tp385
a(g147
F364.0
F387.0
tp386
a(g149
F521.0
F522.0
tp387
a(g151
F522.0
F523.0
tp388
atp389
a(L53L
g11
(lp390
(g155
F332.0
F356.0
tp391
a(g157
F367.0
F399.0
tp392
a(g176
F399.0
F400.0
tp393
a(g159
F400.0
F401.0
tp394
atp395
a(L54L
g162
(lp396
(g164
I0
F0.0
tp397
a(g166
I0
F204.0
tp398
a(g168
F204.0
F233.0
tp399
a(g170
F233.0
F356.0
tp400
atp401
a(L57L
g20
(lp402
(g174
F384.0
F384.0
tp403
atp404
a(L61L
g20
(lp405
(g180
F296.0
F330.0
tp406
a(g182
F330.0
F344.0
tp407
a(g184
F344.0
F356.0
tp408
a(g186
F356.0
F366.0
tp409
a(g188
F366.0
F381.0
tp410
a(g190
F381.0
F393.0
tp411
atp412
a(L62L
g20
(lp413
(g194
F306.0
F332.0
tp414
a(g196
F332.0
F350.0
tp415
a(g198
F350.0
F370.0
tp416
a(g200
F370.0
F385.0
tp417
a(g202
F385.0
F396.0
tp418
atp419
a(L65L
g20
(lp420
(g206
F332.0
F344.0
tp421
a(g208
F344.0
F344.0
tp422
a(g210
F344.0
F355.0
tp423
a(g212
F364.0
F377.0
tp424
a(g214
F377.0
F384.0
tp425
a(g216
F384.0
F399.0
tp426
a(g218
F399.0
F399.0
tp427
atp428
a(L71L
g20
(lp429
(g222
F659.0
F659.0
tp430
atp431
a(L79L
g11
(lp432
(g226
F385.0
F385.0
tp433
atp434
a(L81L
g20
(lp435
(g230
F372.0
F372.0
tp436
atp437
a(L86L
g2
(lp438
(g234
F979.0
F979.0
tp439
atp440
a(L87L
Vapac-sin#m3.medium
p441
(lp442
(g238
F337.0
F450.0
tp443
a(g240
F450.0
F521.0
tp444
a(g113
F521.0
F523.0
tp445
a(g242
F523.0
F600.0
tp446
a(g244
F600.0
F604.0
tp447
atp448
a(L88L
g20
(lp449
(g248
F344.0
F344.0
tp450
atp451
a(L90L
g11
(lp452
(g252
F387.0
F387.0
tp453
atp454
a(L93L
g87
(lp455
(g256
F378.0
F659.0
tp456
a(g258
F659.0
F979.0
tp457
atp458
a(L94L
g20
(lp459
(g262
F396.0
F396.0
tp460
atp461
a(L95L
g20
(lp462
(g266
F395.0
F395.0
tp463
a(g268
F395.0
F395.0
tp464
atp465
a(L96L
g20
(lp466
(g272
F303.0
F364.0
tp467
a(g274
F367.0
F385.0
tp468
a(g276
F385.0
F393.0
tp469
a(g278
F600.0
F600.0
tp470
a(g280
F979.0
F979.0
tp471
atp472
a(L97L
g20
(lp473
(g284
F399.0
F399.0
tp474
atp475
a(L100L
g20
(lp476
(g288
F401.0
F401.0
tp477
atp478
a(L101L
g20
(lp479
(g292
F372.0
F372.0
tp480
atp481
atp482
a(F1437.0
F6.33
(lp483
(L2L
g2
(lp484
(g4
F749.0
F791.0
tp485
a(g6
F791.0
F818.0
tp486
a(g8
F818.0
F819.0
tp487
atp488
a(L3L
g87
(lp489
(g13
F749.0
F1191.0
tp490
a(g17
F1191.0
F1197.0
tp491
atp492
a(L5L
g20
(lp493
(g22
F472.0
F472.0
tp494
atp495
a(L8L
Vapac-sin#m1.large
p496
(lp497
(g26
F408.0
F500.0
tp498
a(g28
F836.0
F950.0
tp499
a(g30
F950.0
F1001.0
tp500
atp501
a(L10L
g2
(lp502
(g34
F408.0
F472.0
tp503
a(g36
F472.0
F537.0
tp504
a(g38
F537.0
F538.0
tp505
a(g40
F538.0
F728.0
tp506
a(g42
F728.0
F796.0
tp507
a(g44
F796.0
F860.0
tp508
a(g46
F860.0
F892.0
tp509
atp510
a(L15L
g20
(lp511
(g50
F818.0
F818.0
tp512
a(g52
F818.0
F818.0
tp513
atp514
a(L16L
g496
(lp515
(g56
F408.0
F493.0
tp516
a(g58
F493.0
F836.0
tp517
a(g60
F836.0
F964.0
tp518
a(g62
F964.0
F1062.0
tp519
a(g64
F1062.0
F1172.0
tp520
atp521
a(L18L
g20
(lp522
(g135
F869.0
F869.0
tp523
a(g70
F869.0
F869.0
tp524
atp525
a(L21L
g20
(lp526
(g74
F483.0
F536.0
tp527
a(g101
F536.0
F536.0
tp528
a(g76
F836.0
F854.0
tp529
a(g78
F1067.0
F1067.0
tp530
a(g80
F1067.0
F1084.0
tp531
a(g82
F1084.0
F1084.0
tp532
a(g84
F1308.0
F1308.0
tp533
atp534
a(L22L
g496
(lp535
(g15
F528.0
F649.0
tp536
atp537
a(L27L
g20
(lp538
(g93
F1191.0
F1191.0
tp539
a(g95
F1191.0
F1191.0
tp540
atp541
a(L28L
g2
(lp542
(g99
F528.0
F559.0
tp543
atp544
a(L32L
g2
(lp545
(g194
F471.0
F574.0
tp546
atp547
a(L33L
g2
(lp548
(g89
F1437.0
F1437.0
tp549
atp550
a(L34L
g20
(lp551
(g105
F862.0
F862.0
tp552
atp553
a(L35L
g20
(lp554
(g109
F854.0
F854.0
tp555
atp556
a(L39L
g20
(lp557
(g117
F1084.0
F1084.0
tp558
atp559
a(L40L
g20
(lp560
(g121
F817.0
F817.0
tp561
atp562
a(L41L
g20
(lp563
(g125
F1200.0
F1200.0
tp564
atp565
a(L42L
g20
(lp566
(g129
F1143.0
F1143.0
tp567
a(g131
F1143.0
F1143.0
tp568
atp569
a(L46L
g20
(lp570
(g139
F1172.0
F1172.0
tp571
atp572
a(L52L
g441
(lp573
(g143
F749.0
F862.0
tp574
a(g145
F972.0
F974.0
tp575
a(g147
F974.0
F1076.0
tp576
a(g149
F1076.0
F1079.0
tp577
a(g151
F1079.0
F1082.0
tp578
atp579
a(L53L
g441
(lp580
(g155
F574.0
F677.0
tp581
a(g157
F677.0
F817.0
tp582
a(g176
F964.0
F967.0
tp583
a(g159
F1433.0
F1437.0
tp584
atp585
a(L54L
g496
(lp586
(g164
I0
F0.0
tp587
a(g166
I0
F408.0
tp588
a(g168
F408.0
F467.0
tp589
a(g170
F467.0
F713.0
tp590
atp591
a(L57L
g20
(lp592
(g174
F851.0
F851.0
tp593
atp594
a(L61L
g441
(lp595
(g180
F455.0
F749.0
tp596
a(g182
F749.0
F867.0
tp597
a(g184
F867.0
F972.0
tp598
a(g68
F972.0
F976.0
tp599
a(g186
F976.0
F1067.0
tp600
a(g188
F1067.0
F1200.0
tp601
a(g190
F1200.0
F1308.0
tp602
atp603
a(L62L
Vapac-sin#m1.medium
p604
(lp605
(g196
F414.0
F647.0
tp606
a(g198
F836.0
F1090.0
tp607
a(g200
F1090.0
F1284.0
tp608
a(g202
F1284.0
F1433.0
tp609
atp610
a(L65L
g496
(lp611
(g206
F574.0
F653.0
tp612
a(g208
F653.0
F655.0
tp613
a(g210
F655.0
F725.0
tp614
a(g212
F725.0
F806.0
tp615
a(g214
F806.0
F851.0
tp616
a(g216
F851.0
F951.0
tp617
a(g218
F1090.0
F1092.0
tp618
atp619
a(L71L
g20
(lp620
(g222
F823.0
F823.0
tp621
atp622
a(L79L
g11
(lp623
(g226
F1062.0
F1062.0
tp624
atp625
a(L81L
g20
(lp626
(g230
F791.0
F791.0
tp627
atp628
a(L86L
g2
(lp629
(g234
F1437.0
F1437.0
tp630
atp631
a(L87L
g441
(lp632
(g238
F756.0
F869.0
tp633
a(g240
F869.0
F940.0
tp634
a(g113
F1284.0
F1286.0
tp635
a(g242
F1286.0
F1363.0
tp636
a(g244
F1363.0
F1367.0
tp637
atp638
a(L88L
g20
(lp639
(g248
F867.0
F867.0
tp640
atp641
a(L90L
g11
(lp642
(g252
F1076.0
F1076.0
tp643
atp644
a(L93L
g87
(lp645
(g256
F542.0
F823.0
tp646
a(g258
F823.0
F1143.0
tp647
atp648
a(L94L
g20
(lp649
(g262
F892.0
F892.0
tp650
atp651
a(L95L
g20
(lp652
(g266
F559.0
F559.0
tp653
a(g268
F559.0
F559.0
tp654
atp655
a(L96L
g20
(lp656
(g272
F467.0
F528.0
tp657
a(g274
F536.0
F554.0
tp658
a(g276
F554.0
F562.0
tp659
a(g278
F1363.0
F1363.0
tp660
a(g280
F1433.0
F1433.0
tp661
atp662
a(L97L
g20
(lp663
(g284
F951.0
F951.0
tp664
atp665
a(L100L
g20
(lp666
(g288
F649.0
F649.0
tp667
atp668
a(L101L
g20
(lp669
(g292
F796.0
F796.0
tp670
atp671
atp672
a(F1921.0
F6.11
(lp673
(L0L
g87
(lp674
(g248
F702.0
F715.0
tp675
a(g4
F715.0
F987.0
tp676
a(g145
F987.0
F992.0
tp677
a(g28
F992.0
F1447.0
tp678
atp679
a(L1L
g20
(lp680
(g52
F725.0
F725.0
tp681
atp682
a(L2L
g11
(lp683
(g280
F1917.0
F1917.0
tp684
atp685
a(L4L
g20
(lp686
(g121
F1536.0
F1536.0
tp687
atp688
a(L6L
g11
(lp689
(g226
F1592.0
F1592.0
tp690
atp691
a(L8L
g87
(lp692
(g13
F675.0
F1117.0
tp693
a(g157
F1117.0
F1536.0
tp694
atp695
a(L9L
g162
(lp696
(g139
F1860.0
F1861.0
tp697
atp698
a(L13L
g441
(lp699
(g170
F461.0
F789.0
tp700
atp701
a(L16L
g87
(lp702
(g256
F545.0
F826.0
tp703
a(g258
F826.0
F1146.0
tp704
a(g36
F1146.0
F1565.0
tp705
a(g89
F1921.0
F1921.0
tp706
atp707
a(L18L
g87
(lp708
(g95
F1339.0
F1348.0
tp709
a(g151
F1348.0
F1357.0
tp710
a(g76
F1357.0
F1833.0
tp711
atp712
a(L19L
g441
(lp713
(g186
F1140.0
F1231.0
tp714
a(g70
F1618.0
F1620.0
tp715
atp716
a(L21L
g496
(lp717
(g180
F455.0
F675.0
tp718
a(g240
F675.0
F728.0
tp719
a(g149
F728.0
F730.0
tp720
a(g274
F730.0
F846.0
tp721
a(g242
F846.0
F904.0
tp722
atp723
a(L23L
g20
(lp724
(g284
F1424.0
F1424.0
tp725
atp726
a(L24L
g87
(lp727
(g238
F691.0
F1029.0
tp728
a(g155
F1029.0
F1339.0
tp729
a(g266
F1339.0
F1344.0
tp730
a(g129
F1344.0
F1355.0
tp731
a(g82
F1447.0
F1455.0
tp732
atp733
a(L29L
g87
(lp734
(g143
F675.0
F1013.0
tp735
a(g101
F1376.0
F1387.0
tp736
a(g8
F1508.0
F1517.0
tp737
atp738
a(L32L
g20
(lp739
(g109
F1833.0
F1833.0
tp740
a(g218
F1833.0
F1833.0
tp741
atp742
a(L33L
g162
(lp743
(g276
F699.0
F725.0
tp744
a(g58
F725.0
F897.0
tp745
a(g46
F897.0
F923.0
tp746
a(g278
F923.0
F924.0
tp747
a(g244
F1849.0
F1851.0
tp748
atp749
a(L35L
g20
(lp750
(g68
F597.0
F597.0
tp751
atp752
a(L38L
g11
(lp753
(g182
F675.0
F702.0
tp754
a(g113
F1812.0
F1812.0
tp755
atp756
a(L39L
g20
(lp757
(g292
F1714.0
F1714.0
tp758
atp759
a(L42L
g87
(lp760
(g206
F497.0
F814.0
tp761
a(g168
F1140.0
F1376.0
tp762
a(g44
F1474.0
F1889.0
tp763
atp764
a(L44L
g87
(lp765
(g184
F497.0
F811.0
tp766
a(g6
F811.0
F989.0
tp767
a(g196
F1152.0
F1618.0
tp768
a(g202
F1618.0
F1917.0
tp769
atp770
a(L45L
g20
(lp771
(g230
F987.0
F987.0
tp772
atp773
a(L47L
g441
(lp774
(g164
I0
F0.0
tp775
a(g272
I0
F531.0
tp776
a(g147
F531.0
F633.0
tp777
a(g34
F1140.0
F1278.0
tp778
a(g62
F1461.0
F1592.0
tp779
a(g159
F1917.0
F1921.0
tp780
atp781
a(L48L
g20
(lp782
(g194
F471.0
F497.0
tp783
a(g208
F814.0
F814.0
tp784
a(g252
F814.0
F814.0
tp785
atp786
a(L52L
g20
(lp787
(g105
F1013.0
F1013.0
tp788
atp789
a(L54L
g20
(lp790
(g22
F1278.0
F1278.0
tp791
atp792
a(L61L
g2
(lp793
(g74
F483.0
F695.0
tp794
a(g222
F826.0
F828.0
tp795
a(g212
F828.0
F878.0
tp796
a(g56
F1140.0
F1192.0
tp797
a(g60
F1192.0
F1271.0
tp798
a(g40
F1271.0
F1461.0
tp799
a(g190
F1461.0
F1511.0
tp800
atp801
a(L64L
g11
(lp802
(g174
F873.0
F874.0
tp803
atp804
a(L69L
g11
(lp805
(g93
F1117.0
F1117.0
tp806
atp807
a(L71L
g20
(lp808
(g268
F846.0
F846.0
tp809
atp810
a(L72L
g87
(lp811
(g214
F695.0
F873.0
tp812
a(g26
F1140.0
F1508.0
tp813
atp814
a(L73L
g20
(lp815
(g50
F989.0
F989.0
tp816
atp817
a(L77L
g20
(lp818
(g234
F1921.0
F1921.0
tp819
atp820
a(L78L
g87
(lp821
(g198
F897.0
F1405.0
tp822
atp823
a(L80L
g87
(lp824
(g188
F903.0
F1301.0
tp825
a(g262
F1301.0
F1307.0
tp826
atp827
a(L82L
g20
(lp828
(g176
F1271.0
F1271.0
tp829
atp830
a(L83L
g87
(lp831
(g99
F531.0
F732.0
tp832
a(g131
F1192.0
F1199.0
tp833
a(g80
F1199.0
F1646.0
tp834
a(g30
F1646.0
F1849.0
tp835
atp836
a(L84L
g20
(lp837
(g135
F1029.0
F1029.0
tp838
atp839
a(L86L
g441
(lp840
(g210
F504.0
F597.0
tp841
a(g166
F597.0
F1140.0
tp842
a(g38
F1565.0
F1568.0
tp843
a(g42
F1568.0
F1714.0
tp844
a(g64
F1714.0
F1860.0
tp845
atp846
a(L87L
g87
(lp847
(g15
F531.0
F1014.0
tp848
a(g288
F1014.0
F1024.0
tp849
a(g216
F1024.0
F1424.0
tp850
a(g200
F1424.0
F1812.0
tp851
atp852
a(L89L
g20
(lp853
(g84
F1511.0
F1511.0
tp854
atp855
a(L90L
g20
(lp856
(g78
F1231.0
F1231.0
tp857
atp858
a(L92L
g20
(lp859
(g117
F1646.0
F1646.0
tp860
atp861
a(L93L
g20
(lp862
(g125
F1301.0
F1301.0
tp863
atp864
a(L101L
g20
(lp865
(g17
F1889.0
F1889.0
tp866
atp867
atp868
a(F2461.0
F1.83
(lp869
(L0L
g87
(lp870
(g248
F649.0
F662.0
tp871
a(g4
F662.0
F934.0
tp872
a(g145
F1009.0
F1014.0
tp873
a(g28
F1014.0
F1469.0
tp874
atp875
a(L1L
g20
(lp876
(g52
F1367.0
F1367.0
tp877
atp878
a(L2L
g11
(lp879
(g280
F2461.0
F2461.0
tp880
atp881
a(L4L
g20
(lp882
(g121
F1572.0
F1572.0
tp883
atp884
a(L6L
g20
(lp885
(g226
F2164.0
F2164.0
tp886
atp887
a(L8L
g87
(lp888
(g13
F294.0
F736.0
tp889
a(g157
F1153.0
F1572.0
tp890
atp891
a(L13L
g87
(lp892
(g170
F998.0
F1983.0
tp893
atp894
a(L16L
g87
(lp895
(g256
F839.0
F1120.0
tp896
a(g258
F1153.0
F1473.0
tp897
a(g36
F1473.0
F1892.0
tp898
a(g89
F2461.0
F2461.0
tp899
atp900
a(L18L
g87
(lp901
(g95
F1005.0
F1014.0
tp902
a(g76
F1014.0
F1490.0
tp903
a(g186
F1490.0
F1762.0
tp904
atp905
a(L21L
g87
(lp906
(g182
F294.0
F649.0
tp907
a(g240
F825.0
F1038.0
tp908
a(g149
F1038.0
F1046.0
tp909
a(g274
F1153.0
F1619.0
tp910
a(g242
F1983.0
F2213.0
tp911
atp912
a(L23L
g20
(lp913
(g284
F1718.0
F1718.0
tp914
atp915
a(L24L
g87
(lp916
(g238
F310.0
F648.0
tp917
a(g155
F695.0
F1005.0
tp918
a(g266
F1005.0
F1010.0
tp919
a(g151
F1265.0
F1274.0
tp920
a(g129
F1473.0
F1484.0
tp921
a(g82
F1484.0
F1492.0
tp922
atp923
a(L29L
g87
(lp924
(g143
F294.0
F632.0
tp925
a(g174
F1331.0
F1339.0
tp926
a(g101
F1574.0
F1585.0
tp927
a(g8
F1706.0
F1715.0
tp928
atp929
a(L32L
g20
(lp930
(g109
F1490.0
F1490.0
tp931
a(g218
F1490.0
F1490.0
tp932
atp933
a(L33L
g441
(lp934
(g58
F457.0
F914.0
tp935
a(g139
F2325.0
F2327.0
tp936
a(g46
F2327.0
F2396.0
tp937
a(g278
F2396.0
F2400.0
tp938
a(g244
F2400.0
F2404.0
tp939
atp940
a(L35L
g20
(lp941
(g68
F795.0
F795.0
tp942
atp943
a(L38L
g11
(lp944
(g113
F2106.0
F2106.0
tp945
atp946
a(L39L
g20
(lp947
(g292
F2179.0
F2179.0
tp948
atp949
a(L40L
g20
(lp950
(g70
F1816.0
F1816.0
tp951
atp952
a(L42L
g87
(lp953
(g206
F695.0
F1012.0
tp954
a(g168
F1338.0
F1574.0
tp955
a(g44
F2046.0
F2461.0
tp956
atp957
a(L44L
g87
(lp958
(g184
F695.0
F1009.0
tp959
a(g6
F1009.0
F1187.0
tp960
a(g196
F1350.0
F1816.0
tp961
a(g202
F1983.0
F2282.0
tp962
atp963
a(L45L
g20
(lp964
(g230
F934.0
F934.0
tp965
atp966
a(L47L
g441
(lp967
(g164
I0
F0.0
tp968
a(g180
I0
F294.0
tp969
a(g272
F294.0
F825.0
tp970
a(g99
F825.0
F892.0
tp971
a(g147
F892.0
F994.0
tp972
a(g34
F1338.0
F1476.0
tp973
a(g62
F2033.0
F2164.0
tp974
a(g159
F2282.0
F2286.0
tp975
atp976
a(L48L
g20
(lp977
(g208
F1012.0
F1012.0
tp978
a(g252
F1012.0
F1012.0
tp979
atp980
a(L52L
g20
(lp981
(g105
F632.0
F632.0
tp982
atp983
a(L54L
g20
(lp984
(g22
F1476.0
F1476.0
tp985
atp986
a(L61L
g441
(lp987
(g194
F471.0
F695.0
tp988
a(g74
F695.0
F1153.0
tp989
a(g222
F1153.0
F1156.0
tp990
a(g212
F1156.0
F1265.0
tp991
a(g56
F1338.0
F1451.0
tp992
a(g60
F1451.0
F1621.0
tp993
a(g40
F1621.0
F2033.0
tp994
a(g190
F2033.0
F2141.0
tp995
atp996
a(L69L
g11
(lp997
(g93
F736.0
F736.0
tp998
atp999
a(L71L
g20
(lp1000
(g268
F1619.0
F1619.0
tp1001
atp1002
a(L72L
g87
(lp1003
(g214
F1153.0
F1331.0
tp1004
a(g26
F1338.0
F1706.0
tp1005
atp1006
a(L73L
g20
(lp1007
(g50
F1187.0
F1187.0
tp1008
atp1009
a(L77L
g20
(lp1010
(g234
F2461.0
F2461.0
tp1011
atp1012
a(L78L
g87
(lp1013
(g198
F914.0
F1422.0
tp1014
atp1015
a(L80L
g87
(lp1016
(g188
F920.0
F1318.0
tp1017
a(g262
F2396.0
F2402.0
tp1018
atp1019
a(L82L
g20
(lp1020
(g176
F1621.0
F1621.0
tp1021
atp1022
a(L83L
g87
(lp1023
(g276
F1161.0
F1367.0
tp1024
a(g131
F1451.0
F1458.0
tp1025
a(g80
F1458.0
F1905.0
tp1026
a(g30
F1983.0
F2186.0
tp1027
atp1028
a(L84L
g20
(lp1029
(g135
F648.0
F648.0
tp1030
atp1031
a(L86L
g441
(lp1032
(g210
F702.0
F795.0
tp1033
a(g166
F795.0
F1338.0
tp1034
a(g38
F1892.0
F1895.0
tp1035
a(g42
F2033.0
F2179.0
tp1036
a(g64
F2179.0
F2325.0
tp1037
atp1038
a(L87L
g87
(lp1039
(g15
F825.0
F1308.0
tp1040
a(g288
F1308.0
F1318.0
tp1041
a(g216
F1318.0
F1718.0
tp1042
a(g200
F1718.0
F2106.0
tp1043
atp1044
a(L89L
g20
(lp1045
(g84
F2141.0
F2141.0
tp1046
atp1047
a(L90L
g20
(lp1048
(g78
F1762.0
F1762.0
tp1049
atp1050
a(L92L
g20
(lp1051
(g117
F1905.0
F1905.0
tp1052
atp1053
a(L93L
g20
(lp1054
(g125
F1318.0
F1318.0
tp1055
atp1056
a(L101L
g20
(lp1057
(g17
F2461.0
F2461.0
tp1058
atp1059
atp1060
a(F3967.0
F1.75
(lp1061
(L0L
g87
(lp1062
(g248
F2222.0
F2235.0
tp1063
a(g4
F2235.0
F2507.0
tp1064
a(g145
F2507.0
F2512.0
tp1065
a(g276
F2512.0
F2718.0
tp1066
atp1067
a(L1L
g20
(lp1068
(g52
F2718.0
F2718.0
tp1069
atp1070
a(L2L
g11
(lp1071
(g280
F3956.0
F3956.0
tp1072
atp1073
a(L4L
g20
(lp1074
(g266
F598.0
F598.0
tp1075
atp1076
a(L6L
g11
(lp1077
(g226
F2921.0
F2921.0
tp1078
atp1079
a(L8L
g87
(lp1080
(g13
F1867.0
F2309.0
tp1081
a(g157
F2309.0
F2728.0
tp1082
a(g168
F2728.0
F2964.0
tp1083
atp1084
a(L11L
g20
(lp1085
(g70
F3130.0
F3130.0
tp1086
atp1087
a(L13L
g87
(lp1088
(g151
F1262.0
F1271.0
tp1089
a(g60
F1271.0
F1781.0
tp1090
a(g170
F1781.0
F2766.0
tp1091
atp1092
a(L16L
g87
(lp1093
(g256
F545.0
F826.0
tp1094
a(g258
F1153.0
F1473.0
tp1095
atp1096
a(L18L
g87
(lp1097
(g95
F2531.0
F2540.0
tp1098
a(g216
F2540.0
F2940.0
tp1099
a(g76
F2940.0
F3416.0
tp1100
atp1101
a(L21L
g87
(lp1102
(g180
F985.0
F1867.0
tp1103
a(g182
F1867.0
F2222.0
tp1104
a(g240
F2222.0
F2435.0
tp1105
a(g149
F2435.0
F2443.0
tp1106
a(g274
F2443.0
F2909.0
tp1107
a(g117
F3446.0
F3452.0
tp1108
a(g242
F3452.0
F3682.0
tp1109
a(g30
F3682.0
F3885.0
tp1110
atp1111
a(L24L
g87
(lp1112
(g238
F1883.0
F2221.0
tp1113
a(g155
F2221.0
F2531.0
tp1114
a(g129
F2531.0
F2542.0
tp1115
a(g82
F3901.0
F3909.0
tp1116
atp1117
a(L29L
g87
(lp1118
(g143
F1867.0
F2205.0
tp1119
a(g222
F2205.0
F2215.0
tp1120
a(g174
F2215.0
F2223.0
tp1121
a(g8
F3020.0
F3029.0
tp1122
a(g186
F3029.0
F3301.0
tp1123
atp1124
a(L32L
g20
(lp1125
(g218
F3244.0
F3244.0
tp1126
atp1127
a(L33L
g441
(lp1128
(g58
F457.0
F914.0
tp1129
a(g46
F2766.0
F2835.0
tp1130
a(g244
F3885.0
F3889.0
tp1131
atp1132
a(L35L
g20
(lp1133
(g68
F990.0
F990.0
tp1134
atp1135
a(L39L
g20
(lp1136
(g292
F3518.0
F3518.0
tp1137
atp1138
a(L42L
g87
(lp1139
(g184
F695.0
F1009.0
tp1140
a(g206
F1009.0
F1326.0
tp1141
a(g56
F2652.0
F2992.0
tp1142
a(g44
F2992.0
F3407.0
tp1143
atp1144
a(L44L
g87
(lp1145
(g6
F695.0
F873.0
tp1146
a(g196
F2664.0
F3130.0
tp1147
a(g202
F3130.0
F3429.0
tp1148
atp1149
a(L45L
g20
(lp1150
(g230
F2507.0
F2507.0
tp1151
a(g135
F2507.0
F2507.0
tp1152
atp1153
a(L47L
g441
(lp1154
(g164
I0
F0.0
tp1155
a(g272
I0
F531.0
tp1156
a(g99
F531.0
F598.0
tp1157
a(g147
F598.0
F700.0
tp1158
a(g34
F2652.0
F2790.0
tp1159
a(g62
F2790.0
F2921.0
tp1160
a(g125
F2921.0
F2924.0
tp1161
a(g159
F3429.0
F3433.0
tp1162
atp1163
a(L48L
g20
(lp1164
(g208
F1326.0
F1326.0
tp1165
a(g252
F1326.0
F1326.0
tp1166
atp1167
a(L52L
g20
(lp1168
(g105
F2205.0
F2205.0
tp1169
atp1170
a(L54L
g20
(lp1171
(g22
F2790.0
F2790.0
tp1172
atp1173
a(L57L
g20
(lp1174
(g234
F3967.0
F3967.0
tp1175
atp1176
a(L59L
g11
(lp1177
(g89
F3967.0
F3967.0
tp1178
atp1179
a(L61L
g441
(lp1180
(g194
F471.0
F695.0
tp1181
a(g74
F695.0
F1153.0
tp1182
a(g212
F1153.0
F1262.0
tp1183
a(g40
F1262.0
F1674.0
tp1184
atp1185
a(L65L
g20
(lp1186
(g101
F2964.0
F2964.0
tp1187
atp1188
a(L69L
g20
(lp1189
(g93
F2309.0
F2309.0
tp1190
atp1191
a(L71L
g20
(lp1192
(g109
F3416.0
F3416.0
tp1193
atp1194
a(L72L
g87
(lp1195
(g214
F1153.0
F1331.0
tp1196
a(g26
F2652.0
F3020.0
tp1197
a(g190
F3020.0
F3343.0
tp1198
atp1199
a(L73L
g20
(lp1200
(g50
F873.0
F873.0
tp1201
atp1202
a(L78L
g87
(lp1203
(g121
F2728.0
F2736.0
tp1204
a(g198
F2736.0
F3244.0
tp1205
a(g113
F3459.0
F3465.0
tp1206
atp1207
a(L80L
g87
(lp1208
(g188
F920.0
F1318.0
tp1209
a(g262
F2835.0
F2841.0
tp1210
atp1211
a(L82L
g20
(lp1212
(g176
F1781.0
F1781.0
tp1213
atp1214
a(L83L
g87
(lp1215
(g288
F1014.0
F1024.0
tp1216
a(g131
F2992.0
F2999.0
tp1217
a(g80
F2999.0
F3446.0
tp1218
a(g28
F3446.0
F3901.0
tp1219
atp1220
a(L86L
g87
(lp1221
(g210
F710.0
F990.0
tp1222
a(g166
F1022.0
F2652.0
tp1223
a(g38
F3071.0
F3079.0
tp1224
a(g42
F3079.0
F3518.0
tp1225
a(g64
F3518.0
F3956.0
tp1226
a(g278
F3956.0
F3967.0
tp1227
atp1228
a(L87L
g87
(lp1229
(g15
F531.0
F1014.0
tp1230
a(g36
F2652.0
F3071.0
tp1231
a(g200
F3071.0
F3459.0
tp1232
atp1233
a(L89L
g20
(lp1234
(g84
F3343.0
F3343.0
tp1235
atp1236
a(L90L
g20
(lp1237
(g78
F3301.0
F3301.0
tp1238
atp1239
a(L93L
g20
(lp1240
(g284
F2940.0
F2940.0
tp1241
a(g268
F2940.0
F2940.0
tp1242
atp1243
a(L101L
g20
(lp1244
(g139
F3956.0
F3956.0
tp1245
a(g17
F3956.0
F3956.0
tp1246
atp1247
atp1248
a.