(lp0
(F96.0
F6.93
(lp1
(L0L
Vapac-sin#m3.2xlarge
p2
(lp3
(VID00027
p4
F96.0
F96.0
tp5
a(VID00017
p6
F96.0
F96.0
tp7
atp8
a(L4L
g2
(lp9
(VID00025
p10
F96.0
F96.0
tp11
atp12
a(L8L
Vapac-sin#m3.large
p13
(lp14
(VID00000
p15
F96.0
F96.0
tp16
atp17
a(L10L
g2
(lp18
(VID00004
p19
F61.0
F61.0
tp20
a(VID00010
p21
F61.0
F61.0
tp22
atp23
a(L11L
g2
(lp24
(S'entry'
p25
I0
F0.0
tp26
a(VID00002
p27
I0
F49.0
tp28
a(VID00013
p29
F49.0
F79.0
tp30
a(VID00018
p31
F79.0
F88.0
tp32
a(VID00028
p33
F88.0
F96.0
tp34
atp35
a(L13L
Vapac-sin#m3.xlarge
p36
(lp37
(VID00020
p38
F79.0
F94.0
tp39
a(VID00021
p40
F94.0
F95.0
tp41
atp42
a(L17L
g2
(lp43
(VID00003
p44
F49.0
F61.0
tp45
a(VID00024
p46
F79.0
F96.0
tp47
a(VID00012
p48
F96.0
F96.0
tp49
atp50
a(L22L
g2
(lp51
(VID00005
p52
F49.0
F61.0
tp53
a(VID00022
p54
F79.0
F89.0
tp55
a(VID00023
p56
F89.0
F89.0
tp57
a(VID00026
p58
F89.0
F96.0
tp59
atp60
a(L23L
g2
(lp61
(VID00009
p62
F49.0
F59.0
tp63
a(VID00008
p64
F60.0
F60.0
tp65
a(VID00014
p66
F79.0
F94.0
tp67
a(VID00015
p68
F94.0
F94.0
tp69
atp70
a(L24L
g2
(lp71
(VID00019
p72
F88.0
F88.0
tp73
atp74
a(L25L
g2
(lp75
(VID00007
p76
F49.0
F60.0
tp77
a(VID00006
p78
F61.0
F61.0
tp79
a(VID00011
p80
F61.0
F80.0
tp81
a(VID00016
p82
F80.0
F94.0
tp83
atp84
a(L27L
Vapac-sin#m1.small
p85
(lp86
(S'exit'
p87
F96.0
F96.0
tp88
atp89
a(L29L
g2
(lp90
(VID00029
p91
F96.0
F96.0
tp92
atp93
a(L30L
g36
(lp94
(VID00001
p95
F96.0
F96.0
tp96
atp97
atp98
a(F172.0
F1.89
(lp99
(L2L
g2
(lp100
(g19
F61.0
F61.0
tp101
atp102
a(L3L
g2
(lp103
(g21
F115.0
F115.0
tp104
atp105
a(L4L
g36
(lp106
(g10
F149.0
F149.0
tp107
atp108
a(L7L
g2
(lp109
(g4
F116.0
F116.0
tp110
atp111
a(L8L
g13
(lp112
(g15
F172.0
F172.0
tp113
atp114
a(L10L
g2
(lp115
(g48
F135.0
F135.0
tp116
atp117
a(L11L
g2
(lp118
(g25
I0
F0.0
tp119
a(g27
I0
F49.0
tp120
a(g44
F49.0
F61.0
tp121
a(g29
F61.0
F91.0
tp122
a(g38
F91.0
F99.0
tp123
a(g54
F99.0
F109.0
tp124
a(g58
F109.0
F116.0
tp125
a(g80
F116.0
F135.0
tp126
a(g82
F135.0
F149.0
tp127
a(g6
F149.0
F149.0
tp128
a(g66
F149.0
F164.0
tp129
a(g33
F164.0
F172.0
tp130
atp131
a(L13L
g2
(lp132
(g40
F99.0
F99.0
tp133
atp134
a(L15L
g36
(lp135
(g64
F71.0
F71.0
tp136
atp137
a(L17L
g2
(lp138
(g56
F109.0
F109.0
tp139
atp140
a(L22L
g2
(lp141
(g68
F164.0
F164.0
tp142
atp143
a(L24L
g2
(lp144
(g72
F167.0
F167.0
tp145
atp146
a(L25L
g36
(lp147
(g76
F49.0
F71.0
tp148
a(g52
F71.0
F95.0
tp149
a(g62
F95.0
F115.0
tp150
a(g46
F115.0
F149.0
tp151
a(g31
F149.0
F167.0
tp152
atp153
a(L27L
Vapac-sin#m1.xlarge
p154
(lp155
(g87
F172.0
F172.0
tp156
atp157
a(L29L
g2
(lp158
(g91
F172.0
F172.0
tp159
atp160
a(L30L
g36
(lp161
(g95
F172.0
F172.0
tp162
atp163
a(L31L
g2
(lp164
(g78
F95.0
F95.0
tp165
atp166
atp167
a(F342.0
F1.26
(lp168
(L3L
g2
(lp169
(g21
F163.0
F163.0
tp170
atp171
a(L4L
g2
(lp172
(g10
F215.0
F215.0
tp173
atp174
a(L7L
g2
(lp175
(g4
F230.0
F230.0
tp176
atp177
a(L8L
g36
(lp178
(g15
F342.0
F342.0
tp179
atp180
a(L10L
g2
(lp181
(g48
F268.0
F268.0
tp182
atp183
a(L11L
g36
(lp184
(g25
I0
F0.0
tp185
a(g27
I0
F97.0
tp186
a(g44
F97.0
F121.0
tp187
a(g29
F121.0
F181.0
tp188
a(g38
F181.0
F196.0
tp189
a(g54
F196.0
F215.0
tp190
a(g58
F215.0
F230.0
tp191
a(g80
F230.0
F268.0
tp192
a(g82
F268.0
F296.0
tp193
a(g6
F296.0
F297.0
tp194
a(g66
F297.0
F326.0
tp195
a(g33
F326.0
F342.0
tp196
atp197
a(L13L
g2
(lp198
(g40
F196.0
F196.0
tp199
atp200
a(L15L
g36
(lp201
(g64
F119.0
F119.0
tp202
atp203
a(L17L
g2
(lp204
(g56
F215.0
F215.0
tp205
atp206
a(L21L
g36
(lp207
(g19
F121.0
F121.0
tp208
atp209
a(L22L
g2
(lp210
(g68
F326.0
F326.0
tp211
atp212
a(L24L
g2
(lp213
(g72
F233.0
F233.0
tp214
atp215
a(L25L
g36
(lp216
(g76
F97.0
F119.0
tp217
a(g52
F119.0
F143.0
tp218
a(g62
F143.0
F163.0
tp219
a(g46
F181.0
F215.0
tp220
a(g31
F215.0
F233.0
tp221
atp222
a(L27L
g154
(lp223
(g87
F342.0
F342.0
tp224
atp225
a(L29L
g2
(lp226
(g91
F342.0
F342.0
tp227
atp228
a(L30L
g36
(lp229
(g95
F342.0
F342.0
tp230
atp231
a(L31L
g2
(lp232
(g78
F143.0
F143.0
tp233
atp234
atp235
a(F605.0
F0.79
(lp236
(L3L
g2
(lp237
(g21
F383.0
F383.0
tp238
atp239
a(L4L
g2
(lp240
(g10
F529.0
F529.0
tp241
atp242
a(L7L
g2
(lp243
(g4
F230.0
F230.0
tp244
atp245
a(L8L
g36
(lp246
(g15
F605.0
F605.0
tp247
atp248
a(L10L
g2
(lp249
(g48
F268.0
F268.0
tp250
atp251
a(L11L
g36
(lp252
(g25
I0
F0.0
tp253
a(g27
I0
F97.0
tp254
a(g44
F97.0
F121.0
tp255
a(g29
F121.0
F181.0
tp256
a(g38
F181.0
F196.0
tp257
a(g54
F196.0
F215.0
tp258
a(g58
F215.0
F230.0
tp259
a(g80
F230.0
F268.0
tp260
a(g82
F268.0
F296.0
tp261
a(g6
F296.0
F297.0
tp262
a(g66
F297.0
F326.0
tp263
a(g33
F326.0
F342.0
tp264
atp265
a(L13L
g2
(lp266
(g40
F196.0
F196.0
tp267
atp268
a(L15L
g36
(lp269
(g64
F194.0
F194.0
tp270
atp271
a(L17L
g2
(lp272
(g56
F215.0
F215.0
tp273
atp274
a(L21L
g36
(lp275
(g19
F121.0
F121.0
tp276
atp277
a(L22L
g2
(lp278
(g68
F326.0
F326.0
tp279
atp280
a(L24L
g2
(lp281
(g72
F605.0
F605.0
tp282
atp283
a(L25L
Vapac-sin#m3.medium
p284
(lp285
(g76
F97.0
F194.0
tp286
a(g52
F194.0
F297.0
tp287
a(g62
F297.0
F383.0
tp288
a(g46
F383.0
F529.0
tp289
a(g31
F529.0
F605.0
tp290
a(g87
F605.0
F605.0
tp291
atp292
a(L29L
g2
(lp293
(g91
F342.0
F342.0
tp294
atp295
a(L30L
g36
(lp296
(g95
F605.0
F605.0
tp297
atp298
a(L31L
g2
(lp299
(g78
F297.0
F297.0
tp300
atp301
atp302
a(F703.0
F0.47
(lp303
(L2L
g2
(lp304
(g19
F243.0
F243.0
tp305
atp306
a(L3L
g2
(lp307
(g21
F481.0
F481.0
tp308
atp309
a(L4L
g36
(lp310
(g10
F627.0
F627.0
tp311
atp312
a(L7L
g2
(lp313
(g4
F460.0
F460.0
tp314
atp315
a(L8L
g36
(lp316
(g15
F703.0
F703.0
tp317
atp318
a(L10L
g2
(lp319
(g48
F537.0
F537.0
tp320
atp321
a(L11L
g13
(lp322
(g25
I0
F0.0
tp323
a(g27
I0
F195.0
tp324
a(g44
F195.0
F243.0
tp325
a(g29
F243.0
F362.0
tp326
a(g38
F362.0
F392.0
tp327
a(g54
F392.0
F430.0
tp328
a(g58
F430.0
F460.0
tp329
a(g80
F460.0
F537.0
tp330
a(g82
F537.0
F593.0
tp331
a(g6
F593.0
F595.0
tp332
a(g66
F595.0
F653.0
tp333
a(g33
F653.0
F686.0
tp334
atp335
a(L13L
g2
(lp336
(g40
F392.0
F392.0
tp337
atp338
a(L15L
g36
(lp339
(g64
F292.0
F292.0
tp340
atp341
a(L17L
g2
(lp342
(g56
F430.0
F430.0
tp343
atp344
a(L22L
g2
(lp345
(g68
F653.0
F653.0
tp346
atp347
a(L24L
g2
(lp348
(g72
F703.0
F703.0
tp349
atp350
a(L25L
g284
(lp351
(g76
F195.0
F292.0
tp352
a(g52
F292.0
F395.0
tp353
a(g62
F395.0
F481.0
tp354
a(g46
F481.0
F627.0
tp355
a(g31
F627.0
F703.0
tp356
a(g87
F703.0
F703.0
tp357
atp358
a(L29L
g2
(lp359
(g91
F686.0
F686.0
tp360
atp361
a(L30L
g36
(lp362
(g95
F703.0
F703.0
tp363
atp364
a(L31L
g2
(lp365
(g78
F395.0
F395.0
tp366
atp367
atp368
a(F1129.0
F0.4
(lp369
(L4L
g2
(lp370
(g64
F821.0
F821.0
tp371
a(g40
F821.0
F821.0
tp372
atp373
a(L7L
g36
(lp374
(g21
F715.0
F715.0
tp375
atp376
a(L8L
g2
(lp377
(g6
F931.0
F931.0
tp378
atp379
a(L9L
g2
(lp380
(g72
F1107.0
F1107.0
tp381
atp382
a(L11L
g284
(lp383
(g25
I0
F0.0
tp384
a(g27
I0
F422.0
tp385
a(g29
F422.0
F680.0
tp386
a(g38
F680.0
F745.0
tp387
a(g58
F745.0
F809.0
tp388
a(g82
F809.0
F931.0
tp389
a(g66
F931.0
F1058.0
tp390
a(g33
F1058.0
F1129.0
tp391
atp392
a(L12L
g36
(lp393
(g15
F1129.0
F1129.0
tp394
atp395
a(L16L
g85
(lp396
(g19
F526.0
F531.0
tp397
a(g76
F531.0
F821.0
tp398
a(g78
F821.0
F827.0
tp399
a(g54
F827.0
F1075.0
tp400
atp401
a(L21L
g36
(lp402
(g10
F861.0
F861.0
tp403
atp404
a(L23L
g2
(lp405
(g4
F809.0
F809.0
tp406
atp407
a(L25L
g284
(lp408
(g44
F422.0
F526.0
tp409
a(g52
F526.0
F629.0
tp410
a(g62
F629.0
F715.0
tp411
a(g46
F715.0
F861.0
tp412
a(g80
F861.0
F1027.0
tp413
a(g48
F1027.0
F1031.0
tp414
a(g31
F1031.0
F1107.0
tp415
atp416
a(L28L
g85
(lp417
(g87
F1129.0
F1129.0
tp418
atp419
a(L29L
g2
(lp420
(g91
F1129.0
F1129.0
tp421
atp422
a(L30L
g36
(lp423
(g95
F1129.0
F1129.0
tp424
atp425
a(L31L
g2
(lp426
(g56
F1075.0
F1075.0
tp427
a(g68
F1075.0
F1075.0
tp428
atp429
atp430
a(F1245.0
F0.32
(lp431
(L3L
g2
(lp432
(g21
F708.0
F708.0
tp433
atp434
a(L4L
g2
(lp435
(g56
F932.0
F932.0
tp436
a(g10
F932.0
F932.0
tp437
atp438
a(L7L
g2
(lp439
(g4
F996.0
F996.0
tp440
atp441
a(L8L
g284
(lp442
(g15
F1245.0
F1245.0
tp443
atp444
a(L10L
g2
(lp445
(g48
F1096.0
F1096.0
tp446
atp447
a(L11L
g284
(lp448
(g25
I0
F0.0
tp449
a(g27
I0
F422.0
tp450
a(g44
F422.0
F526.0
tp451
a(g29
F526.0
F784.0
tp452
a(g38
F784.0
F849.0
tp453
a(g54
F849.0
F932.0
tp454
a(g58
F932.0
F996.0
tp455
a(g82
F996.0
F1118.0
tp456
a(g66
F1118.0
F1245.0
tp457
atp458
a(L12L
Vapac-sin#m1.large
p459
(lp460
(g87
F1245.0
F1245.0
tp461
atp462
a(L13L
g2
(lp463
(g40
F849.0
F849.0
tp464
atp465
a(L15L
g36
(lp466
(g64
F519.0
F519.0
tp467
atp468
a(L17L
g2
(lp469
(g6
F1118.0
F1118.0
tp470
atp471
a(L21L
g36
(lp472
(g19
F526.0
F526.0
tp473
atp474
a(L22L
g2
(lp475
(g68
F1245.0
F1245.0
tp476
atp477
a(L24L
g2
(lp478
(g72
F1172.0
F1172.0
tp479
atp480
a(L25L
g284
(lp481
(g76
F422.0
F519.0
tp482
a(g52
F519.0
F622.0
tp483
a(g62
F622.0
F708.0
tp484
a(g46
F784.0
F930.0
tp485
a(g80
F930.0
F1096.0
tp486
a(g31
F1096.0
F1172.0
tp487
a(g33
F1172.0
F1243.0
tp488
atp489
a(L29L
g2
(lp490
(g91
F1243.0
F1243.0
tp491
atp492
a(L30L
g13
(lp493
(g95
F1245.0
F1245.0
tp494
atp495
a(L31L
g2
(lp496
(g78
F622.0
F622.0
tp497
atp498
atp499
a(F1628.0
F0.24
(lp500
(L2L
g2
(lp501
(g64
F712.0
F712.0
tp502
atp503
a(L5L
g13
(lp504
(g15
F1628.0
F1628.0
tp505
atp506
a(L7L
g2
(lp507
(g4
F1142.0
F1142.0
tp508
atp509
a(L10L
g36
(lp510
(g19
F526.0
F526.0
tp511
atp512
a(L11L
g284
(lp513
(g25
I0
F0.0
tp514
a(g27
I0
F422.0
tp515
a(g44
F422.0
F526.0
tp516
a(g29
F526.0
F784.0
tp517
a(g38
F784.0
F849.0
tp518
a(g54
F849.0
F932.0
tp519
a(g46
F932.0
F1078.0
tp520
a(g58
F1078.0
F1142.0
tp521
a(g80
F1142.0
F1308.0
tp522
a(g82
F1308.0
F1430.0
tp523
a(g66
F1430.0
F1557.0
tp524
a(g33
F1557.0
F1628.0
tp525
atp526
a(L16L
g2
(lp527
(g6
F1430.0
F1430.0
tp528
atp529
a(L18L
g2
(lp530
(g21
F1278.0
F1278.0
tp531
atp532
a(L20L
g2
(lp533
(g78
F1020.0
F1020.0
tp534
atp535
a(L21L
g36
(lp536
(g87
F1628.0
F1628.0
tp537
atp538
a(L24L
g2
(lp539
(g10
F1078.0
F1078.0
tp540
atp541
a(L25L
g85
(lp542
(g76
F422.0
F712.0
tp543
a(g52
F712.0
F1020.0
tp544
a(g62
F1020.0
F1278.0
tp545
a(g40
F1278.0
F1289.0
tp546
a(g56
F1289.0
F1300.0
tp547
a(g48
F1308.0
F1319.0
tp548
a(g31
F1319.0
F1548.0
tp549
atp550
a(L28L
g2
(lp551
(g72
F1548.0
F1548.0
tp552
atp553
a(L29L
g2
(lp554
(g91
F1628.0
F1628.0
tp555
atp556
a(L30L
g154
(lp557
(g95
F1628.0
F1628.0
tp558
atp559
a(L31L
g2
(lp560
(g68
F1557.0
F1557.0
tp561
atp562
atp563
a.