(lp0
(F360.0
F9.46
(lp1
(L1L
Vapac-sin#m3.2xlarge
p2
(lp3
(VID00005
p4
F323.0
F335.0
tp5
a(VID00006
p6
F335.0
F335.0
tp7
a(VID00042
p8
F342.0
F360.0
tp9
a(S'exit'
p10
F360.0
F360.0
tp11
atp12
a(L2L
g2
(lp13
(VID00032
p14
F323.0
F323.0
tp15
atp16
a(L50L
g2
(lp17
(VID00041
p18
F355.0
F355.0
tp19
atp20
a(L4L
g2
(lp21
(VID00008
p22
F343.0
F343.0
tp23
atp24
a(L38L
g2
(lp25
(VID00002
p26
F300.0
F323.0
tp27
a(VID00007
p28
F323.0
F343.0
tp29
a(VID00013
p30
F343.0
F343.0
tp31
a(VID00044
p32
F343.0
F357.0
tp33
a(VID00037
p34
F357.0
F357.0
tp35
a(VID00034
p36
F357.0
F357.0
tp37
atp38
a(L39L
Vapac-sin#m1.xlarge
p39
(lp40
(S'entry'
p41
I0
F0.0
tp42
a(VID00022
p43
I0
F91.0
tp44
a(VID00011
p45
F91.0
F277.0
tp46
a(VID00017
p47
F294.0
F296.0
tp48
a(VID00015
p49
F302.0
F303.0
tp50
a(VID00029
p51
F303.0
F357.0
tp52
atp53
a(L40L
g2
(lp54
(VID00045
p55
F357.0
F357.0
tp56
atp57
a(L43L
Vapac-sin#m3.xlarge
p58
(lp59
(VID00014
p60
F277.0
F302.0
tp61
a(VID00036
p62
F342.0
F356.0
tp63
atp64
a(L12L
g2
(lp65
(VID00026
p66
F100.0
F100.0
tp67
a(VID00016
p68
F277.0
F294.0
tp69
a(VID00018
p70
F294.0
F310.0
tp71
a(VID00019
p72
F310.0
F310.0
tp73
a(VID00031
p74
F310.0
F323.0
tp75
a(VID00033
p76
F323.0
F343.0
tp77
a(VID00040
p78
F343.0
F355.0
tp79
atp80
a(L45L
g2
(lp81
(VID00027
p82
F91.0
F103.0
tp83
a(VID00020
p84
F281.0
F292.0
tp85
a(VID00012
p86
F292.0
F307.0
tp87
a(VID00048
p88
F344.0
F358.0
tp89
atp90
a(L14L
g2
(lp91
(VID00023
p92
F91.0
F104.0
tp93
a(VID00035
p94
F304.0
F342.0
tp95
a(VID00046
p96
F342.0
F354.0
tp97
a(VID00047
p98
F354.0
F354.0
tp99
a(VID00039
p100
F359.0
F359.0
tp101
a(VID00030
p102
F359.0
F359.0
tp103
atp104
a(L15L
g58
(lp105
(VID00003
p106
F323.0
F360.0
tp107
atp108
a(L16L
Vapac-sin#m3.large
p109
(lp110
(VID00000
p111
F360.0
F360.0
tp112
atp113
a(L17L
g2
(lp114
(VID00021
p115
F292.0
F292.0
tp116
atp117
a(L13L
g2
(lp118
(VID00001
p119
F360.0
F360.0
tp120
atp121
a(L46L
g2
(lp122
(VID00010
p123
F346.0
F346.0
tp124
a(VID00028
p125
F346.0
F346.0
tp126
atp127
a(L23L
g2
(lp128
(VID00024
p129
F104.0
F104.0
tp130
atp131
a(L29L
g2
(lp132
(VID00025
p133
F91.0
F100.0
tp134
a(VID00009
p135
F327.0
F346.0
tp136
a(VID00038
p137
F346.0
F359.0
tp138
a(VID00049
p139
F359.0
F359.0
tp140
atp141
a(L31L
g2
(lp142
(VID00004
p143
F360.0
F360.0
tp144
a(VID00043
p145
F360.0
F360.0
tp146
atp147
atp148
a(F835.0
F8.21
(lp149
(L1L
Vapac-sin#m1.medium
p150
(lp151
(g4
F327.0
F487.0
tp152
a(g6
F487.0
F491.0
tp153
a(g8
F506.0
F738.0
tp154
a(g10
F835.0
F835.0
tp155
atp156
a(L2L
Vapac-sin#m3.medium
p157
(lp158
(g106
F327.0
F486.0
tp159
a(g28
F486.0
F657.0
tp160
a(g14
F745.0
F747.0
tp161
atp162
a(L4L
Vapac-sin#m1.large
p163
(lp164
(g22
F657.0
F660.0
tp165
atp166
a(L38L
g2
(lp167
(g30
F731.0
F731.0
tp168
a(g32
F731.0
F745.0
tp169
a(g34
F745.0
F745.0
tp170
a(g36
F765.0
F765.0
tp171
atp172
a(L39L
g163
(lp173
(g41
I0
F0.0
tp174
a(g43
I0
F181.0
tp175
a(g26
F181.0
F327.0
tp176
a(g45
F327.0
F699.0
tp177
a(g47
F716.0
F719.0
tp178
a(g49
F724.0
F727.0
tp179
a(g51
F727.0
F835.0
tp180
atp181
a(L40L
g163
(lp182
(g55
F745.0
F748.0
tp183
atp184
a(L43L
g58
(lp185
(g60
F699.0
F724.0
tp186
a(g62
F724.0
F738.0
tp187
atp188
a(L12L
g2
(lp189
(g66
F190.0
F190.0
tp190
a(g68
F699.0
F716.0
tp191
a(g70
F716.0
F732.0
tp192
a(g72
F732.0
F732.0
tp193
a(g74
F732.0
F745.0
tp194
a(g76
F745.0
F765.0
tp195
a(g78
F765.0
F777.0
tp196
atp197
a(L45L
g2
(lp198
(g82
F181.0
F193.0
tp199
a(g84
F705.0
F716.0
tp200
a(g86
F716.0
F731.0
tp201
a(g88
F731.0
F745.0
tp202
atp203
a(L46L
g2
(lp204
(g143
F486.0
F486.0
tp205
a(g123
F486.0
F486.0
tp206
a(g125
F486.0
F486.0
tp207
atp208
a(L13L
g157
(lp209
(g119
F835.0
F835.0
tp210
atp211
a(L16L
g109
(lp212
(g111
F835.0
F835.0
tp213
atp214
a(L17L
g2
(lp215
(g115
F716.0
F716.0
tp216
atp217
a(L50L
g2
(lp218
(g18
F777.0
F777.0
tp219
atp220
a(L14L
g2
(lp221
(g92
F181.0
F194.0
tp222
a(g94
F468.0
F506.0
tp223
a(g96
F506.0
F518.0
tp224
a(g98
F518.0
F518.0
tp225
a(g100
F519.0
F519.0
tp226
a(g102
F835.0
F835.0
tp227
atp228
a(L23L
g2
(lp229
(g129
F194.0
F194.0
tp230
atp231
a(L29L
g2
(lp232
(g133
F181.0
F190.0
tp233
a(g135
F333.0
F352.0
tp234
a(g137
F506.0
F519.0
tp235
a(g139
F745.0
F745.0
tp236
atp237
a(L31L
g2
(lp238
(g145
F738.0
F738.0
tp239
atp240
atp241
a(F1390.0
F3.18
(lp242
(L0L
g2
(lp243
(g49
F1189.0
F1189.0
tp244
a(g139
F1189.0
F1189.0
tp245
atp246
a(L1L
g150
(lp247
(g30
F1327.0
F1331.0
tp248
atp249
a(L2L
g157
(lp250
(g106
F436.0
F595.0
tp251
a(g28
F595.0
F766.0
tp252
a(g51
F766.0
F911.0
tp253
a(g88
F911.0
F1034.0
tp254
a(g74
F1034.0
F1145.0
tp255
a(g78
F1145.0
F1246.0
tp256
atp257
a(L35L
Vapac-sin#m1.small
p258
(lp259
(g6
F755.0
F763.0
tp260
a(g86
F932.0
F1327.0
tp261
a(g98
F1327.0
F1337.0
tp262
atp263
a(L5L
g2
(lp264
(g34
F1251.0
F1251.0
tp265
a(g102
F1251.0
F1251.0
tp266
atp267
a(L39L
g157
(lp268
(g41
I0
F0.0
tp269
a(g43
I0
F241.0
tp270
a(g26
F241.0
F436.0
tp271
a(g45
F436.0
F932.0
tp272
a(g68
F932.0
F1079.0
tp273
a(g60
F1079.0
F1189.0
tp274
a(g62
F1189.0
F1251.0
tp275
a(g137
F1251.0
F1368.0
tp276
atp277
a(L8L
g163
(lp278
(g55
F520.0
F523.0
tp279
atp280
a(L9L
g2
(lp281
(g145
F1275.0
F1275.0
tp282
a(g72
F1275.0
F1275.0
tp283
atp284
a(L45L
g258
(lp285
(g82
F241.0
F555.0
tp286
a(g133
F555.0
F792.0
tp287
a(g22
F792.0
F803.0
tp288
a(g123
F803.0
F811.0
tp289
a(g8
F811.0
F1275.0
tp290
atp291
a(L46L
g2
(lp292
(g143
F595.0
F595.0
tp293
atp294
a(L34L
g39
(lp295
(g111
F1390.0
F1390.0
tp296
atp297
a(L17L
g2
(lp298
(g36
F968.0
F968.0
tp299
atp300
a(L18L
g58
(lp301
(g66
F792.0
F792.0
tp302
atp303
a(L19L
g258
(lp304
(g47
F1079.0
F1092.0
tp305
atp306
a(L14L
g2
(lp307
(g92
F241.0
F254.0
tp308
a(g135
F442.0
F461.0
tp309
a(g94
F468.0
F506.0
tp310
a(g32
F506.0
F520.0
tp311
a(g70
F932.0
F948.0
tp312
a(g76
F948.0
F968.0
tp313
a(g18
F1246.0
F1246.0
tp314
a(g10
F1390.0
F1390.0
tp315
atp316
a(L25L
g58
(lp317
(g119
F1368.0
F1368.0
tp318
atp319
a(L26L
g39
(lp320
(g84
F938.0
F975.0
tp321
atp322
a(L27L
g258
(lp323
(g96
F506.0
F824.0
tp324
atp325
a(L28L
g258
(lp326
(g4
F436.0
F755.0
tp327
a(g129
F755.0
F763.0
tp328
a(g100
F1368.0
F1379.0
tp329
a(g125
F1379.0
F1390.0
tp330
atp331
a(L29L
g258
(lp332
(g115
F975.0
F987.0
tp333
atp334
a(L37L
g2
(lp335
(g14
F1145.0
F1145.0
tp336
atp337
atp338
a(F1401.0
F0.79
(lp339
(L0L
g2
(lp340
(g49
F1189.0
F1189.0
tp341
atp342
a(L1L
g2
(lp343
(g30
F1327.0
F1327.0
tp344
atp345
a(L2L
g157
(lp346
(g106
F436.0
F595.0
tp347
a(g28
F595.0
F766.0
tp348
a(g51
F766.0
F911.0
tp349
a(g88
F940.0
F1063.0
tp350
a(g139
F1063.0
F1066.0
tp351
a(g74
F1066.0
F1177.0
tp352
a(g78
F1177.0
F1278.0
tp353
atp354
a(L35L
g258
(lp355
(g6
F755.0
F763.0
tp356
a(g86
F932.0
F1327.0
tp357
a(g98
F1327.0
F1337.0
tp358
atp359
a(L5L
g2
(lp360
(g34
F1251.0
F1251.0
tp361
a(g102
F1251.0
F1251.0
tp362
atp363
a(L39L
g157
(lp364
(g41
I0
F0.0
tp365
a(g43
I0
F241.0
tp366
a(g26
F241.0
F436.0
tp367
a(g45
F436.0
F932.0
tp368
a(g68
F932.0
F1079.0
tp369
a(g60
F1079.0
F1189.0
tp370
a(g62
F1189.0
F1251.0
tp371
a(g137
F1251.0
F1368.0
tp372
atp373
a(L8L
g2
(lp374
(g55
F1055.0
F1055.0
tp375
atp376
a(L9L
g2
(lp377
(g145
F1401.0
F1401.0
tp378
a(g72
F1401.0
F1401.0
tp379
atp380
a(L11L
g2
(lp381
(g115
F1238.0
F1238.0
tp382
atp383
a(L45L
g258
(lp384
(g133
F241.0
F478.0
tp385
a(g22
F766.0
F777.0
tp386
a(g123
F777.0
F785.0
tp387
a(g8
F937.0
F1401.0
tp388
atp389
a(L46L
g2
(lp390
(g143
F595.0
F595.0
tp391
atp392
a(L48L
g2
(lp393
(g66
F478.0
F478.0
tp394
atp395
a(L17L
g2
(lp396
(g36
F1362.0
F1362.0
tp397
atp398
a(L19L
g2
(lp399
(g47
F1079.0
F1079.0
tp400
atp401
a(L14L
g157
(lp402
(g92
F241.0
F355.0
tp403
a(g135
F442.0
F605.0
tp404
a(g94
F605.0
F937.0
tp405
a(g32
F937.0
F1055.0
tp406
a(g70
F1055.0
F1191.0
tp407
a(g76
F1191.0
F1362.0
tp408
a(g18
F1362.0
F1366.0
tp409
a(g10
F1401.0
F1401.0
tp410
atp411
a(L34L
g39
(lp412
(g111
F1401.0
F1401.0
tp413
atp414
a(L25L
g58
(lp415
(g119
F1401.0
F1401.0
tp416
atp417
a(L27L
g258
(lp418
(g82
F241.0
F555.0
tp419
a(g96
F937.0
F1255.0
tp420
atp421
a(L28L
g258
(lp422
(g4
F436.0
F755.0
tp423
a(g129
F755.0
F763.0
tp424
a(g84
F945.0
F1238.0
tp425
a(g100
F1368.0
F1379.0
tp426
a(g125
F1379.0
F1390.0
tp427
atp428
a(L37L
g2
(lp429
(g14
F1177.0
F1177.0
tp430
atp431
atp432
a(F2355.0
F0.72
(lp433
(L33L
g58
(lp434
(g66
F1685.0
F1685.0
tp435
atp436
a(L2L
g157
(lp437
(g43
F1035.0
F1276.0
tp438
a(g106
F1276.0
F1435.0
tp439
a(g28
F1435.0
F1606.0
tp440
a(g133
F1606.0
F1685.0
tp441
a(g51
F1685.0
F1830.0
tp442
a(g55
F1830.0
F1833.0
tp443
a(g88
F1833.0
F1956.0
tp444
a(g74
F1956.0
F2067.0
tp445
a(g78
F2067.0
F2168.0
tp446
atp447
a(L35L
g258
(lp448
(g6
F1516.0
F1524.0
tp449
a(g123
F1524.0
F1532.0
tp450
a(g68
F1532.0
F1973.0
tp451
a(g47
F1973.0
F1986.0
tp452
atp453
a(L1L
g2
(lp454
(g115
F1919.0
F1919.0
tp455
a(g49
F1919.0
F1919.0
tp456
a(g125
F1919.0
F1919.0
tp457
atp458
a(L5L
g2
(lp459
(g139
F1956.0
F1956.0
tp460
atp461
a(L39L
g258
(lp462
(g41
I0
F1.0
tp463
a(g45
F1.0
F1489.0
tp464
a(g60
F1489.0
F1820.0
tp465
a(g62
F1820.0
F2005.0
tp466
a(g137
F2005.0
F2355.0
tp467
atp468
a(L8L
g2
(lp469
(g30
F2314.0
F2314.0
tp470
atp471
a(L9L
g2
(lp472
(g145
F2156.0
F2156.0
tp473
a(g72
F2156.0
F2156.0
tp474
atp475
a(L11L
g2
(lp476
(g36
F2240.0
F2240.0
tp477
atp478
a(L44L
g2
(lp479
(g18
F2168.0
F2168.0
tp480
atp481
a(L45L
g258
(lp482
(g92
F1276.0
F1618.0
tp483
a(g22
F1618.0
F1629.0
tp484
a(g8
F1692.0
F2156.0
tp485
atp486
a(L46L
g2
(lp487
(g143
F1435.0
F1435.0
tp488
atp489
a(L34L
g2
(lp490
(g100
F2355.0
F2355.0
tp491
atp492
a(L40L
g2
(lp493
(g98
F2010.0
F2010.0
tp494
atp495
a(L18L
g58
(lp496
(g34
F2005.0
F2005.0
tp497
atp498
a(L20L
g39
(lp499
(g111
F2355.0
F2355.0
tp500
a(g10
F2355.0
F2355.0
tp501
atp502
a(L14L
g157
(lp503
(g26
F1002.0
F1197.0
tp504
a(g135
F1197.0
F1360.0
tp505
a(g94
F1360.0
F1692.0
tp506
a(g32
F1692.0
F1810.0
tp507
a(g70
F1810.0
F1946.0
tp508
a(g14
F2067.0
F2069.0
tp509
a(g76
F2069.0
F2240.0
tp510
atp511
a(L43L
g58
(lp512
(g119
F2355.0
F2355.0
tp513
atp514
a(L27L
g258
(lp515
(g82
F1276.0
F1590.0
tp516
a(g96
F1692.0
F2010.0
tp517
atp518
a(L28L
g258
(lp519
(g4
F1197.0
F1516.0
tp520
a(g129
F1618.0
F1626.0
tp521
a(g84
F1626.0
F1919.0
tp522
a(g86
F1919.0
F2314.0
tp523
a(g102
F2314.0
F2324.0
tp524
atp525
atp526
a(F3172.0
F0.64
(lp527
(L32L
g2
(lp528
(g123
F1360.0
F1360.0
tp529
atp530
a(L1L
g2
(lp531
(g125
F2073.0
F2073.0
tp532
atp533
a(L2L
g258
(lp534
(g106
F1197.0
F1674.0
tp535
a(g28
F1674.0
F2188.0
tp536
a(g133
F2188.0
F2425.0
tp537
a(g51
F2425.0
F2859.0
tp538
a(g55
F2859.0
F2869.0
tp539
a(g78
F2869.0
F3172.0
tp540
atp541
a(L35L
g258
(lp542
(g6
F2078.0
F2086.0
tp543
a(g47
F2086.0
F2099.0
tp544
atp545
a(L12L
g2
(lp546
(g111
F3172.0
F3172.0
tp547
atp548
a(L6L
g58
(lp549
(g34
F2285.0
F2285.0
tp550
atp551
a(L39L
g258
(lp552
(g41
I0
F1.0
tp553
a(g45
F1.0
F1489.0
tp554
a(g60
F1489.0
F1820.0
tp555
a(g62
F2100.0
F2285.0
tp556
a(g137
F2285.0
F2635.0
tp557
a(g10
F3172.0
F3172.0
tp558
atp559
a(L40L
g2
(lp560
(g30
F1621.0
F1621.0
tp561
atp562
a(L9L
g2
(lp563
(g145
F2663.0
F2663.0
tp564
a(g72
F2663.0
F2663.0
tp565
atp566
a(L42L
g58
(lp567
(g66
F2425.0
F2425.0
tp568
atp569
a(L11L
g2
(lp570
(g36
F3170.0
F3170.0
tp571
atp572
a(L44L
g2
(lp573
(g18
F3172.0
F3172.0
tp574
atp575
a(L45L
g258
(lp576
(g92
F1759.0
F2101.0
tp577
a(g22
F2188.0
F2199.0
tp578
a(g8
F2199.0
F2663.0
tp579
a(g74
F2663.0
F2997.0
tp580
atp581
a(L46L
g2
(lp582
(g143
F1674.0
F1674.0
tp583
atp584
a(L47L
g2
(lp585
(g98
F2418.0
F2418.0
tp586
atp587
a(L34L
g2
(lp588
(g100
F2635.0
F2635.0
tp589
atp590
a(L43L
g58
(lp591
(g119
F3172.0
F3172.0
tp592
atp593
a(L14L
g157
(lp594
(g26
F1002.0
F1197.0
tp595
a(g135
F1197.0
F1360.0
tp596
a(g86
F1489.0
F1621.0
tp597
a(g68
F1621.0
F1768.0
tp598
a(g94
F1768.0
F2100.0
tp599
a(g32
F2100.0
F2218.0
tp600
a(g88
F2218.0
F2341.0
tp601
a(g139
F2341.0
F2344.0
tp602
a(g70
F2344.0
F2480.0
tp603
a(g14
F2997.0
F2999.0
tp604
a(g76
F2999.0
F3170.0
tp605
atp606
a(L24L
g2
(lp607
(g115
F2402.0
F2402.0
tp608
atp609
a(L27L
g258
(lp610
(g82
F1759.0
F2073.0
tp611
a(g96
F2100.0
F2418.0
tp612
atp613
a(L28L
g258
(lp614
(g43
F1035.0
F1759.0
tp615
a(g4
F1759.0
F2078.0
tp616
a(g129
F2101.0
F2109.0
tp617
a(g84
F2109.0
F2402.0
tp618
a(g49
F2402.0
F2412.0
tp619
a(g102
F2859.0
F2869.0
tp620
atp621
atp622
a.