(lp0
(F1718.0
F6.3
(lp1
(L2L
Vapac-sin#m3.2xlarge
p2
(lp3
(S'entry'
p4
I0
F0.0
tp5
a(VID00000
p6
I0
F32.0
tp7
a(VID00005
p8
F32.0
F36.0
tp9
a(VID00009
p10
F36.0
F37.0
tp11
a(VID00015
p12
F38.0
F40.0
tp13
a(VID00020
p14
F40.0
F1290.0
tp15
atp16
a(L6L
g2
(lp17
(VID00004
p18
F33.0
F36.0
tp19
a(VID00007
p20
F41.0
F42.0
tp21
a(VID00017
p22
F44.0
F1028.0
tp23
a(VID00023
p24
F1295.0
F1718.0
tp25
a(S'exit'
p26
F1718.0
F1718.0
tp27
atp28
a(L17L
g2
(lp29
(VID00010
p30
F36.0
F38.0
tp31
a(VID00014
p32
F38.0
F39.0
tp33
a(VID00018
p34
F45.0
F791.0
tp35
a(VID00021
p36
F1290.0
F1295.0
tp37
atp38
a(L18L
g2
(lp39
(VID00022
p40
F1295.0
F1295.0
tp41
atp42
a(L19L
g2
(lp43
(VID00006
p44
F35.0
F36.0
tp45
a(VID00012
p46
F42.0
F44.0
tp47
a(VID00013
p48
F44.0
F45.0
tp49
a(VID00016
p50
F45.0
F916.0
tp51
atp52
a(L20L
g2
(lp53
(VID00001
p54
F33.0
F35.0
tp55
a(VID00003
p56
F35.0
F38.0
tp57
a(VID00002
p58
F38.0
F41.0
tp59
a(VID00008
p60
F41.0
F42.0
tp61
a(VID00011
p62
F42.0
F43.0
tp63
a(VID00019
p64
F43.0
F1158.0
tp65
atp66
atp67
a(F1957.0
F5.75
(lp68
(L2L
g2
(lp69
(g4
I0
F0.0
tp70
a(g6
I0
F32.0
tp71
a(g56
F32.0
F35.0
tp72
a(g58
F35.0
F38.0
tp73
a(g10
F110.0
F111.0
tp74
a(g32
F111.0
F112.0
tp75
a(g14
F212.0
F1462.0
tp76
atp77
a(L4L
Vapac-sin#m3.xlarge
p78
(lp79
(g34
F37.0
F1529.0
tp80
atp81
a(L6L
g2
(lp82
(g22
F140.0
F1124.0
tp83
a(g24
F1534.0
F1957.0
tp84
atp85
a(L7L
g78
(lp86
(g26
F1957.0
F1957.0
tp87
atp88
a(L12L
Vapac-sin#m3.large
p89
(lp90
(g40
F1534.0
F1534.0
tp91
atp92
a(L17L
g2
(lp93
(g44
F35.0
F36.0
tp94
a(g8
F36.0
F40.0
tp95
a(g46
F138.0
F140.0
tp96
a(g50
F171.0
F1042.0
tp97
a(g36
F1529.0
F1534.0
tp98
atp99
a(L20L
g2
(lp100
(g54
F33.0
F35.0
tp101
a(g60
F35.0
F36.0
tp102
a(g48
F36.0
F37.0
tp103
a(g30
F40.0
F42.0
tp104
a(g64
F112.0
F1227.0
tp105
atp106
a(L25L
Vapac-sin#m1.small
p107
(lp108
(g18
F35.0
F109.0
tp109
a(g20
F109.0
F137.0
tp110
a(g62
F137.0
F171.0
tp111
a(g12
F171.0
F212.0
tp112
atp113
atp114
a(F2081.0
F5.04
(lp115
(L2L
g2
(lp116
(g56
F33.0
F36.0
tp117
a(g30
F40.0
F42.0
tp118
a(g12
F42.0
F44.0
tp119
a(g14
F44.0
F1294.0
tp120
atp121
a(L6L
g2
(lp122
(g18
F33.0
F36.0
tp123
a(g8
F36.0
F40.0
tp124
a(g58
F40.0
F43.0
tp125
a(g20
F43.0
F44.0
tp126
a(g10
F44.0
F45.0
tp127
a(g60
F45.0
F46.0
tp128
a(g46
F46.0
F48.0
tp129
a(g48
F48.0
F49.0
tp130
a(g22
F49.0
F1033.0
tp131
a(g24
F1658.0
F2081.0
tp132
atp133
a(L7L
Vapac-sin#m1.xlarge
p134
(lp135
(g26
F2081.0
F2081.0
tp136
atp137
a(L12L
g2
(lp138
(g40
F1658.0
F1658.0
tp139
atp140
a(L17L
g2
(lp141
(g4
I0
F0.0
tp142
a(g6
I0
F32.0
tp143
a(g54
F32.0
F34.0
tp144
a(g44
F34.0
F35.0
tp145
a(g62
F35.0
F36.0
tp146
a(g50
F36.0
F907.0
tp147
a(g34
F907.0
F1653.0
tp148
a(g36
F1653.0
F1658.0
tp149
atp150
a(L20L
g2
(lp151
(g32
F45.0
F46.0
tp152
a(g64
F46.0
F1161.0
tp153
atp154
atp155
a(F2319.0
F4.57
(lp156
(L2L
g2
(lp157
(g8
F33.0
F37.0
tp158
a(g46
F67.0
F69.0
tp159
a(g32
F69.0
F70.0
tp160
a(g14
F148.0
F1398.0
tp161
atp162
a(L6L
g2
(lp163
(g44
F34.0
F35.0
tp164
a(g62
F35.0
F36.0
tp165
a(g50
F36.0
F907.0
tp166
a(g22
F907.0
F1891.0
tp167
a(g24
F1896.0
F2319.0
tp168
a(g26
F2319.0
F2319.0
tp169
atp170
a(L7L
g78
(lp171
(g18
F33.0
F39.0
tp172
a(g48
F101.0
F103.0
tp173
a(g34
F103.0
F1595.0
tp174
atp175
a(L8L
g107
(lp176
(g56
F34.0
F99.0
tp177
a(g12
F107.0
F148.0
tp178
atp179
a(L10L
g107
(lp180
(g20
F38.0
F66.0
tp181
a(g30
F66.0
F106.0
tp182
atp183
a(L17L
g2
(lp184
(g4
I0
F0.0
tp185
a(g6
I0
F32.0
tp186
a(g54
F32.0
F34.0
tp187
a(g58
F34.0
F37.0
tp188
a(g10
F40.0
F41.0
tp189
a(g60
F100.0
F101.0
tp190
a(g64
F101.0
F1216.0
tp191
a(g36
F1891.0
F1896.0
tp192
atp193
a(L18L
Vapac-sin#m3.medium
p194
(lp195
(g40
F1896.0
F1896.0
tp196
atp197
atp198
a(F2468.0
F3.15
(lp199
(L17L
g2
(lp200
(g4
I0
F0.0
tp201
a(g6
I0
F32.0
tp202
a(g54
F32.0
F34.0
tp203
a(g44
F34.0
F35.0
tp204
a(g8
F35.0
F39.0
tp205
a(g60
F39.0
F40.0
tp206
a(g30
F40.0
F42.0
tp207
a(g50
F42.0
F913.0
tp208
a(g64
F913.0
F2028.0
tp209
a(g36
F2040.0
F2045.0
tp210
a(g24
F2045.0
F2468.0
tp211
atp212
a(L2L
g2
(lp213
(g18
F33.0
F36.0
tp214
a(g56
F36.0
F39.0
tp215
a(g20
F39.0
F40.0
tp216
a(g62
F40.0
F41.0
tp217
a(g32
F41.0
F42.0
tp218
a(g12
F42.0
F44.0
tp219
a(g14
F44.0
F1294.0
tp220
a(g34
F1294.0
F2040.0
tp221
atp222
a(L21L
Vapac-sin#m1.large
p223
(lp224
(g40
F2045.0
F2045.0
tp225
atp226
a(L6L
g78
(lp227
(g58
F33.0
F38.0
tp228
a(g10
F38.0
F40.0
tp229
a(g46
F41.0
F45.0
tp230
a(g48
F45.0
F47.0
tp231
a(g22
F47.0
F2014.0
tp232
atp233
a(L7L
g134
(lp234
(g26
F2468.0
F2468.0
tp235
atp236
atp237
a(F3196.0
F2.52
(lp238
(L17L
g2
(lp239
(g4
I0
F0.0
tp240
a(g6
I0
F32.0
tp241
a(g54
F32.0
F34.0
tp242
a(g44
F34.0
F35.0
tp243
a(g62
F35.0
F36.0
tp244
a(g50
F36.0
F907.0
tp245
a(g34
F907.0
F1653.0
tp246
a(g64
F1653.0
F2768.0
tp247
a(g36
F2768.0
F2773.0
tp248
a(g24
F2773.0
F3196.0
tp249
atp250
a(L2L
g78
(lp251
(g32
F60.0
F63.0
tp252
a(g12
F71.0
F74.0
tp253
a(g14
F74.0
F2574.0
tp254
a(g40
F2773.0
F2773.0
tp255
a(g26
F3196.0
F3196.0
tp256
atp257
a(L6L
g78
(lp258
(g18
F33.0
F39.0
tp259
a(g8
F39.0
F46.0
tp260
a(g56
F46.0
F51.0
tp261
a(g58
F51.0
F56.0
tp262
a(g20
F56.0
F58.0
tp263
a(g10
F58.0
F60.0
tp264
a(g60
F60.0
F62.0
tp265
a(g46
F62.0
F66.0
tp266
a(g48
F66.0
F68.0
tp267
a(g30
F68.0
F71.0
tp268
a(g22
F71.0
F2038.0
tp269
atp270
atp271
a(F6250.0
F2.2
(lp272
(L0L
g78
(lp273
(g18
F65.0
F71.0
tp274
a(g58
F71.0
F76.0
tp275
a(g20
F76.0
F78.0
tp276
a(g60
F78.0
F80.0
tp277
a(g48
F80.0
F82.0
tp278
a(g30
F82.0
F85.0
tp279
a(g22
F86.0
F2053.0
tp280
a(g34
F2053.0
F3545.0
tp281
atp282
a(L2L
g78
(lp283
(g4
I0
F0.0
tp284
a(g6
I0
F64.0
tp285
a(g8
F64.0
F71.0
tp286
a(g10
F72.0
F74.0
tp287
a(g32
F74.0
F77.0
tp288
a(g12
F85.0
F88.0
tp289
a(g14
F88.0
F2588.0
tp290
atp291
a(L8L
g78
(lp292
(g26
F6250.0
F6250.0
tp293
atp294
a(L15L
g134
(lp295
(g40
F4557.0
F4557.0
tp296
atp297
a(L17L
g89
(lp298
(g56
F65.0
F75.0
tp299
a(g64
F77.0
F4536.0
tp300
a(g36
F4536.0
F4557.0
tp301
a(g24
F4557.0
F6250.0
tp302
atp303
a(L19L
g89
(lp304
(g54
F65.0
F74.0
tp305
a(g44
F74.0
F77.0
tp306
a(g46
F79.0
F86.0
tp307
a(g62
F86.0
F91.0
tp308
a(g50
F91.0
F3575.0
tp309
atp310
atp311
a.