(lp0
(F2379.0
F10.71
(lp1
(L0L
Vapac-sin#m3.xlarge
p2
(lp3
(VID00009
p4
F10.0
F15.0
tp5
a(VID00011
p6
F15.0
F18.0
tp7
a(VID00037
p8
F21.0
F1683.0
tp9
atp10
a(L32L
Vapac-sin#m3.2xlarge
p11
(lp12
(VID00016
p13
F17.0
F17.0
tp14
atp15
a(L34L
g11
(lp16
(VID00008
p17
F9.0
F12.0
tp18
a(VID00030
p19
F13.0
F15.0
tp20
a(VID00033
p21
F22.0
F1403.0
tp22
a(VID00042
p23
F1469.0
F1473.0
tp24
atp25
a(L3L
g11
(lp26
(VID00007
p27
F9.0
F12.0
tp28
a(VID00040
p29
F15.0
F1863.0
tp30
a(VID00043
p31
F1863.0
F1868.0
tp32
a(VID00046
p33
F1876.0
F2379.0
tp34
atp35
a(L4L
g11
(lp36
(VID00012
p37
F20.0
F20.0
tp38
a(VID00022
p39
F20.0
F21.0
tp40
a(VID00023
p41
F21.0
F22.0
tp42
a(VID00035
p43
F23.0
F1469.0
tp44
a(VID00044
p45
F1868.0
F1876.0
tp46
atp47
a(L37L
g2
(lp48
(VID00002
p49
F17.0
F20.0
tp50
a(VID00021
p51
F20.0
F21.0
tp52
a(VID00019
p53
F21.0
F22.0
tp54
a(VID00039
p55
F23.0
F1452.0
tp56
atp57
a(L8L
g11
(lp58
(VID00000
p59
F2.0
F16.0
tp60
a(VID00004
p61
F16.0
F19.0
tp62
a(VID00036
p63
F19.0
F1333.0
tp64
atp65
a(L44L
g11
(lp66
(VID00006
p67
F16.0
F17.0
tp68
a(VID00003
p69
F17.0
F20.0
tp70
a(VID00032
p71
F21.0
F1424.0
tp72
atp73
a(L13L
g2
(lp74
(VID00026
p75
F17.0
F19.0
tp76
a(VID00017
p77
F19.0
F20.0
tp78
a(VID00024
p79
F22.0
F24.0
tp80
a(VID00031
p81
F24.0
F27.0
tp82
a(VID00041
p83
F27.0
F1840.0
tp84
atp85
a(L14L
g11
(lp86
(VID00005
p87
F16.0
F18.0
tp88
a(VID00013
p89
F20.0
F20.0
tp90
a(VID00015
p91
F20.0
F21.0
tp92
a(VID00029
p93
F22.0
F23.0
tp94
a(VID00034
p95
F24.0
F1172.0
tp96
atp97
a(L45L
Vapac-sin#m1.xlarge
p98
(lp99
(VID00045
p100
F1876.0
F1876.0
tp101
atp102
a(L25L
g11
(lp103
(S'entry'
p104
I0
F0.0
tp105
a(VID00001
p106
I0
F9.0
tp107
a(VID00010
p108
F9.0
F12.0
tp109
a(VID00020
p110
F12.0
F13.0
tp111
a(VID00027
p112
F20.0
F21.0
tp113
a(VID00014
p114
F21.0
F22.0
tp115
a(VID00025
p116
F22.0
F23.0
tp117
a(VID00018
p118
F23.0
F24.0
tp119
a(VID00028
p120
F24.0
F25.0
tp121
a(VID00038
p122
F25.0
F1188.0
tp123
a(S'exit'
p124
F2379.0
F2379.0
tp125
atp126
atp127
a(F2392.0
F10.08
(lp128
(L1L
g11
(lp129
(g87
F16.0
F18.0
tp130
a(g17
F18.0
F21.0
tp131
a(g71
F22.0
F1425.0
tp132
a(g23
F1877.0
F1881.0
tp133
atp134
a(L34L
g11
(lp135
(g59
F2.0
F16.0
tp136
a(g6
F16.0
F18.0
tp137
a(g114
F19.0
F20.0
tp138
a(g118
F21.0
F22.0
tp139
a(g19
F22.0
F24.0
tp140
a(g21
F24.0
F1405.0
tp141
atp142
a(L3L
g11
(lp143
(g27
F9.0
F12.0
tp144
a(g69
F16.0
F19.0
tp145
a(g41
F19.0
F20.0
tp146
a(g110
F20.0
F21.0
tp147
a(g75
F21.0
F22.0
tp148
a(g91
F22.0
F23.0
tp149
a(g29
F24.0
F1872.0
tp150
a(g31
F1872.0
F1877.0
tp151
a(g33
F1889.0
F2392.0
tp152
atp153
a(L4L
g11
(lp154
(g61
F16.0
F19.0
tp155
a(g49
F19.0
F21.0
tp156
a(g37
F21.0
F21.0
tp157
a(g51
F21.0
F22.0
tp158
a(g77
F22.0
F23.0
tp159
a(g112
F23.0
F24.0
tp160
a(g79
F24.0
F25.0
tp161
a(g43
F25.0
F1471.0
tp162
a(g45
F1881.0
F1889.0
tp163
atp164
a(L8L
g11
(lp165
(g4
F9.0
F12.0
tp166
a(g39
F21.0
F22.0
tp167
a(g63
F22.0
F1336.0
tp168
atp169
a(L10L
Vapac-sin#m1.small
p170
(lp171
(g124
F2392.0
F2392.0
tp172
atp173
a(L11L
g11
(lp174
(g89
F19.0
F19.0
tp175
atp176
a(L13L
g2
(lp177
(g67
F17.0
F20.0
tp178
a(g116
F23.0
F25.0
tp179
a(g81
F25.0
F28.0
tp180
a(g83
F28.0
F1841.0
tp181
atp182
a(L14L
g11
(lp183
(g55
F14.0
F729.0
tp184
a(g95
F729.0
F1877.0
tp185
atp186
a(L45L
g98
(lp187
(g100
F1889.0
F1889.0
tp188
atp189
a(L48L
g2
(lp190
(g8
F24.0
F1686.0
tp191
atp192
a(L25L
g11
(lp193
(g104
I0
F0.0
tp194
a(g106
I0
F9.0
tp195
a(g108
F9.0
F12.0
tp196
a(g53
F12.0
F13.0
tp197
a(g93
F13.0
F14.0
tp198
a(g120
F22.0
F23.0
tp199
a(g122
F23.0
F1186.0
tp200
atp201
a(L30L
g11
(lp202
(g13
F20.0
F20.0
tp203
atp204
atp205
a(F2677.0
F9.45
(lp206
(L1L
g11
(lp207
(g61
F14.0
F17.0
tp208
a(g71
F18.0
F1421.0
tp209
a(g23
F1883.0
F1887.0
tp210
atp211
a(L34L
g11
(lp212
(g104
I0
F0.0
tp213
a(g59
I0
F14.0
tp214
a(g6
F14.0
F16.0
tp215
a(g114
F17.0
F18.0
tp216
a(g118
F18.0
F19.0
tp217
a(g19
F20.0
F22.0
tp218
a(g21
F22.0
F1403.0
tp219
atp220
a(L3L
g11
(lp221
(g69
F14.0
F17.0
tp222
a(g39
F17.0
F18.0
tp223
a(g41
F18.0
F19.0
tp224
a(g110
F19.0
F20.0
tp225
a(g91
F20.0
F21.0
tp226
a(g29
F22.0
F1870.0
tp227
a(g31
F2161.0
F2166.0
tp228
a(g33
F2174.0
F2677.0
tp229
atp230
a(L4L
g11
(lp231
(g67
F14.0
F15.0
tp232
a(g49
F15.0
F17.0
tp233
a(g79
F18.0
F19.0
tp234
a(g43
F23.0
F1469.0
tp235
a(g45
F2166.0
F2174.0
tp236
atp237
a(L8L
g11
(lp238
(g108
F12.0
F15.0
tp239
a(g75
F15.0
F16.0
tp240
a(g63
F16.0
F1330.0
tp241
a(g8
F1330.0
F2161.0
tp242
atp243
a(L9L
g11
(lp244
(g37
F17.0
F17.0
tp245
atp246
a(L10L
g98
(lp247
(g124
F2677.0
F2677.0
tp248
atp249
a(L44L
g11
(lp250
(g13
F15.0
F15.0
tp251
atp252
a(L13L
g2
(lp253
(g4
F12.0
F17.0
tp254
a(g77
F17.0
F18.0
tp255
a(g112
F18.0
F20.0
tp256
a(g116
F21.0
F23.0
tp257
a(g81
F23.0
F26.0
tp258
a(g83
F26.0
F1839.0
tp259
atp260
a(L14L
g11
(lp261
(g106
F2.0
F11.0
tp262
a(g87
F14.0
F16.0
tp263
a(g89
F17.0
F17.0
tp264
a(g55
F20.0
F735.0
tp265
a(g95
F735.0
F1883.0
tp266
atp267
a(L45L
g98
(lp268
(g100
F2174.0
F2174.0
tp269
atp270
a(L25L
g11
(lp271
(g27
F11.0
F14.0
tp272
a(g17
F14.0
F17.0
tp273
a(g51
F17.0
F18.0
tp274
a(g53
F18.0
F19.0
tp275
a(g93
F19.0
F20.0
tp276
a(g120
F20.0
F21.0
tp277
a(g122
F21.0
F1184.0
tp278
atp279
atp280
a(F2864.0
F7.64
(lp281
(L0L
g2
(lp282
(g95
F21.0
F2317.0
tp283
atp284
a(L1L
g11
(lp285
(g87
F14.0
F16.0
tp286
a(g17
F16.0
F19.0
tp287
a(g71
F20.0
F1423.0
tp288
a(g55
F1423.0
F2138.0
tp289
a(g23
F2345.0
F2349.0
tp290
atp291
a(L34L
g11
(lp292
(g104
I0
F0.0
tp293
a(g59
I0
F14.0
tp294
a(g6
F14.0
F16.0
tp295
a(g114
F17.0
F18.0
tp296
a(g118
F19.0
F20.0
tp297
a(g83
F57.0
F964.0
tp298
a(g21
F964.0
F2345.0
tp299
atp300
a(L3L
g11
(lp301
(g69
F14.0
F17.0
tp302
a(g41
F17.0
F18.0
tp303
a(g110
F19.0
F20.0
tp304
a(g75
F50.0
F51.0
tp305
a(g91
F51.0
F52.0
tp306
a(g53
F52.0
F53.0
tp307
a(g19
F53.0
F55.0
tp308
a(g81
F55.0
F57.0
tp309
a(g29
F57.0
F1905.0
tp310
a(g31
F2348.0
F2353.0
tp311
a(g33
F2361.0
F2864.0
tp312
atp313
a(L4L
g11
(lp314
(g27
F11.0
F14.0
tp315
a(g61
F14.0
F17.0
tp316
a(g49
F17.0
F19.0
tp317
a(g37
F19.0
F19.0
tp318
a(g51
F19.0
F20.0
tp319
a(g79
F20.0
F21.0
tp320
a(g43
F98.0
F1544.0
tp321
a(g45
F2353.0
F2361.0
tp322
atp323
a(L8L
g11
(lp324
(g106
F2.0
F11.0
tp325
a(g4
F11.0
F14.0
tp326
a(g39
F19.0
F20.0
tp327
a(g63
F51.0
F1365.0
tp328
a(g8
F1365.0
F2196.0
tp329
atp330
a(L10L
g170
(lp331
(g124
F2864.0
F2864.0
tp332
atp333
a(L11L
g11
(lp334
(g89
F17.0
F17.0
tp335
atp336
a(L13L
g170
(lp337
(g67
F15.0
F49.0
tp338
a(g112
F49.0
F73.0
tp339
a(g116
F73.0
F98.0
tp340
a(g93
F98.0
F117.0
tp341
atp342
a(L45L
g98
(lp343
(g100
F2361.0
F2361.0
tp344
atp345
a(L25L
g2
(lp346
(g108
F12.0
F19.0
tp347
a(g77
F19.0
F20.0
tp348
a(g120
F20.0
F22.0
tp349
a(g122
F22.0
F2348.0
tp350
atp351
a(L30L
g11
(lp352
(g13
F50.0
F50.0
tp353
atp354
atp355
a(F3127.0
F7.09
(lp356
(L0L
Vapac-sin#m1.large
p357
(lp358
(g124
F3127.0
F3127.0
tp359
atp360
a(L1L
g11
(lp361
(g61
F14.0
F17.0
tp362
a(g4
F17.0
F20.0
tp363
a(g71
F149.0
F1552.0
tp364
a(g112
F1552.0
F1553.0
tp365
a(g55
F1553.0
F2268.0
tp366
a(g31
F2482.0
F2487.0
tp367
atp368
a(L34L
g11
(lp369
(g104
I0
F0.0
tp370
a(g59
I0
F14.0
tp371
a(g87
F14.0
F16.0
tp372
a(g91
F16.0
F17.0
tp373
a(g118
F17.0
F18.0
tp374
a(g53
F20.0
F21.0
tp375
a(g83
F207.0
F1114.0
tp376
a(g21
F1114.0
F2495.0
tp377
atp378
a(L3L
g11
(lp379
(g110
F14.0
F15.0
tp380
a(g6
F15.0
F17.0
tp381
a(g114
F17.0
F18.0
tp382
a(g120
F18.0
F19.0
tp383
a(g29
F163.0
F2011.0
tp384
a(g33
F2624.0
F3127.0
tp385
atp386
a(L4L
g11
(lp387
(g69
F14.0
F17.0
tp388
a(g116
F17.0
F18.0
tp389
a(g43
F18.0
F1464.0
tp390
a(g95
F1464.0
F2612.0
tp391
a(g45
F2616.0
F2624.0
tp392
atp393
a(L37L
g98
(lp394
(g100
F2624.0
F2624.0
tp395
atp396
a(L6L
g11
(lp397
(g13
F50.0
F50.0
tp398
atp399
a(L8L
g11
(lp400
(g106
F2.0
F11.0
tp401
a(g108
F11.0
F14.0
tp402
a(g51
F17.0
F18.0
tp403
a(g63
F154.0
F1468.0
tp404
a(g8
F1553.0
F2384.0
tp405
a(g23
F2612.0
F2616.0
tp406
atp407
a(L41L
g11
(lp408
(g37
F147.0
F147.0
tp409
atp410
a(L13L
g170
(lp411
(g67
F15.0
F49.0
tp412
a(g77
F103.0
F121.0
tp413
a(g19
F121.0
F163.0
tp414
a(g81
F163.0
F207.0
tp415
atp416
a(L47L
g170
(lp417
(g27
F13.0
F102.0
tp418
a(g49
F102.0
F146.0
tp419
a(g93
F146.0
F165.0
tp420
atp421
a(L25L
g2
(lp422
(g17
F12.0
F17.0
tp423
a(g39
F147.0
F149.0
tp424
a(g89
F149.0
F150.0
tp425
a(g41
F150.0
F152.0
tp426
a(g75
F152.0
F154.0
tp427
a(g79
F154.0
F156.0
tp428
a(g122
F156.0
F2482.0
tp429
atp430
atp431
a(F3297.0
F6.38
(lp432
(L1L
g11
(lp433
(g87
F16.0
F18.0
tp434
a(g17
F18.0
F21.0
tp435
a(g71
F78.0
F1481.0
tp436
a(g55
F1481.0
F2196.0
tp437
a(g23
F2782.0
F2786.0
tp438
atp439
a(L34L
g2
(lp440
(g6
F12.0
F15.0
tp441
a(g114
F19.0
F20.0
tp442
a(g21
F20.0
F2782.0
tp443
atp444
a(L3L
g11
(lp445
(g69
F16.0
F19.0
tp446
a(g41
F19.0
F20.0
tp447
a(g91
F20.0
F21.0
tp448
a(g118
F21.0
F22.0
tp449
a(g53
F22.0
F23.0
tp450
a(g81
F23.0
F25.0
tp451
a(g83
F25.0
F932.0
tp452
a(g29
F932.0
F2780.0
tp453
a(g31
F2780.0
F2785.0
tp454
a(g33
F2794.0
F3297.0
tp455
atp456
a(L4L
g11
(lp457
(g106
F2.0
F11.0
tp458
a(g27
F11.0
F14.0
tp459
a(g61
F16.0
F19.0
tp460
a(g49
F19.0
F21.0
tp461
a(g37
F21.0
F21.0
tp462
a(g51
F21.0
F22.0
tp463
a(g79
F22.0
F23.0
tp464
a(g43
F140.0
F1586.0
tp465
a(g95
F1586.0
F2734.0
tp466
a(g45
F2786.0
F2794.0
tp467
atp468
a(L8L
g11
(lp469
(g59
F2.0
F16.0
tp470
a(g4
F16.0
F19.0
tp471
a(g63
F54.0
F1368.0
tp472
a(g8
F1368.0
F2199.0
tp473
atp474
a(L10L
g170
(lp475
(g124
F3297.0
F3297.0
tp476
atp477
a(L11L
g11
(lp478
(g89
F19.0
F19.0
tp479
atp480
a(L13L
g170
(lp481
(g67
F17.0
F51.0
tp482
a(g39
F51.0
F78.0
tp483
a(g110
F78.0
F91.0
tp484
a(g112
F91.0
F115.0
tp485
a(g116
F115.0
F140.0
tp486
a(g93
F140.0
F159.0
tp487
atp488
a(L45L
g98
(lp489
(g100
F2794.0
F2794.0
tp490
atp491
a(L22L
g98
(lp492
(g104
I0
F0.0
tp493
atp494
a(L25L
g2
(lp495
(g108
F12.0
F19.0
tp496
a(g75
F52.0
F54.0
tp497
a(g77
F54.0
F55.0
tp498
a(g19
F92.0
F95.0
tp499
a(g120
F95.0
F97.0
tp500
a(g122
F97.0
F2423.0
tp501
atp502
a(L30L
g11
(lp503
(g13
F52.0
F52.0
tp504
atp505
atp506
a(F4752.0
F6.22
(lp507
(L33L
g170
(lp508
(g27
F23.0
F112.0
tp509
a(g75
F206.0
F231.0
tp510
a(g112
F231.0
F255.0
tp511
a(g114
F255.0
F270.0
tp512
a(g53
F270.0
F289.0
tp513
a(g81
F289.0
F333.0
tp514
a(g120
F333.0
F353.0
tp515
atp516
a(L2L
g2
(lp517
(g124
F4752.0
F4752.0
tp518
atp519
a(L3L
g2
(lp520
(g106
F4.0
F21.0
tp521
a(g108
F21.0
F28.0
tp522
a(g110
F28.0
F29.0
tp523
a(g19
F29.0
F32.0
tp524
a(g29
F32.0
F3729.0
tp525
a(g33
F3746.0
F4752.0
tp526
atp527
a(L4L
g2
(lp528
(g69
F182.0
F189.0
tp529
a(g43
F208.0
F3101.0
tp530
a(g31
F3729.0
F3738.0
tp531
atp532
a(L1L
g11
(lp533
(g49
F182.0
F184.0
tp534
a(g39
F184.0
F185.0
tp535
a(g71
F185.0
F1588.0
tp536
a(g55
F1588.0
F2303.0
tp537
a(g21
F2303.0
F3684.0
tp538
a(g23
F3684.0
F3688.0
tp539
a(g45
F3738.0
F3746.0
tp540
atp541
a(L8L
g2
(lp542
(g87
F182.0
F186.0
tp543
a(g63
F231.0
F2858.0
tp544
atp545
a(L42L
g357
(lp546
(g104
I0
F0.0
tp547
atp548
a(L43L
Vapac-sin#m1.medium
p549
(lp550
(g59
F3.0
F181.0
tp551
a(g6
F181.0
F204.0
tp552
a(g93
F289.0
F298.0
tp553
atp554
a(L13L
g2
(lp555
(g61
F182.0
F188.0
tp556
a(g4
F188.0
F193.0
tp557
a(g91
F193.0
F194.0
tp558
a(g83
F333.0
F2146.0
tp559
atp560
a(L14L
g2
(lp561
(g67
F182.0
F185.0
tp562
a(g17
F185.0
F190.0
tp563
a(g41
F190.0
F192.0
tp564
a(g79
F271.0
F273.0
tp565
a(g95
F273.0
F2569.0
tp566
atp567
a(L16L
Vapac-sin#m3.large
p568
(lp569
(g77
F113.0
F116.0
tp570
a(g8
F255.0
F3579.0
tp571
atp572
a(L20L
g11
(lp573
(g100
F3746.0
F3746.0
tp574
atp575
a(L25L
g2
(lp576
(g51
F204.0
F205.0
tp577
a(g13
F205.0
F206.0
tp578
a(g116
F206.0
F208.0
tp579
a(g118
F208.0
F210.0
tp580
a(g122
F353.0
F2679.0
tp581
atp582
a(L10L
g11
(lp583
(g37
F184.0
F184.0
tp584
atp585
a(L30L
g11
(lp586
(g89
F189.0
F189.0
tp587
atp588
atp589
a(F4884.0
F6.14
(lp590
(L32L
g98
(lp591
(g100
F3878.0
F3878.0
tp592
atp593
a(L33L
g170
(lp594
(g27
F23.0
F112.0
tp595
a(g51
F112.0
F127.0
tp596
a(g112
F127.0
F151.0
tp597
a(g114
F371.0
F386.0
tp598
a(g53
F386.0
F405.0
tp599
a(g81
F405.0
F449.0
tp600
a(g120
F449.0
F469.0
tp601
atp602
a(L2L
g2
(lp603
(g124
F4884.0
F4884.0
tp604
atp605
a(L3L
g2
(lp606
(g106
F4.0
F21.0
tp607
a(g108
F21.0
F28.0
tp608
a(g19
F29.0
F32.0
tp609
a(g29
F32.0
F3729.0
tp610
a(g33
F3878.0
F4884.0
tp611
atp612
a(L4L
g2
(lp613
(g69
F365.0
F372.0
tp614
a(g43
F378.0
F3271.0
tp615
a(g31
F3729.0
F3738.0
tp616
atp617
a(L1L
g11
(lp618
(g49
F364.0
F366.0
tp619
a(g39
F366.0
F367.0
tp620
a(g71
F367.0
F1770.0
tp621
a(g55
F1770.0
F2485.0
tp622
a(g21
F2485.0
F3866.0
tp623
a(g23
F3866.0
F3870.0
tp624
a(g45
F3870.0
F3878.0
tp625
atp626
a(L8L
g2
(lp627
(g87
F365.0
F369.0
tp628
a(g75
F372.0
F374.0
tp629
a(g63
F374.0
F3001.0
tp630
atp631
a(L42L
g357
(lp632
(g104
I0
F0.0
tp633
atp634
a(L43L
g170
(lp635
(g59
F7.0
F363.0
tp636
a(g118
F373.0
F394.0
tp637
a(g93
F405.0
F424.0
tp638
atp639
a(L13L
g2
(lp640
(g61
F364.0
F370.0
tp641
a(g4
F370.0
F375.0
tp642
a(g91
F375.0
F376.0
tp643
a(g83
F449.0
F2262.0
tp644
atp645
a(L14L
g2
(lp646
(g67
F364.0
F367.0
tp647
a(g17
F367.0
F372.0
tp648
a(g41
F372.0
F374.0
tp649
a(g79
F387.0
F389.0
tp650
a(g95
F389.0
F2685.0
tp651
atp652
a(L16L
g568
(lp653
(g6
F22.0
F29.0
tp654
a(g77
F113.0
F116.0
tp655
a(g8
F151.0
F3475.0
tp656
atp657
a(L25L
g2
(lp658
(g110
F28.0
F29.0
tp659
a(g116
F376.0
F378.0
tp660
a(g122
F469.0
F2795.0
tp661
atp662
a(L10L
g11
(lp663
(g37
F366.0
F366.0
tp664
atp665
a(L30L
g11
(lp666
(g89
F372.0
F372.0
tp667
a(g13
F372.0
F372.0
tp668
atp669
atp670
a.