(lp0
(F9192.0
F59.22
(lp1
(L2L
Vapac-sin#m3.2xlarge
p2
(lp3
(VID00020
p4
F11.0
F11.0
tp5
a(VID00068
p6
F11.0
F11.0
tp7
a(VID00021
p8
F11.0
F12.0
tp9
a(VID00002
p10
F12.0
F12.0
tp11
a(VID00081
p12
F12.0
F4123.0
tp13
atp14
a(L3L
g2
(lp15
(VID00025
p16
F11.0
F11.0
tp17
a(VID00030
p18
F11.0
F11.0
tp19
a(VID00027
p20
F11.0
F11.0
tp21
a(VID00057
p22
F12.0
F12.0
tp23
a(VID00082
p24
F12.0
F6121.0
tp25
atp26
a(L6L
g2
(lp27
(VID00039
p28
F12.0
F12.0
tp29
a(VID00019
p30
F12.0
F12.0
tp31
atp32
a(L10L
Vapac-sin#m3.xlarge
p33
(lp34
(VID00007
p35
F11.0
F11.0
tp36
atp37
a(L12L
g2
(lp38
(VID00085
p39
F11.0
F4377.0
tp40
atp41
a(L13L
Vapac-sin#m1.xlarge
p42
(lp43
(VID00047
p44
F11.0
F11.0
tp45
atp46
a(L16L
g42
(lp47
(VID00043
p48
F12.0
F12.0
tp49
atp50
a(L17L
g2
(lp51
(VID00059
p52
F11.0
F11.0
tp53
atp54
a(L18L
g2
(lp55
(VID00056
p56
F11.0
F11.0
tp57
a(VID00013
p58
F11.0
F11.0
tp59
a(VID00035
p60
F11.0
F11.0
tp61
atp62
a(L21L
g2
(lp63
(VID00026
p64
F12.0
F12.0
tp65
atp66
a(L23L
g2
(lp67
(VID00073
p68
F11.0
F4052.0
tp69
a(VID00088
p70
F4052.0
F7202.0
tp71
atp72
a(L26L
Vapac-sin#m3.large
p73
(lp74
(VID00072
p75
F11.0
F11.0
tp76
atp77
a(L27L
g73
(lp78
(S'exit'
p79
F9192.0
F9192.0
tp80
atp81
a(L28L
g2
(lp82
(VID00050
p83
F12.0
F12.0
tp84
a(VID00083
p85
F12.0
F4169.0
tp86
atp87
a(L29L
g33
(lp88
(VID00067
p89
F12.0
F12.0
tp90
atp91
a(L30L
g73
(lp92
(VID00038
p93
F11.0
F11.0
tp94
atp95
a(L32L
g2
(lp96
(VID00054
p97
F11.0
F11.0
tp98
a(VID00031
p99
F11.0
F11.0
tp100
atp101
a(L33L
g2
(lp102
(VID00053
p103
F11.0
F11.0
tp104
a(VID00003
p105
F11.0
F11.0
tp106
atp107
a(L34L
g2
(lp108
(VID00092
p109
F11.0
F4975.0
tp110
atp111
a(L35L
g2
(lp112
(VID00049
p113
F11.0
F11.0
tp114
a(VID00014
p115
F11.0
F11.0
tp116
a(VID00018
p117
F11.0
F11.0
tp118
atp119
a(L37L
g2
(lp120
(VID00005
p121
F11.0
F11.0
tp122
atp123
a(L40L
g42
(lp124
(VID00041
p125
F11.0
F11.0
tp126
atp127
a(L41L
g73
(lp128
(VID00048
p129
F11.0
F11.0
tp130
atp131
a(L42L
g2
(lp132
(VID00040
p133
F11.0
F11.0
tp134
a(VID00090
p135
F11.0
F4362.0
tp136
atp137
a(L43L
g2
(lp138
(VID00074
p139
F12.0
F5102.0
tp140
atp141
a(L45L
g73
(lp142
(VID00070
p143
F11.0
F11.0
tp144
a(VID00032
p145
F11.0
F11.0
tp146
atp147
a(L46L
g42
(lp148
(VID00098
p149
F7267.0
F7267.0
tp150
atp151
a(L49L
g2
(lp152
(VID00077
p153
F11.0
F6272.0
tp154
atp155
a(L50L
g2
(lp156
(VID00024
p157
F11.0
F11.0
tp158
a(VID00087
p159
F12.0
F4222.0
tp160
atp161
a(L51L
g2
(lp162
(VID00055
p163
F11.0
F11.0
tp164
a(VID00012
p165
F11.0
F11.0
tp166
a(VID00037
p167
F11.0
F11.0
tp168
a(VID00010
p169
F11.0
F11.0
tp170
atp171
a(L52L
g2
(lp172
(S'entry'
p173
I0
F0.0
tp174
a(VID00000
p175
I0
F11.0
tp176
a(VID00093
p177
F13.0
F4786.0
tp178
atp179
a(L54L
g2
(lp180
(VID00028
p181
F11.0
F11.0
tp182
a(VID00011
p183
F11.0
F11.0
tp184
a(VID00015
p185
F11.0
F12.0
tp186
a(VID00091
p187
F12.0
F5396.0
tp188
atp189
a(L55L
g33
(lp190
(VID00066
p191
F11.0
F11.0
tp192
atp193
a(L56L
g33
(lp194
(VID00046
p195
F11.0
F11.0
tp196
atp197
a(L57L
g42
(lp198
(VID00051
p199
F11.0
F11.0
tp200
atp201
a(L60L
g2
(lp202
(VID00060
p203
F12.0
F12.0
tp204
atp205
a(L61L
g2
(lp206
(VID00063
p207
F12.0
F12.0
tp208
atp209
a(L62L
g2
(lp210
(VID00004
p211
F11.0
F11.0
tp212
a(VID00089
p213
F11.0
F6577.0
tp214
atp215
a(L64L
g2
(lp216
(VID00016
p217
F11.0
F11.0
tp218
atp219
a(L65L
g33
(lp220
(VID00017
p221
F11.0
F11.0
tp222
atp223
a(L67L
g2
(lp224
(VID00076
p225
F11.0
F5567.0
tp226
atp227
a(L68L
g2
(lp228
(VID00022
p229
F11.0
F11.0
tp230
a(VID00084
p231
F12.0
F3567.0
tp232
atp233
a(L70L
g2
(lp234
(VID00006
p235
F11.0
F11.0
tp236
a(VID00042
p237
F11.0
F11.0
tp238
atp239
a(L71L
g2
(lp240
(VID00052
p241
F11.0
F11.0
tp242
a(VID00071
p243
F11.0
F11.0
tp244
a(VID00058
p245
F11.0
F11.0
tp246
atp247
a(L74L
g2
(lp248
(VID00069
p249
F12.0
F13.0
tp250
a(VID00095
p251
F13.0
F4887.0
tp252
atp253
a(L76L
g33
(lp254
(VID00044
p255
F11.0
F11.0
tp256
atp257
a(L80L
g2
(lp258
(VID00078
p259
F11.0
F4524.0
tp260
atp261
a(L82L
g2
(lp262
(VID00001
p263
F11.0
F11.0
tp264
a(VID00094
p265
F11.0
F7228.0
tp266
a(VID00097
p267
F7264.0
F7267.0
tp268
a(VID00099
p269
F7267.0
F9192.0
tp270
atp271
a(L85L
g33
(lp272
(VID00033
p273
F12.0
F12.0
tp274
a(VID00036
p275
F12.0
F12.0
tp276
atp277
a(L87L
g2
(lp278
(VID00045
p279
F12.0
F12.0
tp280
a(VID00086
p281
F12.0
F5965.0
tp282
atp283
a(L88L
g33
(lp284
(VID00034
p285
F11.0
F11.0
tp286
a(VID00064
p287
F11.0
F11.0
tp288
a(VID00065
p289
F11.0
F11.0
tp290
atp291
a(L91L
g2
(lp292
(VID00008
p293
F11.0
F11.0
tp294
a(VID00061
p295
F11.0
F11.0
tp296
atp297
a(L92L
g2
(lp298
(VID00009
p299
F11.0
F12.0
tp300
a(VID00096
p301
F40.0
F4040.0
tp302
atp303
a(L93L
g2
(lp304
(VID00079
p305
F11.0
F7264.0
tp306
atp307
a(L96L
g2
(lp308
(VID00080
p309
F11.0
F5585.0
tp310
atp311
a(L97L
g2
(lp312
(VID00075
p313
F11.0
F6149.0
tp314
atp315
a(L99L
g2
(lp316
(VID00023
p317
F11.0
F11.0
tp318
a(VID00062
p319
F11.0
F11.0
tp320
atp321
a(L101L
g33
(lp322
(VID00029
p323
F11.0
F11.0
tp324
atp325
atp326
a(F12711.0
F47.88
(lp327
(L0L
g33
(lp328
(g317
F11.0
F12.0
tp329
a(g319
F12.0
F12.0
tp330
a(g187
F12.0
F10781.0
tp331
atp332
a(L3L
g2
(lp333
(g20
F11.0
F11.0
tp334
a(g145
F11.0
F11.0
tp335
atp336
a(L5L
g33
(lp337
(g44
F12.0
F12.0
tp338
atp339
a(L6L
g33
(lp340
(g28
F6313.0
F6313.0
tp341
atp342
a(L8L
g33
(lp343
(g89
F11.0
F11.0
tp344
atp345
a(L9L
g2
(lp346
(g293
F11.0
F11.0
tp347
atp348
a(L10L
g2
(lp349
(g105
F11.0
F11.0
tp350
a(g85
F12.0
F4169.0
tp351
a(g213
F4169.0
F10735.0
tp352
atp353
a(L11L
g42
(lp354
(g133
F11.0
F11.0
tp355
atp356
a(L13L
g2
(lp357
(g22
F4053.0
F4053.0
tp358
atp359
a(L14L
g73
(lp360
(g125
F11.0
F11.0
tp361
atp362
a(L15L
g2
(lp363
(g243
F12.0
F12.0
tp364
atp365
a(L16L
g33
(lp366
(g295
F11.0
F11.0
tp367
atp368
a(L23L
g73
(lp369
(g103
F11.0
F11.0
tp370
atp371
a(L24L
g2
(lp372
(g229
F11.0
F11.0
tp373
atp374
a(L25L
g42
(lp375
(g99
F11.0
F11.0
tp376
atp377
a(L27L
g2
(lp378
(g68
F11.0
F4052.0
tp379
a(g299
F4052.0
F4053.0
tp380
a(g165
F4053.0
F4053.0
tp381
a(g24
F4053.0
F10162.0
tp382
atp383
a(L28L
g2
(lp384
(g241
F11.0
F11.0
tp385
atp386
a(L29L
g33
(lp387
(g70
F11.0
F6312.0
tp388
a(g185
F6312.0
F6313.0
tp389
atp390
a(L32L
g2
(lp391
(g117
F11.0
F11.0
tp392
atp393
a(L33L
g2
(lp394
(g269
F10786.0
F12711.0
tp395
atp396
a(L34L
g2
(lp397
(g153
F11.0
F6272.0
tp398
a(g159
F6313.0
F10523.0
tp399
atp400
a(L35L
g2
(lp401
(g255
F11.0
F11.0
tp402
a(g191
F11.0
F11.0
tp403
atp404
a(L36L
g2
(lp405
(g279
F12.0
F12.0
tp406
a(g64
F12.0
F12.0
tp407
a(g183
F12.0
F12.0
tp408
atp409
a(L43L
g2
(lp410
(g235
F11.0
F11.0
tp411
a(g259
F11.0
F4524.0
tp412
a(g225
F4524.0
F10080.0
tp413
a(g267
F10783.0
F10786.0
tp414
atp415
a(L44L
g33
(lp416
(g35
F11.0
F11.0
tp417
atp418
a(L49L
g2
(lp419
(g121
F11.0
F11.0
tp420
a(g30
F11.0
F11.0
tp421
atp422
a(L51L
g33
(lp423
(g52
F12.0
F12.0
tp424
atp425
a(L52L
g2
(lp426
(g173
I0
F0.0
tp427
a(g175
I0
F11.0
tp428
a(g109
F11.0
F4975.0
tp429
a(g39
F4975.0
F9341.0
tp430
atp431
a(L53L
g33
(lp432
(g16
F11.0
F11.0
tp433
atp434
a(L54L
g2
(lp435
(g245
F4053.0
F4053.0
tp436
atp437
a(L55L
Vapac-sin#m1.large
p438
(lp439
(g149
F10786.0
F10786.0
tp440
atp441
a(L56L
g2
(lp442
(g4
F11.0
F11.0
tp443
atp444
a(L60L
g73
(lp445
(g289
F11.0
F11.0
tp446
atp447
a(L61L
g2
(lp448
(g287
F11.0
F11.0
tp449
atp450
a(L62L
g2
(lp451
(g181
F11.0
F11.0
tp452
a(g323
F11.0
F11.0
tp453
a(g58
F11.0
F11.0
tp454
a(g221
F11.0
F11.0
tp455
a(g93
F11.0
F11.0
tp456
atp457
a(L63L
g33
(lp458
(g79
F12711.0
F12711.0
tp459
atp460
a(L64L
g2
(lp461
(g207
F6313.0
F6313.0
tp462
atp463
a(L67L
g2
(lp464
(g195
F11.0
F11.0
tp465
a(g211
F11.0
F11.0
tp466
atp467
a(L68L
g2
(lp468
(g8
F11.0
F12.0
tp469
a(g83
F12.0
F12.0
tp470
a(g301
F40.0
F4040.0
tp471
a(g281
F4040.0
F9993.0
tp472
atp473
a(L70L
g2
(lp474
(g265
F11.0
F7228.0
tp475
a(g231
F7228.0
F10783.0
tp476
atp477
a(L71L
g2
(lp478
(g275
F4053.0
F4053.0
tp479
atp480
a(L72L
g2
(lp481
(g249
F12.0
F13.0
tp482
a(g139
F13.0
F5103.0
tp483
a(g309
F5103.0
F10677.0
tp484
atp485
a(L76L
g42
(lp486
(g273
F4053.0
F4053.0
tp487
a(g285
F4053.0
F4053.0
tp488
atp489
a(L77L
g2
(lp490
(g10
F11.0
F11.0
tp491
atp492
a(L78L
g2
(lp493
(g143
F11.0
F11.0
tp494
a(g56
F11.0
F11.0
tp495
a(g177
F13.0
F4786.0
tp496
a(g251
F4786.0
F9660.0
tp497
atp498
a(L80L
g2
(lp499
(g113
F11.0
F11.0
tp500
atp501
a(L84L
g42
(lp502
(g75
F11.0
F11.0
tp503
a(g48
F11.0
F11.0
tp504
atp505
a(L87L
g33
(lp506
(g135
F11.0
F8714.0
tp507
atp508
a(L88L
g42
(lp509
(g163
F11.0
F11.0
tp510
atp511
a(L90L
g2
(lp512
(g129
F11.0
F11.0
tp513
a(g18
F11.0
F11.0
tp514
a(g169
F11.0
F11.0
tp515
a(g217
F11.0
F11.0
tp516
atp517
a(L91L
g42
(lp518
(g203
F4053.0
F4053.0
tp519
atp520
a(L92L
g2
(lp521
(g157
F11.0
F11.0
tp522
a(g263
F11.0
F11.0
tp523
a(g313
F11.0
F6149.0
tp524
a(g12
F6149.0
F10260.0
tp525
atp526
a(L93L
g42
(lp527
(g97
F11.0
F11.0
tp528
a(g237
F11.0
F11.0
tp529
atp530
a(L96L
g2
(lp531
(g6
F11.0
F11.0
tp532
a(g305
F11.0
F7264.0
tp533
atp534
a(L97L
g2
(lp535
(g115
F11.0
F11.0
tp536
atp537
a(L98L
g33
(lp538
(g60
F12.0
F12.0
tp539
atp540
a(L100L
g2
(lp541
(g167
F11.0
F11.0
tp542
atp543
a(L101L
g33
(lp544
(g199
F11.0
F11.0
tp545
atp546
atp547
a(F23248.0
F45.99
(lp548
(L1L
g2
(lp549
(g4
F11.0
F11.0
tp550
atp551
a(L3L
g2
(lp552
(g195
F11.0
F11.0
tp553
a(g75
F11.0
F11.0
tp554
a(g35
F11.0
F11.0
tp555
atp556
a(L4L
g438
(lp557
(g167
F11.0
F11.0
tp558
atp559
a(L5L
g33
(lp560
(g305
F13.0
F14519.0
tp561
a(g70
F14519.0
F20820.0
tp562
atp563
a(L8L
g33
(lp564
(g143
F11.0
F11.0
tp565
a(g99
F11.0
F11.0
tp566
atp567
a(L10L
g2
(lp568
(g24
F11.0
F6120.0
tp569
a(g85
F6120.0
F10277.0
tp570
a(g207
F10277.0
F10277.0
tp571
atp572
a(L12L
g2
(lp573
(g221
F11.0
F11.0
tp574
atp575
a(L13L
g33
(lp576
(g225
F11.0
F11124.0
tp577
a(g12
F11124.0
F19347.0
tp578
a(g267
F21316.0
F21323.0
tp579
atp580
a(L14L
g2
(lp581
(g317
F11.0
F11.0
tp582
a(g105
F11.0
F11.0
tp583
a(g203
F11.0
F11.0
tp584
atp585
a(L15L
g2
(lp586
(g22
F13.0
F13.0
tp587
atp588
a(L19L
g33
(lp589
(g113
F11.0
F12.0
tp590
a(g68
F12.0
F8093.0
tp591
a(g213
F8093.0
F21225.0
tp592
atp593
a(L21L
g33
(lp594
(g243
F11.0
F11.0
tp595
a(g93
F11.0
F11.0
tp596
atp597
a(L22L
g33
(lp598
(g16
F11.0
F11.0
tp599
atp600
a(L24L
g2
(lp601
(g121
F11.0
F11.0
tp602
a(g319
F11.0
F11.0
tp603
atp604
a(L25L
g2
(lp605
(g255
F11.0
F11.0
tp606
a(g241
F11.0
F11.0
tp607
atp608
a(L29L
g33
(lp609
(g60
F11.0
F11.0
tp610
a(g89
F11.0
F11.0
tp611
atp612
a(L33L
g33
(lp613
(g153
F11.0
F12532.0
tp614
a(g159
F12532.0
F20953.0
tp615
atp616
a(L34L
g2
(lp617
(g285
F11.0
F11.0
tp618
atp619
a(L35L
g33
(lp620
(g83
F11.0
F11.0
tp621
atp622
a(L36L
g73
(lp623
(g145
F11.0
F11.0
tp624
a(g133
F11.0
F11.0
tp625
atp626
a(L41L
g2
(lp627
(g103
F11.0
F11.0
tp628
a(g56
F11.0
F11.0
tp629
a(g183
F11.0
F11.0
tp630
atp631
a(L47L
g2
(lp632
(g229
F11.0
F11.0
tp633
atp634
a(L48L
g438
(lp635
(g79
F23248.0
F23248.0
tp636
atp637
a(L49L
g33
(lp638
(g181
F11.0
F11.0
tp639
a(g64
F11.0
F11.0
tp640
a(g58
F11.0
F11.0
tp641
atp642
a(L50L
Vapac-sin#m3.medium
p643
(lp644
(g48
F11.0
F11.0
tp645
atp646
a(L51L
g33
(lp647
(g299
F11.0
F12.0
tp648
a(g177
F14.0
F9561.0
tp649
atp650
a(L52L
g2
(lp651
(g173
I0
F0.0
tp652
a(g175
I0
F11.0
tp653
a(g20
F11.0
F11.0
tp654
a(g109
F11.0
F4975.0
tp655
a(g39
F4975.0
F9341.0
tp656
a(g135
F9341.0
F13692.0
tp657
atp658
a(L53L
g2
(lp659
(g211
F11.0
F11.0
tp660
a(g30
F11.0
F11.0
tp661
atp662
a(L55L
g2
(lp663
(g52
F11.0
F11.0
tp664
a(g217
F11.0
F11.0
tp665
a(g117
F11.0
F11.0
tp666
a(g237
F11.0
F11.0
tp667
atp668
a(L56L
g2
(lp669
(g157
F11.0
F11.0
tp670
a(g295
F11.0
F11.0
tp671
atp672
a(L58L
g33
(lp673
(g191
F11.0
F11.0
tp674
atp675
a(L61L
g2
(lp676
(g44
F11.0
F11.0
tp677
atp678
a(L62L
g33
(lp679
(g245
F11.0
F11.0
tp680
atp681
a(L64L
g33
(lp682
(g289
F3566.0
F3566.0
tp683
atp684
a(L65L
g33
(lp685
(g251
F11.0
F9759.0
tp686
a(g287
F9759.0
F9759.0
tp687
a(g185
F9759.0
F9760.0
tp688
atp689
a(L67L
g2
(lp690
(g28
F9760.0
F9760.0
tp691
atp692
a(L68L
Vapac-sin#m1.medium
p693
(lp694
(g149
F21323.0
F21323.0
tp695
atp696
a(L70L
g2
(lp697
(g249
F13.0
F14.0
tp698
a(g301
F40.0
F4040.0
tp699
a(g265
F4040.0
F11257.0
tp700
a(g281
F11257.0
F17210.0
tp701
atp702
a(L72L
g2
(lp703
(g139
F11.0
F5101.0
tp704
a(g309
F5101.0
F10675.0
tp705
atp706
a(L73L
g33
(lp707
(g8
F11.0
F13.0
tp708
a(g259
F13.0
F9039.0
tp709
a(g313
F9039.0
F21316.0
tp710
atp711
a(L76L
g33
(lp712
(g323
F11.0
F11.0
tp713
atp714
a(L78L
g2
(lp715
(g6
F11.0
F11.0
tp716
a(g165
F11.0
F11.0
tp717
atp718
a(L79L
g2
(lp719
(g129
F11.0
F11.0
tp720
atp721
a(L82L
g2
(lp722
(g269
F21323.0
F23248.0
tp723
atp724
a(L84L
g33
(lp725
(g279
F13.0
F13.0
tp726
a(g163
F13.0
F13.0
tp727
a(g273
F13.0
F13.0
tp728
atp729
a(L86L
g2
(lp730
(g235
F11.0
F11.0
tp731
a(g18
F11.0
F11.0
tp732
a(g97
F11.0
F11.0
tp733
a(g10
F11.0
F11.0
tp734
a(g275
F11.0
F11.0
tp735
atp736
a(L88L
g2
(lp737
(g199
F11.0
F11.0
tp738
atp739
a(L91L
g2
(lp740
(g263
F11.0
F11.0
tp741
atp742
a(L92L
g2
(lp743
(g169
F11.0
F11.0
tp744
a(g115
F11.0
F11.0
tp745
atp746
a(L99L
g33
(lp747
(g187
F11.0
F10780.0
tp748
atp749
a(L101L
g2
(lp750
(g293
F11.0
F11.0
tp751
a(g231
F11.0
F3566.0
tp752
a(g125
F3566.0
F3566.0
tp753
atp754
atp755
a(F24174.0
F45.67
(lp756
(L1L
g2
(lp757
(g4
F11.0
F11.0
tp758
atp759
a(L3L
g2
(lp760
(g195
F11.0
F11.0
tp761
a(g75
F11.0
F11.0
tp762
a(g35
F11.0
F11.0
tp763
atp764
a(L4L
g438
(lp765
(g167
F11.0
F11.0
tp766
atp767
a(L5L
g33
(lp768
(g305
F13.0
F14519.0
tp769
a(g70
F14519.0
F20820.0
tp770
atp771
a(L8L
g33
(lp772
(g143
F11.0
F11.0
tp773
a(g99
F11.0
F11.0
tp774
atp775
a(L10L
g2
(lp776
(g24
F11.0
F6120.0
tp777
a(g85
F6120.0
F10277.0
tp778
a(g207
F10277.0
F10277.0
tp779
atp780
a(L12L
g2
(lp781
(g56
F11.0
F11.0
tp782
a(g221
F11.0
F11.0
tp783
atp784
a(L13L
g73
(lp785
(g225
F11.0
F22236.0
tp786
a(g267
F22236.0
F22249.0
tp787
atp788
a(L14L
g2
(lp789
(g317
F11.0
F11.0
tp790
a(g105
F11.0
F11.0
tp791
a(g203
F11.0
F11.0
tp792
atp793
a(L15L
g2
(lp794
(g22
F13.0
F13.0
tp795
atp796
a(L17L
g438
(lp797
(g129
F11.0
F11.0
tp798
atp799
a(L19L
g33
(lp800
(g113
F11.0
F12.0
tp801
a(g68
F12.0
F8093.0
tp802
a(g213
F8093.0
F21225.0
tp803
atp804
a(L21L
g33
(lp805
(g243
F11.0
F11.0
tp806
a(g93
F11.0
F11.0
tp807
atp808
a(L22L
g33
(lp809
(g16
F11.0
F11.0
tp810
atp811
a(L24L
g2
(lp812
(g121
F11.0
F11.0
tp813
a(g319
F11.0
F11.0
tp814
atp815
a(L25L
g2
(lp816
(g255
F11.0
F11.0
tp817
a(g241
F11.0
F11.0
tp818
atp819
a(L29L
g33
(lp820
(g60
F11.0
F11.0
tp821
a(g89
F11.0
F11.0
tp822
atp823
a(L33L
g33
(lp824
(g153
F11.0
F12532.0
tp825
a(g159
F12532.0
F20953.0
tp826
atp827
a(L34L
g2
(lp828
(g285
F11.0
F11.0
tp829
atp830
a(L35L
g33
(lp831
(g83
F11.0
F11.0
tp832
atp833
a(L36L
g73
(lp834
(g145
F11.0
F11.0
tp835
a(g133
F11.0
F11.0
tp836
atp837
a(L41L
g2
(lp838
(g103
F11.0
F11.0
tp839
a(g183
F11.0
F11.0
tp840
atp841
a(L47L
g2
(lp842
(g229
F11.0
F11.0
tp843
atp844
a(L48L
g438
(lp845
(g79
F24174.0
F24174.0
tp846
atp847
a(L49L
g33
(lp848
(g181
F11.0
F11.0
tp849
a(g64
F11.0
F11.0
tp850
a(g58
F11.0
F11.0
tp851
atp852
a(L50L
g643
(lp853
(g48
F11.0
F11.0
tp854
atp855
a(L51L
g33
(lp856
(g299
F11.0
F12.0
tp857
a(g12
F13.0
F8236.0
tp858
a(g177
F8236.0
F17783.0
tp859
atp860
a(L52L
g2
(lp861
(g173
I0
F0.0
tp862
a(g175
I0
F11.0
tp863
a(g20
F11.0
F11.0
tp864
a(g109
F11.0
F4975.0
tp865
a(g39
F4975.0
F9341.0
tp866
a(g135
F9341.0
F13692.0
tp867
atp868
a(L53L
g2
(lp869
(g211
F11.0
F11.0
tp870
a(g30
F11.0
F11.0
tp871
atp872
a(L55L
g2
(lp873
(g52
F11.0
F11.0
tp874
a(g217
F11.0
F11.0
tp875
a(g117
F11.0
F11.0
tp876
a(g237
F11.0
F11.0
tp877
atp878
a(L56L
g2
(lp879
(g157
F11.0
F11.0
tp880
a(g295
F11.0
F11.0
tp881
atp882
a(L58L
g33
(lp883
(g191
F11.0
F11.0
tp884
atp885
a(L61L
g2
(lp886
(g44
F11.0
F11.0
tp887
atp888
a(L62L
g33
(lp889
(g245
F11.0
F11.0
tp890
atp891
a(L64L
g33
(lp892
(g289
F3566.0
F3566.0
tp893
atp894
a(L65L
g33
(lp895
(g251
F11.0
F9759.0
tp896
a(g287
F9759.0
F9759.0
tp897
a(g185
F9759.0
F9760.0
tp898
atp899
a(L67L
g2
(lp900
(g28
F9760.0
F9760.0
tp901
atp902
a(L68L
g693
(lp903
(g149
F22249.0
F22249.0
tp904
atp905
a(L70L
g2
(lp906
(g249
F13.0
F14.0
tp907
a(g301
F40.0
F4040.0
tp908
a(g265
F4040.0
F11257.0
tp909
a(g281
F11257.0
F17210.0
tp910
atp911
a(L72L
g2
(lp912
(g139
F11.0
F5101.0
tp913
a(g309
F5101.0
F10675.0
tp914
atp915
a(L73L
g33
(lp916
(g8
F11.0
F13.0
tp917
a(g259
F13.0
F9039.0
tp918
a(g313
F9039.0
F21316.0
tp919
atp920
a(L76L
g33
(lp921
(g323
F11.0
F11.0
tp922
atp923
a(L78L
g2
(lp924
(g6
F11.0
F11.0
tp925
a(g165
F11.0
F11.0
tp926
atp927
a(L82L
g2
(lp928
(g269
F22249.0
F24174.0
tp929
atp930
a(L84L
g33
(lp931
(g279
F13.0
F13.0
tp932
a(g163
F13.0
F13.0
tp933
a(g273
F13.0
F13.0
tp934
atp935
a(L86L
g2
(lp936
(g235
F11.0
F11.0
tp937
a(g18
F11.0
F11.0
tp938
a(g97
F11.0
F11.0
tp939
a(g10
F11.0
F11.0
tp940
a(g275
F11.0
F11.0
tp941
atp942
a(L88L
g2
(lp943
(g199
F11.0
F11.0
tp944
atp945
a(L91L
g2
(lp946
(g263
F11.0
F11.0
tp947
atp948
a(L92L
g2
(lp949
(g169
F11.0
F11.0
tp950
a(g115
F11.0
F11.0
tp951
atp952
a(L99L
g33
(lp953
(g187
F11.0
F10780.0
tp954
atp955
a(L101L
g2
(lp956
(g293
F11.0
F11.0
tp957
a(g231
F11.0
F3566.0
tp958
a(g125
F3566.0
F3566.0
tp959
atp960
atp961
a(F29947.0
F45.36
(lp962
(L1L
g2
(lp963
(g4
F11.0
F11.0
tp964
atp965
a(L3L
g2
(lp966
(g195
F11.0
F11.0
tp967
a(g75
F11.0
F11.0
tp968
a(g35
F11.0
F11.0
tp969
atp970
a(L4L
g438
(lp971
(g167
F11.0
F11.0
tp972
atp973
a(L5L
g33
(lp974
(g305
F13.0
F14519.0
tp975
a(g70
F14519.0
F20820.0
tp976
atp977
a(L8L
g33
(lp978
(g143
F11.0
F11.0
tp979
a(g99
F11.0
F11.0
tp980
atp981
a(L10L
g2
(lp982
(g24
F11.0
F6120.0
tp983
a(g85
F6120.0
F10277.0
tp984
a(g28
F10277.0
F10277.0
tp985
a(g207
F10277.0
F10277.0
tp986
atp987
a(L12L
g2
(lp988
(g56
F11.0
F11.0
tp989
a(g221
F11.0
F11.0
tp990
atp991
a(L13L
g73
(lp992
(g225
F11.0
F22236.0
tp993
a(g267
F22236.0
F22249.0
tp994
atp995
a(L14L
g2
(lp996
(g317
F11.0
F11.0
tp997
a(g105
F11.0
F11.0
tp998
a(g203
F11.0
F11.0
tp999
atp1000
a(L15L
g2
(lp1001
(g22
F13.0
F13.0
tp1002
atp1003
a(L17L
g438
(lp1004
(g129
F11.0
F11.0
tp1005
atp1006
a(L19L
g33
(lp1007
(g113
F11.0
F12.0
tp1008
a(g68
F12.0
F8093.0
tp1009
a(g213
F8093.0
F21225.0
tp1010
atp1011
a(L20L
g33
(lp1012
(g149
F22249.0
F22249.0
tp1013
atp1014
a(L21L
g33
(lp1015
(g243
F11.0
F11.0
tp1016
atp1017
a(L22L
g33
(lp1018
(g16
F11.0
F11.0
tp1019
a(g319
F11.0
F11.0
tp1020
atp1021
a(L24L
g2
(lp1022
(g121
F11.0
F11.0
tp1023
atp1024
a(L25L
g2
(lp1025
(g255
F11.0
F11.0
tp1026
a(g241
F11.0
F11.0
tp1027
atp1028
a(L29L
g33
(lp1029
(g60
F11.0
F11.0
tp1030
atp1031
a(L33L
g33
(lp1032
(g153
F11.0
F12532.0
tp1033
a(g159
F12532.0
F20953.0
tp1034
atp1035
a(L34L
g2
(lp1036
(g285
F11.0
F11.0
tp1037
a(g30
F11.0
F11.0
tp1038
atp1039
a(L35L
g33
(lp1040
(g83
F11.0
F11.0
tp1041
atp1042
a(L36L
g73
(lp1043
(g145
F11.0
F11.0
tp1044
a(g133
F11.0
F11.0
tp1045
atp1046
a(L41L
g2
(lp1047
(g103
F11.0
F11.0
tp1048
a(g183
F11.0
F11.0
tp1049
atp1050
a(L47L
g2
(lp1051
(g229
F11.0
F11.0
tp1052
atp1053
a(L48L
g438
(lp1054
(g79
F29947.0
F29947.0
tp1055
atp1056
a(L49L
g33
(lp1057
(g181
F11.0
F11.0
tp1058
a(g64
F11.0
F11.0
tp1059
a(g58
F11.0
F11.0
tp1060
atp1061
a(L50L
g643
(lp1062
(g48
F11.0
F11.0
tp1063
atp1064
a(L51L
g33
(lp1065
(g299
F11.0
F12.0
tp1066
a(g12
F13.0
F8236.0
tp1067
a(g177
F8236.0
F17783.0
tp1068
atp1069
a(L52L
g2
(lp1070
(g173
I0
F0.0
tp1071
a(g175
I0
F11.0
tp1072
a(g20
F11.0
F11.0
tp1073
a(g109
F11.0
F4975.0
tp1074
a(g39
F4975.0
F9341.0
tp1075
a(g135
F9341.0
F13692.0
tp1076
atp1077
a(L53L
g2
(lp1078
(g211
F11.0
F11.0
tp1079
atp1080
a(L55L
g2
(lp1081
(g52
F11.0
F11.0
tp1082
a(g217
F11.0
F11.0
tp1083
a(g117
F11.0
F11.0
tp1084
a(g237
F11.0
F11.0
tp1085
atp1086
a(L56L
g2
(lp1087
(g157
F11.0
F11.0
tp1088
a(g295
F11.0
F11.0
tp1089
atp1090
a(L58L
g33
(lp1091
(g191
F11.0
F11.0
tp1092
atp1093
a(L61L
g2
(lp1094
(g44
F11.0
F11.0
tp1095
atp1096
a(L62L
g33
(lp1097
(g245
F11.0
F11.0
tp1098
atp1099
a(L64L
g33
(lp1100
(g289
F3566.0
F3566.0
tp1101
a(g89
F3566.0
F3566.0
tp1102
atp1103
a(L65L
g33
(lp1104
(g251
F11.0
F9759.0
tp1105
a(g287
F9759.0
F9759.0
tp1106
a(g185
F9759.0
F9760.0
tp1107
atp1108
a(L69L
g73
(lp1109
(g269
F22249.0
F29947.0
tp1110
atp1111
a(L70L
g2
(lp1112
(g249
F13.0
F14.0
tp1113
a(g301
F40.0
F4040.0
tp1114
a(g265
F4040.0
F11257.0
tp1115
a(g281
F11257.0
F17210.0
tp1116
atp1117
a(L72L
g33
(lp1118
(g139
F11.0
F10191.0
tp1119
a(g309
F10191.0
F21339.0
tp1120
atp1121
a(L73L
g33
(lp1122
(g8
F11.0
F13.0
tp1123
a(g259
F13.0
F9039.0
tp1124
a(g313
F9039.0
F21316.0
tp1125
atp1126
a(L76L
g33
(lp1127
(g323
F11.0
F11.0
tp1128
atp1129
a(L78L
g2
(lp1130
(g6
F11.0
F11.0
tp1131
a(g165
F11.0
F11.0
tp1132
atp1133
a(L84L
g33
(lp1134
(g279
F13.0
F13.0
tp1135
a(g163
F13.0
F13.0
tp1136
a(g273
F13.0
F13.0
tp1137
atp1138
a(L86L
g2
(lp1139
(g235
F11.0
F11.0
tp1140
a(g18
F11.0
F11.0
tp1141
a(g97
F11.0
F11.0
tp1142
a(g10
F11.0
F11.0
tp1143
a(g275
F11.0
F11.0
tp1144
atp1145
a(L88L
g42
(lp1146
(g199
F11.0
F11.0
tp1147
atp1148
a(L91L
g2
(lp1149
(g263
F11.0
F11.0
tp1150
atp1151
a(L92L
g2
(lp1152
(g169
F11.0
F11.0
tp1153
a(g115
F11.0
F11.0
tp1154
a(g93
F11.0
F11.0
tp1155
atp1156
a(L99L
g33
(lp1157
(g187
F3566.0
F14335.0
tp1158
atp1159
a(L101L
g2
(lp1160
(g293
F11.0
F11.0
tp1161
a(g231
F11.0
F3566.0
tp1162
a(g125
F3566.0
F3566.0
tp1163
atp1164
atp1165
a(F38929.0
F45.2
(lp1166
(L1L
g2
(lp1167
(g4
F11.0
F11.0
tp1168
atp1169
a(L3L
g2
(lp1170
(g195
F11.0
F11.0
tp1171
a(g75
F11.0
F11.0
tp1172
a(g35
F11.0
F11.0
tp1173
atp1174
a(L4L
g438
(lp1175
(g167
F11.0
F11.0
tp1176
atp1177
a(L5L
g33
(lp1178
(g305
F13.0
F14519.0
tp1179
a(g70
F14519.0
F20820.0
tp1180
atp1181
a(L8L
g33
(lp1182
(g143
F11.0
F11.0
tp1183
a(g99
F11.0
F11.0
tp1184
atp1185
a(L10L
g2
(lp1186
(g24
F11.0
F6120.0
tp1187
a(g85
F6120.0
F10277.0
tp1188
a(g207
F10277.0
F10277.0
tp1189
atp1190
a(L12L
g2
(lp1191
(g56
F11.0
F11.0
tp1192
a(g221
F11.0
F11.0
tp1193
atp1194
a(L13L
g73
(lp1195
(g225
F11.0
F22236.0
tp1196
a(g267
F22236.0
F22249.0
tp1197
atp1198
a(L14L
g2
(lp1199
(g317
F11.0
F11.0
tp1200
a(g105
F11.0
F11.0
tp1201
atp1202
a(L15L
g2
(lp1203
(g22
F13.0
F13.0
tp1204
atp1205
a(L17L
g438
(lp1206
(g129
F11.0
F11.0
tp1207
atp1208
a(L19L
g33
(lp1209
(g113
F11.0
F12.0
tp1210
a(g68
F12.0
F8093.0
tp1211
a(g213
F8093.0
F21225.0
tp1212
atp1213
a(L21L
g33
(lp1214
(g243
F11.0
F11.0
tp1215
a(g93
F11.0
F11.0
tp1216
atp1217
a(L22L
g33
(lp1218
(g16
F11.0
F11.0
tp1219
a(g319
F11.0
F11.0
tp1220
atp1221
a(L24L
g2
(lp1222
(g121
F11.0
F11.0
tp1223
atp1224
a(L25L
g2
(lp1225
(g255
F11.0
F11.0
tp1226
a(g241
F11.0
F11.0
tp1227
atp1228
a(L29L
g33
(lp1229
(g60
F11.0
F11.0
tp1230
atp1231
a(L33L
g33
(lp1232
(g153
F11.0
F12532.0
tp1233
a(g159
F12532.0
F20953.0
tp1234
atp1235
a(L34L
g2
(lp1236
(g285
F11.0
F11.0
tp1237
atp1238
a(L35L
g33
(lp1239
(g83
F11.0
F11.0
tp1240
atp1241
a(L36L
g73
(lp1242
(g133
F11.0
F11.0
tp1243
atp1244
a(L41L
g2
(lp1245
(g103
F11.0
F11.0
tp1246
a(g183
F11.0
F11.0
tp1247
atp1248
a(L47L
g2
(lp1249
(g229
F11.0
F11.0
tp1250
atp1251
a(L48L
g438
(lp1252
(g79
F38929.0
F38929.0
tp1253
atp1254
a(L49L
g33
(lp1255
(g181
F11.0
F11.0
tp1256
a(g64
F11.0
F11.0
tp1257
a(g58
F11.0
F11.0
tp1258
atp1259
a(L50L
g643
(lp1260
(g48
F11.0
F11.0
tp1261
atp1262
a(L51L
g33
(lp1263
(g299
F11.0
F12.0
tp1264
a(g12
F13.0
F8236.0
tp1265
a(g177
F8236.0
F17783.0
tp1266
atp1267
a(L52L
g2
(lp1268
(g173
I0
F0.0
tp1269
a(g175
I0
F11.0
tp1270
a(g20
F11.0
F11.0
tp1271
a(g109
F11.0
F4975.0
tp1272
a(g39
F4975.0
F9341.0
tp1273
a(g135
F9341.0
F13692.0
tp1274
atp1275
a(L53L
g2
(lp1276
(g211
F11.0
F11.0
tp1277
a(g30
F11.0
F11.0
tp1278
atp1279
a(L55L
g2
(lp1280
(g52
F11.0
F11.0
tp1281
a(g217
F11.0
F11.0
tp1282
a(g117
F11.0
F11.0
tp1283
a(g237
F11.0
F11.0
tp1284
atp1285
a(L56L
g2
(lp1286
(g157
F11.0
F11.0
tp1287
a(g295
F11.0
F11.0
tp1288
atp1289
a(L58L
g33
(lp1290
(g191
F11.0
F11.0
tp1291
atp1292
a(L61L
g2
(lp1293
(g44
F11.0
F11.0
tp1294
atp1295
a(L62L
g33
(lp1296
(g245
F11.0
F11.0
tp1297
atp1298
a(L64L
g33
(lp1299
(g289
F3566.0
F3566.0
tp1300
a(g89
F3566.0
F3566.0
tp1301
atp1302
a(L65L
g33
(lp1303
(g251
F11.0
F9759.0
tp1304
a(g287
F9759.0
F9759.0
tp1305
a(g185
F9759.0
F9760.0
tp1306
atp1307
a(L67L
g2
(lp1308
(g28
F9760.0
F9760.0
tp1309
atp1310
a(L68L
g643
(lp1311
(g149
F22249.0
F22249.0
tp1312
atp1313
a(L70L
g2
(lp1314
(g249
F13.0
F14.0
tp1315
a(g301
F40.0
F4040.0
tp1316
a(g265
F4040.0
F11257.0
tp1317
a(g281
F11257.0
F17210.0
tp1318
atp1319
a(L72L
g33
(lp1320
(g139
F11.0
F10191.0
tp1321
a(g309
F10191.0
F21339.0
tp1322
atp1323
a(L73L
g33
(lp1324
(g8
F11.0
F13.0
tp1325
a(g259
F13.0
F9039.0
tp1326
a(g313
F9039.0
F21316.0
tp1327
atp1328
a(L76L
g33
(lp1329
(g323
F11.0
F11.0
tp1330
atp1331
a(L78L
g2
(lp1332
(g6
F11.0
F11.0
tp1333
a(g165
F11.0
F11.0
tp1334
atp1335
a(L79L
g2
(lp1336
(g145
F11.0
F11.0
tp1337
a(g203
F11.0
F11.0
tp1338
atp1339
a(L82L
g643
(lp1340
(g269
F22249.0
F38929.0
tp1341
atp1342
a(L84L
g33
(lp1343
(g279
F13.0
F13.0
tp1344
a(g163
F13.0
F13.0
tp1345
a(g273
F13.0
F13.0
tp1346
atp1347
a(L86L
g2
(lp1348
(g235
F11.0
F11.0
tp1349
a(g18
F11.0
F11.0
tp1350
a(g97
F11.0
F11.0
tp1351
a(g10
F11.0
F11.0
tp1352
a(g275
F11.0
F11.0
tp1353
atp1354
a(L88L
g2
(lp1355
(g199
F11.0
F11.0
tp1356
atp1357
a(L91L
g2
(lp1358
(g263
F11.0
F11.0
tp1359
atp1360
a(L92L
g2
(lp1361
(g169
F11.0
F11.0
tp1362
a(g115
F11.0
F11.0
tp1363
atp1364
a(L99L
g33
(lp1365
(g187
F3566.0
F14335.0
tp1366
atp1367
a(L101L
g2
(lp1368
(g293
F11.0
F11.0
tp1369
a(g231
F11.0
F3566.0
tp1370
a(g125
F3566.0
F3566.0
tp1371
atp1372
atp1373
a(F48618.0
F44.89
(lp1374
(L1L
g438
(lp1375
(g195
F11.0
F11.0
tp1376
atp1377
a(L3L
g42
(lp1378
(g149
F31938.0
F31938.0
tp1379
atp1380
a(L5L
g33
(lp1381
(g305
F11.0
F14517.0
tp1382
a(g225
F14517.0
F25630.0
tp1383
a(g70
F25630.0
F31931.0
tp1384
a(g267
F31931.0
F31938.0
tp1385
atp1386
a(L6L
g73
(lp1387
(g113
F11.0
F12.0
tp1388
a(g22
F12.0
F13.0
tp1389
a(g187
F13.0
F21550.0
tp1390
atp1391
a(L8L
g2
(lp1392
(g58
F11.0
F11.0
tp1393
a(g117
F11.0
F11.0
tp1394
atp1395
a(L9L
g33
(lp1396
(g48
F11.0
F11.0
tp1397
atp1398
a(L10L
g33
(lp1399
(g249
F13.0
F14.0
tp1400
a(g241
F14.0
F15.0
tp1401
a(g24
F15.0
F12233.0
tp1402
a(g85
F12233.0
F20546.0
tp1403
a(g287
F20546.0
F20546.0
tp1404
atp1405
a(L11L
g33
(lp1406
(g221
F11.0
F11.0
tp1407
atp1408
a(L12L
g2
(lp1409
(g56
F11.0
F11.0
tp1410
atp1411
a(L15L
g2
(lp1412
(g263
F11.0
F11.0
tp1413
a(g97
F11.0
F11.0
tp1414
a(g245
F11.0
F11.0
tp1415
a(g237
F11.0
F11.0
tp1416
atp1417
a(L18L
g33
(lp1418
(g279
F13.0
F13.0
tp1419
atp1420
a(L19L
g2
(lp1421
(g68
F12.0
F4053.0
tp1422
a(g213
F4053.0
F10619.0
tp1423
a(g207
F10619.0
F10619.0
tp1424
atp1425
a(L22L
g2
(lp1426
(g203
F11.0
F11.0
tp1427
atp1428
a(L24L
g2
(lp1429
(g6
F11.0
F11.0
tp1430
a(g121
F11.0
F11.0
tp1431
a(g293
F11.0
F11.0
tp1432
atp1433
a(L27L
g2
(lp1434
(g285
F11.0
F11.0
tp1435
atp1436
a(L29L
g33
(lp1437
(g323
F11.0
F11.0
tp1438
atp1439
a(L33L
g33
(lp1440
(g8
F11.0
F13.0
tp1441
a(g153
F13.0
F12534.0
tp1442
a(g159
F12534.0
F20955.0
tp1443
atp1444
a(L34L
g2
(lp1445
(g103
F11.0
F11.0
tp1446
a(g165
F11.0
F11.0
tp1447
atp1448
a(L36L
g2
(lp1449
(g75
F11.0
F11.0
tp1450
atp1451
a(L37L
g42
(lp1452
(g289
F12.0
F12.0
tp1453
atp1454
a(L41L
g2
(lp1455
(g199
F11.0
F11.0
tp1456
a(g183
F11.0
F11.0
tp1457
a(g30
F11.0
F11.0
tp1458
a(g89
F11.0
F11.0
tp1459
atp1460
a(L42L
g2
(lp1461
(g115
F11.0
F11.0
tp1462
atp1463
a(L43L
g33
(lp1464
(g275
F11.0
F11.0
tp1465
a(g93
F11.0
F11.0
tp1466
atp1467
a(L46L
g42
(lp1468
(g319
F11.0
F11.0
tp1469
atp1470
a(L47L
g42
(lp1471
(g133
F11.0
F11.0
tp1472
atp1473
a(L48L
g42
(lp1474
(g79
F48618.0
F48618.0
tp1475
atp1476
a(L49L
g42
(lp1477
(g181
F11.0
F11.0
tp1478
atp1479
a(L50L
g33
(lp1480
(g64
F11.0
F11.0
tp1481
atp1482
a(L51L
g33
(lp1483
(g143
F11.0
F11.0
tp1484
a(g299
F11.0
F12.0
tp1485
a(g12
F13.0
F8236.0
tp1486
a(g177
F8236.0
F17783.0
tp1487
atp1488
a(L52L
g2
(lp1489
(g173
I0
F0.0
tp1490
a(g175
I0
F11.0
tp1491
a(g20
F11.0
F11.0
tp1492
a(g109
F11.0
F4975.0
tp1493
a(g39
F4975.0
F9341.0
tp1494
a(g185
F9341.0
F9342.0
tp1495
a(g135
F9342.0
F13693.0
tp1496
atp1497
a(L57L
g33
(lp1498
(g83
F11.0
F11.0
tp1499
atp1500
a(L61L
g2
(lp1501
(g4
F11.0
F11.0
tp1502
a(g44
F11.0
F11.0
tp1503
atp1504
a(L62L
g33
(lp1505
(g52
F11.0
F11.0
tp1506
atp1507
a(L64L
g2
(lp1508
(g28
F9342.0
F9342.0
tp1509
atp1510
a(L66L
g33
(lp1511
(g191
F11.0
F11.0
tp1512
atp1513
a(L70L
g2
(lp1514
(g105
F11.0
F11.0
tp1515
a(g301
F40.0
F4040.0
tp1516
a(g265
F4040.0
F11257.0
tp1517
a(g281
F11257.0
F17210.0
tp1518
atp1519
a(L72L
g2
(lp1520
(g139
F11.0
F5101.0
tp1521
a(g309
F5101.0
F10675.0
tp1522
atp1523
a(L73L
g33
(lp1524
(g259
F11.0
F9037.0
tp1525
a(g313
F9037.0
F21314.0
tp1526
atp1527
a(L74L
g2
(lp1528
(g235
F11.0
F11.0
tp1529
a(g243
F11.0
F11.0
tp1530
atp1531
a(L77L
g2
(lp1532
(g255
F11.0
F11.0
tp1533
a(g211
F11.0
F11.0
tp1534
atp1535
a(L79L
g33
(lp1536
(g145
F11.0
F11.0
tp1537
atp1538
a(L81L
g42
(lp1539
(g163
F11.0
F11.0
tp1540
atp1541
a(L82L
g643
(lp1542
(g269
F31938.0
F48618.0
tp1543
atp1544
a(L83L
g73
(lp1545
(g129
F11.0
F11.0
tp1546
a(g18
F11.0
F11.0
tp1547
a(g99
F11.0
F11.0
tp1548
a(g251
F11.0
F19507.0
tp1549
atp1550
a(L84L
g2
(lp1551
(g273
F12.0
F12.0
tp1552
a(g125
F12.0
F12.0
tp1553
atp1554
a(L86L
g2
(lp1555
(g229
F11.0
F11.0
tp1556
a(g10
F11.0
F11.0
tp1557
atp1558
a(L87L
g2
(lp1559
(g35
F11.0
F11.0
tp1560
a(g317
F11.0
F11.0
tp1561
atp1562
a(L88L
g2
(lp1563
(g231
F11.0
F3566.0
tp1564
atp1565
a(L90L
g2
(lp1566
(g157
F11.0
F11.0
tp1567
atp1568
a(L91L
g2
(lp1569
(g295
F11.0
F11.0
tp1570
a(g60
F11.0
F11.0
tp1571
a(g217
F11.0
F11.0
tp1572
atp1573
a(L92L
g2
(lp1574
(g169
F11.0
F11.0
tp1575
atp1576
a(L94L
g2
(lp1577
(g16
F11.0
F11.0
tp1578
atp1579
a(L99L
g33
(lp1580
(g167
F11.0
F11.0
tp1581
atp1582
atp1583
a.