(lp0
(F436.0
F13.86
(lp1
(L32L
Vapac-sin#m3.2xlarge
p2
(lp3
(VID00000
p4
I0
F6.0
tp5
a(VID00021
p6
F6.0
F81.0
tp7
a(VID00037
p8
F222.0
F434.0
tp9
a(VID00049
p10
F434.0
F436.0
tp11
atp12
a(L35L
g2
(lp13
(S'exit'
p14
F436.0
F436.0
tp15
atp16
a(L5L
g2
(lp17
(VID00009
p18
I0
F6.0
tp19
a(VID00013
p20
F6.0
F155.0
tp21
a(VID00024
p22
F218.0
F220.0
tp23
a(VID00032
p24
F220.0
F222.0
tp25
a(VID00030
p26
F222.0
F224.0
tp27
a(VID00031
p28
F224.0
F226.0
tp29
a(VID00028
p30
F226.0
F228.0
tp31
a(VID00040
p32
F228.0
F424.0
tp33
atp34
a(L6L
g2
(lp35
(VID00004
p36
I0
F6.0
tp37
a(VID00020
p38
F18.0
F170.0
tp39
a(VID00025
p40
F220.0
F222.0
tp41
a(VID00029
p42
F222.0
F224.0
tp43
a(VID00036
p44
F224.0
F226.0
tp45
a(VID00034
p46
F226.0
F228.0
tp47
a(VID00046
p48
F228.0
F345.0
tp49
atp50
a(L7L
g2
(lp51
(VID00005
p52
I0
F6.0
tp53
a(VID00012
p54
F6.0
F122.0
tp55
a(VID00027
p56
F220.0
F222.0
tp57
a(VID00033
p58
F222.0
F224.0
tp59
a(VID00045
p60
F224.0
F345.0
tp61
atp62
a(L40L
g2
(lp63
(VID00023
p64
F6.0
F138.0
tp65
a(VID00044
p66
F222.0
F420.0
tp67
atp68
a(L10L
g2
(lp69
(VID00001
p70
I0
F6.0
tp71
a(VID00003
p72
F6.0
F12.0
tp73
a(VID00008
p74
F12.0
F18.0
tp75
a(VID00014
p76
F18.0
F106.0
tp77
a(VID00015
p78
F106.0
F198.0
tp79
a(VID00043
p80
F226.0
F372.0
tp81
atp82
a(L11L
g2
(lp83
(VID00017
p84
F6.0
F218.0
tp85
a(VID00047
p86
F222.0
F339.0
tp87
a(VID00038
p88
F339.0
F422.0
tp89
atp90
a(L45L
g2
(lp91
(VID00007
p92
I0
F5.0
tp93
a(VID00002
p94
F5.0
F11.0
tp95
a(VID00010
p96
F11.0
F17.0
tp97
a(VID00016
p98
F17.0
F189.0
tp99
a(VID00039
p100
F222.0
F374.0
tp101
atp102
a(L46L
g2
(lp103
(VID00011
p104
I0
F6.0
tp105
a(VID00018
p106
F6.0
F210.0
tp107
a(VID00042
p108
F224.0
F414.0
tp109
atp110
a(L15L
g2
(lp111
(VID00006
p112
I0
F6.0
tp113
a(VID00022
p114
F17.0
F162.0
tp115
a(VID00035
p116
F220.0
F222.0
tp117
a(VID00048
p118
F226.0
F373.0
tp119
atp120
a(L39L
g2
(lp121
(VID00019
p122
F5.0
F172.0
tp123
a(VID00026
p124
F220.0
F222.0
tp125
a(VID00041
p126
F224.0
F369.0
tp127
atp128
a(L29L
Vapac-sin#m3.large
p129
(lp130
(S'entry'
p131
I0
F0.0
tp132
atp133
atp134
a(F1117.0
F11.34
(lp135
(L32L
g2
(lp136
(g4
I0
F6.0
tp137
a(g6
F6.0
F81.0
tp138
a(g106
F81.0
F285.0
tp139
a(g122
F285.0
F452.0
tp140
a(g86
F456.0
F573.0
tp141
a(g8
F573.0
F785.0
tp142
a(g60
F785.0
F906.0
tp143
a(g10
F1115.0
F1117.0
tp144
atp145
a(L35L
g2
(lp146
(g14
F1117.0
F1117.0
tp147
atp148
a(L5L
g2
(lp149
(g18
I0
F6.0
tp150
a(g20
F6.0
F155.0
tp151
a(g26
F454.0
F456.0
tp152
a(g30
F456.0
F458.0
tp153
a(g46
F458.0
F460.0
tp154
atp155
a(L6L
g2
(lp156
(g36
I0
F6.0
tp157
a(g38
F18.0
F170.0
tp158
a(g24
F454.0
F456.0
tp159
a(g42
F456.0
F458.0
tp160
a(g44
F458.0
F460.0
tp161
atp162
a(L7L
g2
(lp163
(g52
I0
F6.0
tp164
a(g54
F6.0
F122.0
tp165
a(g58
F454.0
F456.0
tp166
atp167
a(L10L
g2
(lp168
(g70
I0
F6.0
tp169
a(g72
F6.0
F12.0
tp170
a(g74
F12.0
F18.0
tp171
a(g84
F18.0
F230.0
tp172
a(g78
F230.0
F322.0
tp173
a(g22
F452.0
F454.0
tp174
a(g66
F456.0
F654.0
tp175
a(g28
F654.0
F656.0
tp176
a(g80
F656.0
F802.0
tp177
a(g48
F802.0
F919.0
tp178
a(g32
F919.0
F1115.0
tp179
atp180
a(L39L
g2
(lp181
(g98
F6.0
F178.0
tp182
a(g124
F454.0
F456.0
tp183
a(g126
F458.0
F603.0
tp184
atp185
a(L45L
g2
(lp186
(g92
I0
F5.0
tp187
a(g94
F5.0
F11.0
tp188
a(g96
F11.0
F17.0
tp189
a(g64
F17.0
F149.0
tp190
a(g76
F149.0
F237.0
tp191
a(g40
F454.0
F456.0
tp192
a(g88
F456.0
F539.0
tp193
a(g100
F539.0
F691.0
tp194
atp195
a(L46L
g2
(lp196
(g104
I0
F6.0
tp197
a(g108
F456.0
F646.0
tp198
atp199
a(L15L
g2
(lp200
(g112
I0
F6.0
tp201
a(g114
F17.0
F162.0
tp202
a(g116
F454.0
F456.0
tp203
a(g56
F456.0
F458.0
tp204
a(g118
F460.0
F607.0
tp205
atp206
a(L29L
g129
(lp207
(g131
I0
F0.0
tp208
atp209
atp210
a(F1691.0
F8.03
(lp211
(L32L
g2
(lp212
(g4
I0
F6.0
tp213
a(g6
F12.0
F87.0
tp214
a(g106
F87.0
F291.0
tp215
a(g122
F291.0
F458.0
tp216
a(g86
F929.0
F1046.0
tp217
a(g8
F1046.0
F1258.0
tp218
a(g60
F1270.0
F1391.0
tp219
a(g10
F1689.0
F1691.0
tp220
atp221
a(L35L
g2
(lp222
(g14
F1691.0
F1691.0
tp223
atp224
a(L5L
Vapac-sin#m3.xlarge
p225
(lp226
(g18
I0
F12.0
tp227
a(g20
F12.0
F309.0
tp228
a(g26
F927.0
F930.0
tp229
a(g30
F930.0
F933.0
tp230
a(g46
F933.0
F936.0
tp231
atp232
a(L6L
g2
(lp233
(g36
I0
F6.0
tp234
a(g38
F18.0
F170.0
tp235
a(g24
F927.0
F929.0
tp236
a(g42
F929.0
F931.0
tp237
a(g44
F931.0
F933.0
tp238
atp239
a(L7L
g129
(lp240
(g52
I0
F22.0
tp241
a(g54
F22.0
F487.0
tp242
a(g88
F929.0
F1263.0
tp243
a(g58
F1263.0
F1270.0
tp244
atp245
a(L10L
g2
(lp246
(g70
I0
F6.0
tp247
a(g72
F6.0
F12.0
tp248
a(g74
F12.0
F18.0
tp249
a(g84
F22.0
F234.0
tp250
a(g78
F234.0
F326.0
tp251
a(g22
F925.0
F927.0
tp252
a(g66
F929.0
F1127.0
tp253
a(g28
F1127.0
F1129.0
tp254
a(g80
F1129.0
F1275.0
tp255
a(g48
F1275.0
F1392.0
tp256
a(g32
F1392.0
F1588.0
tp257
atp258
a(L39L
g2
(lp259
(g98
F6.0
F178.0
tp260
a(g124
F927.0
F929.0
tp261
a(g126
F931.0
F1076.0
tp262
atp263
a(L45L
g129
(lp264
(g92
I0
F21.0
tp265
a(g96
F21.0
F44.0
tp266
a(g64
F44.0
F574.0
tp267
a(g76
F574.0
F925.0
tp268
a(g40
F927.0
F933.0
tp269
a(g100
F933.0
F1541.0
tp270
atp271
a(L46L
g129
(lp272
(g104
I0
F22.0
tp273
a(g108
F930.0
F1689.0
tp274
atp275
a(L15L
g2
(lp276
(g112
I0
F6.0
tp277
a(g114
F44.0
F189.0
tp278
a(g116
F927.0
F929.0
tp279
a(g56
F929.0
F931.0
tp280
a(g118
F933.0
F1080.0
tp281
atp282
a(L51L
Vapac-sin#m3.medium
p283
(lp284
(g94
I0
F48.0
tp285
atp286
a(L30L
g283
(lp287
(g131
I0
F0.0
tp288
atp289
atp290
a(F1900.0
F6.3
(lp291
(L32L
g225
(lp292
(g4
I0
F11.0
tp293
a(g6
F12.0
F162.0
tp294
a(g106
F162.0
F570.0
tp295
a(g122
F570.0
F904.0
tp296
a(g86
F951.0
F1186.0
tp297
a(g8
F1186.0
F1609.0
tp298
a(g60
F1609.0
F1851.0
tp299
a(g10
F1897.0
F1900.0
tp300
atp301
a(L35L
g129
(lp302
(g14
F1900.0
F1900.0
tp303
atp304
a(L5L
g225
(lp305
(g18
I0
F12.0
tp306
a(g20
F12.0
F309.0
tp307
a(g26
F949.0
F952.0
tp308
a(g30
F952.0
F955.0
tp309
a(g46
F955.0
F958.0
tp310
atp311
a(L6L
g2
(lp312
(g36
I0
F6.0
tp313
a(g38
F18.0
F170.0
tp314
a(g24
F949.0
F951.0
tp315
a(g42
F951.0
F953.0
tp316
a(g44
F953.0
F955.0
tp317
atp318
a(L7L
g129
(lp319
(g52
I0
F22.0
tp320
a(g54
F22.0
F487.0
tp321
a(g58
F949.0
F956.0
tp322
atp323
a(L10L
g2
(lp324
(g70
I0
F6.0
tp325
a(g72
F6.0
F12.0
tp326
a(g74
F12.0
F18.0
tp327
a(g84
F22.0
F234.0
tp328
a(g78
F234.0
F326.0
tp329
a(g22
F947.0
F949.0
tp330
a(g66
F951.0
F1149.0
tp331
a(g28
F1149.0
F1151.0
tp332
a(g80
F1151.0
F1297.0
tp333
a(g48
F1297.0
F1414.0
tp334
a(g32
F1414.0
F1610.0
tp335
atp336
a(L39L
g129
(lp337
(g98
F6.0
F696.0
tp338
a(g124
F949.0
F955.0
tp339
a(g126
F955.0
F1536.0
tp340
atp341
a(L45L
g129
(lp342
(g92
I0
F21.0
tp343
a(g94
F21.0
F43.0
tp344
a(g96
F43.0
F66.0
tp345
a(g64
F66.0
F596.0
tp346
a(g76
F596.0
F947.0
tp347
a(g40
F949.0
F955.0
tp348
a(g88
F955.0
F1289.0
tp349
a(g100
F1289.0
F1897.0
tp350
atp351
a(L46L
g129
(lp352
(g104
I0
F22.0
tp353
a(g108
F952.0
F1711.0
tp354
atp355
a(L15L
g2
(lp356
(g112
I0
F6.0
tp357
a(g114
F66.0
F211.0
tp358
a(g116
F949.0
F951.0
tp359
a(g56
F951.0
F953.0
tp360
a(g118
F955.0
F1102.0
tp361
atp362
a(L30L
g225
(lp363
(g131
I0
F0.0
tp364
atp365
atp366
a(F2322.0
F3.78
(lp367
(L32L
g225
(lp368
(g4
I0
F11.0
tp369
a(g6
F23.0
F173.0
tp370
a(g106
F173.0
F581.0
tp371
a(g122
F581.0
F915.0
tp372
a(g86
F1378.0
F1613.0
tp373
a(g8
F1613.0
F2036.0
tp374
a(g60
F2036.0
F2278.0
tp375
a(g10
F2319.0
F2322.0
tp376
atp377
a(L35L
g129
(lp378
(g14
F2322.0
F2322.0
tp379
atp380
a(L5L
g129
(lp381
(g18
I0
F23.0
tp382
a(g20
F23.0
F618.0
tp383
a(g26
F1371.0
F1377.0
tp384
a(g30
F1377.0
F1383.0
tp385
a(g46
F1383.0
F1389.0
tp386
atp387
a(L6L
g283
(lp388
(g36
I0
F49.0
tp389
a(g38
F49.0
F1369.0
tp390
a(g24
F1371.0
F1385.0
tp391
a(g42
F1385.0
F1399.0
tp392
a(g44
F1399.0
F1412.0
tp393
atp394
a(L7L
g283
(lp395
(g52
I0
F48.0
tp396
a(g54
F48.0
F1056.0
tp397
a(g58
F1371.0
F1386.0
tp398
atp399
a(L10L
g2
(lp400
(g70
I0
F6.0
tp401
a(g74
F6.0
F12.0
tp402
a(g84
F48.0
F260.0
tp403
a(g78
F260.0
F352.0
tp404
a(g22
F1369.0
F1371.0
tp405
a(g66
F1385.0
F1583.0
tp406
a(g28
F1583.0
F1585.0
tp407
a(g80
F1585.0
F1731.0
tp408
a(g48
F1731.0
F1848.0
tp409
a(g32
F1848.0
F2044.0
tp410
atp411
a(L39L
g129
(lp412
(g72
I0
F23.0
tp413
a(g98
F49.0
F739.0
tp414
a(g124
F1371.0
F1377.0
tp415
a(g126
F1399.0
F1980.0
tp416
atp417
a(L45L
g129
(lp418
(g92
I0
F21.0
tp419
a(g112
F21.0
F43.0
tp420
a(g94
F43.0
F65.0
tp421
a(g96
F65.0
F88.0
tp422
a(g64
F88.0
F618.0
tp423
a(g76
F618.0
F969.0
tp424
a(g40
F1371.0
F1377.0
tp425
a(g88
F1377.0
F1711.0
tp426
a(g100
F1711.0
F2319.0
tp427
atp428
a(L46L
g129
(lp429
(g104
I0
F22.0
tp430
a(g108
F1377.0
F2136.0
tp431
atp432
a(L15L
g129
(lp433
(g114
F88.0
F667.0
tp434
a(g116
F1371.0
F1378.0
tp435
a(g56
F1378.0
F1384.0
tp436
a(g118
F1412.0
F2000.0
tp437
atp438
a(L30L
g225
(lp439
(g131
I0
F0.0
tp440
atp441
atp442
a(F2961.0
F3.63
(lp443
(L32L
g225
(lp444
(g4
I0
F11.0
tp445
a(g6
F75.0
F225.0
tp446
a(g106
F225.0
F633.0
tp447
a(g122
F633.0
F967.0
tp448
a(g86
F2017.0
F2252.0
tp449
a(g8
F2252.0
F2675.0
tp450
a(g60
F2675.0
F2917.0
tp451
a(g10
F2958.0
F2961.0
tp452
atp453
a(L35L
g129
(lp454
(g14
F2961.0
F2961.0
tp455
atp456
a(L5L
Vapac-sin#m1.medium
p457
(lp458
(g18
I0
F75.0
tp459
a(g20
F75.0
F2008.0
tp460
a(g26
F2010.0
F2030.0
tp461
a(g30
F2030.0
F2050.0
tp462
a(g46
F2050.0
F2071.0
tp463
atp464
a(L6L
g283
(lp465
(g36
I0
F49.0
tp466
a(g38
F49.0
F1369.0
tp467
a(g24
F2010.0
F2024.0
tp468
a(g42
F2024.0
F2038.0
tp469
a(g44
F2038.0
F2051.0
tp470
atp471
a(L7L
g283
(lp472
(g52
I0
F48.0
tp473
a(g54
F48.0
F1056.0
tp474
a(g58
F2010.0
F2025.0
tp475
atp476
a(L10L
g2
(lp477
(g70
I0
F6.0
tp478
a(g74
F6.0
F12.0
tp479
a(g84
F48.0
F260.0
tp480
a(g78
F260.0
F352.0
tp481
a(g22
F2008.0
F2010.0
tp482
a(g66
F2024.0
F2222.0
tp483
a(g28
F2222.0
F2224.0
tp484
a(g80
F2224.0
F2370.0
tp485
a(g48
F2370.0
F2487.0
tp486
a(g32
F2487.0
F2683.0
tp487
atp488
a(L39L
g129
(lp489
(g72
I0
F23.0
tp490
a(g98
F49.0
F739.0
tp491
a(g124
F2010.0
F2016.0
tp492
a(g126
F2038.0
F2619.0
tp493
atp494
a(L45L
g129
(lp495
(g92
I0
F21.0
tp496
a(g112
F21.0
F43.0
tp497
a(g94
F43.0
F65.0
tp498
a(g96
F65.0
F88.0
tp499
a(g64
F88.0
F618.0
tp500
a(g76
F618.0
F969.0
tp501
a(g40
F2010.0
F2016.0
tp502
a(g88
F2016.0
F2350.0
tp503
a(g100
F2350.0
F2958.0
tp504
atp505
a(L46L
g129
(lp506
(g104
I0
F22.0
tp507
a(g108
F2030.0
F2789.0
tp508
atp509
a(L15L
g129
(lp510
(g114
F88.0
F667.0
tp511
a(g116
F2010.0
F2017.0
tp512
a(g56
F2017.0
F2023.0
tp513
a(g118
F2051.0
F2639.0
tp514
atp515
a(L30L
g225
(lp516
(g131
I0
F0.0
tp517
atp518
atp519
a(F3322.0
F1.9
(lp520
(L32L
g129
(lp521
(g38
F23.0
F632.0
tp522
a(g106
F632.0
F1448.0
tp523
a(g22
F1468.0
F1475.0
tp524
a(g116
F1475.0
F1482.0
tp525
a(g24
F1482.0
F1488.0
tp526
a(g8
F1489.0
F2335.0
tp527
a(g88
F2335.0
F2669.0
tp528
a(g100
F2669.0
F3277.0
tp529
a(g10
F3316.0
F3322.0
tp530
atp531
a(L0L
g283
(lp532
(g54
F144.0
F1152.0
tp533
a(g108
F1515.0
F3159.0
tp534
atp535
a(L35L
g129
(lp536
(g14
F3322.0
F3322.0
tp537
atp538
a(L36L
g283
(lp539
(g52
I0
F48.0
tp540
a(g36
F48.0
F97.0
tp541
a(g112
F97.0
F145.0
tp542
a(g114
F145.0
F1399.0
tp543
a(g60
F1602.0
F2651.0
tp544
atp545
a(L5L
g283
(lp546
(g122
F21.0
F1468.0
tp547
a(g118
F1488.0
F2761.0
tp548
atp549
a(L38L
g283
(lp550
(g20
F43.0
F1332.0
tp551
a(g44
F1475.0
F1488.0
tp552
a(g46
F1488.0
F1502.0
tp553
atp554
a(L45L
g2
(lp555
(g131
I0
F0.0
tp556
atp557
a(L14L
g129
(lp558
(g74
I0
F23.0
tp559
a(g84
F48.0
F896.0
tp560
a(g76
F896.0
F1247.0
tp561
a(g86
F1482.0
F1951.0
tp562
a(g126
F1951.0
F2532.0
tp563
a(g32
F2532.0
F3316.0
tp564
atp565
a(L13L
g129
(lp566
(g92
I0
F21.0
tp567
a(g70
F21.0
F43.0
tp568
a(g94
F43.0
F65.0
tp569
a(g6
F65.0
F366.0
tp570
a(g98
F366.0
F1056.0
tp571
a(g78
F1056.0
F1425.0
tp572
a(g66
F1488.0
F2278.0
tp573
a(g124
F2278.0
F2284.0
tp574
a(g28
F2284.0
F2290.0
tp575
a(g80
F2290.0
F2875.0
tp576
atp577
a(L16L
Vapac-sin#m1.small
p578
(lp579
(g104
I0
F146.0
tp580
a(g26
F1475.0
F1515.0
tp581
atp582
a(L4L
g283
(lp583
(g18
I0
F50.0
tp584
a(g96
F50.0
F99.0
tp585
a(g64
F146.0
F1293.0
tp586
a(g40
F1475.0
F1489.0
tp587
a(g56
F1489.0
F1502.0
tp588
a(g48
F1502.0
F2520.0
tp589
atp590
a(L28L
g578
(lp591
(g4
I0
F144.0
tp592
a(g72
F144.0
F293.0
tp593
a(g42
F1475.0
F1518.0
tp594
a(g30
F1518.0
F1557.0
tp595
a(g58
F1557.0
F1602.0
tp596
atp597
atp598
a.