(lp0
(F411.0
F7.56
(lp1
(L4L
Vapac-sin#m3.2xlarge
p2
(lp3
(VID00000
p4
I0
F5.0
tp5
a(VID00007
p6
F5.0
F213.0
tp7
a(VID00014
p8
F213.0
F215.0
tp9
a(VID00016
p10
F215.0
F217.0
tp11
a(VID00023
p12
F217.0
F406.0
tp13
a(VID00029
p14
F410.0
F411.0
tp15
atp16
a(L5L
g2
(lp17
(VID00005
p18
I0
F5.0
tp19
a(VID00009
p20
F5.0
F188.0
tp21
a(VID00021
p22
F215.0
F217.0
tp23
a(VID00025
p24
F219.0
F298.0
tp25
a(VID00019
p26
F298.0
F300.0
tp27
a(VID00026
p28
F300.0
F394.0
tp29
atp30
a(L13L
g2
(lp31
(VID00004
p32
I0
F6.0
tp33
a(VID00011
p34
F6.0
F171.0
tp35
a(VID00015
p36
F215.0
F217.0
tp37
a(VID00018
p38
F217.0
F219.0
tp39
a(VID00028
p40
F219.0
F331.0
tp41
atp42
a(L20L
g2
(lp43
(S'entry'
p44
I0
F0.0
tp45
a(VID00002
p46
I0
F5.0
tp47
a(VID00012
p48
F5.0
F107.0
tp49
a(VID00013
p50
F107.0
F213.0
tp51
a(VID00027
p52
F217.0
F374.0
tp53
atp54
a(L21L
g2
(lp55
(VID00001
p56
I0
F6.0
tp57
a(VID00010
p58
F11.0
F171.0
tp59
a(VID00020
p60
F215.0
F217.0
tp61
a(VID00022
p62
F217.0
F410.0
tp63
atp64
a(L27L
g2
(lp65
(VID00006
p66
I0
F6.0
tp67
a(VID00003
p68
F6.0
F11.0
tp69
a(VID00008
p70
F11.0
F119.0
tp71
a(VID00017
p72
F215.0
F217.0
tp73
a(VID00024
p74
F217.0
F346.0
tp75
atp76
a(L29L
Vapac-sin#m1.large
p77
(lp78
(S'exit'
p79
F411.0
F411.0
tp80
atp81
atp82
a(F977.0
F6.61
(lp83
(L4L
g2
(lp84
(g4
I0
F5.0
tp85
a(g6
F5.0
F213.0
tp86
a(g8
F453.0
F455.0
tp87
a(g10
F455.0
F457.0
tp88
a(g12
F457.0
F646.0
tp89
a(g14
F976.0
F977.0
tp90
atp91
a(L5L
g2
(lp92
(g18
I0
F5.0
tp93
a(g20
F5.0
F188.0
tp94
a(g22
F455.0
F457.0
tp95
a(g24
F459.0
F538.0
tp96
a(g26
F538.0
F540.0
tp97
a(g28
F540.0
F634.0
tp98
atp99
a(L13L
g2
(lp100
(g32
I0
F6.0
tp101
a(g66
F6.0
F12.0
tp102
a(g34
F12.0
F177.0
tp103
a(g36
F455.0
F457.0
tp104
a(g38
F457.0
F459.0
tp105
a(g40
F459.0
F571.0
tp106
atp107
a(L14L
Vapac-sin#m1.small
p108
(lp109
(g79
F977.0
F977.0
tp110
atp111
a(L20L
g2
(lp112
(g44
I0
F0.0
tp113
a(g46
I0
F5.0
tp114
a(g48
F5.0
F107.0
tp115
a(g50
F107.0
F213.0
tp116
a(g52
F457.0
F614.0
tp117
atp118
a(L21L
g2
(lp119
(g56
I0
F6.0
tp120
a(g58
F22.0
F182.0
tp121
a(g60
F455.0
F457.0
tp122
a(g62
F457.0
F650.0
tp123
atp124
a(L27L
Vapac-sin#m3.large
p125
(lp126
(g68
I0
F22.0
tp127
a(g70
F22.0
F453.0
tp128
a(g72
F455.0
F461.0
tp129
a(g74
F461.0
F976.0
tp130
atp131
atp132
a(F1205.0
F5.67
(lp133
(L4L
g2
(lp134
(g4
I0
F5.0
tp135
a(g6
F5.0
F213.0
tp136
a(g20
F213.0
F396.0
tp137
a(g8
F681.0
F683.0
tp138
a(g10
F683.0
F685.0
tp139
a(g12
F685.0
F874.0
tp140
a(g14
F1204.0
F1205.0
tp141
atp142
a(L5L
g2
(lp143
(g18
I0
F5.0
tp144
a(g22
F683.0
F685.0
tp145
a(g24
F696.0
F775.0
tp146
a(g26
F775.0
F777.0
tp147
a(g28
F777.0
F871.0
tp148
atp149
a(L13L
g125
(lp150
(g32
I0
F22.0
tp151
a(g34
F22.0
F681.0
tp152
a(g36
F683.0
F690.0
tp153
a(g38
F690.0
F696.0
tp154
a(g40
F696.0
F1145.0
tp155
atp156
a(L14L
g2
(lp157
(g79
F1205.0
F1205.0
tp158
atp159
a(L20L
g2
(lp160
(g44
I0
F0.0
tp161
a(g46
I0
F5.0
tp162
a(g48
F5.0
F107.0
tp163
a(g50
F107.0
F213.0
tp164
a(g52
F685.0
F842.0
tp165
atp166
a(L21L
g2
(lp167
(g56
I0
F6.0
tp168
a(g58
F44.0
F204.0
tp169
a(g60
F683.0
F685.0
tp170
a(g62
F690.0
F883.0
tp171
atp172
a(L27L
g125
(lp173
(g66
I0
F22.0
tp174
a(g68
F22.0
F44.0
tp175
a(g70
F44.0
F475.0
tp176
a(g72
F683.0
F689.0
tp177
a(g74
F689.0
F1204.0
tp178
atp179
atp180
a(F1626.0
F3.78
(lp181
(L4L
g125
(lp182
(g4
I0
F22.0
tp183
a(g6
F22.0
F852.0
tp184
a(g8
F852.0
F859.0
tp185
a(g10
F859.0
F866.0
tp186
a(g12
F866.0
F1620.0
tp187
a(g14
F1620.0
F1626.0
tp188
atp189
a(L5L
g125
(lp190
(g18
I0
F22.0
tp191
a(g20
F22.0
F754.0
tp192
a(g22
F859.0
F865.0
tp193
a(g24
F872.0
F1187.0
tp194
a(g26
F1187.0
F1193.0
tp195
a(g28
F1193.0
F1569.0
tp196
atp197
a(L13L
g125
(lp198
(g32
I0
F22.0
tp199
a(g66
F22.0
F44.0
tp200
a(g34
F44.0
F703.0
tp201
a(g36
F859.0
F866.0
tp202
a(g38
F866.0
F872.0
tp203
a(g40
F872.0
F1321.0
tp204
atp205
a(L14L
g2
(lp206
(g79
F1626.0
F1626.0
tp207
atp208
a(L20L
g2
(lp209
(g44
I0
F0.0
tp210
a(g46
I0
F5.0
tp211
a(g48
F22.0
F124.0
tp212
a(g50
F124.0
F230.0
tp213
a(g52
F861.0
F1018.0
tp214
atp215
a(L21L
g2
(lp216
(g56
I0
F6.0
tp217
a(g58
F22.0
F182.0
tp218
a(g60
F859.0
F861.0
tp219
a(g62
F866.0
F1059.0
tp220
atp221
a(L27L
g125
(lp222
(g68
I0
F22.0
tp223
a(g70
F22.0
F453.0
tp224
a(g72
F859.0
F865.0
tp225
a(g74
F865.0
F1380.0
tp226
atp227
atp228
a(F1646.0
F1.89
(lp229
(L4L
g125
(lp230
(g4
I0
F22.0
tp231
a(g6
F22.0
F852.0
tp232
a(g8
F855.0
F862.0
tp233
a(g10
F862.0
F869.0
tp234
a(g12
F869.0
F1623.0
tp235
a(g14
F1640.0
F1646.0
tp236
atp237
a(L5L
g125
(lp238
(g18
I0
F22.0
tp239
a(g20
F22.0
F754.0
tp240
a(g22
F862.0
F868.0
tp241
a(g24
F875.0
F1190.0
tp242
a(g26
F1190.0
F1196.0
tp243
a(g28
F1196.0
F1572.0
tp244
atp245
a(L13L
g125
(lp246
(g32
I0
F22.0
tp247
a(g66
F22.0
F44.0
tp248
a(g34
F44.0
F703.0
tp249
a(g36
F862.0
F869.0
tp250
a(g38
F869.0
F875.0
tp251
a(g40
F875.0
F1324.0
tp252
atp253
a(L20L
g125
(lp254
(g44
I0
F0.0
tp255
a(g46
I0
F22.0
tp256
a(g48
F22.0
F431.0
tp257
a(g50
F431.0
F855.0
tp258
a(g52
F869.0
F1497.0
tp259
atp260
a(L21L
g125
(lp261
(g56
I0
F22.0
tp262
a(g58
F22.0
F661.0
tp263
a(g60
F862.0
F869.0
tp264
a(g62
F869.0
F1640.0
tp265
atp266
a(L27L
g125
(lp267
(g68
I0
F22.0
tp268
a(g70
F22.0
F453.0
tp269
a(g72
F862.0
F868.0
tp270
a(g74
F868.0
F1383.0
tp271
atp272
a(L29L
g77
(lp273
(g79
F1646.0
F1646.0
tp274
atp275
atp276
a(F2123.0
F1.73
(lp277
(L4L
g125
(lp278
(g4
I0
F22.0
tp279
a(g6
F22.0
F852.0
tp280
a(g8
F981.0
F988.0
tp281
a(g10
F988.0
F995.0
tp282
a(g12
F995.0
F1749.0
tp283
a(g14
F2117.0
F2123.0
tp284
atp285
a(L5L
g125
(lp286
(g18
I0
F22.0
tp287
a(g20
F22.0
F754.0
tp288
a(g22
F988.0
F994.0
tp289
a(g24
F1001.0
F1316.0
tp290
a(g26
F1316.0
F1322.0
tp291
a(g28
F1322.0
F1698.0
tp292
atp293
a(L13L
g125
(lp294
(g32
I0
F22.0
tp295
a(g66
F22.0
F44.0
tp296
a(g34
F44.0
F703.0
tp297
a(g36
F988.0
F995.0
tp298
a(g38
F995.0
F1001.0
tp299
a(g40
F1001.0
F1450.0
tp300
atp301
a(L20L
g125
(lp302
(g44
I0
F0.0
tp303
a(g46
I0
F22.0
tp304
a(g48
F22.0
F431.0
tp305
a(g50
F431.0
F855.0
tp306
a(g52
F995.0
F1623.0
tp307
atp308
a(L21L
g125
(lp309
(g56
I0
F22.0
tp310
a(g58
F47.0
F686.0
tp311
a(g60
F988.0
F995.0
tp312
a(g62
F995.0
F1766.0
tp313
atp314
a(L27L
Vapac-sin#m3.medium
p315
(lp316
(g68
I0
F47.0
tp317
a(g70
F47.0
F981.0
tp318
a(g72
F988.0
F1001.0
tp319
a(g74
F1001.0
F2117.0
tp320
atp321
a(L29L
g77
(lp322
(g79
F2123.0
F2123.0
tp323
atp324
atp325
a(F2765.0
F1.42
(lp326
(L0L
g77
(lp327
(g12
F1532.0
F2758.0
tp328
atp329
a(L3L
g315
(lp330
(g32
I0
F48.0
tp331
a(g58
F48.0
F1433.0
tp332
a(g22
F1518.0
F1532.0
tp333
a(g38
F1532.0
F1546.0
tp334
a(g24
F1546.0
F2228.0
tp335
a(g26
F2228.0
F2241.0
tp336
atp337
a(L4L
g125
(lp338
(g68
I0
F22.0
tp339
a(g70
F66.0
F497.0
tp340
a(g48
F497.0
F906.0
tp341
a(g50
F906.0
F1330.0
tp342
a(g8
F1511.0
F1518.0
tp343
a(g60
F1518.0
F1525.0
tp344
a(g10
F1525.0
F1532.0
tp345
a(g36
F1532.0
F1539.0
tp346
a(g62
F1539.0
F2310.0
tp347
a(g40
F2310.0
F2759.0
tp348
a(g14
F2759.0
F2765.0
tp349
atp350
a(L13L
g125
(lp351
(g18
I0
F22.0
tp352
a(g66
F22.0
F44.0
tp353
a(g56
F44.0
F66.0
tp354
a(g46
F66.0
F88.0
tp355
a(g20
F88.0
F820.0
tp356
a(g52
F1525.0
F2153.0
tp357
a(g28
F2241.0
F2617.0
tp358
atp359
a(L18L
g125
(lp360
(g44
I0
F0.0
tp361
atp362
a(L25L
g125
(lp363
(g4
I0
F22.0
tp364
a(g6
F22.0
F852.0
tp365
a(g34
F852.0
F1511.0
tp366
a(g72
F1518.0
F1524.0
tp367
a(g74
F1524.0
F2039.0
tp368
atp369
a(L29L
g77
(lp370
(g79
F2765.0
F2765.0
tp371
atp372
atp373
a(F2799.0
F1.1
(lp374
(L3L
g315
(lp375
(g32
I0
F48.0
tp376
a(g58
F48.0
F1433.0
tp377
a(g22
F1518.0
F1532.0
tp378
a(g38
F1532.0
F1546.0
tp379
a(g24
F1546.0
F2228.0
tp380
a(g26
F2228.0
F2241.0
tp381
atp382
a(L4L
g125
(lp383
(g68
I0
F22.0
tp384
a(g70
F66.0
F497.0
tp385
a(g48
F497.0
F906.0
tp386
a(g50
F906.0
F1330.0
tp387
a(g8
F1511.0
F1518.0
tp388
a(g60
F1518.0
F1525.0
tp389
a(g10
F1525.0
F1532.0
tp390
a(g36
F1532.0
F1539.0
tp391
a(g62
F1539.0
F2310.0
tp392
a(g40
F2310.0
F2759.0
tp393
a(g14
F2793.0
F2799.0
tp394
atp395
a(L13L
g125
(lp396
(g18
I0
F22.0
tp397
a(g66
F22.0
F44.0
tp398
a(g56
F44.0
F66.0
tp399
a(g46
F66.0
F88.0
tp400
a(g20
F88.0
F820.0
tp401
a(g52
F1525.0
F2153.0
tp402
a(g28
F2241.0
F2617.0
tp403
atp404
a(L18L
g125
(lp405
(g44
I0
F0.0
tp406
atp407
a(L25L
g125
(lp408
(g4
I0
F22.0
tp409
a(g6
F22.0
F852.0
tp410
a(g34
F852.0
F1511.0
tp411
a(g72
F1518.0
F1524.0
tp412
a(g74
F1524.0
F2039.0
tp413
a(g12
F2039.0
F2793.0
tp414
atp415
a(L29L
g77
(lp416
(g79
F2799.0
F2799.0
tp417
atp418
atp419
a.