(lp0
(F410.0
F29.77
(lp1
(L0L
Vapac-sin#m3.2xlarge
p2
(lp3
(VID00009
p4
I0
F6.0
tp5
a(VID00010
p6
F6.0
F12.0
tp7
a(VID00014
p8
F12.0
F18.0
tp9
a(VID00038
p10
F18.0
F128.0
tp11
a(VID00048
p12
F182.0
F183.0
tp13
atp14
a(L2L
g2
(lp15
(VID00023
p16
F5.0
F150.0
tp17
a(VID00046
p18
F180.0
F182.0
tp19
a(VID00062
p20
F214.0
F215.0
tp21
a(VID00087
p22
F216.0
F355.0
tp23
a(VID00098
p24
F408.0
F410.0
tp25
atp26
a(L4L
g2
(lp27
(VID00029
p28
F12.0
F84.0
tp29
a(VID00054
p30
F182.0
F183.0
tp31
a(VID00056
p32
F183.0
F185.0
tp33
a(VID00090
p34
F226.0
F383.0
tp35
atp36
a(L8L
g2
(lp37
(VID00021
p38
I0
F6.0
tp39
a(VID00030
p40
F6.0
F155.0
tp41
a(VID00074
p42
F188.0
F369.0
tp43
atp44
a(L14L
g2
(lp45
(VID00005
p46
I0
F6.0
tp47
a(VID00013
p48
F6.0
F12.0
tp49
a(VID00033
p50
F12.0
F103.0
tp51
a(VID00089
p52
F216.0
F350.0
tp53
atp54
a(L19L
g2
(lp55
(VID00007
p56
I0
F6.0
tp57
a(VID00012
p58
F6.0
F12.0
tp59
a(VID00035
p60
F12.0
F116.0
tp61
a(VID00059
p62
F182.0
F184.0
tp63
a(VID00058
p64
F184.0
F185.0
tp65
a(VID00084
p66
F218.0
F372.0
tp67
atp68
a(L34L
g2
(lp69
(VID00027
p70
F6.0
F112.0
tp71
a(VID00083
p72
F184.0
F314.0
tp73
atp74
a(L35L
g2
(lp75
(VID00016
p76
I0
F6.0
tp77
a(VID00015
p78
F6.0
F12.0
tp79
a(VID00047
p80
F212.0
F214.0
tp81
a(VID00061
p82
F214.0
F215.0
tp83
a(VID00086
p84
F215.0
F404.0
tp85
atp86
a(L37L
g2
(lp87
(VID00000
p88
I0
F5.0
tp89
a(VID00032
p90
F6.0
F137.0
tp91
a(VID00051
p92
F182.0
F184.0
tp93
a(VID00081
p94
F184.0
F348.0
tp95
atp96
a(L38L
g2
(lp97
(VID00026
p98
F18.0
F155.0
tp99
a(VID00077
p100
F183.0
F314.0
tp101
a(VID00095
p102
F323.0
F402.0
tp103
atp104
a(L39L
g2
(lp105
(VID00034
p106
F11.0
F117.0
tp107
a(VID00092
p108
F216.0
F321.0
tp109
a(VID00071
p110
F321.0
F323.0
tp111
a(VID00099
p112
F408.0
F410.0
tp113
atp114
a(L44L
Vapac-sin#m3.xlarge
p115
(lp116
(VID00079
p117
F192.0
F375.0
tp118
atp119
a(L50L
g2
(lp120
(VID00002
p121
I0
F6.0
tp122
a(VID00031
p123
F6.0
F82.0
tp124
a(VID00076
p125
F190.0
F337.0
tp126
atp127
a(L51L
g2
(lp128
(VID00043
p129
F6.0
F174.0
tp130
a(VID00057
p131
F182.0
F184.0
tp132
a(VID00065
p133
F214.0
F216.0
tp134
a(VID00060
p135
F216.0
F218.0
tp136
a(VID00070
p137
F218.0
F220.0
tp138
a(S'exit'
p139
F410.0
F410.0
tp140
atp141
a(L52L
g2
(lp142
(VID00020
p143
I0
F6.0
tp144
a(VID00039
p145
F6.0
F212.0
tp146
a(VID00088
p147
F300.0
F400.0
tp148
atp149
a(L53L
g2
(lp150
(VID00044
p151
F6.0
F135.0
tp152
a(VID00082
p153
F185.0
F299.0
tp154
a(VID00064
p155
F299.0
F300.0
tp156
a(VID00091
p157
F300.0
F395.0
tp158
atp159
a(L57L
g2
(lp160
(VID00004
p161
I0
F6.0
tp162
a(VID00006
p163
F6.0
F12.0
tp164
a(VID00003
p165
F12.0
F18.0
tp166
a(VID00036
p167
F18.0
F186.0
tp168
a(VID00050
p169
F186.0
F188.0
tp170
a(VID00052
p171
F188.0
F190.0
tp172
a(VID00055
p173
F190.0
F192.0
tp174
a(VID00078
p175
F192.0
F346.0
tp176
atp177
a(L60L
g2
(lp178
(VID00018
p179
I0
F5.0
tp180
a(VID00041
p181
F5.0
F144.0
tp182
a(VID00063
p183
F214.0
F216.0
tp184
atp185
a(L66L
g2
(lp186
(VID00025
p187
F6.0
F180.0
tp188
a(VID00075
p189
F184.0
F374.0
tp190
a(VID00097
p191
F375.0
F377.0
tp192
atp193
a(L72L
g2
(lp194
(VID00008
p195
I0
F6.0
tp196
a(VID00011
p197
F6.0
F11.0
tp198
a(VID00037
p199
F18.0
F180.0
tp200
a(VID00085
p201
F215.0
F408.0
tp202
atp203
a(L77L
g2
(lp204
(VID00045
p205
F6.0
F165.0
tp206
a(VID00080
p207
F185.0
F271.0
tp208
a(VID00094
p209
F271.0
F407.0
tp210
atp211
a(L86L
Vapac-sin#m3.medium
p212
(lp213
(VID00001
p214
I0
F49.0
tp215
a(VID00049
p216
F182.0
F195.0
tp217
a(VID00066
p218
F214.0
F226.0
tp219
a(VID00067
p220
F226.0
F240.0
tp221
a(VID00072
p222
F240.0
F254.0
tp223
atp224
a(L87L
g2
(lp225
(S'entry'
p226
I0
F0.0
tp227
a(VID00022
p228
I0
F6.0
tp229
a(VID00019
p230
F6.0
F12.0
tp231
a(VID00042
p232
F12.0
F182.0
tp233
a(VID00096
p234
F254.0
F408.0
tp235
atp236
a(L97L
g2
(lp237
(VID00028
p238
F6.0
F79.0
tp239
a(VID00017
p240
F79.0
F85.0
tp241
a(VID00040
p242
F85.0
F190.0
tp243
a(VID00068
p244
F214.0
F216.0
tp245
a(VID00069
p246
F216.0
F218.0
tp247
a(VID00093
p248
F218.0
F372.0
tp249
atp250
a(L100L
g2
(lp251
(VID00024
p252
F49.0
F148.0
tp253
a(VID00053
p254
F182.0
F183.0
tp255
a(VID00073
p256
F195.0
F334.0
tp257
atp258
atp259
a(F656.0
F26.93
(lp260
(L0L
g2
(lp261
(g4
I0
F6.0
tp262
a(g6
F6.0
F12.0
tp263
a(g8
F12.0
F18.0
tp264
a(g10
F23.0
F133.0
tp265
a(g12
F204.0
F205.0
tp266
atp267
a(L2L
g2
(lp268
(g16
F11.0
F156.0
tp269
a(g18
F273.0
F275.0
tp270
a(g20
F275.0
F276.0
tp271
a(g22
F276.0
F415.0
tp272
a(g24
F654.0
F656.0
tp273
atp274
a(L4L
g2
(lp275
(g28
F12.0
F84.0
tp276
a(g30
F275.0
F276.0
tp277
a(g32
F276.0
F278.0
tp278
a(g34
F300.0
F457.0
tp279
atp280
a(L8L
g2
(lp281
(g38
I0
F6.0
tp282
a(g40
F6.0
F155.0
tp283
a(g42
F277.0
F458.0
tp284
atp285
a(L14L
g2
(lp286
(g46
I0
F6.0
tp287
a(g48
F6.0
F12.0
tp288
a(g50
F12.0
F103.0
tp289
a(g52
F279.0
F413.0
tp290
atp291
a(L19L
g2
(lp292
(g56
I0
F6.0
tp293
a(g58
F6.0
F12.0
tp294
a(g60
F12.0
F116.0
tp295
a(g62
F275.0
F277.0
tp296
a(g64
F277.0
F278.0
tp297
a(g66
F281.0
F435.0
tp298
atp299
a(L34L
g115
(lp300
(g70
F6.0
F218.0
tp301
a(g72
F277.0
F536.0
tp302
atp303
a(L35L
g115
(lp304
(g76
I0
F12.0
tp305
a(g78
F12.0
F23.0
tp306
a(g230
F23.0
F34.0
tp307
a(g80
F218.0
F221.0
tp308
a(g82
F221.0
F224.0
tp309
a(g84
F276.0
F654.0
tp310
atp311
a(L37L
g115
(lp312
(g88
I0
F11.0
tp313
a(g90
F11.0
F273.0
tp314
a(g92
F275.0
F278.0
tp315
a(g94
F278.0
F605.0
tp316
atp317
a(L38L
g2
(lp318
(g98
F18.0
F155.0
tp319
a(g100
F276.0
F407.0
tp320
a(g102
F407.0
F486.0
tp321
atp322
a(L39L
g2
(lp323
(g106
F11.0
F117.0
tp324
a(g108
F223.0
F328.0
tp325
a(g110
F328.0
F330.0
tp326
a(g112
F500.0
F502.0
tp327
atp328
a(L44L
Vapac-sin#m3.large
p329
(lp330
(g117
F281.0
F647.0
tp331
atp332
a(L50L
g115
(lp333
(g121
I0
F11.0
tp334
a(g123
F11.0
F163.0
tp335
a(g125
F279.0
F572.0
tp336
atp337
a(L51L
g2
(lp338
(g129
F6.0
F174.0
tp339
a(g131
F275.0
F277.0
tp340
a(g133
F277.0
F279.0
tp341
a(g135
F279.0
F281.0
tp342
a(g137
F281.0
F283.0
tp343
a(g139
F656.0
F656.0
tp344
atp345
a(L52L
g2
(lp346
(g143
I0
F6.0
tp347
a(g145
F12.0
F218.0
tp348
a(g147
F393.0
F493.0
tp349
atp350
a(L53L
g2
(lp351
(g151
F6.0
F135.0
tp352
a(g153
F278.0
F392.0
tp353
a(g155
F392.0
F393.0
tp354
a(g157
F393.0
F488.0
tp355
atp356
a(L57L
g2
(lp357
(g161
I0
F6.0
tp358
a(g163
F6.0
F12.0
tp359
a(g165
F12.0
F18.0
tp360
a(g167
F18.0
F186.0
tp361
a(g169
F275.0
F277.0
tp362
a(g171
F277.0
F279.0
tp363
a(g173
F279.0
F281.0
tp364
a(g175
F281.0
F435.0
tp365
atp366
a(L60L
g2
(lp367
(g179
I0
F5.0
tp368
a(g181
F5.0
F144.0
tp369
a(g183
F221.0
F223.0
tp370
atp371
a(L66L
g2
(lp372
(g187
F11.0
F185.0
tp373
a(g189
F278.0
F468.0
tp374
a(g191
F647.0
F649.0
tp375
atp376
a(L72L
g2
(lp377
(g195
I0
F6.0
tp378
a(g197
F6.0
F11.0
tp379
a(g199
F18.0
F180.0
tp380
a(g201
F224.0
F417.0
tp381
atp382
a(L77L
g2
(lp383
(g205
F6.0
F165.0
tp384
a(g207
F278.0
F364.0
tp385
a(g209
F364.0
F500.0
tp386
atp387
a(L86L
g212
(lp388
(g214
I0
F49.0
tp389
a(g216
F275.0
F288.0
tp390
a(g218
F288.0
F300.0
tp391
a(g220
F300.0
F314.0
tp392
a(g222
F314.0
F328.0
tp393
atp394
a(L87L
g2
(lp395
(g226
I0
F0.0
tp396
a(g228
I0
F6.0
tp397
a(g232
F34.0
F204.0
tp398
a(g234
F328.0
F482.0
tp399
atp400
a(L97L
g2
(lp401
(g238
F6.0
F79.0
tp402
a(g240
F79.0
F85.0
tp403
a(g242
F85.0
F190.0
tp404
a(g244
F221.0
F223.0
tp405
a(g246
F223.0
F225.0
tp406
a(g248
F225.0
F379.0
tp407
atp408
a(L100L
g2
(lp409
(g252
F49.0
F148.0
tp410
a(g254
F275.0
F276.0
tp411
a(g256
F288.0
F427.0
tp412
atp413
atp414
a(F1230.0
F25.45
(lp415
(L0L
g115
(lp416
(g6
I0
F12.0
tp417
a(g8
F12.0
F24.0
tp418
a(g10
F24.0
F243.0
tp419
a(g12
F570.0
F573.0
tp420
atp421
a(L2L
g329
(lp422
(g16
F5.0
F586.0
tp423
a(g135
F586.0
F592.0
tp424
a(g20
F592.0
F597.0
tp425
atp426
a(L4L
g329
(lp427
(g28
F12.0
F301.0
tp428
a(g30
F588.0
F594.0
tp429
a(g32
F594.0
F601.0
tp430
a(g34
F601.0
F1228.0
tp431
atp432
a(L8L
g115
(lp433
(g38
I0
F12.0
tp434
a(g40
F12.0
F309.0
tp435
a(g42
F590.0
F951.0
tp436
atp437
a(L14L
g115
(lp438
(g46
I0
F11.0
tp439
a(g4
F11.0
F22.0
tp440
a(g48
F22.0
F33.0
tp441
a(g50
F33.0
F216.0
tp442
a(g52
F592.0
F861.0
tp443
atp444
a(L19L
g2
(lp445
(g56
I0
F6.0
tp446
a(g58
F6.0
F12.0
tp447
a(g60
F12.0
F116.0
tp448
a(g62
F588.0
F590.0
tp449
a(g64
F590.0
F591.0
tp450
a(g92
F591.0
F593.0
tp451
a(g66
F593.0
F747.0
tp452
atp453
a(L34L
g2
(lp454
(g70
F6.0
F112.0
tp455
a(g72
F590.0
F720.0
tp456
a(g24
F1228.0
F1230.0
tp457
atp458
a(L35L
g2
(lp459
(g76
I0
F6.0
tp460
a(g78
F6.0
F12.0
tp461
a(g230
F12.0
F18.0
tp462
a(g80
F570.0
F572.0
tp463
a(g82
F572.0
F573.0
tp464
a(g84
F597.0
F786.0
tp465
atp466
a(L37L
g2
(lp467
(g88
I0
F5.0
tp468
a(g90
F22.0
F153.0
tp469
a(g94
F590.0
F754.0
tp470
a(g22
F754.0
F893.0
tp471
atp472
a(L38L
g2
(lp473
(g165
I0
F6.0
tp474
a(g98
F6.0
F143.0
tp475
a(g18
F586.0
F588.0
tp476
a(g100
F589.0
F720.0
tp477
a(g102
F720.0
F799.0
tp478
atp479
a(L39L
g2
(lp480
(g106
F11.0
F117.0
tp481
a(g108
F574.0
F679.0
tp482
a(g112
F1132.0
F1134.0
tp483
atp484
a(L43L
Vapac-sin#m1.small
p485
(lp486
(g216
F588.0
F627.0
tp487
atp488
a(L44L
g115
(lp489
(g123
F6.0
F158.0
tp490
a(g117
F594.0
F777.0
tp491
atp492
a(L50L
g2
(lp493
(g121
I0
F6.0
tp494
a(g125
F592.0
F739.0
tp495
atp496
a(L51L
g2
(lp497
(g129
F6.0
F174.0
tp498
a(g131
F588.0
F590.0
tp499
a(g133
F590.0
F592.0
tp500
a(g110
F592.0
F594.0
tp501
a(g137
F594.0
F596.0
tp502
a(g139
F1230.0
F1230.0
tp503
atp504
a(L52L
g2
(lp505
(g143
I0
F6.0
tp506
a(g163
F6.0
F12.0
tp507
a(g145
F12.0
F218.0
tp508
a(g147
F706.0
F806.0
tp509
atp510
a(L53L
g2
(lp511
(g151
F12.0
F141.0
tp512
a(g153
F591.0
F705.0
tp513
a(g155
F705.0
F706.0
tp514
a(g157
F706.0
F801.0
tp515
atp516
a(L57L
g2
(lp517
(g161
I0
F6.0
tp518
a(g167
F33.0
F201.0
tp519
a(g169
F588.0
F590.0
tp520
a(g171
F590.0
F592.0
tp521
a(g173
F592.0
F594.0
tp522
a(g175
F594.0
F748.0
tp523
atp524
a(L60L
g2
(lp525
(g179
I0
F5.0
tp526
a(g181
F5.0
F144.0
tp527
a(g183
F572.0
F574.0
tp528
atp529
a(L66L
g2
(lp530
(g187
F6.0
F180.0
tp531
a(g189
F593.0
F783.0
tp532
a(g191
F951.0
F953.0
tp533
atp534
a(L72L
g2
(lp535
(g195
I0
F6.0
tp536
a(g197
F6.0
F11.0
tp537
a(g199
F24.0
F186.0
tp538
a(g201
F573.0
F766.0
tp539
atp540
a(L77L
g2
(lp541
(g205
F18.0
F177.0
tp542
a(g207
F601.0
F687.0
tp543
a(g209
F687.0
F823.0
tp544
atp545
a(L86L
Vapac-sin#m1.medium
p546
(lp547
(g214
I0
F74.0
tp548
a(g218
F572.0
F591.0
tp549
a(g220
F591.0
F612.0
tp550
a(g222
F612.0
F633.0
tp551
atp552
a(L87L
Vapac-sin#m1.xlarge
p553
(lp554
(g226
I0
F0.0
tp555
a(g228
I0
F18.0
tp556
a(g232
F18.0
F570.0
tp557
a(g234
F633.0
F1132.0
tp558
atp559
a(L97L
g2
(lp560
(g238
F11.0
F84.0
tp561
a(g240
F84.0
F90.0
tp562
a(g242
F90.0
F195.0
tp563
a(g244
F572.0
F574.0
tp564
a(g246
F574.0
F576.0
tp565
a(g248
F576.0
F730.0
tp566
atp567
a(L100L
g2
(lp568
(g252
F74.0
F173.0
tp569
a(g254
F588.0
F589.0
tp570
a(g256
F627.0
F766.0
tp571
atp572
atp573
a(F1360.0
F22.85
(lp574
(L0L
g115
(lp575
(g6
I0
F12.0
tp576
a(g8
F12.0
F24.0
tp577
a(g10
F24.0
F243.0
tp578
a(g12
F556.0
F559.0
tp579
atp580
a(L2L
g329
(lp581
(g16
F11.0
F592.0
tp582
a(g20
F592.0
F597.0
tp583
a(g22
F597.0
F1152.0
tp584
a(g24
F1234.0
F1241.0
tp585
atp586
a(L4L
g329
(lp587
(g28
F12.0
F301.0
tp588
a(g30
F594.0
F600.0
tp589
a(g32
F600.0
F607.0
tp590
a(g34
F607.0
F1234.0
tp591
atp592
a(L8L
g115
(lp593
(g38
I0
F12.0
tp594
a(g40
F12.0
F309.0
tp595
a(g42
F596.0
F957.0
tp596
atp597
a(L14L
g115
(lp598
(g46
I0
F11.0
tp599
a(g4
F11.0
F22.0
tp600
a(g48
F22.0
F33.0
tp601
a(g50
F33.0
F216.0
tp602
a(g52
F604.0
F873.0
tp603
atp604
a(L19L
g2
(lp605
(g56
I0
F6.0
tp606
a(g58
F6.0
F12.0
tp607
a(g60
F12.0
F116.0
tp608
a(g62
F594.0
F596.0
tp609
a(g64
F596.0
F597.0
tp610
a(g92
F597.0
F599.0
tp611
a(g66
F609.0
F763.0
tp612
atp613
a(L34L
g115
(lp614
(g70
F6.0
F218.0
tp615
a(g72
F596.0
F855.0
tp616
atp617
a(L35L
g115
(lp618
(g76
I0
F12.0
tp619
a(g78
F12.0
F23.0
tp620
a(g80
F425.0
F428.0
tp621
a(g82
F428.0
F431.0
tp622
a(g84
F597.0
F975.0
tp623
atp624
a(L37L
g115
(lp625
(g88
I0
F11.0
tp626
a(g90
F22.0
F284.0
tp627
a(g94
F599.0
F926.0
tp628
atp629
a(L38L
g2
(lp630
(g165
I0
F6.0
tp631
a(g98
F6.0
F143.0
tp632
a(g18
F592.0
F594.0
tp633
a(g100
F595.0
F726.0
tp634
a(g102
F726.0
F805.0
tp635
atp636
a(L39L
g2
(lp637
(g106
F11.0
F117.0
tp638
a(g108
F430.0
F535.0
tp639
a(g110
F559.0
F561.0
tp640
a(g112
F829.0
F831.0
tp641
atp642
a(L41L
g115
(lp643
(g216
F594.0
F597.0
tp644
atp645
a(L44L
g329
(lp646
(g123
F6.0
F310.0
tp647
a(g117
F600.0
F966.0
tp648
atp649
a(L50L
Vapac-sin#m1.large
p650
(lp651
(g121
I0
F37.0
tp652
atp653
a(L51L
g553
(lp654
(g129
F11.0
F556.0
tp655
a(g131
F594.0
F599.0
tp656
a(g133
F599.0
F604.0
tp657
a(g135
F604.0
F609.0
tp658
a(g137
F609.0
F614.0
tp659
a(g139
F1360.0
F1360.0
tp660
atp661
a(L52L
g115
(lp662
(g143
I0
F11.0
tp663
a(g145
F12.0
F425.0
tp664
a(g147
F712.0
F912.0
tp665
atp666
a(L53L
g2
(lp667
(g151
F12.0
F141.0
tp668
a(g153
F597.0
F711.0
tp669
a(g155
F711.0
F712.0
tp670
a(g157
F712.0
F807.0
tp671
atp672
a(L57L
g2
(lp673
(g161
I0
F6.0
tp674
a(g163
F6.0
F12.0
tp675
a(g167
F33.0
F201.0
tp676
a(g169
F594.0
F596.0
tp677
a(g171
F596.0
F598.0
tp678
a(g173
F598.0
F600.0
tp679
a(g175
F600.0
F754.0
tp680
atp681
a(L60L
g2
(lp682
(g179
I0
F5.0
tp683
a(g181
F5.0
F144.0
tp684
a(g183
F428.0
F430.0
tp685
atp686
a(L66L
g2
(lp687
(g187
F37.0
F211.0
tp688
a(g191
F1358.0
F1360.0
tp689
atp690
a(L72L
g2
(lp691
(g195
I0
F6.0
tp692
a(g197
F6.0
F11.0
tp693
a(g199
F24.0
F186.0
tp694
a(g201
F431.0
F624.0
tp695
atp696
a(L77L
g2
(lp697
(g205
F6.0
F165.0
tp698
a(g207
F607.0
F693.0
tp699
a(g209
F693.0
F829.0
tp700
atp701
a(L84L
g329
(lp702
(g125
F598.0
F1185.0
tp703
atp704
a(L86L
g212
(lp705
(g214
I0
F49.0
tp706
a(g218
F428.0
F440.0
tp707
a(g220
F440.0
F454.0
tp708
a(g222
F559.0
F573.0
tp709
atp710
a(L87L
g2
(lp711
(g226
I0
F0.0
tp712
a(g228
I0
F6.0
tp713
a(g230
F6.0
F12.0
tp714
a(g232
F12.0
F182.0
tp715
a(g234
F573.0
F727.0
tp716
atp717
a(L92L
g329
(lp718
(g189
F599.0
F1358.0
tp719
atp720
a(L97L
g2
(lp721
(g238
F11.0
F84.0
tp722
a(g240
F84.0
F90.0
tp723
a(g242
F90.0
F195.0
tp724
a(g244
F428.0
F430.0
tp725
a(g246
F559.0
F561.0
tp726
a(g248
F561.0
F715.0
tp727
atp728
a(L100L
g2
(lp729
(g252
F49.0
F148.0
tp730
a(g254
F594.0
F595.0
tp731
a(g256
F597.0
F736.0
tp732
atp733
atp734
a(F1848.0
F15.84
(lp735
(L0L
g115
(lp736
(g6
I0
F12.0
tp737
a(g8
F12.0
F24.0
tp738
a(g10
F24.0
F243.0
tp739
a(g12
F556.0
F559.0
tp740
atp741
a(L2L
g329
(lp742
(g16
F11.0
F592.0
tp743
a(g135
F750.0
F756.0
tp744
a(g20
F756.0
F761.0
tp745
atp746
a(L4L
g329
(lp747
(g28
F23.0
F312.0
tp748
a(g30
F733.0
F739.0
tp749
a(g32
F739.0
F746.0
tp750
a(g34
F809.0
F1436.0
tp751
atp752
a(L8L
g115
(lp753
(g38
I0
F12.0
tp754
a(g40
F12.0
F309.0
tp755
a(g42
F737.0
F1098.0
tp756
atp757
a(L14L
g115
(lp758
(g46
I0
F11.0
tp759
a(g4
F11.0
F22.0
tp760
a(g48
F22.0
F33.0
tp761
a(g50
F33.0
F216.0
tp762
a(g52
F755.0
F1024.0
tp763
atp764
a(L19L
g2
(lp765
(g56
I0
F6.0
tp766
a(g58
F6.0
F12.0
tp767
a(g60
F12.0
F116.0
tp768
a(g62
F733.0
F735.0
tp769
a(g64
F735.0
F736.0
tp770
a(g92
F736.0
F738.0
tp771
a(g66
F756.0
F910.0
tp772
atp773
a(L34L
g115
(lp774
(g70
F12.0
F224.0
tp775
a(g72
F735.0
F994.0
tp776
a(g24
F1436.0
F1439.0
tp777
atp778
a(L35L
g115
(lp779
(g76
I0
F12.0
tp780
a(g78
F12.0
F23.0
tp781
a(g230
F23.0
F34.0
tp782
a(g80
F747.0
F750.0
tp783
a(g82
F750.0
F753.0
tp784
a(g84
F761.0
F1139.0
tp785
atp786
a(L37L
g115
(lp787
(g88
I0
F11.0
tp788
a(g90
F22.0
F284.0
tp789
a(g94
F738.0
F1065.0
tp790
a(g22
F1065.0
F1343.0
tp791
atp792
a(L38L
g2
(lp793
(g165
I0
F6.0
tp794
a(g98
F6.0
F143.0
tp795
a(g18
F731.0
F733.0
tp796
a(g100
F739.0
F870.0
tp797
a(g102
F870.0
F949.0
tp798
atp799
a(L39L
g2
(lp800
(g106
F22.0
F128.0
tp801
a(g108
F757.0
F862.0
tp802
a(g112
F1382.0
F1384.0
tp803
atp804
a(L44L
g329
(lp805
(g123
F11.0
F315.0
tp806
a(g117
F743.0
F1109.0
tp807
atp808
a(L50L
g650
(lp809
(g121
I0
F37.0
tp810
a(g125
F740.0
F1694.0
tp811
atp812
a(L51L
g553
(lp813
(g129
F11.0
F556.0
tp814
a(g131
F733.0
F738.0
tp815
a(g133
F750.0
F755.0
tp816
a(g110
F755.0
F760.0
tp817
a(g137
F760.0
F765.0
tp818
atp819
a(L52L
g115
(lp820
(g143
I0
F11.0
tp821
a(g145
F12.0
F425.0
tp822
a(g147
F851.0
F1051.0
tp823
atp824
a(L53L
g2
(lp825
(g151
F12.0
F141.0
tp826
a(g153
F736.0
F850.0
tp827
a(g155
F850.0
F851.0
tp828
a(g157
F851.0
F946.0
tp829
atp830
a(L57L
g115
(lp831
(g161
I0
F12.0
tp832
a(g163
F12.0
F23.0
tp833
a(g167
F33.0
F369.0
tp834
a(g169
F733.0
F737.0
tp835
a(g171
F737.0
F740.0
tp836
a(g173
F740.0
F743.0
tp837
a(g175
F743.0
F1051.0
tp838
atp839
a(L60L
g329
(lp840
(g179
I0
F22.0
tp841
a(g181
F22.0
F576.0
tp842
a(g183
F750.0
F757.0
tp843
a(g139
F1848.0
F1848.0
tp844
atp845
a(L66L
g329
(lp846
(g187
F37.0
F731.0
tp847
a(g189
F738.0
F1497.0
tp848
a(g207
F1497.0
F1842.0
tp849
a(g191
F1842.0
F1848.0
tp850
atp851
a(L72L
g115
(lp852
(g195
I0
F11.0
tp853
a(g197
F11.0
F22.0
tp854
a(g199
F24.0
F348.0
tp855
a(g201
F753.0
F1140.0
tp856
atp857
a(L77L
g2
(lp858
(g205
F11.0
F170.0
tp859
a(g209
F765.0
F901.0
tp860
atp861
a(L86L
g485
(lp862
(g214
I0
F147.0
tp863
a(g216
F733.0
F772.0
tp864
a(g218
F772.0
F809.0
tp865
a(g220
F809.0
F850.0
tp866
a(g222
F850.0
F893.0
tp867
atp868
a(L87L
g115
(lp869
(g226
I0
F0.0
tp870
a(g228
I0
F11.0
tp871
a(g232
F34.0
F374.0
tp872
a(g234
F893.0
F1200.0
tp873
atp874
a(L97L
g329
(lp875
(g238
F11.0
F304.0
tp876
a(g240
F304.0
F326.0
tp877
a(g242
F326.0
F747.0
tp878
a(g244
F750.0
F757.0
tp879
a(g246
F757.0
F764.0
tp880
a(g248
F764.0
F1382.0
tp881
atp882
a(L100L
g329
(lp883
(g252
F147.0
F544.0
tp884
a(g254
F733.0
F739.0
tp885
a(g256
F772.0
F1328.0
tp886
atp887
atp888
a(F2378.0
F14.27
(lp889
(L0L
g115
(lp890
(g6
I0
F12.0
tp891
a(g8
F12.0
F24.0
tp892
a(g10
F24.0
F243.0
tp893
a(g12
F556.0
F559.0
tp894
atp895
a(L2L
g329
(lp896
(g16
F11.0
F592.0
tp897
a(g18
F937.0
F944.0
tp898
a(g135
F1003.0
F1009.0
tp899
a(g20
F1009.0
F1014.0
tp900
atp901
a(L4L
g329
(lp902
(g28
F23.0
F312.0
tp903
a(g30
F944.0
F950.0
tp904
a(g32
F950.0
F957.0
tp905
a(g34
F1040.0
F1667.0
tp906
atp907
a(L8L
g115
(lp908
(g38
I0
F12.0
tp909
a(g40
F51.0
F348.0
tp910
a(g42
F948.0
F1309.0
tp911
atp912
a(L14L
g212
(lp913
(g46
I0
F48.0
tp914
a(g4
F48.0
F97.0
tp915
a(g48
F97.0
F145.0
tp916
a(g50
F145.0
F937.0
tp917
a(g52
F1008.0
F2172.0
tp918
atp919
a(L19L
g212
(lp920
(g56
I0
F51.0
tp921
a(g58
F51.0
F99.0
tp922
a(g60
F99.0
F1000.0
tp923
a(g62
F1000.0
F1014.0
tp924
a(g64
F1014.0
F1025.0
tp925
a(g92
F1025.0
F1039.0
tp926
a(g66
F1039.0
F2375.0
tp927
atp928
a(L34L
g115
(lp929
(g70
F12.0
F224.0
tp930
a(g72
F1014.0
F1273.0
tp931
a(g24
F2375.0
F2378.0
tp932
atp933
a(L35L
g115
(lp934
(g76
I0
F12.0
tp935
a(g78
F12.0
F23.0
tp936
a(g230
F23.0
F34.0
tp937
a(g80
F1000.0
F1003.0
tp938
a(g82
F1003.0
F1006.0
tp939
a(g84
F1014.0
F1392.0
tp940
atp941
a(L37L
g115
(lp942
(g88
I0
F11.0
tp943
a(g90
F97.0
F359.0
tp944
a(g94
F949.0
F1276.0
tp945
a(g22
F1276.0
F1554.0
tp946
atp947
a(L38L
g2
(lp948
(g165
I0
F6.0
tp949
a(g98
F6.0
F143.0
tp950
a(g100
F950.0
F1081.0
tp951
a(g102
F1081.0
F1160.0
tp952
atp953
a(L39L
g2
(lp954
(g106
F22.0
F128.0
tp955
a(g108
F1010.0
F1115.0
tp956
a(g112
F1635.0
F1637.0
tp957
atp958
a(L44L
g329
(lp959
(g123
F11.0
F315.0
tp960
a(g117
F954.0
F1320.0
tp961
atp962
a(L50L
g650
(lp963
(g121
I0
F37.0
tp964
a(g125
F951.0
F1905.0
tp965
atp966
a(L51L
g553
(lp967
(g129
F11.0
F556.0
tp968
a(g131
F944.0
F949.0
tp969
a(g133
F1003.0
F1008.0
tp970
a(g110
F1008.0
F1013.0
tp971
a(g137
F1013.0
F1018.0
tp972
atp973
a(L52L
g115
(lp974
(g143
I0
F11.0
tp975
a(g145
F12.0
F425.0
tp976
a(g147
F1140.0
F1340.0
tp977
atp978
a(L53L
g2
(lp979
(g151
F12.0
F141.0
tp980
a(g153
F1025.0
F1139.0
tp981
a(g155
F1139.0
F1140.0
tp982
a(g157
F1140.0
F1235.0
tp983
atp984
a(L57L
g115
(lp985
(g161
I0
F12.0
tp986
a(g163
F12.0
F23.0
tp987
a(g167
F145.0
F481.0
tp988
a(g169
F944.0
F948.0
tp989
a(g171
F948.0
F951.0
tp990
a(g173
F951.0
F954.0
tp991
a(g175
F954.0
F1262.0
tp992
atp993
a(L60L
g329
(lp994
(g179
I0
F22.0
tp995
a(g181
F22.0
F576.0
tp996
a(g183
F1003.0
F1010.0
tp997
a(g139
F2378.0
F2378.0
tp998
atp999
a(L66L
g329
(lp1000
(g187
F37.0
F731.0
tp1001
a(g189
F1039.0
F1798.0
tp1002
a(g207
F1798.0
F2143.0
tp1003
a(g191
F2143.0
F2149.0
tp1004
atp1005
a(L72L
g115
(lp1006
(g195
I0
F11.0
tp1007
a(g197
F11.0
F22.0
tp1008
a(g199
F24.0
F348.0
tp1009
a(g201
F1006.0
F1393.0
tp1010
atp1011
a(L77L
g2
(lp1012
(g205
F11.0
F170.0
tp1013
a(g209
F1018.0
F1154.0
tp1014
atp1015
a(L86L
g485
(lp1016
(g214
I0
F147.0
tp1017
a(g216
F944.0
F983.0
tp1018
a(g218
F1003.0
F1040.0
tp1019
a(g220
F1040.0
F1081.0
tp1020
a(g222
F1081.0
F1124.0
tp1021
atp1022
a(L87L
g115
(lp1023
(g226
I0
F0.0
tp1024
a(g228
I0
F11.0
tp1025
a(g232
F34.0
F374.0
tp1026
a(g234
F1124.0
F1431.0
tp1027
atp1028
a(L97L
g329
(lp1029
(g238
F48.0
F341.0
tp1030
a(g240
F341.0
F363.0
tp1031
a(g242
F363.0
F784.0
tp1032
a(g244
F1003.0
F1010.0
tp1033
a(g246
F1010.0
F1017.0
tp1034
a(g248
F1017.0
F1635.0
tp1035
atp1036
a(L100L
g329
(lp1037
(g252
F147.0
F544.0
tp1038
a(g254
F944.0
F950.0
tp1039
a(g256
F983.0
F1539.0
tp1040
atp1041
atp1042
a(F2676.0
F8.29
(lp1043
(L0L
g115
(lp1044
(g6
I0
F12.0
tp1045
a(g8
F12.0
F24.0
tp1046
a(g10
F100.0
F319.0
tp1047
a(g12
F1389.0
F1392.0
tp1048
atp1049
a(L2L
g329
(lp1050
(g16
F22.0
F603.0
tp1051
a(g18
F937.0
F944.0
tp1052
a(g135
F1015.0
F1021.0
tp1053
a(g20
F1021.0
F1026.0
tp1054
atp1055
a(L4L
g329
(lp1056
(g28
F23.0
F312.0
tp1057
a(g30
F944.0
F950.0
tp1058
a(g32
F950.0
F957.0
tp1059
a(g34
F1052.0
F1679.0
tp1060
atp1061
a(L8L
g115
(lp1062
(g38
I0
F12.0
tp1063
a(g40
F51.0
F348.0
tp1064
a(g42
F948.0
F1309.0
tp1065
atp1066
a(L14L
g212
(lp1067
(g46
I0
F48.0
tp1068
a(g4
F48.0
F97.0
tp1069
a(g48
F97.0
F145.0
tp1070
a(g50
F145.0
F937.0
tp1071
a(g52
F1021.0
F2185.0
tp1072
atp1073
a(L19L
g212
(lp1074
(g56
I0
F51.0
tp1075
a(g58
F51.0
F99.0
tp1076
a(g60
F99.0
F1000.0
tp1077
a(g62
F1000.0
F1014.0
tp1078
a(g64
F1014.0
F1025.0
tp1079
a(g92
F1025.0
F1039.0
tp1080
a(g66
F1039.0
F2375.0
tp1081
atp1082
a(L34L
g650
(lp1083
(g70
F12.0
F700.0
tp1084
a(g72
F1014.0
F1857.0
tp1085
a(g24
F2665.0
F2676.0
tp1086
atp1087
a(L35L
g212
(lp1088
(g76
I0
F50.0
tp1089
a(g78
F50.0
F100.0
tp1090
a(g230
F100.0
F149.0
tp1091
a(g80
F1000.0
F1015.0
tp1092
a(g82
F1015.0
F1026.0
tp1093
a(g84
F1026.0
F2665.0
tp1094
atp1095
a(L37L
g329
(lp1096
(g88
I0
F22.0
tp1097
a(g90
F97.0
F620.0
tp1098
a(g94
F950.0
F1605.0
tp1099
a(g22
F1605.0
F2160.0
tp1100
atp1101
a(L38L
g650
(lp1102
(g165
I0
F37.0
tp1103
a(g98
F37.0
F925.0
tp1104
a(g100
F950.0
F1799.0
tp1105
a(g102
F1799.0
F2312.0
tp1106
atp1107
a(L39L
g212
(lp1108
(g106
F22.0
F938.0
tp1109
a(g108
F1022.0
F1934.0
tp1110
a(g112
F2581.0
F2594.0
tp1111
atp1112
a(L44L
g212
(lp1113
(g123
F11.0
F670.0
tp1114
a(g117
F954.0
F1747.0
tp1115
atp1116
a(L50L
g329
(lp1117
(g121
I0
F23.0
tp1118
a(g125
F951.0
F1538.0
tp1119
atp1120
a(L51L
g329
(lp1121
(g129
F23.0
F694.0
tp1122
a(g131
F944.0
F950.0
tp1123
a(g133
F1015.0
F1021.0
tp1124
a(g110
F1392.0
F1398.0
tp1125
a(g137
F1398.0
F1404.0
tp1126
atp1127
a(L52L
g329
(lp1128
(g143
I0
F23.0
tp1129
a(g145
F50.0
F875.0
tp1130
a(g147
F1773.0
F2173.0
tp1131
atp1132
a(L53L
g650
(lp1133
(g151
F12.0
F848.0
tp1134
a(g153
F1025.0
F1764.0
tp1135
a(g155
F1764.0
F1773.0
tp1136
a(g157
F1773.0
F2388.0
tp1137
atp1138
a(L57L
g115
(lp1139
(g161
I0
F12.0
tp1140
a(g163
F12.0
F23.0
tp1141
a(g167
F145.0
F481.0
tp1142
a(g169
F944.0
F948.0
tp1143
a(g171
F948.0
F951.0
tp1144
a(g173
F951.0
F954.0
tp1145
a(g175
F954.0
F1262.0
tp1146
atp1147
a(L60L
g329
(lp1148
(g179
I0
F22.0
tp1149
a(g181
F22.0
F576.0
tp1150
a(g183
F1015.0
F1022.0
tp1151
a(g139
F2676.0
F2676.0
tp1152
atp1153
a(L66L
g329
(lp1154
(g187
F23.0
F717.0
tp1155
a(g189
F1039.0
F1798.0
tp1156
a(g207
F1798.0
F2143.0
tp1157
a(g191
F2143.0
F2149.0
tp1158
atp1159
a(L72L
g115
(lp1160
(g195
I0
F11.0
tp1161
a(g197
F11.0
F22.0
tp1162
a(g199
F24.0
F348.0
tp1163
a(g201
F1026.0
F1413.0
tp1164
atp1165
a(L77L
g212
(lp1166
(g205
F11.0
F1389.0
tp1167
a(g209
F1404.0
F2581.0
tp1168
atp1169
a(L86L
g485
(lp1170
(g214
I0
F147.0
tp1171
a(g216
F944.0
F983.0
tp1172
a(g218
F1015.0
F1052.0
tp1173
a(g220
F1052.0
F1093.0
tp1174
a(g222
F1392.0
F1435.0
tp1175
atp1176
a(L87L
g115
(lp1177
(g226
I0
F0.0
tp1178
a(g228
I0
F11.0
tp1179
a(g232
F149.0
F489.0
tp1180
a(g234
F1435.0
F1742.0
tp1181
atp1182
a(L97L
g329
(lp1183
(g238
F48.0
F341.0
tp1184
a(g240
F341.0
F363.0
tp1185
a(g242
F363.0
F784.0
tp1186
a(g244
F1015.0
F1022.0
tp1187
a(g246
F1392.0
F1399.0
tp1188
a(g248
F1399.0
F2017.0
tp1189
atp1190
a(L100L
g329
(lp1191
(g252
F147.0
F544.0
tp1192
a(g254
F944.0
F950.0
tp1193
a(g256
F983.0
F1539.0
tp1194
atp1195
atp1196
a(F3321.0
F4.9
(lp1197
(L0L
g212
(lp1198
(g238
F144.0
F778.0
tp1199
a(g8
F778.0
F829.0
tp1200
a(g179
F829.0
F877.0
tp1201
atp1202
a(L6L
g329
(lp1203
(g232
F291.0
F971.0
tp1204
a(g157
F1904.0
F2282.0
tp1205
a(g22
F2282.0
F2837.0
tp1206
atp1207
a(L17L
g212
(lp1208
(g129
F49.0
F1503.0
tp1209
a(g42
F1503.0
F3069.0
tp1210
a(g24
F3069.0
F3084.0
tp1211
atp1212
a(L19L
g212
(lp1213
(g151
F153.0
F1268.0
tp1214
a(g125
F1268.0
F2539.0
tp1215
a(g131
F2539.0
F2553.0
tp1216
a(g110
F2553.0
F2567.0
tp1217
atp1218
a(L20L
g553
(lp1219
(g139
F3321.0
F3321.0
tp1220
atp1221
a(L21L
g485
(lp1222
(g6
I0
F151.0
tp1223
a(g220
F1863.0
F1904.0
tp1224
a(g135
F1904.0
F1943.0
tp1225
atp1226
a(L24L
g212
(lp1227
(g70
F23.0
F941.0
tp1228
a(g189
F1092.0
F2737.0
tp1229
atp1230
a(L26L
g329
(lp1231
(g16
F22.0
F603.0
tp1232
a(g240
F603.0
F625.0
tp1233
a(g242
F625.0
F1046.0
tp1234
a(g199
F1046.0
F1693.0
tp1235
a(g147
F1869.0
F2269.0
tp1236
a(g34
F2269.0
F2896.0
tp1237
atp1238
a(L28L
g329
(lp1239
(g228
I0
F23.0
tp1240
a(g40
F305.0
F899.0
tp1241
a(g153
F1412.0
F1867.0
tp1242
a(g66
F1943.0
F2560.0
tp1243
atp1244
a(L34L
g329
(lp1245
(g28
F449.0
F738.0
tp1246
a(g123
F738.0
F1042.0
tp1247
a(g82
F1863.0
F1868.0
tp1248
a(g84
F1868.0
F2624.0
tp1249
a(g234
F2624.0
F3238.0
tp1250
atp1251
a(L36L
g212
(lp1252
(g121
I0
F49.0
tp1253
a(g32
F1049.0
F1064.0
tp1254
a(g256
F1128.0
F2332.0
tp1255
a(g191
F3307.0
F3321.0
tp1256
atp1257
a(L37L
g212
(lp1258
(g133
F1863.0
F1877.0
tp1259
a(g52
F1877.0
F3041.0
tp1260
a(g112
F3251.0
F3264.0
tp1261
atp1262
a(L41L
g650
(lp1263
(g226
I0
F0.0
tp1264
atp1265
a(L54L
g212
(lp1266
(g169
F1049.0
F1065.0
tp1267
a(g117
F1089.0
F1882.0
tp1268
a(g108
F1882.0
F2794.0
tp1269
atp1270
a(L55L
g212
(lp1271
(g205
F23.0
F1401.0
tp1272
a(g64
F1401.0
F1412.0
tp1273
atp1274
a(L58L
g485
(lp1275
(g92
F1049.0
F1092.0
tp1276
a(g12
F1503.0
F1540.0
tp1277
atp1278
a(L59L
g485
(lp1279
(g254
F1049.0
F1085.0
tp1280
a(g218
F1863.0
F1900.0
tp1281
atp1282
a(L66L
g329
(lp1283
(g98
F49.0
F595.0
tp1284
a(g60
F765.0
F1181.0
tp1285
a(g100
F1181.0
F1704.0
tp1286
a(g175
F1704.0
F2320.0
tp1287
a(g94
F2553.0
F3208.0
tp1288
atp1289
a(L68L
g212
(lp1290
(g143
I0
F49.0
tp1291
a(g72
F1055.0
F2179.0
tp1292
atp1293
a(L69L
g485
(lp1294
(g46
I0
F144.0
tp1295
a(g230
F144.0
F291.0
tp1296
atp1297
a(L72L
g329
(lp1298
(g161
I0
F23.0
tp1299
a(g187
F49.0
F743.0
tp1300
a(g58
F743.0
F765.0
tp1301
a(g18
F1042.0
F1049.0
tp1302
a(g106
F1082.0
F1505.0
tp1303
a(g155
F1863.0
F1869.0
tp1304
a(g201
F1869.0
F2642.0
tp1305
atp1306
a(L73L
g212
(lp1307
(g165
I0
F49.0
tp1308
a(g4
F49.0
F98.0
tp1309
a(g50
F151.0
F943.0
tp1310
a(g76
F943.0
F993.0
tp1311
a(g183
F1863.0
F1877.0
tp1312
a(g209
F1877.0
F3054.0
tp1313
atp1314
a(L74L
g212
(lp1315
(g78
I0
F50.0
tp1316
a(g10
F50.0
F1001.0
tp1317
a(g244
F1863.0
F1878.0
tp1318
a(g222
F1878.0
F1892.0
tp1319
a(g102
F2567.0
F3251.0
tp1320
atp1321
a(L75L
g212
(lp1322
(g48
I0
F48.0
tp1323
a(g167
F48.0
F1506.0
tp1324
a(g30
F1506.0
F1518.0
tp1325
atp1326
a(L87L
g485
(lp1327
(g38
I0
F153.0
tp1328
a(g56
F153.0
F305.0
tp1329
a(g163
F305.0
F449.0
tp1330
a(g195
F449.0
F594.0
tp1331
a(g207
F1064.0
F3307.0
tp1332
atp1333
a(L88L
g485
(lp1334
(g173
F1049.0
F1089.0
tp1335
a(g216
F1089.0
F1128.0
tp1336
a(g80
F1818.0
F1863.0
tp1337
a(g246
F1863.0
F1907.0
tp1338
atp1339
a(L91L
g329
(lp1340
(g214
I0
F23.0
tp1341
a(g252
F23.0
F420.0
tp1342
a(g62
F1049.0
F1055.0
tp1343
a(g171
F1055.0
F1061.0
tp1344
a(g197
F1061.0
F1082.0
tp1345
a(g181
F1082.0
F1636.0
tp1346
a(g248
F1907.0
F2525.0
tp1347
atp1348
a(L93L
g329
(lp1349
(g88
I0
F22.0
tp1350
a(g90
F98.0
F621.0
tp1351
a(g145
F993.0
F1818.0
tp1352
a(g20
F1863.0
F1868.0
tp1353
a(g137
F1868.0
F1874.0
tp1354
atp1355
atp1356
a.