(lp0
(F15.0
F6.3
(lp1
(L0L
Vapac-sin#m3.2xlarge
p2
(lp3
(VID00002
p4
I0
F4.0
tp5
a(VID00012
p6
F4.0
F7.0
tp7
a(VID00018
p8
F10.0
F13.0
tp9
atp10
a(L3L
Vapac-sin#m3.xlarge
p11
(lp12
(VID00024
p13
F15.0
F15.0
tp14
a(S'exit'
p15
F15.0
F15.0
tp16
atp17
a(L4L
g2
(lp18
(VID00004
p19
I0
F4.0
tp20
a(VID00009
p21
F4.0
F7.0
tp22
a(VID00008
p23
F7.0
F10.0
tp24
a(VID00014
p25
F10.0
F10.0
tp26
a(VID00016
p27
F10.0
F13.0
tp28
atp29
a(L10L
g2
(lp30
(VID00021
p31
F13.0
F13.0
tp32
atp33
a(L14L
g11
(lp34
(S'entry'
p35
I0
F0.0
tp36
atp37
a(L16L
g2
(lp38
(VID00000
p39
I0
F4.0
tp40
a(VID00013
p41
F4.0
F7.0
tp42
a(VID00011
p43
F7.0
F10.0
tp44
a(VID00019
p45
F10.0
F13.0
tp46
atp47
a(L18L
g2
(lp48
(VID00003
p49
I0
F4.0
tp50
a(VID00007
p51
F4.0
F7.0
tp52
a(VID00010
p53
F7.0
F10.0
tp54
a(VID00017
p55
F10.0
F13.0
tp56
atp57
a(L20L
g2
(lp58
(VID00001
p59
I0
F4.0
tp60
a(VID00006
p61
F4.0
F7.0
tp62
a(VID00005
p63
F7.0
F10.0
tp64
a(VID00020
p65
F10.0
F13.0
tp66
a(VID00022
p67
F13.0
F14.0
tp68
a(VID00023
p69
F14.0
F15.0
tp70
atp71
a(L25L
g2
(lp72
(VID00015
p73
F10.0
F10.0
tp74
atp75
atp76
a(F64.0
F1.26
(lp77
(L5L
g2
(lp78
(g13
F64.0
F64.0
tp79
atp80
a(L6L
g11
(lp81
(g25
F47.0
F47.0
tp82
atp83
a(L10L
g2
(lp84
(g31
F62.0
F62.0
tp85
atp86
a(L14L
g11
(lp87
(g15
F64.0
F64.0
tp88
atp89
a(L17L
Vapac-sin#m3.medium
p90
(lp91
(g35
I0
F0.0
tp92
atp93
a(L20L
g2
(lp94
(g19
I0
F4.0
tp95
a(g59
F4.0
F8.0
tp96
a(g39
F8.0
F12.0
tp97
a(g61
F12.0
F15.0
tp98
a(g63
F15.0
F18.0
tp99
a(g49
F18.0
F22.0
tp100
a(g51
F22.0
F25.0
tp101
a(g4
F25.0
F29.0
tp102
a(g21
F29.0
F32.0
tp103
a(g23
F32.0
F35.0
tp104
a(g6
F35.0
F38.0
tp105
a(g41
F38.0
F41.0
tp106
a(g53
F41.0
F44.0
tp107
a(g43
F44.0
F47.0
tp108
a(g65
F47.0
F50.0
tp109
a(g55
F50.0
F53.0
tp110
a(g27
F53.0
F56.0
tp111
a(g8
F56.0
F59.0
tp112
a(g45
F59.0
F62.0
tp113
a(g67
F62.0
F63.0
tp114
a(g69
F63.0
F64.0
tp115
atp116
a(L25L
g2
(lp117
(g73
F47.0
F47.0
tp118
atp119
atp120
a(F261.0
F0.47
(lp121
(L0L
Vapac-sin#m1.medium
p122
(lp123
(g63
F50.0
F92.0
tp124
atp125
a(L5L
g2
(lp126
(g13
F261.0
F261.0
tp127
atp128
a(L6L
g11
(lp129
(g25
F187.0
F187.0
tp130
atp131
a(L10L
g2
(lp132
(g31
F252.0
F252.0
tp133
atp134
a(L14L
g2
(lp135
(g15
F261.0
F261.0
tp136
atp137
a(L17L
g90
(lp138
(g35
I0
F0.0
tp139
atp140
a(L20L
Vapac-sin#m3.large
p141
(lp142
(g19
I0
F17.0
tp143
a(g59
F17.0
F34.0
tp144
a(g39
F34.0
F50.0
tp145
a(g61
F50.0
F63.0
tp146
a(g49
F63.0
F80.0
tp147
a(g51
F80.0
F93.0
tp148
a(g4
F93.0
F109.0
tp149
a(g21
F109.0
F122.0
tp150
a(g23
F122.0
F135.0
tp151
a(g6
F135.0
F148.0
tp152
a(g41
F148.0
F161.0
tp153
a(g53
F161.0
F174.0
tp154
a(g43
F174.0
F187.0
tp155
a(g65
F187.0
F200.0
tp156
a(g55
F200.0
F213.0
tp157
a(g27
F213.0
F226.0
tp158
a(g8
F226.0
F239.0
tp159
a(g45
F239.0
F252.0
tp160
a(g67
F252.0
F256.0
tp161
a(g69
F256.0
F261.0
tp162
atp163
a(L25L
g2
(lp164
(g73
F187.0
F187.0
tp165
atp166
atp167
a(F274.0
F0.31
(lp168
(L5L
g2
(lp169
(g13
F274.0
F274.0
tp170
atp171
a(L6L
g11
(lp172
(g25
F200.0
F200.0
tp173
atp174
a(L10L
g2
(lp175
(g31
F265.0
F265.0
tp176
atp177
a(L14L
g2
(lp178
(g15
F274.0
F274.0
tp179
atp180
a(L17L
g90
(lp181
(g35
I0
F0.0
tp182
atp183
a(L20L
g141
(lp184
(g19
I0
F17.0
tp185
a(g59
F17.0
F34.0
tp186
a(g39
F34.0
F50.0
tp187
a(g61
F50.0
F63.0
tp188
a(g63
F63.0
F76.0
tp189
a(g49
F76.0
F93.0
tp190
a(g51
F93.0
F106.0
tp191
a(g4
F106.0
F122.0
tp192
a(g21
F122.0
F135.0
tp193
a(g23
F135.0
F148.0
tp194
a(g6
F148.0
F161.0
tp195
a(g41
F161.0
F174.0
tp196
a(g53
F174.0
F187.0
tp197
a(g43
F187.0
F200.0
tp198
a(g65
F200.0
F213.0
tp199
a(g55
F213.0
F226.0
tp200
a(g27
F226.0
F239.0
tp201
a(g8
F239.0
F252.0
tp202
a(g45
F252.0
F265.0
tp203
a(g67
F265.0
F269.0
tp204
a(g69
F269.0
F274.0
tp205
atp206
a(L25L
g2
(lp207
(g73
F200.0
F200.0
tp208
atp209
atp210
a(F476.0
F0.24
(lp211
(L4L
Vapac-sin#m1.small
p212
(lp213
(g19
I0
F110.0
tp214
a(g61
F110.0
F195.0
tp215
a(g21
F202.0
F286.0
tp216
a(g55
F343.0
F428.0
tp217
atp218
a(L10L
g2
(lp219
(g31
F458.0
F458.0
tp220
atp221
a(L14L
g11
(lp222
(g25
F343.0
F343.0
tp223
atp224
a(L15L
g122
(lp225
(g15
F476.0
F476.0
tp226
atp227
a(L16L
g2
(lp228
(g73
F343.0
F343.0
tp229
atp230
a(L19L
g11
(lp231
(g13
F476.0
F476.0
tp232
atp233
a(L20L
g90
(lp234
(g59
I0
F37.0
tp235
a(g39
F37.0
F73.0
tp236
a(g63
F73.0
F101.0
tp237
a(g49
F101.0
F137.0
tp238
a(g51
F137.0
F166.0
tp239
a(g4
F166.0
F202.0
tp240
a(g23
F202.0
F231.0
tp241
a(g6
F231.0
F259.0
tp242
a(g41
F259.0
F287.0
tp243
a(g53
F287.0
F315.0
tp244
a(g43
F315.0
F343.0
tp245
a(g65
F343.0
F372.0
tp246
a(g27
F372.0
F400.0
tp247
a(g8
F400.0
F429.0
tp248
a(g45
F429.0
F458.0
tp249
a(g67
F458.0
F466.0
tp250
a(g69
F466.0
F476.0
tp251
atp252
a(L25L
g141
(lp253
(g35
I0
F0.0
tp254
atp255
atp256
a(F597.0
F0.16
(lp257
(L5L
g2
(lp258
(g13
F597.0
F597.0
tp259
atp260
a(L6L
g11
(lp261
(g25
F436.0
F436.0
tp262
atp263
a(L10L
g2
(lp264
(g31
F579.0
F579.0
tp265
atp266
a(L14L
g2
(lp267
(g15
F597.0
F597.0
tp268
atp269
a(L17L
Vapac-sin#m1.large
p270
(lp271
(g35
I0
F0.0
tp272
atp273
a(L20L
g90
(lp274
(g19
I0
F37.0
tp275
a(g59
F37.0
F74.0
tp276
a(g39
F74.0
F110.0
tp277
a(g61
F110.0
F138.0
tp278
a(g63
F138.0
F166.0
tp279
a(g49
F166.0
F202.0
tp280
a(g51
F202.0
F231.0
tp281
a(g4
F231.0
F267.0
tp282
a(g21
F267.0
F295.0
tp283
a(g23
F295.0
F324.0
tp284
a(g6
F324.0
F352.0
tp285
a(g41
F352.0
F380.0
tp286
a(g53
F380.0
F408.0
tp287
a(g43
F408.0
F436.0
tp288
a(g65
F436.0
F465.0
tp289
a(g55
F465.0
F493.0
tp290
a(g27
F493.0
F521.0
tp291
a(g8
F521.0
F550.0
tp292
a(g45
F550.0
F579.0
tp293
a(g67
F579.0
F587.0
tp294
a(g69
F587.0
F597.0
tp295
atp296
a(L25L
g2
(lp297
(g73
F436.0
F436.0
tp298
atp299
atp300
a(F1790.0
F0.08
(lp301
(L5L
g2
(lp302
(g13
F1790.0
F1790.0
tp303
atp304
a(L6L
g2
(lp305
(g25
F1307.0
F1307.0
tp306
atp307
a(L10L
g2
(lp308
(g31
F1735.0
F1735.0
tp309
atp310
a(L14L
Vapac-sin#m1.xlarge
p311
(lp312
(g15
F1790.0
F1790.0
tp313
atp314
a(L17L
g270
(lp315
(g35
I0
F0.0
tp316
atp317
a(L20L
g212
(lp318
(g19
I0
F110.0
tp319
a(g59
F110.0
F221.0
tp320
a(g39
F221.0
F328.0
tp321
a(g61
F328.0
F413.0
tp322
a(g63
F413.0
F498.0
tp323
a(g49
F498.0
F607.0
tp324
a(g51
F607.0
F694.0
tp325
a(g4
F694.0
F801.0
tp326
a(g21
F801.0
F885.0
tp327
a(g23
F885.0
F971.0
tp328
a(g6
F971.0
F1056.0
tp329
a(g41
F1056.0
F1139.0
tp330
a(g53
F1139.0
F1223.0
tp331
a(g43
F1223.0
F1307.0
tp332
a(g65
F1307.0
F1393.0
tp333
a(g55
F1393.0
F1478.0
tp334
a(g27
F1478.0
F1561.0
tp335
a(g8
F1561.0
F1648.0
tp336
a(g45
F1648.0
F1735.0
tp337
a(g67
F1735.0
F1759.0
tp338
a(g69
F1759.0
F1790.0
tp339
atp340
a(L25L
g2
(lp341
(g73
F1307.0
F1307.0
tp342
atp343
atp344
a.