(lp0
(F32.0
F8.19
(lp1
(L16L
Vapac-sin#m3.2xlarge
p2
(lp3
(VID00004
p4
I0
F4.0
tp5
a(VID00023
p6
F8.0
F11.0
tp7
a(VID00013
p8
F11.0
F14.0
tp9
a(VID00016
p10
F14.0
F17.0
tp11
a(VID00014
p12
F17.0
F20.0
tp13
a(VID00045
p14
F22.0
F25.0
tp15
a(VID00040
p16
F25.0
F28.0
tp17
atp18
a(L35L
g2
(lp19
(VID00049
p20
F32.0
F32.0
tp21
atp22
a(L40L
Vapac-sin#m3.medium
p23
(lp24
(S'exit'
p25
F32.0
F32.0
tp26
atp27
a(L48L
Vapac-sin#m3.xlarge
p28
(lp29
(VID00005
p30
I0
F8.0
tp31
a(VID00027
p32
F8.0
F14.0
tp33
a(VID00021
p34
F14.0
F20.0
tp35
atp36
a(L49L
g2
(lp37
(VID00006
p38
I0
F4.0
tp39
a(VID00000
p40
F4.0
F8.0
tp41
a(VID00032
p42
F8.0
F11.0
tp43
a(VID00009
p44
F11.0
F14.0
tp45
a(VID00008
p46
F14.0
F17.0
tp47
a(VID00015
p48
F17.0
F20.0
tp49
a(VID00037
p50
F21.0
F22.0
tp51
a(VID00043
p52
F22.0
F25.0
tp53
a(VID00038
p54
F25.0
F28.0
tp55
a(VID00046
p56
F28.0
F29.0
tp57
atp58
a(L50L
g2
(lp59
(VID00001
p60
I0
F4.0
tp61
a(VID00002
p62
F4.0
F8.0
tp63
a(VID00024
p64
F8.0
F11.0
tp65
a(VID00030
p66
F11.0
F14.0
tp67
a(VID00033
p68
F14.0
F17.0
tp69
a(VID00034
p70
F17.0
F20.0
tp71
a(VID00039
p72
F22.0
F25.0
tp73
a(VID00047
p74
F29.0
F30.0
tp75
a(VID00048
p76
F30.0
F32.0
tp77
atp78
a(L51L
g2
(lp79
(VID00003
p80
I0
F4.0
tp81
a(VID00025
p82
F4.0
F7.0
tp83
a(VID00012
p84
F8.0
F11.0
tp85
a(VID00010
p86
F11.0
F14.0
tp87
a(VID00011
p88
F14.0
F17.0
tp89
a(VID00031
p90
F17.0
F20.0
tp91
a(VID00044
p92
F22.0
F25.0
tp93
a(VID00041
p94
F25.0
F28.0
tp95
atp96
a(L21L
g23
(lp97
(S'entry'
p98
I0
F0.0
tp99
atp100
a(L23L
g28
(lp101
(VID00022
p102
F4.0
F11.0
tp103
a(VID00028
p104
F11.0
F18.0
tp105
atp106
a(L27L
g2
(lp107
(VID00007
p108
I0
F4.0
tp109
a(VID00020
p110
F4.0
F7.0
tp111
a(VID00029
p112
F8.0
F11.0
tp113
a(VID00035
p114
F11.0
F14.0
tp115
a(VID00018
p116
F14.0
F17.0
tp117
a(VID00019
p118
F17.0
F20.0
tp119
a(VID00042
p120
F22.0
F25.0
tp121
atp122
a(L30L
g28
(lp123
(VID00026
p124
F4.0
F10.0
tp125
a(VID00017
p126
F10.0
F17.0
tp127
a(VID00036
p128
F20.0
F21.0
tp129
atp130
atp131
a(F46.0
F6.93
(lp132
(L16L
g2
(lp133
(g4
I0
F4.0
tp134
a(g6
F8.0
F11.0
tp135
a(g8
F11.0
F14.0
tp136
a(g10
F14.0
F17.0
tp137
a(g126
F17.0
F20.0
tp138
a(g12
F20.0
F23.0
tp139
a(g14
F36.0
F39.0
tp140
a(g16
F39.0
F42.0
tp141
atp142
a(L35L
g2
(lp143
(g20
F46.0
F46.0
tp144
atp145
a(L40L
g23
(lp146
(g25
F46.0
F46.0
tp147
atp148
a(L48L
g28
(lp149
(g30
I0
F8.0
tp150
a(g102
F8.0
F15.0
tp151
a(g32
F15.0
F21.0
tp152
a(g34
F21.0
F27.0
tp153
a(g104
F27.0
F34.0
tp154
a(g128
F34.0
F35.0
tp155
atp156
a(L49L
g2
(lp157
(g38
I0
F4.0
tp158
a(g40
F4.0
F8.0
tp159
a(g42
F8.0
F11.0
tp160
a(g44
F11.0
F14.0
tp161
a(g46
F14.0
F17.0
tp162
a(g48
F17.0
F20.0
tp163
a(g52
F36.0
F39.0
tp164
a(g54
F39.0
F42.0
tp165
a(g56
F42.0
F43.0
tp166
atp167
a(L50L
g2
(lp168
(g60
I0
F4.0
tp169
a(g62
F4.0
F8.0
tp170
a(g64
F8.0
F11.0
tp171
a(g66
F11.0
F14.0
tp172
a(g68
F14.0
F17.0
tp173
a(g70
F17.0
F20.0
tp174
a(g50
F35.0
F36.0
tp175
a(g72
F36.0
F39.0
tp176
a(g74
F43.0
F44.0
tp177
a(g76
F44.0
F46.0
tp178
atp179
a(L51L
g2
(lp180
(g80
I0
F4.0
tp181
a(g124
F4.0
F7.0
tp182
a(g82
F7.0
F10.0
tp183
a(g84
F10.0
F13.0
tp184
a(g86
F13.0
F16.0
tp185
a(g88
F16.0
F19.0
tp186
a(g90
F19.0
F22.0
tp187
a(g92
F36.0
F39.0
tp188
a(g94
F39.0
F42.0
tp189
atp190
a(L24L
Vapac-sin#m1.large
p191
(lp192
(g98
I0
F0.0
tp193
atp194
a(L27L
g2
(lp195
(g108
I0
F4.0
tp196
a(g110
F4.0
F7.0
tp197
a(g112
F8.0
F11.0
tp198
a(g114
F11.0
F14.0
tp199
a(g116
F14.0
F17.0
tp200
a(g118
F17.0
F20.0
tp201
a(g120
F36.0
F39.0
tp202
atp203
atp204
a(F227.0
F6.63
(lp205
(L16L
g2
(lp206
(g4
I0
F4.0
tp207
a(g6
F8.0
F11.0
tp208
a(g8
F11.0
F14.0
tp209
a(g10
F14.0
F17.0
tp210
a(g126
F35.0
F38.0
tp211
a(g12
F38.0
F41.0
tp212
a(g14
F193.0
F196.0
tp213
a(g16
F196.0
F199.0
tp214
atp215
a(L35L
Vapac-sin#m1.xlarge
p216
(lp217
(g20
F226.0
F227.0
tp218
atp219
a(L15L
Vapac-sin#m1.small
p220
(lp221
(g25
F227.0
F227.0
tp222
atp223
a(L48L
g28
(lp224
(g30
I0
F8.0
tp225
a(g102
F8.0
F15.0
tp226
a(g32
F15.0
F21.0
tp227
a(g34
F21.0
F27.0
tp228
atp229
a(L49L
g2
(lp230
(g38
I0
F4.0
tp231
a(g40
F4.0
F8.0
tp232
a(g42
F35.0
F38.0
tp233
a(g44
F38.0
F41.0
tp234
a(g46
F41.0
F44.0
tp235
a(g48
F44.0
F47.0
tp236
a(g50
F192.0
F193.0
tp237
a(g52
F193.0
F196.0
tp238
a(g54
F196.0
F199.0
tp239
a(g56
F222.0
F223.0
tp240
atp241
a(L50L
g2
(lp242
(g60
I0
F4.0
tp243
a(g62
F4.0
F8.0
tp244
a(g64
F8.0
F11.0
tp245
a(g66
F11.0
F14.0
tp246
a(g68
F35.0
F38.0
tp247
a(g70
F38.0
F41.0
tp248
a(g72
F193.0
F196.0
tp249
a(g74
F223.0
F224.0
tp250
a(g76
F224.0
F226.0
tp251
atp252
a(L51L
g2
(lp253
(g80
I0
F4.0
tp254
a(g124
F4.0
F7.0
tp255
a(g82
F7.0
F10.0
tp256
a(g84
F10.0
F13.0
tp257
a(g86
F13.0
F16.0
tp258
a(g88
F16.0
F19.0
tp259
a(g90
F19.0
F22.0
tp260
a(g92
F193.0
F196.0
tp261
a(g94
F196.0
F199.0
tp262
atp263
a(L23L
g220
(lp264
(g104
F8.0
F93.0
tp265
atp266
a(L24L
Vapac-sin#m3.large
p267
(lp268
(g98
I0
F0.0
tp269
atp270
a(L27L
g23
(lp271
(g108
I0
F35.0
tp272
a(g110
F35.0
F63.0
tp273
a(g112
F63.0
F91.0
tp274
a(g114
F91.0
F119.0
tp275
a(g116
F119.0
F147.0
tp276
a(g118
F147.0
F174.0
tp277
a(g120
F193.0
F222.0
tp278
atp279
a(L30L
g220
(lp280
(g128
F174.0
F192.0
tp281
atp282
atp283
a(F315.0
F0.95
(lp284
(L16L
g23
(lp285
(g4
I0
F36.0
tp286
a(g6
F36.0
F64.0
tp287
a(g8
F71.0
F99.0
tp288
a(g10
F99.0
F127.0
tp289
a(g126
F127.0
F156.0
tp290
a(g12
F156.0
F185.0
tp291
a(g14
F223.0
F251.0
tp292
a(g16
F251.0
F279.0
tp293
atp294
a(L18L
g2
(lp295
(g20
F315.0
F315.0
tp296
atp297
a(L15L
g220
(lp298
(g25
F315.0
F315.0
tp299
atp300
a(L48L
g23
(lp301
(g30
I0
F36.0
tp302
a(g102
F36.0
F64.0
tp303
a(g32
F71.0
F99.0
tp304
a(g34
F99.0
F127.0
tp305
a(g104
F127.0
F155.0
tp306
a(g128
F206.0
F212.0
tp307
atp308
a(L49L
g23
(lp309
(g38
I0
F36.0
tp310
a(g40
F36.0
F71.0
tp311
a(g42
F72.0
F101.0
tp312
a(g44
F101.0
F129.0
tp313
a(g46
F129.0
F157.0
tp314
a(g48
F157.0
F185.0
tp315
a(g52
F223.0
F251.0
tp316
a(g54
F251.0
F280.0
tp317
a(g56
F280.0
F289.0
tp318
atp319
a(L50L
g23
(lp320
(g60
I0
F36.0
tp321
a(g62
F36.0
F72.0
tp322
a(g64
F72.0
F99.0
tp323
a(g66
F99.0
F127.0
tp324
a(g68
F127.0
F155.0
tp325
a(g70
F155.0
F183.0
tp326
a(g50
F212.0
F223.0
tp327
a(g72
F223.0
F251.0
tp328
a(g74
F289.0
F302.0
tp329
a(g76
F302.0
F315.0
tp330
atp331
a(L51L
g23
(lp332
(g80
I0
F35.0
tp333
a(g124
F36.0
F64.0
tp334
a(g82
F64.0
F92.0
tp335
a(g84
F92.0
F120.0
tp336
a(g86
F120.0
F149.0
tp337
a(g88
F149.0
F178.0
tp338
a(g90
F178.0
F206.0
tp339
a(g92
F223.0
F251.0
tp340
a(g94
F251.0
F279.0
tp341
atp342
a(L24L
g267
(lp343
(g98
I0
F0.0
tp344
atp345
a(L27L
g23
(lp346
(g108
I0
F35.0
tp347
a(g110
F36.0
F64.0
tp348
a(g112
F64.0
F92.0
tp349
a(g114
F92.0
F120.0
tp350
a(g116
F120.0
F148.0
tp351
a(g118
F148.0
F175.0
tp352
a(g120
F223.0
F252.0
tp353
atp354
atp355
a(F529.0
F0.8
(lp356
(L33L
g220
(lp357
(g108
I0
F105.0
tp358
a(g82
F105.0
F189.0
tp359
a(g84
F189.0
F273.0
tp360
a(g126
F273.0
F359.0
tp361
a(g72
F389.0
F474.0
tp362
atp363
a(L16L
g220
(lp364
(g6
F109.0
F193.0
tp365
a(g12
F193.0
F279.0
tp366
a(g128
F360.0
F378.0
tp367
atp368
a(L17L
g2
(lp369
(g20
F529.0
F529.0
tp370
atp371
a(L40L
g2
(lp372
(g98
I0
F0.0
tp373
atp374
a(L15L
g2
(lp375
(g25
F529.0
F529.0
tp376
atp377
a(L48L
g220
(lp378
(g30
I0
F109.0
tp379
a(g32
F109.0
F193.0
tp380
a(g34
F193.0
F276.0
tp381
a(g10
F276.0
F360.0
tp382
a(g52
F389.0
F473.0
tp383
a(g56
F477.0
F503.0
tp384
atp385
a(L49L
g220
(lp386
(g38
I0
F109.0
tp387
a(g102
F109.0
F194.0
tp388
a(g42
F194.0
F280.0
tp389
a(g54
F389.0
F477.0
tp390
atp391
a(L50L
g23
(lp392
(g4
I0
F36.0
tp393
a(g60
F36.0
F72.0
tp394
a(g62
F72.0
F108.0
tp395
a(g110
F108.0
F136.0
tp396
a(g48
F136.0
F164.0
tp397
a(g112
F164.0
F192.0
tp398
a(g114
F192.0
F220.0
tp399
a(g116
F220.0
F248.0
tp400
a(g104
F248.0
F276.0
tp401
a(g70
F276.0
F304.0
tp402
a(g50
F378.0
F389.0
tp403
a(g14
F389.0
F417.0
tp404
a(g74
F503.0
F516.0
tp405
a(g76
F516.0
F529.0
tp406
atp407
a(L51L
Vapac-sin#m1.medium
p408
(lp409
(g40
I0
F52.0
tp410
a(g80
F52.0
F105.0
tp411
a(g46
F105.0
F148.0
tp412
a(g8
F148.0
F190.0
tp413
a(g86
F190.0
F233.0
tp414
a(g66
F233.0
F276.0
tp415
a(g90
F276.0
F319.0
tp416
a(g92
F389.0
F431.0
tp417
a(g94
F431.0
F473.0
tp418
atp419
a(L27L
g220
(lp420
(g64
F52.0
F134.0
tp421
a(g118
F134.0
F216.0
tp422
a(g68
F216.0
F301.0
tp423
a(g120
F389.0
F475.0
tp424
atp425
a(L30L
g220
(lp426
(g124
F36.0
F119.0
tp427
a(g44
F119.0
F204.0
tp428
a(g88
F204.0
F290.0
tp429
a(g16
F389.0
F473.0
tp430
atp431
atp432
a(F690.0
F0.72
(lp433
(L16L
g220
(lp434
(g60
I0
F108.0
tp435
a(g6
F109.0
F193.0
tp436
a(g12
F193.0
F279.0
tp437
a(g68
F279.0
F364.0
tp438
a(g120
F470.0
F556.0
tp439
atp440
a(L36L
g2
(lp441
(g20
F690.0
F690.0
tp442
atp443
a(L33L
g408
(lp444
(g108
I0
F53.0
tp445
a(g44
F108.0
F151.0
tp446
a(g34
F151.0
F192.0
tp447
a(g110
F192.0
F235.0
tp448
a(g84
F235.0
F277.0
tp449
a(g126
F277.0
F320.0
tp450
a(g112
F320.0
F362.0
tp451
a(g70
F362.0
F404.0
tp452
a(g128
F444.0
F453.0
tp453
a(g50
F453.0
F470.0
tp454
a(g16
F470.0
F512.0
tp455
a(g56
F638.0
F651.0
tp456
a(g74
F651.0
F670.0
tp457
a(g76
F670.0
F690.0
tp458
atp459
a(L40L
g216
(lp460
(g98
I0
F0.0
tp461
atp462
a(L48L
g220
(lp463
(g30
I0
F109.0
tp464
a(g82
F109.0
F193.0
tp465
a(g64
F193.0
F275.0
tp466
a(g46
F275.0
F360.0
tp467
a(g10
F360.0
F444.0
tp468
a(g52
F470.0
F554.0
tp469
atp470
a(L49L
g220
(lp471
(g38
I0
F109.0
tp472
a(g102
F109.0
F194.0
tp473
a(g42
F194.0
F280.0
tp474
a(g114
F280.0
F364.0
tp475
a(g14
F470.0
F553.0
tp476
a(g72
F553.0
F638.0
tp477
atp478
a(L50L
g220
(lp479
(g62
I0
F108.0
tp480
a(g116
F108.0
F192.0
tp481
a(g104
F192.0
F277.0
tp482
atp483
a(L51L
g220
(lp484
(g80
I0
F106.0
tp485
a(g124
F107.0
F190.0
tp486
a(g86
F190.0
F276.0
tp487
a(g66
F276.0
F361.0
tp488
a(g92
F470.0
F554.0
tp489
atp490
a(L25L
g267
(lp491
(g25
F690.0
F690.0
tp492
atp493
a(L27L
g220
(lp494
(g40
I0
F105.0
tp495
a(g32
F109.0
F193.0
tp496
a(g8
F193.0
F278.0
tp497
a(g118
F278.0
F360.0
tp498
a(g94
F470.0
F554.0
tp499
atp500
a(L30L
g220
(lp501
(g4
I0
F107.0
tp502
a(g88
F107.0
F193.0
tp503
a(g48
F193.0
F277.0
tp504
a(g90
F277.0
F362.0
tp505
a(g54
F470.0
F558.0
tp506
atp507
atp508
a(F770.0
F0.64
(lp509
(L33L
g220
(lp510
(g108
I0
F105.0
tp511
a(g110
F108.0
F193.0
tp512
a(g84
F193.0
F277.0
tp513
a(g126
F277.0
F363.0
tp514
a(g70
F363.0
F447.0
tp515
a(g50
F465.0
F499.0
tp516
a(g16
F499.0
F583.0
tp517
atp518
a(L36L
g2
(lp519
(g20
F770.0
F770.0
tp520
atp521
a(L16L
g220
(lp522
(g60
I0
F108.0
tp523
a(g34
F108.0
F191.0
tp524
a(g12
F191.0
F277.0
tp525
a(g68
F277.0
F362.0
tp526
a(g120
F499.0
F585.0
tp527
atp528
a(L50L
g220
(lp529
(g62
I0
F108.0
tp530
a(g124
F108.0
F191.0
tp531
a(g112
F191.0
F276.0
tp532
a(g116
F276.0
F360.0
tp533
a(g104
F360.0
F445.0
tp534
a(g56
F667.0
F693.0
tp535
a(g74
F693.0
F731.0
tp536
a(g76
F731.0
F770.0
tp537
atp538
a(L48L
g220
(lp539
(g30
I0
F109.0
tp540
a(g32
F109.0
F193.0
tp541
a(g46
F193.0
F278.0
tp542
a(g52
F499.0
F583.0
tp543
atp544
a(L49L
g220
(lp545
(g38
I0
F109.0
tp546
a(g102
F109.0
F194.0
tp547
a(g42
F194.0
F280.0
tp548
a(g66
F280.0
F365.0
tp549
a(g14
F499.0
F582.0
tp550
a(g72
F582.0
F667.0
tp551
atp552
a(L18L
g28
(lp553
(g98
I0
F0.0
tp554
atp555
a(L51L
g220
(lp556
(g80
I0
F106.0
tp557
a(g6
F109.0
F193.0
tp558
a(g86
F193.0
F279.0
tp559
a(g10
F279.0
F363.0
tp560
a(g114
F363.0
F447.0
tp561
a(g128
F447.0
F465.0
tp562
a(g92
F499.0
F583.0
tp563
a(g94
F583.0
F667.0
tp564
atp565
a(L25L
g408
(lp566
(g25
F770.0
F770.0
tp567
atp568
a(L27L
g220
(lp569
(g40
I0
F105.0
tp570
a(g64
F107.0
F189.0
tp571
a(g8
F189.0
F274.0
tp572
a(g48
F274.0
F358.0
tp573
a(g118
F358.0
F440.0
tp574
atp575
a(L30L
g220
(lp576
(g4
I0
F107.0
tp577
a(g82
F107.0
F191.0
tp578
a(g44
F191.0
F276.0
tp579
a(g88
F276.0
F362.0
tp580
a(g90
F362.0
F447.0
tp581
a(g54
F499.0
F587.0
tp582
atp583
atp584
a.