(lp0
(F80.0
F8.5
(lp1
(L0L
Vapac-sin#m3.large
p2
(lp3
(S'entry'
p4
I0
F0.0
tp5
a(VID00013
p6
I0
F16.0
tp7
a(VID00027
p8
F16.0
F29.0
tp9
a(VID00053
p10
F29.0
F42.0
tp11
atp12
a(L2L
g2
(lp13
(VID00042
p14
F17.0
F30.0
tp15
a(VID00032
p16
F30.0
F43.0
tp17
a(VID00060
p18
F43.0
F56.0
tp19
a(VID00088
p20
F60.0
F73.0
tp21
atp22
a(L5L
g2
(lp23
(VID00022
p24
F16.0
F29.0
tp25
a(VID00070
p26
F29.0
F42.0
tp27
a(VID00052
p28
F42.0
F55.0
tp29
atp30
a(L8L
g2
(lp31
(VID00003
p32
I0
F16.0
tp33
a(VID00024
p34
F17.0
F30.0
tp35
a(VID00044
p36
F30.0
F43.0
tp37
a(VID00063
p38
F43.0
F56.0
tp39
a(VID00095
p40
F60.0
F73.0
tp41
atp42
a(L16L
Vapac-sin#m3.2xlarge
p43
(lp44
(VID00099
p45
F80.0
F80.0
tp46
atp47
a(L21L
g43
(lp48
(VID00004
p49
I0
F4.0
tp50
a(VID00023
p51
F17.0
F20.0
tp52
a(VID00039
p53
F20.0
F23.0
tp54
a(VID00021
p55
F23.0
F26.0
tp56
a(VID00054
p57
F26.0
F29.0
tp58
a(VID00066
p59
F29.0
F32.0
tp60
a(VID00077
p61
F40.0
F43.0
tp62
a(VID00028
p63
F43.0
F46.0
tp64
a(VID00087
p65
F60.0
F63.0
tp66
a(VID00090
p67
F63.0
F66.0
tp68
a(VID00096
p69
F73.0
F75.0
tp70
a(VID00097
p71
F75.0
F78.0
tp72
a(VID00098
p73
F78.0
F80.0
tp74
atp75
a(L24L
g2
(lp76
(VID00031
p77
F17.0
F30.0
tp78
a(VID00018
p79
F30.0
F43.0
tp80
a(VID00019
p81
F43.0
F56.0
tp82
a(VID00086
p83
F60.0
F73.0
tp84
atp85
a(L29L
g2
(lp86
(VID00010
p87
I0
F17.0
tp88
a(VID00059
p89
F17.0
F30.0
tp90
a(VID00048
p91
F30.0
F43.0
tp92
a(VID00034
p93
F43.0
F56.0
tp94
a(VID00084
p95
F60.0
F73.0
tp96
atp97
a(L31L
g2
(lp98
(VID00009
p99
I0
F17.0
tp100
a(VID00037
p101
F17.0
F30.0
tp102
a(VID00016
p103
F30.0
F43.0
tp104
a(VID00075
p105
F43.0
F56.0
tp106
atp107
a(L34L
g2
(lp108
(VID00005
p109
I0
F17.0
tp110
a(VID00038
p111
F17.0
F30.0
tp112
a(VID00017
p113
F30.0
F43.0
tp114
a(VID00064
p115
F43.0
F56.0
tp116
a(VID00082
p117
F60.0
F73.0
tp118
atp119
a(L43L
g2
(lp120
(VID00008
p121
I0
F17.0
tp122
atp123
a(L44L
g2
(lp124
(VID00040
p125
F16.0
F29.0
tp126
a(VID00036
p127
F29.0
F42.0
tp128
atp129
a(L56L
Vapac-sin#m3.xlarge
p130
(lp131
(VID00012
p132
I0
F8.0
tp133
a(VID00026
p134
F8.0
F15.0
tp135
a(VID00069
p136
F17.0
F24.0
tp137
a(VID00014
p138
F24.0
F32.0
tp139
a(VID00015
p140
F32.0
F40.0
tp141
a(VID00073
p142
F40.0
F47.0
tp143
a(VID00085
p144
F60.0
F66.0
tp145
a(VID00094
p146
F66.0
F73.0
tp147
atp148
a(L60L
g2
(lp149
(VID00049
p150
F17.0
F30.0
tp151
a(VID00072
p152
F30.0
F43.0
tp153
a(VID00076
p154
F43.0
F56.0
tp155
a(VID00089
p156
F60.0
F73.0
tp157
atp158
a(L61L
g2
(lp159
(VID00006
p160
I0
F16.0
tp161
a(VID00045
p162
F17.0
F30.0
tp163
a(VID00056
p164
F30.0
F43.0
tp165
atp166
a(L66L
Vapac-sin#m1.small
p167
(lp168
(S'exit'
p169
F80.0
F80.0
tp170
atp171
a(L72L
g2
(lp172
(VID00011
p173
I0
F17.0
tp174
a(VID00067
p175
F40.0
F53.0
tp176
a(VID00081
p177
F60.0
F73.0
tp178
atp179
a(L74L
g43
(lp180
(VID00001
p181
I0
F4.0
tp182
a(VID00000
p183
F4.0
F8.0
tp184
a(VID00047
p185
F17.0
F20.0
tp186
a(VID00035
p187
F20.0
F23.0
tp188
a(VID00025
p189
F23.0
F26.0
tp190
a(VID00051
p191
F26.0
F29.0
tp192
a(VID00050
p193
F29.0
F32.0
tp194
a(VID00065
p195
F32.0
F35.0
tp196
a(VID00071
p197
F35.0
F38.0
tp198
a(VID00058
p199
F38.0
F41.0
tp200
a(VID00055
p201
F41.0
F44.0
tp202
a(VID00061
p203
F44.0
F47.0
tp204
a(VID00078
p205
F56.0
F58.0
tp206
a(VID00079
p207
F58.0
F60.0
tp208
a(VID00083
p209
F60.0
F63.0
tp210
a(VID00093
p211
F63.0
F66.0
tp212
atp213
a(L78L
g2
(lp214
(VID00002
p215
I0
F17.0
tp216
a(VID00030
p217
F17.0
F30.0
tp218
a(VID00041
p219
F30.0
F43.0
tp220
a(VID00057
p221
F43.0
F56.0
tp222
a(VID00080
p223
F60.0
F73.0
tp224
atp225
a(L88L
g2
(lp226
(VID00007
p227
I0
F17.0
tp228
a(VID00046
p229
F17.0
F30.0
tp230
a(VID00062
p231
F30.0
F43.0
tp232
a(VID00091
p233
F60.0
F73.0
tp234
atp235
a(L89L
g2
(lp236
(VID00020
p237
F8.0
F21.0
tp238
a(VID00068
p239
F21.0
F34.0
tp240
a(VID00043
p241
F34.0
F47.0
tp242
a(VID00092
p243
F60.0
F73.0
tp244
atp245
a(L96L
g2
(lp246
(VID00029
p247
F17.0
F30.0
tp248
a(VID00033
p249
F30.0
F43.0
tp250
a(VID00074
p251
F43.0
F56.0
tp252
atp253
atp254
a(F110.0
F8.19
(lp255
(L0L
g2
(lp256
(g4
I0
F0.0
tp257
a(g6
I0
F16.0
tp258
a(g8
F16.0
F29.0
tp259
a(g10
F47.0
F60.0
tp260
atp261
a(L96L
g2
(lp262
(g247
F17.0
F30.0
tp263
a(g249
F30.0
F43.0
tp264
a(g251
F43.0
F56.0
tp265
atp266
a(L34L
g2
(lp267
(g109
I0
F17.0
tp268
a(g111
F17.0
F30.0
tp269
a(g113
F30.0
F43.0
tp270
a(g115
F43.0
F56.0
tp271
a(g117
F90.0
F103.0
tp272
atp273
a(L66L
g167
(lp274
(g169
F110.0
F110.0
tp275
atp276
a(L5L
g2
(lp277
(g24
F16.0
F29.0
tp278
a(g26
F29.0
F42.0
tp279
a(g28
F47.0
F60.0
tp280
atp281
a(L8L
g2
(lp282
(g32
I0
F16.0
tp283
a(g34
F47.0
F60.0
tp284
a(g36
F60.0
F73.0
tp285
a(g38
F73.0
F86.0
tp286
a(g40
F90.0
F103.0
tp287
atp288
a(L74L
g43
(lp289
(g181
I0
F4.0
tp290
a(g183
F4.0
F8.0
tp291
a(g185
F17.0
F20.0
tp292
a(g187
F20.0
F23.0
tp293
a(g189
F23.0
F26.0
tp294
a(g191
F47.0
F50.0
tp295
a(g193
F50.0
F53.0
tp296
a(g195
F53.0
F56.0
tp297
a(g197
F56.0
F59.0
tp298
a(g199
F59.0
F62.0
tp299
a(g201
F62.0
F65.0
tp300
a(g203
F65.0
F68.0
tp301
a(g205
F86.0
F88.0
tp302
a(g207
F88.0
F90.0
tp303
a(g209
F90.0
F93.0
tp304
a(g211
F93.0
F96.0
tp305
atp306
a(L44L
g2
(lp307
(g125
F16.0
F29.0
tp308
a(g127
F29.0
F42.0
tp309
atp310
a(L2L
g2
(lp311
(g14
F17.0
F30.0
tp312
a(g16
F30.0
F43.0
tp313
a(g18
F43.0
F56.0
tp314
a(g20
F90.0
F103.0
tp315
atp316
a(L78L
g2
(lp317
(g215
I0
F17.0
tp318
a(g217
F17.0
F30.0
tp319
a(g219
F47.0
F60.0
tp320
a(g221
F60.0
F73.0
tp321
a(g223
F90.0
F103.0
tp322
atp323
a(L29L
g2
(lp324
(g87
I0
F17.0
tp325
a(g89
F17.0
F30.0
tp326
a(g91
F30.0
F43.0
tp327
a(g93
F43.0
F56.0
tp328
a(g95
F90.0
F103.0
tp329
atp330
a(L16L
g43
(lp331
(g45
F110.0
F110.0
tp332
atp333
a(L24L
g2
(lp334
(g77
F17.0
F30.0
tp335
a(g79
F30.0
F43.0
tp336
a(g81
F43.0
F56.0
tp337
a(g83
F90.0
F103.0
tp338
atp339
a(L21L
g43
(lp340
(g49
I0
F4.0
tp341
a(g51
F17.0
F20.0
tp342
a(g53
F20.0
F23.0
tp343
a(g55
F23.0
F26.0
tp344
a(g57
F26.0
F29.0
tp345
a(g59
F29.0
F32.0
tp346
a(g61
F40.0
F43.0
tp347
a(g63
F43.0
F46.0
tp348
a(g65
F90.0
F93.0
tp349
a(g67
F93.0
F96.0
tp350
a(g69
F103.0
F105.0
tp351
a(g71
F105.0
F108.0
tp352
a(g73
F108.0
F110.0
tp353
atp354
a(L56L
g130
(lp355
(g132
I0
F8.0
tp356
a(g134
F8.0
F15.0
tp357
a(g136
F17.0
F24.0
tp358
a(g138
F24.0
F32.0
tp359
a(g140
F32.0
F40.0
tp360
a(g142
F40.0
F47.0
tp361
a(g144
F90.0
F96.0
tp362
a(g146
F96.0
F103.0
tp363
atp364
a(L88L
g2
(lp365
(g227
I0
F17.0
tp366
a(g229
F17.0
F30.0
tp367
a(g231
F30.0
F43.0
tp368
a(g233
F90.0
F103.0
tp369
atp370
a(L89L
g2
(lp371
(g237
F8.0
F21.0
tp372
a(g239
F21.0
F34.0
tp373
a(g243
F90.0
F103.0
tp374
atp375
a(L60L
g2
(lp376
(g150
F47.0
F60.0
tp377
a(g152
F60.0
F73.0
tp378
a(g154
F73.0
F86.0
tp379
a(g156
F90.0
F103.0
tp380
atp381
a(L61L
g2
(lp382
(g160
I0
F16.0
tp383
a(g162
F17.0
F30.0
tp384
a(g121
F30.0
F47.0
tp385
a(g164
F47.0
F60.0
tp386
a(g241
F60.0
F73.0
tp387
atp388
a(L72L
g2
(lp389
(g173
I0
F17.0
tp390
a(g175
F40.0
F53.0
tp391
a(g177
F90.0
F103.0
tp392
atp393
a(L31L
g2
(lp394
(g99
I0
F17.0
tp395
a(g101
F17.0
F30.0
tp396
a(g103
F30.0
F43.0
tp397
a(g105
F47.0
F60.0
tp398
atp399
atp400
a(F252.0
F6.78
(lp401
(L0L
g2
(lp402
(g6
I0
F16.0
tp403
a(g8
F16.0
F29.0
tp404
a(g10
F47.0
F60.0
tp405
atp406
a(L2L
Vapac-sin#m3.medium
p407
(lp408
(g14
F32.0
F60.0
tp409
a(g16
F60.0
F88.0
tp410
a(g18
F88.0
F116.0
tp411
a(g20
F179.0
F208.0
tp412
atp413
a(L5L
g2
(lp414
(g24
F32.0
F45.0
tp415
a(g26
F45.0
F58.0
tp416
a(g28
F58.0
F71.0
tp417
atp418
a(L8L
Vapac-sin#m1.medium
p419
(lp420
(g34
F47.0
F89.0
tp421
a(g36
F89.0
F131.0
tp422
a(g38
F131.0
F172.0
tp423
a(g40
F179.0
F222.0
tp424
atp425
a(L16L
g43
(lp426
(g45
F252.0
F252.0
tp427
atp428
a(L21L
g2
(lp429
(g49
I0
F16.0
tp430
a(g160
F16.0
F32.0
tp431
a(g51
F32.0
F45.0
tp432
a(g55
F45.0
F58.0
tp433
a(g57
F58.0
F71.0
tp434
a(g59
F71.0
F84.0
tp435
a(g61
F84.0
F97.0
tp436
a(g63
F97.0
F110.0
tp437
a(g65
F179.0
F192.0
tp438
a(g67
F192.0
F205.0
tp439
a(g69
F222.0
F231.0
tp440
a(g71
F231.0
F243.0
tp441
a(g73
F243.0
F252.0
tp442
atp443
a(L24L
g2
(lp444
(g77
F17.0
F30.0
tp445
a(g79
F30.0
F43.0
tp446
a(g81
F43.0
F56.0
tp447
a(g83
F179.0
F192.0
tp448
atp449
a(L29L
g2
(lp450
(g87
I0
F17.0
tp451
a(g89
F17.0
F30.0
tp452
a(g91
F30.0
F43.0
tp453
a(g93
F43.0
F56.0
tp454
a(g95
F179.0
F192.0
tp455
atp456
a(L31L
g2
(lp457
(g99
I0
F17.0
tp458
a(g101
F17.0
F30.0
tp459
a(g103
F30.0
F43.0
tp460
a(g105
F47.0
F60.0
tp461
atp462
a(L34L
g2
(lp463
(g109
I0
F17.0
tp464
a(g111
F17.0
F30.0
tp465
a(g113
F30.0
F43.0
tp466
a(g115
F43.0
F56.0
tp467
a(g117
F179.0
F192.0
tp468
atp469
a(L44L
g2
(lp470
(g127
F16.0
F29.0
tp471
atp472
a(L56L
g130
(lp473
(g132
I0
F8.0
tp474
a(g134
F8.0
F15.0
tp475
a(g136
F17.0
F24.0
tp476
a(g138
F24.0
F32.0
tp477
a(g140
F32.0
F40.0
tp478
a(g142
F40.0
F47.0
tp479
a(g144
F179.0
F185.0
tp480
a(g146
F185.0
F192.0
tp481
atp482
a(L60L
g419
(lp483
(g150
F47.0
F90.0
tp484
a(g152
F90.0
F133.0
tp485
a(g154
F133.0
F175.0
tp486
a(g156
F179.0
F222.0
tp487
atp488
a(L61L
g2
(lp489
(g162
F17.0
F30.0
tp490
a(g121
F30.0
F47.0
tp491
a(g164
F47.0
F60.0
tp492
a(g241
F60.0
F73.0
tp493
atp494
a(L66L
g167
(lp495
(g169
F252.0
F252.0
tp496
atp497
a(L72L
g2
(lp498
(g173
I0
F17.0
tp499
a(g175
F40.0
F53.0
tp500
a(g177
F179.0
F192.0
tp501
atp502
a(L74L
g43
(lp503
(g181
I0
F4.0
tp504
a(g183
F4.0
F8.0
tp505
a(g32
F8.0
F12.0
tp506
a(g185
F17.0
F20.0
tp507
a(g187
F20.0
F23.0
tp508
a(g189
F23.0
F26.0
tp509
a(g191
F47.0
F50.0
tp510
a(g193
F50.0
F53.0
tp511
a(g195
F53.0
F56.0
tp512
a(g197
F56.0
F59.0
tp513
a(g199
F59.0
F62.0
tp514
a(g201
F62.0
F65.0
tp515
a(g203
F65.0
F68.0
tp516
a(g205
F175.0
F177.0
tp517
a(g207
F177.0
F179.0
tp518
a(g209
F179.0
F182.0
tp519
a(g211
F182.0
F185.0
tp520
atp521
a(L78L
g2
(lp522
(g215
I0
F17.0
tp523
a(g217
F32.0
F45.0
tp524
a(g219
F47.0
F60.0
tp525
a(g221
F60.0
F73.0
tp526
a(g223
F179.0
F192.0
tp527
atp528
a(L85L
Vapac-sin#m1.large
p529
(lp530
(g4
I0
F0.0
tp531
atp532
a(L88L
g2
(lp533
(g227
I0
F17.0
tp534
a(g229
F17.0
F30.0
tp535
a(g231
F30.0
F43.0
tp536
a(g233
F179.0
F192.0
tp537
atp538
a(L89L
g2
(lp539
(g125
F32.0
F45.0
tp540
a(g53
F45.0
F58.0
tp541
a(g237
F58.0
F71.0
tp542
a(g239
F71.0
F84.0
tp543
a(g243
F179.0
F192.0
tp544
atp545
a(L96L
g2
(lp546
(g247
F17.0
F30.0
tp547
a(g249
F30.0
F43.0
tp548
a(g251
F43.0
F56.0
tp549
atp550
atp551
a(F398.0
F6.71
(lp552
(L0L
g2
(lp553
(g4
I0
F0.0
tp554
a(g6
I0
F16.0
tp555
a(g8
F35.0
F48.0
tp556
a(g10
F55.0
F68.0
tp557
atp558
a(L2L
g2
(lp559
(g247
F107.0
F120.0
tp560
a(g16
F120.0
F133.0
tp561
a(g18
F133.0
F146.0
tp562
a(g20
F304.0
F317.0
tp563
atp564
a(L5L
g2
(lp565
(g24
F35.0
F48.0
tp566
a(g26
F48.0
F61.0
tp567
a(g28
F61.0
F74.0
tp568
atp569
a(L8L
g2
(lp570
(g36
F54.0
F67.0
tp571
a(g38
F67.0
F80.0
tp572
a(g40
F304.0
F317.0
tp573
atp574
a(L10L
g2
(lp575
(g140
I0
F17.0
tp576
atp577
a(L16L
g43
(lp578
(g45
F398.0
F398.0
tp579
atp580
a(L21L
g43
(lp581
(g49
I0
F4.0
tp582
a(g51
F35.0
F38.0
tp583
a(g53
F38.0
F41.0
tp584
a(g55
F107.0
F110.0
tp585
a(g217
F110.0
F113.0
tp586
a(g14
F113.0
F116.0
tp587
a(g189
F116.0
F119.0
tp588
a(g57
F119.0
F122.0
tp589
a(g34
F122.0
F125.0
tp590
a(g219
F125.0
F128.0
tp591
a(g59
F128.0
F131.0
tp592
a(g61
F193.0
F196.0
tp593
a(g63
F196.0
F199.0
tp594
a(g65
F304.0
F307.0
tp595
a(g67
F307.0
F310.0
tp596
a(g69
F391.0
F393.0
tp597
a(g71
F393.0
F396.0
tp598
a(g73
F396.0
F398.0
tp599
atp600
a(L24L
g2
(lp601
(g79
F72.0
F85.0
tp602
a(g81
F85.0
F98.0
tp603
a(g83
F304.0
F317.0
tp604
atp605
a(L26L
g167
(lp606
(g113
F72.0
F157.0
tp607
atp608
a(L29L
g2
(lp609
(g87
I0
F17.0
tp610
a(g89
F17.0
F30.0
tp611
a(g91
F55.0
F68.0
tp612
a(g93
F107.0
F120.0
tp613
a(g95
F304.0
F317.0
tp614
atp615
a(L31L
g2
(lp616
(g101
F16.0
F29.0
tp617
a(g103
F72.0
F85.0
tp618
a(g105
F85.0
F98.0
tp619
atp620
a(L34L
g2
(lp621
(g109
I0
F17.0
tp622
a(g111
F35.0
F48.0
tp623
a(g215
F48.0
F65.0
tp624
a(g115
F193.0
F206.0
tp625
a(g117
F304.0
F317.0
tp626
atp627
a(L44L
g2
(lp628
(g125
F35.0
F48.0
tp629
a(g127
F54.0
F67.0
tp630
atp631
a(L56L
g419
(lp632
(g132
I0
F54.0
tp633
a(g134
F54.0
F97.0
tp634
a(g136
F97.0
F140.0
tp635
a(g138
F140.0
F193.0
tp636
a(g142
F193.0
F236.0
tp637
a(g144
F304.0
F346.0
tp638
a(g146
F346.0
F389.0
tp639
atp640
a(L57L
g419
(lp641
(g121
I0
F55.0
tp642
atp643
a(L60L
g2
(lp644
(g99
I0
F17.0
tp645
a(g150
F55.0
F68.0
tp646
a(g152
F68.0
F81.0
tp647
a(g154
F81.0
F94.0
tp648
a(g156
F304.0
F317.0
tp649
atp650
a(L61L
g407
(lp651
(g160
I0
F35.0
tp652
a(g162
F72.0
F100.0
tp653
a(g77
F107.0
F135.0
tp654
a(g229
F135.0
F163.0
tp655
a(g191
F163.0
F191.0
tp656
a(g164
F191.0
F219.0
tp657
a(g241
F219.0
F247.0
tp658
atp659
a(L66L
g2
(lp660
(g169
F398.0
F398.0
tp661
atp662
a(L72L
g419
(lp663
(g173
I0
F55.0
tp664
a(g175
F55.0
F97.0
tp665
a(g177
F304.0
F348.0
tp666
atp667
a(L74L
g407
(lp668
(g181
I0
F35.0
tp669
a(g183
F35.0
F72.0
tp670
a(g32
F72.0
F107.0
tp671
a(g187
F107.0
F135.0
tp672
a(g195
F135.0
F163.0
tp673
a(g197
F163.0
F191.0
tp674
a(g199
F191.0
F219.0
tp675
a(g201
F219.0
F247.0
tp676
a(g203
F247.0
F275.0
tp677
a(g205
F277.0
F290.0
tp678
a(g207
F290.0
F304.0
tp679
a(g209
F304.0
F333.0
tp680
a(g211
F333.0
F362.0
tp681
atp682
a(L77L
g167
(lp683
(g185
F107.0
F192.0
tp684
a(g193
F192.0
F277.0
tp685
atp686
a(L78L
g167
(lp687
(g221
F17.0
F101.0
tp688
a(g223
F304.0
F391.0
tp689
atp690
a(L88L
g2
(lp691
(g227
I0
F17.0
tp692
a(g231
F72.0
F85.0
tp693
a(g233
F304.0
F317.0
tp694
atp695
a(L89L
g2
(lp696
(g237
F72.0
F85.0
tp697
a(g239
F85.0
F98.0
tp698
a(g243
F304.0
F317.0
tp699
atp700
a(L96L
g2
(lp701
(g249
F107.0
F120.0
tp702
a(g251
F120.0
F133.0
tp703
atp704
atp705
a(F503.0
F3.41
(lp706
(L1L
g167
(lp707
(g87
I0
F108.0
tp708
a(g199
F108.0
F193.0
tp709
a(g81
F193.0
F278.0
tp710
a(g146
F387.0
F473.0
tp711
atp712
a(L34L
g2
(lp713
(g109
I0
F17.0
tp714
a(g215
F17.0
F34.0
tp715
a(g249
F53.0
F66.0
tp716
a(g113
F66.0
F79.0
tp717
a(g115
F151.0
F164.0
tp718
a(g211
F387.0
F400.0
tp719
atp720
a(L99L
g167
(lp721
(g237
F28.0
F112.0
tp722
a(g195
F112.0
F197.0
tp723
a(g59
F197.0
F283.0
tp724
a(g16
F283.0
F367.0
tp725
atp726
a(L36L
g529
(lp727
(g183
I0
F28.0
tp728
atp729
a(L72L
g419
(lp730
(g6
I0
F53.0
tp731
a(g152
F53.0
F96.0
tp732
a(g173
F96.0
F151.0
tp733
a(g91
F151.0
F193.0
tp734
a(g63
F204.0
F246.0
tp735
a(g95
F387.0
F430.0
tp736
atp737
a(L92L
g167
(lp738
(g24
F32.0
F117.0
tp739
a(g150
F117.0
F203.0
tp740
a(g79
F203.0
F288.0
tp741
atp742
a(L74L
g407
(lp743
(g32
I0
F35.0
tp744
a(g239
F53.0
F81.0
tp745
a(g103
F81.0
F109.0
tp746
a(g105
F204.0
F232.0
tp747
a(g207
F373.0
F387.0
tp748
a(g40
F387.0
F416.0
tp749
atp750
a(L2L
g407
(lp751
(g247
F35.0
F64.0
tp752
a(g136
F64.0
F92.0
tp753
a(g8
F92.0
F120.0
tp754
a(g221
F120.0
F148.0
tp755
a(g38
F151.0
F179.0
tp756
a(g20
F387.0
F416.0
tp757
atp758
a(L77L
g167
(lp759
(g111
F17.0
F100.0
tp760
a(g53
F100.0
F185.0
tp761
a(g185
F185.0
F270.0
tp762
a(g193
F270.0
F355.0
tp763
a(g117
F387.0
F472.0
tp764
atp765
a(L16L
g43
(lp766
(g45
F503.0
F503.0
tp767
atp768
a(L56L
g419
(lp769
(g132
I0
F54.0
tp770
a(g134
F54.0
F97.0
tp771
a(g138
F97.0
F150.0
tp772
a(g140
F150.0
F204.0
tp773
a(g61
F204.0
F247.0
tp774
a(g144
F387.0
F429.0
tp775
atp776
a(L66L
g2
(lp777
(g169
F503.0
F503.0
tp778
atp779
a(L85L
g529
(lp780
(g4
I0
F0.0
tp781
atp782
a(L24L
g2
(lp783
(g28
F108.0
F121.0
tp784
a(g175
F204.0
F217.0
tp785
a(g83
F387.0
F400.0
tp786
atp787
a(L57L
g419
(lp788
(g121
I0
F55.0
tp789
a(g101
F55.0
F97.0
tp790
a(g18
F108.0
F150.0
tp791
a(g209
F387.0
F430.0
tp792
atp793
a(L88L
g407
(lp794
(g227
I0
F36.0
tp795
a(g51
F36.0
F65.0
tp796
a(g10
F151.0
F179.0
tp797
a(g93
F204.0
F232.0
tp798
a(g233
F387.0
F416.0
tp799
atp800
a(L100L
g529
(lp801
(g187
F34.0
F55.0
tp802
atp803
a(L31L
g167
(lp804
(g197
F54.0
F137.0
tp805
a(g164
F137.0
F221.0
tp806
a(g203
F221.0
F306.0
tp807
a(g243
F387.0
F473.0
tp808
atp809
a(L60L
g2
(lp810
(g181
I0
F16.0
tp811
a(g99
F16.0
F33.0
tp812
a(g36
F54.0
F67.0
tp813
a(g89
F108.0
F121.0
tp814
a(g154
F204.0
F217.0
tp815
a(g156
F387.0
F400.0
tp816
atp817
a(L61L
g407
(lp818
(g77
F36.0
F64.0
tp819
a(g229
F64.0
F92.0
tp820
a(g191
F92.0
F120.0
tp821
a(g241
F120.0
F148.0
tp822
a(g142
F204.0
F232.0
tp823
a(g223
F387.0
F416.0
tp824
atp825
a(L21L
g2
(lp826
(g49
I0
F16.0
tp827
a(g160
F16.0
F32.0
tp828
a(g125
F32.0
F45.0
tp829
a(g162
F45.0
F58.0
tp830
a(g55
F58.0
F71.0
tp831
a(g217
F71.0
F84.0
tp832
a(g14
F84.0
F97.0
tp833
a(g189
F97.0
F110.0
tp834
a(g57
F110.0
F123.0
tp835
a(g34
F123.0
F136.0
tp836
a(g219
F136.0
F149.0
tp837
a(g127
F149.0
F162.0
tp838
a(g26
F162.0
F175.0
tp839
a(g201
F175.0
F188.0
tp840
a(g231
F188.0
F201.0
tp841
a(g251
F204.0
F217.0
tp842
a(g205
F367.0
F373.0
tp843
a(g177
F387.0
F400.0
tp844
a(g65
F400.0
F413.0
tp845
a(g67
F413.0
F426.0
tp846
a(g69
F473.0
F482.0
tp847
a(g71
F482.0
F494.0
tp848
a(g73
F494.0
F503.0
tp849
atp850
atp851
a(F737.0
F1.36
(lp852
(L1L
g167
(lp853
(g87
I0
F108.0
tp854
a(g199
F109.0
F194.0
tp855
a(g81
F194.0
F279.0
tp856
a(g146
F586.0
F672.0
tp857
atp858
a(L34L
g167
(lp859
(g215
I0
F107.0
tp860
a(g249
F107.0
F192.0
tp861
a(g113
F215.0
F300.0
tp862
a(g115
F303.0
F388.0
tp863
a(g211
F586.0
F672.0
tp864
atp865
a(L99L
g167
(lp866
(g109
I0
F109.0
tp867
a(g237
F111.0
F195.0
tp868
a(g195
F195.0
F280.0
tp869
a(g59
F280.0
F366.0
tp870
a(g16
F366.0
F450.0
tp871
atp872
a(L69L
g43
(lp873
(g45
F737.0
F737.0
tp874
atp875
a(L72L
g167
(lp876
(g6
I0
F107.0
tp877
a(g152
F107.0
F193.0
tp878
a(g173
F193.0
F303.0
tp879
a(g91
F303.0
F387.0
tp880
a(g63
F408.0
F493.0
tp881
a(g95
F586.0
F671.0
tp882
atp883
a(L92L
g167
(lp884
(g24
F105.0
F190.0
tp885
a(g150
F190.0
F276.0
tp886
a(g79
F303.0
F388.0
tp887
atp888
a(L74L
g167
(lp889
(g32
I0
F106.0
tp890
a(g187
F107.0
F191.0
tp891
a(g239
F191.0
F276.0
tp892
a(g103
F276.0
F361.0
tp893
a(g105
F408.0
F493.0
tp894
a(g207
F543.0
F586.0
tp895
a(g40
F586.0
F672.0
tp896
atp897
a(L2L
g167
(lp898
(g247
F107.0
F193.0
tp899
a(g136
F193.0
F278.0
tp900
a(g8
F278.0
F363.0
tp901
a(g221
F363.0
F447.0
tp902
a(g38
F447.0
F530.0
tp903
a(g20
F586.0
F672.0
tp904
atp905
a(L8L
Vapac-sin#m1.xlarge
p906
(lp907
(g169
F737.0
F737.0
tp908
atp909
a(L77L
g167
(lp910
(g111
F109.0
F192.0
tp911
a(g53
F192.0
F277.0
tp912
a(g185
F277.0
F362.0
tp913
a(g193
F362.0
F447.0
tp914
a(g117
F586.0
F671.0
tp915
atp916
a(L24L
g167
(lp917
(g28
F109.0
F194.0
tp918
a(g175
F408.0
F493.0
tp919
a(g83
F586.0
F673.0
tp920
atp921
a(L56L
g167
(lp922
(g132
I0
F109.0
tp923
a(g134
F109.0
F194.0
tp924
a(g138
F194.0
F299.0
tp925
a(g140
F299.0
F408.0
tp926
a(g61
F408.0
F493.0
tp927
a(g144
F586.0
F670.0
tp928
atp929
a(L21L
g407
(lp930
(g49
I0
F35.0
tp931
a(g160
F35.0
F70.0
tp932
a(g125
F70.0
F98.0
tp933
a(g162
F111.0
F139.0
tp934
a(g55
F139.0
F167.0
tp935
a(g217
F167.0
F196.0
tp936
a(g14
F215.0
F243.0
tp937
a(g189
F243.0
F271.0
tp938
a(g57
F271.0
F299.0
tp939
a(g34
F299.0
F327.0
tp940
a(g219
F327.0
F356.0
tp941
a(g127
F356.0
F384.0
tp942
a(g26
F384.0
F413.0
tp943
a(g201
F413.0
F441.0
tp944
a(g231
F441.0
F469.0
tp945
a(g251
F469.0
F497.0
tp946
a(g205
F530.0
F543.0
tp947
a(g177
F586.0
F615.0
tp948
a(g65
F615.0
F644.0
tp949
a(g67
F644.0
F673.0
tp950
a(g69
F673.0
F693.0
tp951
a(g71
F693.0
F719.0
tp952
a(g73
F719.0
F737.0
tp953
atp954
a(L22L
g407
(lp955
(g4
I0
F0.0
tp956
atp957
a(L88L
g167
(lp958
(g227
I0
F109.0
tp959
a(g51
F109.0
F195.0
tp960
a(g10
F303.0
F387.0
tp961
a(g93
F408.0
F492.0
tp962
a(g233
F586.0
F672.0
tp963
atp964
a(L57L
g167
(lp965
(g121
I0
F109.0
tp966
a(g101
F109.0
F193.0
tp967
a(g18
F193.0
F277.0
tp968
a(g209
F586.0
F672.0
tp969
atp970
a(L60L
g167
(lp971
(g181
I0
F105.0
tp972
a(g99
F105.0
F215.0
tp973
a(g36
F215.0
F299.0
tp974
a(g89
F299.0
F385.0
tp975
a(g154
F408.0
F492.0
tp976
a(g156
F586.0
F673.0
tp977
atp978
a(L61L
g167
(lp979
(g77
F109.0
F193.0
tp980
a(g229
F193.0
F278.0
tp981
a(g191
F278.0
F362.0
tp982
a(g241
F362.0
F445.0
tp983
a(g142
F445.0
F530.0
tp984
a(g223
F586.0
F673.0
tp985
atp986
a(L31L
g167
(lp987
(g183
I0
F111.0
tp988
a(g197
F111.0
F194.0
tp989
a(g164
F194.0
F278.0
tp990
a(g203
F299.0
F384.0
tp991
a(g243
F586.0
F672.0
tp992
atp993
atp994
a(F1176.0
F1.28
(lp995
(L1L
g167
(lp996
(g32
I0
F106.0
tp997
a(g173
F106.0
F216.0
tp998
a(g146
F809.0
F895.0
tp999
atp1000
a(L34L
g167
(lp1001
(g227
I0
F109.0
tp1002
a(g183
F109.0
F220.0
tp1003
a(g217
F220.0
F307.0
tp1004
a(g249
F307.0
F392.0
tp1005
a(g199
F410.0
F495.0
tp1006
a(g113
F495.0
F580.0
tp1007
a(g115
F580.0
F665.0
tp1008
a(g211
F809.0
F895.0
tp1009
atp1010
a(L99L
g167
(lp1011
(g237
F220.0
F304.0
tp1012
a(g26
F304.0
F390.0
tp1013
a(g201
F410.0
F494.0
tp1014
a(g91
F494.0
F578.0
tp1015
atp1016
a(L69L
g43
(lp1017
(g45
F1176.0
F1176.0
tp1018
atp1019
a(L72L
g167
(lp1020
(g219
F109.0
F195.0
tp1021
a(g6
F195.0
F302.0
tp1022
a(g87
F302.0
F410.0
tp1023
a(g63
F517.0
F602.0
tp1024
a(g95
F809.0
F894.0
tp1025
atp1026
a(L92L
g167
(lp1027
(g162
F220.0
F304.0
tp1028
a(g14
F305.0
F389.0
tp1029
a(g150
F389.0
F475.0
tp1030
a(g79
F475.0
F560.0
tp1031
atp1032
a(L74L
g167
(lp1033
(g187
F107.0
F191.0
tp1034
a(g193
F191.0
F276.0
tp1035
a(g195
F303.0
F388.0
tp1036
a(g16
F388.0
F472.0
tp1037
a(g103
F472.0
F557.0
tp1038
a(g105
F557.0
F642.0
tp1039
a(g40
F809.0
F895.0
tp1040
atp1041
a(L2L
g167
(lp1042
(g215
I0
F107.0
tp1043
a(g247
F107.0
F193.0
tp1044
a(g136
F302.0
F387.0
tp1045
a(g221
F410.0
F494.0
tp1046
a(g20
F809.0
F895.0
tp1047
atp1048
a(L77L
g167
(lp1049
(g111
F109.0
F192.0
tp1050
a(g53
F192.0
F277.0
tp1051
a(g77
F277.0
F361.0
tp1052
a(g189
F361.0
F446.0
tp1053
a(g59
F446.0
F532.0
tp1054
a(g239
F532.0
F617.0
tp1055
a(g152
F617.0
F703.0
tp1056
a(g117
F809.0
F894.0
tp1057
a(g144
F894.0
F978.0
tp1058
atp1059
a(L24L
g167
(lp1060
(g24
F106.0
F191.0
tp1061
a(g134
F303.0
F388.0
tp1062
a(g28
F410.0
F495.0
tp1063
a(g38
F495.0
F578.0
tp1064
a(g175
F578.0
F663.0
tp1065
a(g83
F809.0
F896.0
tp1066
atp1067
a(L18L
g407
(lp1068
(g169
F1176.0
F1176.0
tp1069
atp1070
a(L21L
g167
(lp1071
(g49
I0
F105.0
tp1072
a(g125
F106.0
F190.0
tp1073
a(g55
F190.0
F275.0
tp1074
a(g34
F275.0
F360.0
tp1075
a(g127
F360.0
F445.0
tp1076
a(g197
F445.0
F528.0
tp1077
a(g241
F528.0
F611.0
tp1078
a(g251
F611.0
F695.0
tp1079
a(g205
F726.0
F766.0
tp1080
a(g177
F809.0
F897.0
tp1081
a(g65
F897.0
F983.0
tp1082
a(g69
F983.0
F1044.0
tp1083
a(g71
F1044.0
F1121.0
tp1084
a(g73
F1121.0
F1176.0
tp1085
atp1086
a(L56L
g167
(lp1087
(g229
F109.0
F194.0
tp1088
a(g132
F194.0
F303.0
tp1089
a(g138
F303.0
F408.0
tp1090
a(g140
F408.0
F517.0
tp1091
a(g61
F517.0
F602.0
tp1092
atp1093
a(L88L
g167
(lp1094
(g109
I0
F109.0
tp1095
a(g51
F109.0
F195.0
tp1096
a(g99
F195.0
F305.0
tp1097
a(g10
F305.0
F389.0
tp1098
a(g203
F410.0
F495.0
tp1099
a(g93
F517.0
F601.0
tp1100
a(g233
F809.0
F895.0
tp1101
atp1102
a(L57L
g167
(lp1103
(g121
I0
F109.0
tp1104
a(g36
F303.0
F387.0
tp1105
a(g89
F410.0
F496.0
tp1106
a(g18
F496.0
F580.0
tp1107
a(g81
F580.0
F665.0
tp1108
a(g209
F809.0
F895.0
tp1109
atp1110
a(L26L
g407
(lp1111
(g4
I0
F0.0
tp1112
atp1113
a(L60L
g167
(lp1114
(g181
I0
F105.0
tp1115
a(g57
F305.0
F389.0
tp1116
a(g101
F389.0
F473.0
tp1117
a(g8
F473.0
F558.0
tp1118
a(g231
F558.0
F642.0
tp1119
a(g154
F642.0
F726.0
tp1120
a(g156
F809.0
F896.0
tp1121
atp1122
a(L61L
g167
(lp1123
(g191
F109.0
F193.0
tp1124
a(g164
F410.0
F494.0
tp1125
a(g142
F517.0
F602.0
tp1126
a(g207
F766.0
F809.0
tp1127
a(g223
F809.0
F896.0
tp1128
atp1129
a(L31L
g167
(lp1130
(g160
I0
F106.0
tp1131
a(g185
F109.0
F194.0
tp1132
a(g243
F809.0
F895.0
tp1133
a(g67
F895.0
F981.0
tp1134
atp1135
atp1136
a.