(lp0
(F1357.0
F1.97
(lp1
(L1L
Vapac-sin#m3.2xlarge
p2
(lp3
(VID00015
p4
I0
F0.0
tp5
atp6
a(L2L
g2
(lp7
(VID00010
p8
I0
F0.0
tp9
atp10
a(L6L
g2
(lp11
(VID00023
p12
F905.0
F905.0
tp13
atp14
a(L9L
g2
(lp15
(S'exit'
p16
F1357.0
F1357.0
tp17
atp18
a(L12L
g2
(lp19
(VID00001
p20
I0
F0.0
tp21
a(VID00014
p22
I0
F0.0
tp23
atp24
a(L15L
g2
(lp25
(VID00006
p26
I0
F0.0
tp27
a(VID00003
p28
I0
F0.0
tp29
a(VID00016
p30
I0
F0.0
tp31
a(VID00017
p32
I0
F0.0
tp33
atp34
a(L16L
Vapac-sin#m1.small
p35
(lp36
(VID00004
p37
I0
F7.0
tp38
a(VID00007
p39
F7.0
F20.0
tp40
a(VID00002
p41
F20.0
F33.0
tp42
a(VID00019
p43
F33.0
F413.0
tp44
a(VID00024
p45
F905.0
F953.0
tp46
a(VID00026
p47
F953.0
F1217.0
tp48
a(VID00027
p49
F1217.0
F1245.0
tp50
atp51
a(L19L
Vapac-sin#m3.xlarge
p52
(lp53
(VID00020
p54
I0
F27.0
tp55
a(VID00013
p56
F27.0
F28.0
tp57
a(VID00018
p58
F28.0
F632.0
tp59
atp60
a(L20L
g2
(lp61
(VID00012
p62
I0
F0.0
tp63
atp64
a(L23L
g2
(lp65
(VID00021
p66
I0
F754.0
tp67
a(VID00000
p68
F754.0
F754.0
tp69
a(VID00022
p70
F754.0
F905.0
tp71
a(VID00025
p72
F905.0
F1356.0
tp73
a(VID00028
p74
F1356.0
F1357.0
tp75
atp76
a(L24L
g2
(lp77
(VID00009
p78
I0
F0.0
tp79
a(VID00008
p80
I0
F0.0
tp81
atp82
a(L25L
g2
(lp83
(VID00011
p84
I0
F0.0
tp85
atp86
a(L28L
g2
(lp87
(S'entry'
p88
I0
F0.0
tp89
a(VID00005
p90
I0
F0.0
tp91
atp92
atp93
a(F1659.0
F1.42
(lp94
(L2L
g2
(lp95
(g39
I0
F0.0
tp96
a(g78
I0
F0.0
tp97
atp98
a(L6L
g35
(lp99
(g54
I0
F356.0
tp100
a(g56
F356.0
F370.0
tp101
a(g30
F370.0
F378.0
tp102
a(g4
F378.0
F386.0
tp103
a(g12
F1207.0
F1219.0
tp104
atp105
a(L7L
g2
(lp106
(g90
I0
F0.0
tp107
a(g26
I0
F0.0
tp108
a(g28
I0
F0.0
tp109
atp110
a(L9L
Vapac-sin#m1.large
p111
(lp112
(g16
F1659.0
F1659.0
tp113
atp114
a(L10L
g52
(lp115
(g88
I0
F0.0
tp116
atp117
a(L12L
g2
(lp118
(g37
I0
F0.0
tp119
atp120
a(L15L
g2
(lp121
(g80
I0
F0.0
tp122
a(g32
I0
F0.0
tp123
atp124
a(L16L
g35
(lp125
(g62
I0
F9.0
tp126
a(g43
F9.0
F389.0
tp127
a(g45
F1207.0
F1255.0
tp128
a(g47
F1255.0
F1519.0
tp129
a(g49
F1519.0
F1547.0
tp130
atp131
a(L23L
g2
(lp132
(g20
I0
F0.0
tp133
a(g41
I0
F0.0
tp134
a(g66
I0
F754.0
tp135
a(g22
F754.0
F754.0
tp136
a(g58
F754.0
F1056.0
tp137
a(g70
F1056.0
F1207.0
tp138
a(g72
F1207.0
F1658.0
tp139
a(g74
F1658.0
F1659.0
tp140
atp141
a(L25L
g2
(lp142
(g68
F754.0
F754.0
tp143
atp144
a(L28L
g2
(lp145
(g8
I0
F0.0
tp146
a(g84
I0
F0.0
tp147
atp148
atp149
a(F2712.0
F1.02
(lp150
(L1L
g2
(lp151
(g4
I0
F0.0
tp152
atp153
a(L2L
g2
(lp154
(g8
I0
F0.0
tp155
atp156
a(L6L
g2
(lp157
(g12
F1809.0
F1809.0
tp158
atp159
a(L7L
g2
(lp160
(g22
I0
F0.0
tp161
atp162
a(L9L
g2
(lp163
(g16
F2712.0
F2712.0
tp164
atp165
a(L12L
g2
(lp166
(g20
I0
F0.0
tp167
atp168
a(L13L
Vapac-sin#m1.medium
p169
(lp170
(g68
F58.0
F58.0
tp171
atp172
a(L15L
g2
(lp173
(g26
I0
F0.0
tp174
a(g28
I0
F0.0
tp175
a(g32
I0
F0.0
tp176
atp177
a(L16L
g35
(lp178
(g37
I0
F7.0
tp179
a(g39
F7.0
F20.0
tp180
a(g41
F20.0
F33.0
tp181
a(g43
F33.0
F413.0
tp182
a(g45
F1809.0
F1857.0
tp183
a(g47
F1857.0
F2121.0
tp184
a(g49
F2121.0
F2149.0
tp185
atp186
a(L19L
Vapac-sin#m3.large
p187
(lp188
(g54
I0
F55.0
tp189
a(g56
F55.0
F57.0
tp190
a(g30
F57.0
F58.0
tp191
a(g58
F58.0
F1265.0
tp192
atp193
a(L20L
g2
(lp194
(g62
I0
F0.0
tp195
atp196
a(L23L
g52
(lp197
(g66
I0
F1507.0
tp198
a(g70
F1507.0
F1809.0
tp199
a(g72
F1809.0
F2711.0
tp200
a(g74
F2711.0
F2712.0
tp201
atp202
a(L24L
g2
(lp203
(g78
I0
F0.0
tp204
a(g80
I0
F0.0
tp205
atp206
a(L25L
g2
(lp207
(g84
I0
F0.0
tp208
atp209
a(L28L
g2
(lp210
(g88
I0
F0.0
tp211
a(g90
I0
F0.0
tp212
atp213
atp214
a(F3316.0
F0.79
(lp215
(L1L
g2
(lp216
(g26
I0
F0.0
tp217
a(g8
I0
F0.0
tp218
atp219
a(L2L
g2
(lp220
(g62
I0
F0.0
tp221
atp222
a(L6L
g35
(lp223
(g56
I0
F14.0
tp224
a(g12
F2413.0
F2425.0
tp225
atp226
a(L9L
g2
(lp227
(g16
F3316.0
F3316.0
tp228
atp229
a(L15L
g2
(lp230
(g30
I0
F0.0
tp231
atp232
a(L16L
g35
(lp233
(g37
I0
F7.0
tp234
a(g54
F7.0
F363.0
tp235
a(g32
F363.0
F372.0
tp236
a(g43
F372.0
F752.0
tp237
a(g45
F2413.0
F2461.0
tp238
a(g47
F2461.0
F2725.0
tp239
a(g49
F2725.0
F2753.0
tp240
atp241
a(L20L
g2
(lp242
(g80
I0
F0.0
tp243
a(g4
I0
F0.0
tp244
atp245
a(L21L
g2
(lp246
(g20
I0
F0.0
tp247
atp248
a(L23L
g52
(lp249
(g66
I0
F1507.0
tp250
a(g68
F1507.0
F1507.0
tp251
a(g58
F1507.0
F2111.0
tp252
a(g70
F2111.0
F2413.0
tp253
a(g72
F2413.0
F3315.0
tp254
a(g74
F3315.0
F3316.0
tp255
atp256
a(L25L
g2
(lp257
(g39
I0
F0.0
tp258
a(g78
I0
F0.0
tp259
a(g22
I0
F0.0
tp260
atp261
a(L28L
g2
(lp262
(g88
I0
F0.0
tp263
a(g90
I0
F0.0
tp264
a(g28
I0
F0.0
tp265
a(g41
I0
F0.0
tp266
a(g84
I0
F0.0
tp267
atp268
atp269
a.