(lp0
(F1376.0
F7.72
(lp1
(L0L
Vapac-sin#m3.2xlarge
p2
(lp3
(VID00044
p4
I0
F0.0
tp5
atp6
a(L1L
g2
(lp7
(VID00075
p8
I0
F0.0
tp9
atp10
a(L3L
g2
(lp11
(VID00022
p12
I0
F15.0
tp13
a(VID00032
p14
F15.0
F15.0
tp15
a(VID00053
p16
F15.0
F34.0
tp17
a(VID00051
p18
F34.0
F482.0
tp19
a(VID00055
p20
F862.0
F971.0
tp21
a(VID00059
p22
F971.0
F981.0
tp23
a(VID00095
p24
F981.0
F982.0
tp25
atp26
a(L5L
g2
(lp27
(VID00018
p28
I0
F0.0
tp29
atp30
a(L7L
Vapac-sin#m3.large
p31
(lp32
(VID00031
p33
F1137.0
F1137.0
tp34
atp35
a(L11L
g2
(lp36
(VID00041
p37
I0
F0.0
tp38
atp39
a(L14L
g2
(lp40
(VID00036
p41
I0
F0.0
tp42
a(VID00083
p43
I0
F0.0
tp44
atp45
a(L15L
g2
(lp46
(S'exit'
p47
F1376.0
F1376.0
tp48
atp49
a(L16L
g2
(lp50
(VID00096
p51
F1376.0
F1376.0
tp52
atp53
a(L18L
Vapac-sin#m1.large
p54
(lp55
(S'entry'
p56
I0
F0.0
tp57
atp58
a(L25L
g2
(lp59
(VID00066
p60
I0
F0.0
tp61
a(VID00001
p62
I0
F0.0
tp63
atp64
a(L28L
g2
(lp65
(VID00076
p66
I0
F0.0
tp67
atp68
a(L31L
g2
(lp69
(VID00069
p70
I0
F0.0
tp71
a(VID00081
p72
I0
F0.0
tp73
atp74
a(L36L
g2
(lp75
(VID00037
p76
I0
F0.0
tp77
a(VID00067
p78
I0
F0.0
tp79
a(VID00068
p80
I0
F0.0
tp81
a(VID00077
p82
I0
F0.0
tp83
a(VID00004
p84
I0
F0.0
tp85
atp86
a(L37L
g2
(lp87
(VID00023
p88
I0
F602.0
tp89
a(VID00026
p90
F742.0
F744.0
tp91
a(VID00052
p92
F744.0
F754.0
tp93
a(VID00058
p94
F971.0
F1376.0
tp95
a(VID00008
p96
F1376.0
F1376.0
tp97
atp98
a(L40L
g2
(lp99
(VID00021
p100
I0
F12.0
tp101
a(VID00042
p102
F12.0
F12.0
tp103
a(VID00086
p104
F12.0
F449.0
tp105
a(VID00093
p106
F856.0
F1266.0
tp107
atp108
a(L43L
g2
(lp109
(VID00079
p110
I0
F0.0
tp111
a(VID00089
p112
I0
F671.0
tp113
a(VID00088
p114
F671.0
F688.0
tp115
a(VID00087
p116
F688.0
F695.0
tp117
a(VID00090
p118
F695.0
F856.0
tp119
a(VID00094
p120
F1138.0
F1148.0
tp121
a(VID00016
p122
F1148.0
F1149.0
tp123
atp124
a(L44L
g2
(lp125
(VID00054
p126
I0
F862.0
tp127
a(VID00010
p128
F862.0
F862.0
tp129
atp130
a(L45L
g2
(lp131
(VID00014
p132
I0
F0.0
tp133
atp134
a(L46L
g2
(lp135
(VID00006
p136
I0
F0.0
tp137
atp138
a(L49L
g2
(lp139
(VID00072
p140
I0
F0.0
tp141
a(VID00003
p142
I0
F0.0
tp143
a(VID00017
p144
I0
F0.0
tp145
atp146
a(L53L
g2
(lp147
(VID00005
p148
I0
F0.0
tp149
a(VID00007
p150
I0
F0.0
tp151
atp152
a(L54L
g2
(lp153
(VID00063
p154
I0
F0.0
tp155
a(VID00015
p156
I0
F0.0
tp157
atp158
a(L58L
g2
(lp159
(VID00020
p160
I0
F571.0
tp161
a(VID00024
p162
F602.0
F742.0
tp163
a(VID00027
p164
F742.0
F1127.0
tp165
a(VID00028
p166
F1127.0
F1137.0
tp167
a(VID00039
p168
F1137.0
F1137.0
tp169
a(VID00065
p170
F1137.0
F1137.0
tp171
a(VID00085
p172
F1137.0
F1137.0
tp173
a(VID00091
p174
F1137.0
F1138.0
tp175
a(VID00030
p176
F1376.0
F1376.0
tp177
atp178
a(L59L
g2
(lp179
(VID00061
p180
F1376.0
F1376.0
tp181
a(VID00082
p182
F1376.0
F1376.0
tp183
atp184
a(L62L
g31
(lp185
(VID00062
p186
F1376.0
F1376.0
tp187
atp188
a(L67L
g2
(lp189
(VID00045
p190
I0
F0.0
tp191
atp192
a(L68L
g2
(lp193
(VID00035
p194
I0
F0.0
tp195
a(VID00048
p196
I0
F0.0
tp197
a(VID00046
p198
I0
F0.0
tp199
a(VID00084
p200
I0
F0.0
tp201
atp202
a(L75L
g2
(lp203
(VID00078
p204
I0
F0.0
tp205
atp206
a(L76L
g2
(lp207
(VID00080
p208
I0
F0.0
tp209
a(VID00002
p210
I0
F0.0
tp211
atp212
a(L78L
g2
(lp213
(VID00033
p214
I0
F0.0
tp215
a(VID00049
p216
I0
F0.0
tp217
a(VID00009
p218
I0
F0.0
tp219
a(VID00011
p220
I0
F0.0
tp221
atp222
a(L79L
Vapac-sin#m1.small
p223
(lp224
(VID00038
p225
I0
F10.0
tp226
a(VID00057
p227
F971.0
F1013.0
tp228
a(VID00092
p229
F1013.0
F1047.0
tp230
a(VID00012
p231
F1047.0
F1062.0
tp232
atp233
a(L81L
g2
(lp234
(VID00071
p235
I0
F0.0
tp236
a(VID00073
p237
I0
F0.0
tp238
atp239
a(L82L
g2
(lp240
(VID00047
p241
I0
F0.0
tp242
a(VID00013
p243
I0
F0.0
tp244
atp245
a(L83L
g2
(lp246
(VID00025
p247
F742.0
F742.0
tp248
a(VID00050
p249
F742.0
F742.0
tp250
atp251
a(L84L
g2
(lp252
(VID00070
p253
I0
F0.0
tp254
atp255
a(L86L
g2
(lp256
(VID00040
p257
I0
F0.0
tp258
a(VID00064
p259
I0
F0.0
tp260
atp261
a(L89L
g223
(lp262
(VID00029
p263
F742.0
F788.0
tp264
a(VID00034
p265
F788.0
F796.0
tp266
a(VID00043
p267
F796.0
F806.0
tp268
a(VID00060
p269
F971.0
F993.0
tp270
atp271
a(L95L
Vapac-sin#m1.xlarge
p272
(lp273
(VID00000
p274
F1376.0
F1376.0
tp275
atp276
a(L96L
g2
(lp277
(VID00056
p278
F971.0
F971.0
tp279
a(VID00074
p280
F971.0
F971.0
tp281
atp282
a(L98L
g2
(lp283
(VID00019
p284
I0
F0.0
tp285
atp286
atp287
a(F1445.0
F6.62
(lp288
(L7L
g223
(lp289
(g92
I0
F271.0
tp290
a(g114
F271.0
F709.0
tp291
a(g148
F709.0
F717.0
tp292
a(g136
F717.0
F728.0
tp293
a(g122
F728.0
F742.0
tp294
atp295
a(L8L
g223
(lp296
(g100
I0
F310.0
tp297
a(g166
F742.0
F1006.0
tp298
a(g14
F1006.0
F1019.0
tp299
a(g37
F1019.0
F1029.0
tp300
a(g227
F1029.0
F1071.0
tp301
a(g182
F1071.0
F1083.0
tp302
a(g210
F1083.0
F1093.0
tp303
a(g120
F1093.0
F1357.0
tp304
atp305
a(L10L
g2
(lp306
(g190
I0
F0.0
tp307
atp308
a(L11L
g2
(lp309
(g150
I0
F0.0
tp310
atp311
a(L18L
g223
(lp312
(g16
I0
F496.0
tp313
a(g204
F496.0
F504.0
tp314
a(g116
F504.0
F695.0
tp315
a(g229
F1035.0
F1069.0
tp316
a(g174
F1069.0
F1083.0
tp317
atp318
a(L20L
g2
(lp319
(g170
I0
F0.0
tp320
a(g84
I0
F0.0
tp321
atp322
a(L21L
g2
(lp323
(g80
I0
F0.0
tp324
a(g140
I0
F0.0
tp325
atp326
a(L22L
g2
(lp327
(g110
I0
F0.0
tp328
atp329
a(L25L
g2
(lp330
(g278
F1004.0
F1004.0
tp331
a(g259
F1004.0
F1004.0
tp332
a(g72
F1004.0
F1004.0
tp333
atp334
a(L30L
g2
(lp335
(g257
I0
F0.0
tp336
a(g102
I0
F0.0
tp337
a(g144
I0
F0.0
tp338
atp339
a(L31L
g2
(lp340
(g216
I0
F0.0
tp341
atp342
a(L32L
g2
(lp343
(g51
F1445.0
F1445.0
tp344
atp345
a(L35L
g2
(lp346
(g214
I0
F0.0
tp347
a(g220
I0
F0.0
tp348
atp349
a(L37L
g2
(lp350
(g88
I0
F602.0
tp351
a(g162
F602.0
F742.0
tp352
a(g76
F742.0
F742.0
tp353
a(g20
F895.0
F1004.0
tp354
a(g94
F1004.0
F1409.0
tp355
atp356
a(L38L
g2
(lp357
(g267
I0
F0.0
tp358
a(g154
I0
F0.0
tp359
a(g8
I0
F0.0
tp360
atp361
a(L39L
Vapac-sin#m1.medium
p362
(lp363
(g33
F1029.0
F1029.0
tp364
atp365
a(L41L
g2
(lp366
(g28
I0
F0.0
tp367
atp368
a(L43L
g2
(lp369
(g126
I0
F862.0
tp370
a(g118
F874.0
F1035.0
tp371
a(g106
F1035.0
F1445.0
tp372
atp373
a(L44L
g2
(lp374
(g241
I0
F0.0
tp375
a(g218
I0
F0.0
tp376
atp377
a(L46L
g2
(lp378
(g132
I0
F0.0
tp379
atp380
a(L47L
g2
(lp381
(g142
I0
F0.0
tp382
atp383
a(L50L
g31
(lp384
(g186
F1303.0
F1303.0
tp385
atp386
a(L54L
g2
(lp387
(g66
I0
F0.0
tp388
a(g96
I0
F0.0
tp389
atp390
a(L57L
g2
(lp391
(g194
I0
F0.0
tp392
a(g208
I0
F0.0
tp393
atp394
a(L58L
g2
(lp395
(g160
I0
F571.0
tp396
a(g164
F742.0
F1127.0
tp397
a(g253
F1127.0
F1127.0
tp398
atp399
a(L62L
Vapac-sin#m3.xlarge
p400
(lp401
(g104
I0
F874.0
tp402
atp403
a(L63L
g2
(lp404
(g56
I0
F0.0
tp405
a(g265
I0
F0.0
tp406
a(g237
I0
F0.0
tp407
a(g128
I0
F0.0
tp408
atp409
a(L64L
g2
(lp410
(g172
I0
F0.0
tp411
atp412
a(L66L
g31
(lp413
(g274
F1412.0
F1412.0
tp414
atp415
a(L70L
g400
(lp416
(g18
I0
F895.0
tp417
a(g180
F1409.0
F1410.0
tp418
a(g62
F1410.0
F1411.0
tp419
a(g284
F1411.0
F1412.0
tp420
atp421
a(L72L
g400
(lp422
(g43
I0
F0.0
tp423
atp424
a(L79L
g2
(lp425
(g249
I0
F0.0
tp426
a(g78
I0
F0.0
tp427
a(g60
I0
F0.0
tp428
atp429
a(L81L
g2
(lp430
(g82
I0
F0.0
tp431
a(g200
I0
F0.0
tp432
atp433
a(L82L
g2
(lp434
(g112
I0
F671.0
tp435
atp436
a(L83L
g2
(lp437
(g247
F742.0
F742.0
tp438
a(g225
F742.0
F742.0
tp439
atp440
a(L86L
g2
(lp441
(g243
I0
F0.0
tp442
atp443
a(L87L
g2
(lp444
(g168
I0
F0.0
tp445
a(g196
I0
F0.0
tp446
a(g198
I0
F0.0
tp447
atp448
a(L88L
g2
(lp449
(g70
I0
F0.0
tp450
a(g156
I0
F0.0
tp451
atp452
a(L89L
g223
(lp453
(g12
I0
F400.0
tp454
a(g90
F742.0
F790.0
tp455
a(g263
F790.0
F836.0
tp456
a(g22
F1004.0
F1268.0
tp457
a(g269
F1268.0
F1290.0
tp458
a(g235
F1290.0
F1303.0
tp459
a(g24
F1303.0
F1334.0
tp460
a(g231
F1334.0
F1349.0
tp461
atp462
a(L93L
g223
(lp463
(g47
F1445.0
F1445.0
tp464
atp465
a(L95L
g2
(lp466
(g41
I0
F0.0
tp467
a(g4
I0
F0.0
tp468
a(g280
I0
F0.0
tp469
atp470
a(L96L
g2
(lp471
(g176
F1412.0
F1412.0
tp472
atp473
atp474
a(F1824.0
F5.99
(lp475
(L0L
g2
(lp476
(g14
I0
F0.0
tp477
a(g198
I0
F0.0
tp478
a(g70
I0
F0.0
tp479
a(g150
I0
F0.0
tp480
atp481
a(L2L
g400
(lp482
(g274
F1824.0
F1824.0
tp483
atp484
a(L6L
g2
(lp485
(g112
I0
F671.0
tp486
a(g229
F1330.0
F1331.0
tp487
a(g174
F1331.0
F1332.0
tp488
a(g231
F1332.0
F1333.0
tp489
atp490
a(L7L
g223
(lp491
(g196
I0
F12.0
tp492
a(g37
F12.0
F22.0
tp493
a(g114
F22.0
F460.0
tp494
a(g182
F460.0
F472.0
tp495
atp496
a(L8L
g223
(lp497
(g100
I0
F310.0
tp498
a(g16
F310.0
F806.0
tp499
a(g249
F806.0
F817.0
tp500
a(g116
F817.0
F1008.0
tp501
a(g218
F1008.0
F1015.0
tp502
atp503
a(L9L
g223
(lp504
(g90
F742.0
F790.0
tp505
a(g166
F790.0
F1054.0
tp506
a(g267
F1054.0
F1064.0
tp507
a(g227
F1419.0
F1461.0
tp508
atp509
a(L11L
g2
(lp510
(g82
I0
F0.0
tp511
a(g200
I0
F0.0
tp512
atp513
a(L15L
g272
(lp514
(g47
F1824.0
F1824.0
tp515
atp516
a(L21L
g2
(lp517
(g148
I0
F0.0
tp518
atp519
a(L22L
g2
(lp520
(g51
F1740.0
F1740.0
tp521
atp522
a(L30L
g2
(lp523
(g102
I0
F0.0
tp524
a(g43
I0
F0.0
tp525
atp526
a(L31L
g2
(lp527
(g4
I0
F0.0
tp528
a(g78
I0
F0.0
tp529
a(g80
I0
F0.0
tp530
atp531
a(L35L
g2
(lp532
(g284
I0
F0.0
tp533
atp534
a(L37L
g2
(lp535
(g88
I0
F602.0
tp536
a(g162
F602.0
F742.0
tp537
a(g20
F1310.0
F1419.0
tp538
a(g94
F1419.0
F1824.0
tp539
a(g142
F1824.0
F1824.0
tp540
atp541
a(L42L
g2
(lp542
(g110
I0
F0.0
tp543
atp544
a(L43L
g2
(lp545
(g126
I0
F862.0
tp546
a(g18
F862.0
F1310.0
tp547
a(g60
F1310.0
F1310.0
tp548
a(g172
F1310.0
F1310.0
tp549
a(g120
F1332.0
F1342.0
tp550
a(g24
F1342.0
F1343.0
tp551
a(g28
F1343.0
F1343.0
tp552
atp553
a(L46L
g2
(lp554
(g170
I0
F0.0
tp555
a(g66
I0
F0.0
tp556
a(g84
I0
F0.0
tp557
atp558
a(L48L
g2
(lp559
(g216
I0
F0.0
tp560
a(g257
I0
F0.0
tp561
a(g190
I0
F0.0
tp562
a(g62
I0
F0.0
tp563
atp564
a(L52L
g2
(lp565
(g204
I0
F0.0
tp566
a(g72
I0
F0.0
tp567
atp568
a(L53L
g31
(lp569
(g33
F1064.0
F1064.0
tp570
atp571
a(L54L
g54
(lp572
(g56
I0
F0.0
tp573
atp574
a(L57L
g2
(lp575
(g194
I0
F0.0
tp576
a(g259
I0
F0.0
tp577
a(g208
I0
F0.0
tp578
a(g210
I0
F0.0
tp579
atp580
a(L58L
g2
(lp581
(g160
I0
F571.0
tp582
a(g164
F742.0
F1127.0
tp583
a(g92
F1127.0
F1137.0
tp584
a(g106
F1330.0
F1740.0
tp585
a(g128
F1740.0
F1740.0
tp586
a(g176
F1824.0
F1824.0
tp587
atp588
a(L62L
g400
(lp589
(g76
I0
F1.0
tp590
a(g104
F1.0
F875.0
tp591
a(g118
F1008.0
F1330.0
tp592
a(g122
F1330.0
F1331.0
tp593
atp594
a(L63L
g2
(lp595
(g180
F1824.0
F1824.0
tp596
atp597
a(L65L
g2
(lp598
(g247
F742.0
F742.0
tp599
atp600
a(L70L
g2
(lp601
(g154
I0
F0.0
tp602
atp603
a(L73L
g2
(lp604
(g241
I0
F0.0
tp605
atp606
a(L78L
g2
(lp607
(g168
I0
F0.0
tp608
a(g96
I0
F0.0
tp609
atp610
a(L80L
g2
(lp611
(g253
I0
F0.0
tp612
a(g280
I0
F0.0
tp613
atp614
a(L82L
g2
(lp615
(g235
I0
F0.0
tp616
atp617
a(L83L
g2
(lp618
(g140
I0
F0.0
tp619
a(g8
I0
F0.0
tp620
atp621
a(L84L
g2
(lp622
(g278
F1419.0
F1419.0
tp623
a(g186
F1419.0
F1419.0
tp624
a(g220
F1419.0
F1419.0
tp625
a(g132
F1419.0
F1419.0
tp626
atp627
a(L87L
g2
(lp628
(g214
I0
F0.0
tp629
a(g243
I0
F0.0
tp630
atp631
a(L88L
g2
(lp632
(g237
I0
F0.0
tp633
atp634
a(L89L
g223
(lp635
(g12
I0
F400.0
tp636
a(g263
F742.0
F788.0
tp637
a(g225
F788.0
F798.0
tp638
a(g22
F1419.0
F1683.0
tp639
a(g269
F1683.0
F1705.0
tp640
atp641
a(L90L
g2
(lp642
(g41
I0
F0.0
tp643
a(g156
I0
F0.0
tp644
atp645
a(L96L
g2
(lp646
(g265
I0
F0.0
tp647
atp648
a(L98L
g2
(lp649
(g136
I0
F0.0
tp650
a(g144
I0
F0.0
tp651
atp652
atp653
a(F2074.0
F5.36
(lp654
(L0L
g2
(lp655
(g14
I0
F0.0
tp656
a(g198
I0
F0.0
tp657
a(g70
I0
F0.0
tp658
a(g150
I0
F0.0
tp659
atp660
a(L2L
g362
(lp661
(g274
F2074.0
F2074.0
tp662
atp663
a(L6L
g400
(lp664
(g112
I0
F1342.0
tp665
a(g229
F1664.0
F1667.0
tp666
a(g174
F1667.0
F1668.0
tp667
a(g231
F1668.0
F1669.0
tp668
atp669
a(L7L
g223
(lp670
(g196
I0
F12.0
tp671
a(g114
F12.0
F450.0
tp672
a(g182
F450.0
F462.0
tp673
atp674
a(L8L
g223
(lp675
(g100
I0
F310.0
tp676
a(g16
F310.0
F806.0
tp677
a(g249
F806.0
F817.0
tp678
a(g116
F817.0
F1008.0
tp679
a(g218
F1008.0
F1015.0
tp680
atp681
a(L9L
g223
(lp682
(g90
F742.0
F790.0
tp683
a(g166
F790.0
F1054.0
tp684
a(g267
F1054.0
F1064.0
tp685
a(g227
F1419.0
F1461.0
tp686
atp687
a(L11L
g2
(lp688
(g82
I0
F0.0
tp689
a(g200
I0
F0.0
tp690
atp691
a(L15L
g272
(lp692
(g47
F2074.0
F2074.0
tp693
atp694
a(L21L
g2
(lp695
(g148
I0
F0.0
tp696
atp697
a(L22L
g2
(lp698
(g51
F2074.0
F2074.0
tp699
atp700
a(L30L
g2
(lp701
(g37
I0
F0.0
tp702
a(g102
I0
F0.0
tp703
a(g43
I0
F0.0
tp704
atp705
a(L31L
g2
(lp706
(g4
I0
F0.0
tp707
a(g78
I0
F0.0
tp708
a(g80
I0
F0.0
tp709
atp710
a(L35L
g2
(lp711
(g284
I0
F0.0
tp712
atp713
a(L37L
g2
(lp714
(g88
I0
F602.0
tp715
a(g162
F602.0
F742.0
tp716
a(g20
F1310.0
F1419.0
tp717
a(g94
F1419.0
F1824.0
tp718
a(g142
F1824.0
F1824.0
tp719
atp720
a(L42L
g2
(lp721
(g110
I0
F0.0
tp722
atp723
a(L43L
g2
(lp724
(g126
I0
F862.0
tp725
a(g18
F862.0
F1310.0
tp726
a(g60
F1310.0
F1310.0
tp727
a(g172
F1310.0
F1310.0
tp728
a(g120
F1668.0
F1678.0
tp729
a(g24
F1678.0
F1679.0
tp730
a(g28
F1679.0
F1679.0
tp731
atp732
a(L46L
g2
(lp733
(g170
I0
F0.0
tp734
a(g66
I0
F0.0
tp735
a(g84
I0
F0.0
tp736
atp737
a(L48L
g2
(lp738
(g216
I0
F0.0
tp739
a(g257
I0
F0.0
tp740
a(g190
I0
F0.0
tp741
a(g62
I0
F0.0
tp742
atp743
a(L52L
g2
(lp744
(g204
I0
F0.0
tp745
a(g72
I0
F0.0
tp746
atp747
a(L53L
g31
(lp748
(g33
F1064.0
F1064.0
tp749
atp750
a(L54L
g54
(lp751
(g56
I0
F0.0
tp752
atp753
a(L57L
g2
(lp754
(g194
I0
F0.0
tp755
a(g259
I0
F0.0
tp756
a(g208
I0
F0.0
tp757
a(g210
I0
F0.0
tp758
atp759
a(L58L
g2
(lp760
(g160
I0
F571.0
tp761
a(g164
F742.0
F1127.0
tp762
a(g92
F1127.0
F1137.0
tp763
a(g106
F1664.0
F2074.0
tp764
a(g128
F2074.0
F2074.0
tp765
a(g176
F2074.0
F2074.0
tp766
atp767
a(L62L
g400
(lp768
(g76
I0
F1.0
tp769
a(g104
F1.0
F875.0
tp770
a(g118
F1342.0
F1664.0
tp771
a(g122
F1664.0
F1665.0
tp772
atp773
a(L63L
g2
(lp774
(g180
F1824.0
F1824.0
tp775
atp776
a(L65L
g2
(lp777
(g247
F742.0
F742.0
tp778
atp779
a(L70L
g2
(lp780
(g154
I0
F0.0
tp781
atp782
a(L73L
g2
(lp783
(g241
I0
F0.0
tp784
atp785
a(L78L
g2
(lp786
(g168
I0
F0.0
tp787
a(g96
I0
F0.0
tp788
atp789
a(L80L
g2
(lp790
(g253
I0
F0.0
tp791
a(g280
I0
F0.0
tp792
atp793
a(L82L
g2
(lp794
(g235
I0
F0.0
tp795
atp796
a(L83L
g2
(lp797
(g140
I0
F0.0
tp798
a(g8
I0
F0.0
tp799
atp800
a(L84L
g2
(lp801
(g278
F1419.0
F1419.0
tp802
a(g186
F1419.0
F1419.0
tp803
a(g220
F1419.0
F1419.0
tp804
a(g132
F1419.0
F1419.0
tp805
atp806
a(L87L
g2
(lp807
(g214
I0
F0.0
tp808
a(g243
I0
F0.0
tp809
atp810
a(L88L
g2
(lp811
(g237
I0
F0.0
tp812
atp813
a(L89L
g223
(lp814
(g12
I0
F400.0
tp815
a(g263
F742.0
F788.0
tp816
a(g225
F788.0
F798.0
tp817
a(g22
F1419.0
F1683.0
tp818
a(g269
F1683.0
F1705.0
tp819
atp820
a(L90L
g2
(lp821
(g41
I0
F0.0
tp822
a(g156
I0
F0.0
tp823
atp824
a(L96L
g2
(lp825
(g265
I0
F0.0
tp826
atp827
a(L98L
g2
(lp828
(g136
I0
F0.0
tp829
a(g144
I0
F0.0
tp830
atp831
atp832
a(F2429.0
F4.82
(lp833
(L0L
g2
(lp834
(g200
I0
F0.0
tp835
atp836
a(L1L
g223
(lp837
(g198
I0
F10.0
tp838
a(g204
F10.0
F18.0
tp839
atp840
a(L3L
g2
(lp841
(g216
I0
F0.0
tp842
atp843
a(L6L
Vapac-sin#m3.medium
p844
(lp845
(g56
I0
F0.0
tp846
atp847
a(L7L
g223
(lp848
(g12
I0
F400.0
tp849
a(g92
F400.0
F671.0
tp850
a(g114
F671.0
F1109.0
tp851
a(g116
F1109.0
F1300.0
tp852
a(g142
F1300.0
F1309.0
tp853
a(g231
F1309.0
F1324.0
tp854
a(g122
F1324.0
F1338.0
tp855
atp856
a(L8L
g223
(lp857
(g37
I0
F10.0
tp858
a(g172
F10.0
F20.0
tp859
a(g208
F20.0
F30.0
tp860
a(g210
F30.0
F40.0
tp861
a(g120
F1971.0
F2235.0
tp862
atp863
a(L9L
g223
(lp864
(g166
F1658.0
F1922.0
tp865
a(g60
F1922.0
F1934.0
tp866
a(g174
F1957.0
F1971.0
tp867
atp868
a(L12L
g2
(lp869
(g196
I0
F0.0
tp870
a(g66
I0
F0.0
tp871
atp872
a(L15L
g844
(lp873
(g90
F1658.0
F1674.0
tp874
a(g47
F2429.0
F2429.0
tp875
atp876
a(L18L
g223
(lp877
(g16
I0
F496.0
tp878
a(g249
F496.0
F507.0
tp879
a(g269
F1528.0
F1550.0
tp880
a(g229
F1957.0
F1991.0
tp881
atp882
a(L22L
g2
(lp883
(g243
I0
F0.0
tp884
atp885
a(L28L
g2
(lp886
(g180
F2359.0
F2359.0
tp887
a(g80
F2359.0
F2359.0
tp888
atp889
a(L30L
g2
(lp890
(g170
I0
F0.0
tp891
a(g182
I0
F0.0
tp892
atp893
a(L35L
g2
(lp894
(g82
I0
F0.0
tp895
a(g220
I0
F0.0
tp896
atp897
a(L37L
g400
(lp898
(g88
I0
F1204.0
tp899
a(g20
F1310.0
F1528.0
tp900
a(g94
F1528.0
F2339.0
tp901
a(g22
F2339.0
F2359.0
tp902
a(g150
F2359.0
F2360.0
tp903
atp904
a(L38L
g2
(lp905
(g84
I0
F0.0
tp906
atp907
a(L40L
g2
(lp908
(g4
I0
F0.0
tp909
atp910
a(L43L
g2
(lp911
(g126
I0
F862.0
tp912
a(g18
F862.0
F1310.0
tp913
a(g278
F1528.0
F1528.0
tp914
a(g8
F1528.0
F1528.0
tp915
a(g118
F1796.0
F1957.0
tp916
a(g106
F1957.0
F2367.0
tp917
a(g51
F2367.0
F2367.0
tp918
atp919
a(L44L
g2
(lp920
(g218
I0
F0.0
tp921
a(g128
I0
F0.0
tp922
atp923
a(L45L
g2
(lp924
(g247
F1658.0
F1658.0
tp925
a(g136
F1658.0
F1658.0
tp926
a(g62
F1658.0
F1658.0
tp927
a(g28
F1658.0
F1658.0
tp928
atp929
a(L47L
g2
(lp930
(g241
I0
F0.0
tp931
a(g156
I0
F0.0
tp932
atp933
a(L48L
g223
(lp934
(g190
I0
F12.0
tp935
a(g227
F1528.0
F1570.0
tp936
a(g235
F1570.0
F1583.0
tp937
atp938
a(L49L
g2
(lp939
(g259
I0
F0.0
tp940
a(g72
I0
F0.0
tp941
a(g96
I0
F0.0
tp942
atp943
a(L51L
g2
(lp944
(g265
I0
F0.0
tp945
a(g102
I0
F0.0
tp946
a(g280
I0
F0.0
tp947
atp948
a(L53L
g272
(lp949
(g162
F1204.0
F1658.0
tp950
a(g214
F1658.0
F1659.0
tp951
a(g154
F1659.0
F1660.0
tp952
atp953
a(L55L
g2
(lp954
(g274
F2360.0
F2360.0
tp955
atp956
a(L58L
g400
(lp957
(g160
I0
F1141.0
tp958
a(g164
F1658.0
F2429.0
tp959
atp960
a(L64L
g2
(lp961
(g132
I0
F0.0
tp962
atp963
a(L70L
g2
(lp964
(g225
I0
F0.0
tp965
a(g194
I0
F0.0
tp966
a(g76
I0
F0.0
tp967
a(g267
I0
F0.0
tp968
a(g237
I0
F0.0
tp969
a(g284
I0
F0.0
tp970
atp971
a(L74L
g400
(lp972
(g112
I0
F1342.0
tp973
atp974
a(L81L
g400
(lp975
(g43
I0
F0.0
tp976
atp977
a(L83L
g2
(lp978
(g168
I0
F0.0
tp979
atp980
a(L85L
g2
(lp981
(g78
I0
F0.0
tp982
a(g144
I0
F0.0
tp983
atp984
a(L89L
g223
(lp985
(g263
F1658.0
F1704.0
tp986
a(g41
F1704.0
F1715.0
tp987
a(g14
F1715.0
F1728.0
tp988
a(g33
F1728.0
F1729.0
tp989
a(g70
F1729.0
F1738.0
tp990
a(g140
F1738.0
F1748.0
tp991
a(g110
F1748.0
F1755.0
tp992
a(g24
F1957.0
F1988.0
tp993
atp994
a(L90L
g2
(lp995
(g253
I0
F0.0
tp996
a(g148
I0
F0.0
tp997
atp998
a(L92L
g31
(lp999
(g100
I0
F48.0
tp1000
a(g104
F48.0
F1796.0
tp1001
a(g186
F2359.0
F2359.0
tp1002
atp1003
a(L95L
g2
(lp1004
(g257
I0
F0.0
tp1005
atp1006
a(L96L
g2
(lp1007
(g176
F2429.0
F2429.0
tp1008
atp1009
atp1010
a(F2552.0
F3.23
(lp1011
(L0L
g2
(lp1012
(g241
I0
F0.0
tp1013
a(g200
I0
F0.0
tp1014
atp1015
a(L3L
g2
(lp1016
(g216
I0
F0.0
tp1017
a(g102
I0
F0.0
tp1018
a(g190
I0
F0.0
tp1019
a(g198
I0
F0.0
tp1020
atp1021
a(L4L
g2
(lp1022
(g8
I0
F0.0
tp1023
atp1024
a(L6L
g54
(lp1025
(g56
I0
F0.0
tp1026
atp1027
a(L7L
g223
(lp1028
(g12
I0
F400.0
tp1029
a(g92
F400.0
F671.0
tp1030
a(g114
F671.0
F1109.0
tp1031
a(g172
F1109.0
F1119.0
tp1032
a(g116
F1119.0
F1310.0
tp1033
a(g142
F1310.0
F1319.0
tp1034
a(g231
F1319.0
F1334.0
tp1035
a(g122
F1334.0
F1348.0
tp1036
atp1037
a(L8L
g223
(lp1038
(g100
I0
F310.0
tp1039
a(g208
F310.0
F320.0
tp1040
a(g210
F320.0
F330.0
tp1041
a(g120
F2156.0
F2420.0
tp1042
atp1043
a(L9L
g223
(lp1044
(g166
F1484.0
F1748.0
tp1045
a(g174
F2142.0
F2156.0
tp1046
atp1047
a(L10L
g2
(lp1048
(g72
I0
F0.0
tp1049
a(g96
I0
F0.0
tp1050
atp1051
a(L18L
g223
(lp1052
(g16
I0
F496.0
tp1053
a(g269
F1702.0
F1724.0
tp1054
a(g82
F1724.0
F1730.0
tp1055
a(g229
F2142.0
F2176.0
tp1056
atp1057
a(L22L
g2
(lp1058
(g76
I0
F0.0
tp1059
a(g243
I0
F0.0
tp1060
atp1061
a(L25L
g2
(lp1062
(g41
I0
F0.0
tp1063
atp1064
a(L30L
g2
(lp1065
(g170
I0
F0.0
tp1066
atp1067
a(L35L
g2
(lp1068
(g259
I0
F0.0
tp1069
a(g220
I0
F0.0
tp1070
atp1071
a(L36L
g2
(lp1072
(g60
I0
F0.0
tp1073
atp1074
a(L37L
g400
(lp1075
(g88
I0
F1204.0
tp1076
a(g162
F1204.0
F1484.0
tp1077
a(g20
F1484.0
F1702.0
tp1078
a(g94
F1702.0
F2513.0
tp1079
a(g150
F2513.0
F2514.0
tp1080
atp1081
a(L38L
g2
(lp1082
(g253
I0
F0.0
tp1083
a(g84
I0
F0.0
tp1084
atp1085
a(L40L
g2
(lp1086
(g66
I0
F0.0
tp1087
atp1088
a(L43L
g2
(lp1089
(g267
I0
F0.0
tp1090
a(g126
I0
F862.0
tp1091
a(g18
F862.0
F1310.0
tp1092
a(g112
F1310.0
F1981.0
tp1093
a(g118
F1981.0
F2142.0
tp1094
a(g106
F2142.0
F2552.0
tp1095
a(g51
F2552.0
F2552.0
tp1096
atp1097
a(L44L
g2
(lp1098
(g225
I0
F0.0
tp1099
a(g218
I0
F0.0
tp1100
a(g128
I0
F0.0
tp1101
atp1102
a(L45L
g2
(lp1103
(g136
I0
F0.0
tp1104
a(g62
I0
F0.0
tp1105
a(g28
I0
F0.0
tp1106
atp1107
a(L47L
g2
(lp1108
(g156
I0
F0.0
tp1109
atp1110
a(L51L
g2
(lp1111
(g278
F1702.0
F1702.0
tp1112
atp1113
a(L55L
g362
(lp1114
(g274
F2514.0
F2514.0
tp1115
atp1116
a(L58L
g400
(lp1117
(g160
I0
F1141.0
tp1118
a(g164
F1484.0
F2255.0
tp1119
a(g263
F2255.0
F2259.0
tp1120
a(g227
F2259.0
F2262.0
tp1121
atp1122
a(L60L
g2
(lp1123
(g43
I0
F0.0
tp1124
atp1125
a(L62L
g31
(lp1126
(g104
I0
F1748.0
tp1127
atp1128
a(L63L
g2
(lp1129
(g265
I0
F0.0
tp1130
a(g78
I0
F0.0
tp1131
a(g204
I0
F0.0
tp1132
atp1133
a(L64L
g2
(lp1134
(g214
I0
F0.0
tp1135
a(g257
I0
F0.0
tp1136
a(g280
I0
F0.0
tp1137
a(g148
I0
F0.0
tp1138
a(g132
I0
F0.0
tp1139
atp1140
a(L66L
g2
(lp1141
(g154
I0
F0.0
tp1142
a(g110
I0
F0.0
tp1143
atp1144
a(L70L
g2
(lp1145
(g194
I0
F0.0
tp1146
a(g237
I0
F0.0
tp1147
a(g284
I0
F0.0
tp1148
atp1149
a(L79L
g2
(lp1150
(g196
I0
F0.0
tp1151
atp1152
a(L82L
g2
(lp1153
(g180
F2513.0
F2513.0
tp1154
atp1155
a(L83L
g2
(lp1156
(g168
I0
F0.0
tp1157
a(g37
I0
F0.0
tp1158
atp1159
a(L85L
g2
(lp1160
(g235
I0
F0.0
tp1161
a(g144
I0
F0.0
tp1162
atp1163
a(L86L
g2
(lp1164
(g247
F1484.0
F1484.0
tp1165
atp1166
a(L87L
g2
(lp1167
(g80
I0
F0.0
tp1168
atp1169
a(L89L
g223
(lp1170
(g90
F1484.0
F1532.0
tp1171
a(g14
F1532.0
F1545.0
tp1172
a(g33
F1545.0
F1546.0
tp1173
a(g22
F1702.0
F1966.0
tp1174
a(g70
F1966.0
F1975.0
tp1175
a(g140
F1975.0
F1985.0
tp1176
a(g24
F2142.0
F2173.0
tp1177
atp1178
a(L92L
g31
(lp1179
(g186
F1985.0
F1985.0
tp1180
atp1181
a(L93L
g2
(lp1182
(g47
F2552.0
F2552.0
tp1183
atp1184
a(L95L
g2
(lp1185
(g4
I0
F0.0
tp1186
a(g249
I0
F0.0
tp1187
a(g182
I0
F0.0
tp1188
atp1189
a(L96L
g2
(lp1190
(g176
F2514.0
F2514.0
tp1191
atp1192
atp1193
a(F3408.0
F3.15
(lp1194
(L0L
g2
(lp1195
(g43
I0
F0.0
tp1196
atp1197
a(L2L
g2
(lp1198
(g56
I0
F0.0
tp1199
a(g150
I0
F0.0
tp1200
atp1201
a(L5L
g2
(lp1202
(g66
I0
F0.0
tp1203
a(g208
I0
F0.0
tp1204
a(g218
I0
F0.0
tp1205
atp1206
a(L7L
g223
(lp1207
(g12
I0
F400.0
tp1208
a(g114
F400.0
F838.0
tp1209
a(g116
F838.0
F1029.0
tp1210
a(g96
F1029.0
F1037.0
tp1211
a(g174
F1909.0
F1923.0
tp1212
a(g28
F1923.0
F1930.0
tp1213
atp1214
a(L8L
g223
(lp1215
(g100
I0
F310.0
tp1216
a(g166
F1484.0
F1748.0
tp1217
a(g227
F2597.0
F2639.0
tp1218
a(g182
F2639.0
F2651.0
tp1219
a(g229
F2651.0
F2685.0
tp1220
atp1221
a(L10L
g844
(lp1222
(g274
F2914.0
F2914.0
tp1223
atp1224
a(L11L
g2
(lp1225
(g51
F2892.0
F2892.0
tp1226
atp1227
a(L16L
g2
(lp1228
(g216
I0
F0.0
tp1229
atp1230
a(L18L
g223
(lp1231
(g257
I0
F10.0
tp1232
a(g92
F10.0
F281.0
tp1233
a(g16
F281.0
F777.0
tp1234
a(g269
F2597.0
F2619.0
tp1235
atp1236
a(L19L
g2
(lp1237
(g200
I0
F0.0
tp1238
a(g144
I0
F0.0
tp1239
atp1240
a(L21L
g2
(lp1241
(g41
I0
F0.0
tp1242
a(g259
I0
F0.0
tp1243
a(g284
I0
F0.0
tp1244
atp1245
a(L23L
g2
(lp1246
(g78
I0
F0.0
tp1247
atp1248
a(L25L
g2
(lp1249
(g84
I0
F0.0
tp1250
a(g128
I0
F0.0
tp1251
a(g220
I0
F0.0
tp1252
atp1253
a(L27L
g2
(lp1254
(g247
F1484.0
F1484.0
tp1255
a(g241
F1484.0
F1484.0
tp1256
atp1257
a(L30L
g2
(lp1258
(g4
I0
F0.0
tp1259
a(g280
I0
F0.0
tp1260
a(g8
I0
F0.0
tp1261
atp1262
a(L32L
g2
(lp1263
(g225
I0
F0.0
tp1264
a(g172
I0
F0.0
tp1265
atp1266
a(L34L
g2
(lp1267
(g235
I0
F0.0
tp1268
a(g237
I0
F0.0
tp1269
atp1270
a(L36L
g2
(lp1271
(g265
I0
F0.0
tp1272
a(g37
I0
F0.0
tp1273
atp1274
a(L37L
g400
(lp1275
(g88
I0
F1204.0
tp1276
a(g162
F1204.0
F1484.0
tp1277
a(g18
F1484.0
F2379.0
tp1278
a(g20
F2379.0
F2597.0
tp1279
a(g94
F2597.0
F3408.0
tp1280
atp1281
a(L43L
g2
(lp1282
(g126
I0
F862.0
tp1283
a(g170
F862.0
F862.0
tp1284
a(g112
F862.0
F1533.0
tp1285
a(g118
F1748.0
F1909.0
tp1286
a(g106
F1909.0
F2319.0
tp1287
a(g176
F2914.0
F2914.0
tp1288
atp1289
a(L45L
g2
(lp1290
(g196
I0
F0.0
tp1291
a(g190
I0
F0.0
tp1292
a(g62
I0
F0.0
tp1293
atp1294
a(L47L
g2
(lp1295
(g198
I0
F0.0
tp1296
a(g142
I0
F0.0
tp1297
atp1298
a(L50L
g2
(lp1299
(g168
I0
F0.0
tp1300
a(g102
I0
F0.0
tp1301
atp1302
a(L52L
g2
(lp1303
(g214
I0
F0.0
tp1304
atp1305
a(L54L
g2
(lp1306
(g194
I0
F0.0
tp1307
atp1308
a(L58L
g400
(lp1309
(g160
I0
F1141.0
tp1310
a(g164
F1484.0
F2255.0
tp1311
a(g267
F2255.0
F2256.0
tp1312
a(g60
F2256.0
F2257.0
tp1313
a(g120
F2257.0
F2277.0
tp1314
a(g231
F2277.0
F2278.0
tp1315
atp1316
a(L63L
g2
(lp1317
(g140
I0
F0.0
tp1318
atp1319
a(L73L
g223
(lp1320
(g47
F3408.0
F3408.0
tp1321
atp1322
a(L76L
g2
(lp1323
(g180
F3408.0
F3408.0
tp1324
atp1325
a(L78L
g2
(lp1326
(g76
I0
F0.0
tp1327
a(g14
I0
F0.0
tp1328
a(g243
I0
F0.0
tp1329
atp1330
a(L80L
g2
(lp1331
(g249
I0
F0.0
tp1332
a(g82
I0
F0.0
tp1333
a(g136
I0
F0.0
tp1334
atp1335
a(L82L
g2
(lp1336
(g253
I0
F0.0
tp1337
a(g204
I0
F0.0
tp1338
atp1339
a(L85L
g2
(lp1340
(g278
F2597.0
F2597.0
tp1341
a(g80
F2597.0
F2597.0
tp1342
a(g210
F2597.0
F2597.0
tp1343
a(g132
F2597.0
F2597.0
tp1344
atp1345
a(L86L
g31
(lp1346
(g186
F2651.0
F2651.0
tp1347
atp1348
a(L88L
g2
(lp1349
(g72
I0
F0.0
tp1350
atp1351
a(L89L
g223
(lp1352
(g90
F1484.0
F1532.0
tp1353
a(g263
F1532.0
F1578.0
tp1354
a(g22
F2597.0
F2861.0
tp1355
a(g24
F2861.0
F2892.0
tp1356
a(g122
F2892.0
F2906.0
tp1357
a(g156
F2906.0
F2914.0
tp1358
atp1359
a(L92L
g2
(lp1360
(g154
I0
F0.0
tp1361
a(g110
I0
F0.0
tp1362
atp1363
a(L94L
g2
(lp1364
(g33
F2256.0
F2256.0
tp1365
a(g148
F2256.0
F2256.0
tp1366
atp1367
a(L95L
g2
(lp1368
(g70
I0
F0.0
tp1369
atp1370
a(L98L
g31
(lp1371
(g104
I0
F1748.0
tp1372
atp1373
atp1374
a.