(lp0
(F1429.0
F4.49
(lp1
(L1L
Vapac-sin#m3.2xlarge
p2
(lp3
(VID00002
p4
I0
F0.0
tp5
atp6
a(L2L
g2
(lp7
(VID00032
p8
I0
F0.0
tp9
atp10
a(L3L
g2
(lp11
(VID00005
p12
I0
F0.0
tp13
a(VID00007
p14
I0
F0.0
tp15
a(VID00008
p16
I0
F0.0
tp17
a(VID00029
p18
I0
F0.0
tp19
a(VID00031
p20
I0
F0.0
tp21
atp22
a(L6L
g2
(lp23
(VID00043
p24
I0
F0.0
tp25
a(VID00044
p26
I0
F0.0
tp27
atp28
a(L7L
g2
(lp29
(VID00036
p30
I0
F1.0
tp31
a(VID00049
p32
F1.0
F11.0
tp33
a(VID00050
p34
F11.0
F646.0
tp35
a(VID00051
p36
F646.0
F709.0
tp37
a(VID00056
p38
F709.0
F711.0
tp39
a(VID00010
p40
F711.0
F711.0
tp41
a(VID00019
p42
F711.0
F725.0
tp43
a(VID00021
p44
F932.0
F1025.0
tp45
a(VID00024
p46
F1025.0
F1428.0
tp47
a(VID00027
p48
F1428.0
F1429.0
tp49
atp50
a(L8L
g2
(lp51
(VID00001
p52
I0
F0.0
tp53
a(VID00040
p54
I0
F0.0
tp55
atp56
a(L10L
g2
(lp57
(VID00009
p58
I0
F0.0
tp59
atp60
a(L13L
g2
(lp61
(VID00013
p62
I0
F0.0
tp63
atp64
a(L17L
Vapac-sin#m1.small
p65
(lp66
(VID00046
p67
I0
F12.0
tp68
a(VID00053
p69
F709.0
F750.0
tp70
a(VID00052
p71
F750.0
F759.0
tp72
a(VID00055
p73
F759.0
F1023.0
tp74
a(VID00038
p75
F1023.0
F1037.0
tp76
a(VID00011
p77
F1037.0
F1050.0
tp78
a(VID00016
p79
F1050.0
F1061.0
tp80
a(VID00023
p81
F1061.0
F1101.0
tp82
a(VID00034
p83
F1101.0
F1107.0
tp84
atp85
a(L20L
g2
(lp86
(VID00012
p87
I0
F0.0
tp88
a(VID00014
p89
I0
F0.0
tp90
atp91
a(L21L
Vapac-sin#m3.xlarge
p92
(lp93
(VID00042
p94
I0
F0.0
tp95
atp96
a(L24L
g92
(lp97
(S'exit'
p98
F1429.0
F1429.0
tp99
atp100
a(L25L
g92
(lp101
(VID00017
p102
I0
F777.0
tp103
a(VID00033
p104
F777.0
F778.0
tp105
atp106
a(L28L
g92
(lp107
(VID00028
p108
F1107.0
F1107.0
tp109
atp110
a(L30L
g2
(lp111
(VID00020
p112
I0
F932.0
tp113
a(VID00054
p114
F932.0
F1366.0
tp115
a(VID00015
p116
F1366.0
F1366.0
tp117
a(VID00026
p118
F1366.0
F1368.0
tp119
atp120
a(L31L
Vapac-sin#m3.medium
p121
(lp122
(S'entry'
p123
I0
F0.0
tp124
atp125
a(L33L
Vapac-sin#m1.xlarge
p126
(lp127
(VID00000
p128
F1366.0
F1366.0
tp129
atp130
a(L45L
g2
(lp131
(VID00045
p132
I0
F0.0
tp133
atp134
a(L56L
g2
(lp135
(VID00037
p136
I0
F1.0
tp137
a(VID00004
p138
F1.0
F1.0
tp139
a(VID00003
p140
F1.0
F2.0
tp141
a(VID00048
p142
F2.0
F9.0
tp143
a(VID00047
p144
F9.0
F566.0
tp145
a(VID00018
p146
F566.0
F578.0
tp147
a(VID00022
p148
F1025.0
F1025.0
tp149
a(VID00025
p150
F1025.0
F1035.0
tp151
a(VID00057
p152
F1366.0
F1367.0
tp153
atp154
a(L57L
g2
(lp155
(VID00041
p156
I0
F0.0
tp157
atp158
a(L58L
g2
(lp159
(VID00006
p160
I0
F0.0
tp161
a(VID00030
p162
I0
F0.0
tp163
atp164
a(L59L
g2
(lp165
(VID00039
p166
I0
F0.0
tp167
a(VID00035
p168
I0
F0.0
tp169
atp170
atp171
a(F1611.0
F3.86
(lp172
(L0L
Vapac-sin#m3.large
p173
(lp174
(g123
I0
F0.0
tp175
atp176
a(L1L
g2
(lp177
(g94
I0
F0.0
tp178
a(g162
I0
F0.0
tp179
atp180
a(L2L
g2
(lp181
(g40
I0
F0.0
tp182
a(g18
I0
F0.0
tp183
atp184
a(L3L
g2
(lp185
(g24
I0
F0.0
tp186
a(g132
I0
F0.0
tp187
atp188
a(L7L
g2
(lp189
(g136
I0
F1.0
tp190
a(g142
F1.0
F8.0
tp191
a(g34
F8.0
F643.0
tp192
a(g79
F643.0
F643.0
tp193
a(g44
F971.0
F1064.0
tp194
a(g46
F1064.0
F1467.0
tp195
a(g48
F1467.0
F1468.0
tp196
atp197
a(L17L
g65
(lp198
(g30
I0
F14.0
tp199
a(g140
F14.0
F28.0
tp200
a(g32
F28.0
F289.0
tp201
a(g87
F289.0
F298.0
tp202
a(g146
F298.0
F613.0
tp203
a(g42
F613.0
F971.0
tp204
a(g118
F1064.0
F1113.0
tp205
atp206
a(L22L
g2
(lp207
(g8
I0
F0.0
tp208
a(g4
I0
F0.0
tp209
a(g89
I0
F0.0
tp210
atp211
a(L23L
g65
(lp212
(g108
F1204.0
F1204.0
tp213
atp214
a(L25L
g92
(lp215
(g77
I0
F1.0
tp216
a(g102
F1.0
F778.0
tp217
atp218
a(L26L
g2
(lp219
(g168
I0
F0.0
tp220
atp221
a(L27L
g2
(lp222
(g52
I0
F0.0
tp223
atp224
a(L30L
g2
(lp225
(g112
I0
F932.0
tp226
a(g166
F932.0
F932.0
tp227
a(g36
F1113.0
F1176.0
tp228
a(g114
F1176.0
F1610.0
tp229
atp230
a(L31L
g2
(lp231
(g58
I0
F0.0
tp232
a(g156
I0
F0.0
tp233
atp234
a(L33L
g2
(lp235
(g71
F1176.0
F1176.0
tp236
atp237
a(L36L
g2
(lp238
(g116
I0
F0.0
tp239
a(g20
I0
F0.0
tp240
atp241
a(L43L
g65
(lp242
(g98
F1611.0
F1611.0
tp243
atp244
a(L45L
g2
(lp245
(g138
I0
F0.0
tp246
a(g14
I0
F0.0
tp247
atp248
a(L46L
g2
(lp249
(g12
I0
F0.0
tp250
a(g26
I0
F0.0
tp251
atp252
a(L47L
g2
(lp253
(g54
I0
F0.0
tp254
atp255
a(L50L
g2
(lp256
(g148
F1064.0
F1064.0
tp257
a(g104
F1064.0
F1064.0
tp258
atp259
a(L56L
g92
(lp260
(g144
I0
F1113.0
tp261
a(g69
F1176.0
F1179.0
tp262
a(g73
F1179.0
F1199.0
tp263
a(g38
F1199.0
F1203.0
tp264
a(g75
F1203.0
F1204.0
tp265
a(g81
F1204.0
F1207.0
tp266
a(g150
F1207.0
F1227.0
tp267
a(g152
F1610.0
F1611.0
tp268
atp269
a(L57L
g2
(lp270
(g128
F643.0
F643.0
tp271
a(g83
F643.0
F643.0
tp272
atp273
a(L58L
g2
(lp274
(g67
I0
F0.0
tp275
a(g160
I0
F0.0
tp276
a(g16
I0
F0.0
tp277
a(g62
I0
F0.0
tp278
atp279
atp280
a(F2051.0
F3.54
(lp281
(L0L
g173
(lp282
(g123
I0
F0.0
tp283
atp284
a(L1L
g2
(lp285
(g94
I0
F0.0
tp286
a(g162
I0
F0.0
tp287
atp288
a(L2L
g2
(lp289
(g14
I0
F0.0
tp290
a(g40
I0
F0.0
tp291
a(g18
I0
F0.0
tp292
atp293
a(L3L
g2
(lp294
(g24
I0
F0.0
tp295
a(g132
I0
F0.0
tp296
atp297
a(L7L
g2
(lp298
(g136
I0
F1.0
tp299
a(g34
F1.0
F636.0
tp300
a(g77
F636.0
F637.0
tp301
a(g44
F1554.0
F1647.0
tp302
a(g48
F2050.0
F2051.0
tp303
atp304
a(L17L
g65
(lp305
(g30
I0
F14.0
tp306
a(g140
F14.0
F28.0
tp307
a(g32
F28.0
F289.0
tp308
a(g142
F289.0
F484.0
tp309
a(g146
F484.0
F799.0
tp310
a(g42
F799.0
F1157.0
tp311
a(g118
F1647.0
F1696.0
tp312
atp313
a(L22L
g2
(lp314
(g8
I0
F0.0
tp315
a(g12
I0
F0.0
tp316
a(g4
I0
F0.0
tp317
a(g89
I0
F0.0
tp318
atp319
a(L27L
g2
(lp320
(g52
I0
F0.0
tp321
atp322
a(L29L
g173
(lp323
(g102
I0
F1554.0
tp324
a(g98
F2051.0
F2051.0
tp325
atp326
a(L30L
g2
(lp327
(g112
I0
F932.0
tp328
a(g166
F932.0
F932.0
tp329
a(g36
F1113.0
F1176.0
tp330
a(g73
F1176.0
F1186.0
tp331
a(g114
F1186.0
F1620.0
tp332
a(g46
F1647.0
F2050.0
tp333
a(g20
F2050.0
F2050.0
tp334
atp335
a(L31L
g2
(lp336
(g58
I0
F0.0
tp337
a(g156
I0
F0.0
tp338
atp339
a(L36L
g2
(lp340
(g87
I0
F0.0
tp341
a(g116
I0
F0.0
tp342
atp343
a(L45L
g2
(lp344
(g138
I0
F0.0
tp345
atp346
a(L46L
g2
(lp347
(g26
I0
F0.0
tp348
a(g168
I0
F0.0
tp349
atp350
a(L50L
g2
(lp351
(g148
F1647.0
F1647.0
tp352
a(g104
F1647.0
F1647.0
tp353
atp354
a(L52L
g2
(lp355
(g54
I0
F0.0
tp356
atp357
a(L53L
g2
(lp358
(g71
F1176.0
F1176.0
tp359
atp360
a(L55L
g2
(lp361
(g108
F2050.0
F2050.0
tp362
atp363
a(L56L
g92
(lp364
(g144
I0
F1113.0
tp365
a(g69
F1176.0
F1179.0
tp366
a(g38
F1179.0
F1183.0
tp367
a(g75
F1183.0
F1184.0
tp368
a(g81
F1647.0
F1650.0
tp369
a(g150
F1650.0
F1670.0
tp370
a(g152
F2050.0
F2051.0
tp371
atp372
a(L57L
g92
(lp373
(g128
F637.0
F637.0
tp374
atp375
a(L58L
g2
(lp376
(g67
I0
F0.0
tp377
a(g160
I0
F0.0
tp378
a(g16
I0
F0.0
tp379
a(g62
I0
F0.0
tp380
a(g79
I0
F0.0
tp381
atp382
a(L59L
g2
(lp383
(g83
I0
F0.0
tp384
atp385
atp386
a(F2172.0
F2.91
(lp387
(L0L
g173
(lp388
(g123
I0
F0.0
tp389
atp390
a(L1L
g2
(lp391
(g94
I0
F0.0
tp392
a(g162
I0
F0.0
tp393
atp394
a(L2L
g2
(lp395
(g40
I0
F0.0
tp396
a(g18
I0
F0.0
tp397
atp398
a(L3L
g2
(lp399
(g132
I0
F0.0
tp400
atp401
a(L7L
g92
(lp402
(g34
I0
F1271.0
tp403
a(g77
F1271.0
F1272.0
tp404
a(g44
F1554.0
F1740.0
tp405
a(g48
F2171.0
F2172.0
tp406
atp407
a(L17L
g65
(lp408
(g30
I0
F14.0
tp409
a(g140
F14.0
F28.0
tp410
a(g32
F28.0
F289.0
tp411
a(g142
F289.0
F484.0
tp412
a(g146
F484.0
F799.0
tp413
a(g42
F799.0
F1157.0
tp414
a(g118
F1740.0
F1789.0
tp415
atp416
a(L22L
g2
(lp417
(g8
I0
F0.0
tp418
a(g4
I0
F0.0
tp419
a(g89
I0
F0.0
tp420
atp421
a(L26L
g2
(lp422
(g168
I0
F0.0
tp423
atp424
a(L27L
g2
(lp425
(g52
I0
F0.0
tp426
atp427
a(L29L
g173
(lp428
(g102
I0
F1554.0
tp429
a(g98
F2172.0
F2172.0
tp430
atp431
a(L30L
g2
(lp432
(g112
I0
F932.0
tp433
a(g166
F932.0
F932.0
tp434
a(g36
F1271.0
F1334.0
tp435
a(g114
F1334.0
F1768.0
tp436
a(g46
F1768.0
F2171.0
tp437
a(g20
F2171.0
F2171.0
tp438
atp439
a(L31L
g2
(lp440
(g58
I0
F0.0
tp441
a(g156
I0
F0.0
tp442
atp443
a(L33L
g2
(lp444
(g138
I0
F0.0
tp445
atp446
a(L36L
g2
(lp447
(g16
I0
F0.0
tp448
a(g87
I0
F0.0
tp449
a(g116
I0
F0.0
tp450
atp451
a(L37L
g2
(lp452
(g71
F1334.0
F1334.0
tp453
atp454
a(L45L
g2
(lp455
(g14
I0
F0.0
tp456
atp457
a(L46L
g2
(lp458
(g12
I0
F0.0
tp459
a(g26
I0
F0.0
tp460
atp461
a(L50L
g2
(lp462
(g148
F1740.0
F1740.0
tp463
a(g104
F1740.0
F1740.0
tp464
atp465
a(L52L
g2
(lp466
(g54
I0
F0.0
tp467
atp468
a(L55L
g2
(lp469
(g108
F2171.0
F2171.0
tp470
atp471
a(L56L
g92
(lp472
(g136
I0
F1.0
tp473
a(g144
F1.0
F1114.0
tp474
a(g69
F1334.0
F1337.0
tp475
a(g73
F1337.0
F1357.0
tp476
a(g38
F1357.0
F1361.0
tp477
a(g75
F1361.0
F1362.0
tp478
a(g81
F1740.0
F1743.0
tp479
a(g150
F1743.0
F1763.0
tp480
a(g152
F2171.0
F2172.0
tp481
atp482
a(L57L
g92
(lp483
(g128
F1272.0
F1272.0
tp484
atp485
a(L58L
g2
(lp486
(g67
I0
F0.0
tp487
a(g160
I0
F0.0
tp488
a(g62
I0
F0.0
tp489
a(g79
I0
F0.0
tp490
atp491
a(L59L
g2
(lp492
(g24
I0
F0.0
tp493
a(g83
I0
F0.0
tp494
atp495
atp496
a(F2725.0
F2.68
(lp497
(L1L
g2
(lp498
(g26
I0
F0.0
tp499
a(g156
I0
F0.0
tp500
atp501
a(L59L
g2
(lp502
(g52
I0
F0.0
tp503
atp504
a(L5L
g121
(lp505
(g98
F2725.0
F2725.0
tp506
atp507
a(L38L
g2
(lp508
(g67
I0
F0.0
tp509
atp510
a(L7L
g92
(lp511
(g160
I0
F1.0
tp512
a(g32
F1.0
F21.0
tp513
a(g142
F21.0
F36.0
tp514
a(g34
F36.0
F1307.0
tp515
a(g44
F1562.0
F1748.0
tp516
a(g46
F1748.0
F2553.0
tp517
a(g152
F2724.0
F2725.0
tp518
atp519
a(L40L
g2
(lp520
(g14
I0
F0.0
tp521
a(g58
I0
F0.0
tp522
a(g16
I0
F0.0
tp523
a(g104
I0
F0.0
tp524
a(g83
I0
F0.0
tp525
atp526
a(L9L
Vapac-sin#m1.large
p527
(lp528
(g108
F2664.0
F2664.0
tp529
atp530
a(L46L
Vapac-sin#m1.medium
p531
(lp532
(g128
F2613.0
F2613.0
tp533
atp534
a(L45L
g2
(lp535
(g79
I0
F0.0
tp536
a(g20
I0
F0.0
tp537
atp538
a(L14L
g65
(lp539
(g73
F2290.0
F2554.0
tp540
a(g38
F2554.0
F2603.0
tp541
a(g89
F2603.0
F2613.0
tp542
a(g81
F2613.0
F2653.0
tp543
a(g162
F2653.0
F2664.0
tp544
atp545
a(L11L
g2
(lp546
(g148
F1748.0
F1748.0
tp547
atp548
a(L16L
g2
(lp549
(g24
I0
F0.0
tp550
a(g87
I0
F0.0
tp551
a(g116
I0
F0.0
tp552
atp553
a(L17L
g65
(lp554
(g136
I0
F14.0
tp555
a(g40
F14.0
F24.0
tp556
a(g168
F24.0
F34.0
tp557
a(g146
F34.0
F349.0
tp558
a(g42
F349.0
F707.0
tp559
a(g150
F1748.0
F2012.0
tp560
a(g118
F2012.0
F2061.0
tp561
atp562
a(L19L
g2
(lp563
(g12
I0
F0.0
tp564
a(g166
I0
F0.0
tp565
a(g62
I0
F0.0
tp566
a(g54
I0
F0.0
tp567
atp568
a(L21L
g92
(lp569
(g94
I0
F0.0
tp570
atp571
a(L22L
g2
(lp572
(g4
I0
F0.0
tp573
atp574
a(L56L
g173
(lp575
(g144
I0
F2227.0
tp576
a(g69
F2290.0
F2296.0
tp577
a(g77
F2296.0
F2298.0
tp578
atp579
a(L25L
g173
(lp580
(g8
I0
F2.0
tp581
a(g30
F2.0
F4.0
tp582
a(g140
F4.0
F6.0
tp583
a(g75
F6.0
F8.0
tp584
a(g102
F8.0
F1562.0
tp585
atp586
a(L26L
g2
(lp587
(g71
F2290.0
F2290.0
tp588
a(g18
F2290.0
F2290.0
tp589
atp590
a(L27L
g2
(lp591
(g123
I0
F0.0
tp592
a(g138
I0
F0.0
tp593
atp594
a(L30L
g2
(lp595
(g112
I0
F932.0
tp596
a(g132
F932.0
F932.0
tp597
a(g36
F2227.0
F2290.0
tp598
a(g114
F2290.0
F2724.0
tp599
a(g48
F2724.0
F2725.0
tp600
atp601
atp602
a(F2857.0
F2.28
(lp603
(L0L
g126
(lp604
(g123
I0
F0.0
tp605
atp606
a(L1L
g2
(lp607
(g94
I0
F0.0
tp608
a(g132
I0
F0.0
tp609
a(g162
I0
F0.0
tp610
atp611
a(L2L
g2
(lp612
(g156
I0
F0.0
tp613
a(g40
I0
F0.0
tp614
a(g18
I0
F0.0
tp615
atp616
a(L7L
g92
(lp617
(g24
I0
F1.0
tp618
a(g136
F1.0
F2.0
tp619
a(g142
F2.0
F17.0
tp620
a(g34
F17.0
F1288.0
tp621
a(g79
F1288.0
F1289.0
tp622
a(g44
F1863.0
F2049.0
tp623
a(g46
F2049.0
F2854.0
tp624
a(g48
F2854.0
F2855.0
tp625
atp626
a(L17L
g65
(lp627
(g30
I0
F14.0
tp628
a(g140
F14.0
F28.0
tp629
a(g87
F28.0
F37.0
tp630
a(g146
F37.0
F352.0
tp631
a(g42
F352.0
F710.0
tp632
a(g118
F2049.0
F2098.0
tp633
atp634
a(L22L
g2
(lp635
(g4
I0
F0.0
tp636
a(g89
I0
F0.0
tp637
atp638
a(L23L
g527
(lp639
(g108
F2049.0
F2049.0
tp640
atp641
a(L25L
g173
(lp642
(g32
I0
F40.0
tp643
a(g77
F40.0
F42.0
tp644
a(g102
F42.0
F1596.0
tp645
atp646
a(L26L
g2
(lp647
(g58
I0
F0.0
tp648
a(g168
I0
F0.0
tp649
atp650
a(L27L
g2
(lp651
(g52
I0
F0.0
tp652
atp653
a(L30L
g92
(lp654
(g112
I0
F1863.0
tp655
a(g36
F1863.0
F1989.0
tp656
a(g114
F1989.0
F2856.0
tp657
atp658
a(L31L
g2
(lp659
(g8
I0
F0.0
tp660
atp661
a(L33L
g2
(lp662
(g71
F1989.0
F1989.0
tp663
atp664
a(L36L
g2
(lp665
(g166
I0
F0.0
tp666
a(g116
I0
F0.0
tp667
a(g20
I0
F0.0
tp668
atp669
a(L43L
g65
(lp670
(g98
F2857.0
F2857.0
tp671
atp672
a(L45L
g2
(lp673
(g67
I0
F0.0
tp674
a(g138
I0
F0.0
tp675
a(g14
I0
F0.0
tp676
a(g16
I0
F0.0
tp677
atp678
a(L46L
g2
(lp679
(g12
I0
F0.0
tp680
a(g26
I0
F0.0
tp681
atp682
a(L47L
g2
(lp683
(g54
I0
F0.0
tp684
atp685
a(L49L
g2
(lp686
(g160
I0
F0.0
tp687
atp688
a(L50L
g2
(lp689
(g148
F2049.0
F2049.0
tp690
a(g104
F2049.0
F2049.0
tp691
atp692
a(L56L
g92
(lp693
(g144
I0
F1113.0
tp694
a(g69
F1989.0
F1992.0
tp695
a(g73
F1992.0
F2012.0
tp696
a(g38
F2012.0
F2016.0
tp697
a(g75
F2016.0
F2017.0
tp698
a(g81
F2049.0
F2052.0
tp699
a(g150
F2052.0
F2072.0
tp700
a(g152
F2856.0
F2857.0
tp701
atp702
a(L57L
g2
(lp703
(g128
F1289.0
F1289.0
tp704
a(g83
F1289.0
F1289.0
tp705
atp706
a(L58L
g2
(lp707
(g62
I0
F0.0
tp708
atp709
atp710
a(F3221.0
F2.05
(lp711
(L0L
g2
(lp712
(g148
F2049.0
F2049.0
tp713
atp714
a(L1L
g2
(lp715
(g138
I0
F0.0
tp716
a(g132
I0
F0.0
tp717
a(g26
I0
F0.0
tp718
atp719
a(L2L
g2
(lp720
(g67
I0
F0.0
tp721
atp722
a(L3L
g2
(lp723
(g71
F2353.0
F2353.0
tp724
atp725
a(L6L
g2
(lp726
(g16
I0
F0.0
tp727
a(g40
I0
F0.0
tp728
a(g116
I0
F0.0
tp729
atp730
a(L7L
g92
(lp731
(g142
I0
F15.0
tp732
a(g34
F15.0
F1286.0
tp733
a(g44
F1863.0
F2049.0
tp734
a(g46
F2049.0
F2854.0
tp735
a(g152
F3220.0
F3221.0
tp736
a(g98
F3221.0
F3221.0
tp737
atp738
a(L8L
g2
(lp739
(g4
I0
F0.0
tp740
atp741
a(L14L
g65
(lp742
(g24
I0
F9.0
tp743
a(g69
F2353.0
F2394.0
tp744
a(g73
F2394.0
F2658.0
tp745
a(g38
F2658.0
F2707.0
tp746
a(g81
F2707.0
F2747.0
tp747
a(g118
F2747.0
F2796.0
tp748
atp749
a(L17L
g65
(lp750
(g136
I0
F14.0
tp751
a(g32
F14.0
F275.0
tp752
a(g146
F275.0
F590.0
tp753
a(g42
F590.0
F948.0
tp754
a(g150
F2049.0
F2313.0
tp755
atp756
a(L18L
g92
(lp757
(g108
F1567.0
F1567.0
tp758
atp759
a(L20L
g2
(lp760
(g18
I0
F0.0
tp761
a(g54
I0
F0.0
tp762
atp763
a(L21L
g2
(lp764
(g94
I0
F0.0
tp765
atp766
a(L22L
g2
(lp767
(g166
I0
F0.0
tp768
atp769
a(L25L
g173
(lp770
(g30
I0
F2.0
tp771
a(g160
F2.0
F4.0
tp772
a(g140
F4.0
F6.0
tp773
a(g75
F6.0
F8.0
tp774
a(g62
F8.0
F9.0
tp775
a(g102
F9.0
F1563.0
tp776
a(g89
F1563.0
F1565.0
tp777
a(g168
F1565.0
F1567.0
tp778
atp779
a(L30L
g92
(lp780
(g112
I0
F1863.0
tp781
a(g36
F2227.0
F2353.0
tp782
a(g114
F2353.0
F3220.0
tp783
a(g48
F3220.0
F3221.0
tp784
atp785
a(L32L
g2
(lp786
(g58
I0
F0.0
tp787
atp788
a(L34L
g2
(lp789
(g8
I0
F0.0
tp790
atp791
a(L35L
g2
(lp792
(g14
I0
F0.0
tp793
atp794
a(L36L
g2
(lp795
(g87
I0
F0.0
tp796
atp797
a(L39L
g2
(lp798
(g52
I0
F0.0
tp799
a(g83
I0
F0.0
tp800
atp801
a(L41L
g173
(lp802
(g128
F2229.0
F2229.0
tp803
atp804
a(L42L
g2
(lp805
(g20
I0
F0.0
tp806
a(g104
I0
F0.0
tp807
atp808
a(L43L
g2
(lp809
(g12
I0
F0.0
tp810
atp811
a(L44L
g2
(lp812
(g162
I0
F0.0
tp813
atp814
a(L55L
g2
(lp815
(g123
I0
F0.0
tp816
a(g79
I0
F0.0
tp817
atp818
a(L56L
g173
(lp819
(g144
I0
F2227.0
tp820
a(g77
F2227.0
F2229.0
tp821
atp822
a(L57L
g2
(lp823
(g156
I0
F0.0
tp824
atp825
atp826
a.