(dp1
Vapac-sin#m1.large
p2
(dp3
S'price'
p4
F0.32000000000000001
sS'ecu'
p5
F4
sS'net'
p6
F85196800
ssVapac-sin#m3.xlarge
p7
(dp8
g4
F0.63
sg5
F13
sg6
F85196800
ssVapac-sin#m3.2xlarge
p9
(dp10
g4
F1.26
sg5
F26
sg6
F131072000
ssVapac-sin#m1.small
p11
(dp12
g4
F0.080000000000000002
sg5
F1
sg6
F39321600
ssVapac-sin#m3.large
p13
(dp14
g4
F0.315
sg5
F6.5
sg6
F85196800
ssVapac-sin#m1.medium
p15
(dp16
g4
F0.16
sg5
F2
sg6
F85196800
ssVapac-sin#m1.xlarge
p17
(dp18
g4
F0.64000000000000001
sg5
F8
sg6
F131072000
ssVapac-sin#m3.medium
p19
(dp20
g4
F0.158
sg5
F3
sg6
F85196800
ss.