(lp0
(F411.0
F7.56
(lp1
(L2L
Vapac-sin#m3.2xlarge
p2
(lp3
(S'entry'
p4
I0
F0.0
tp5
a(VID00007
p6
F5.0
F213.0
tp7
a(VID00020
p8
F215.0
F217.0
tp9
a(VID00027
p10
F217.0
F374.0
tp11
a(VID00029
p12
F410.0
F411.0
tp13
atp14
a(L8L
g2
(lp15
(VID00002
p16
I0
F5.0
tp17
a(VID00012
p18
F5.0
F107.0
tp19
a(VID00013
p20
F107.0
F213.0
tp21
a(VID00021
p22
F215.0
F217.0
tp23
a(VID00023
p24
F219.0
F408.0
tp25
atp26
a(L9L
g2
(lp27
(VID00005
p28
I0
F5.0
tp29
a(VID00004
p30
F5.0
F11.0
tp31
a(VID00006
p32
F11.0
F17.0
tp33
a(VID00009
p34
F17.0
F200.0
tp35
a(VID00014
p36
F213.0
F215.0
tp37
a(VID00024
p38
F217.0
F346.0
tp39
atp40
a(L10L
g2
(lp41
(VID00001
p42
I0
F6.0
tp43
a(VID00011
p44
F11.0
F176.0
tp45
a(VID00015
p46
F215.0
F217.0
tp47
a(VID00022
p48
F217.0
F410.0
tp49
atp50
a(L12L
g2
(lp51
(VID00003
p52
I0
F5.0
tp53
a(VID00010
p54
F5.0
F165.0
tp55
a(VID00017
p56
F215.0
F217.0
tp57
a(VID00016
p58
F217.0
F219.0
tp59
a(VID00018
p60
F219.0
F221.0
tp61
a(VID00025
p62
F221.0
F300.0
tp63
a(VID00019
p64
F300.0
F302.0
tp65
a(VID00026
p66
F302.0
F396.0
tp67
atp68
a(L13L
Vapac-sin#m3.medium
p69
(lp70
(S'exit'
p71
F411.0
F411.0
tp72
atp73
a(L14L
g2
(lp74
(VID00000
p75
I0
F5.0
tp76
a(VID00008
p77
F6.0
F114.0
tp78
a(VID00028
p79
F217.0
F329.0
tp80
atp81
atp82
a(F430.0
F6.93
(lp83
(L2L
g2
(lp84
(g4
I0
F0.0
tp85
a(g42
I0
F6.0
tp86
a(g75
F6.0
F11.0
tp87
a(g52
F11.0
F16.0
tp88
a(g44
F16.0
F181.0
tp89
a(g10
F224.0
F381.0
tp90
a(g71
F431.0
F431.0
tp91
atp92
a(L8L
g2
(lp93
(g16
I0
F5.0
tp94
a(g77
F6.0
F114.0
tp95
a(g20
F114.0
F220.0
tp96
a(g36
F220.0
F222.0
tp97
a(g56
F222.0
F224.0
tp98
a(g24
F226.0
F415.0
tp99
atp100
a(L9L
g2
(lp101
(g28
I0
F5.0
tp102
a(g30
F5.0
F11.0
tp103
a(g34
F11.0
F194.0
tp104
a(g22
F222.0
F224.0
tp105
a(g38
F224.0
F353.0
tp106
atp107
a(L10L
g2
(lp108
(g32
I0
F6.0
tp109
a(g6
F11.0
F219.0
tp110
a(g8
F222.0
F224.0
tp111
a(g58
F224.0
F226.0
tp112
a(g48
F226.0
F419.0
tp113
a(g12
F430.0
F431.0
tp114
atp115
a(L12L
g2
(lp116
(g54
F16.0
F176.0
tp117
a(g64
F222.0
F224.0
tp118
a(g66
F224.0
F318.0
tp119
a(g79
F318.0
F430.0
tp120
atp121
a(L16L
Vapac-sin#m3.xlarge
p122
(lp123
(g18
F5.0
F209.0
tp124
a(g46
F222.0
F226.0
tp125
a(g60
F226.0
F229.0
tp126
a(g62
F229.0
F386.0
tp127
atp128
atp129
a(F480.0
F6.3
(lp130
(L2L
g2
(lp131
(g4
I0
F0.0
tp132
a(g52
I0
F5.0
tp133
a(g44
F11.0
F176.0
tp134
a(g8
F269.0
F271.0
tp135
a(g10
F271.0
F428.0
tp136
atp137
a(L8L
g2
(lp138
(g16
I0
F5.0
tp139
a(g77
F6.0
F114.0
tp140
a(g20
F114.0
F220.0
tp141
a(g24
F273.0
F462.0
tp142
atp143
a(L9L
g2
(lp144
(g28
I0
F5.0
tp145
a(g30
F5.0
F11.0
tp146
a(g32
F11.0
F17.0
tp147
a(g34
F17.0
F200.0
tp148
a(g56
F269.0
F271.0
tp149
a(g38
F271.0
F400.0
tp150
a(g62
F400.0
F479.0
tp151
atp152
a(L10L
g2
(lp153
(g42
I0
F6.0
tp154
a(g6
F6.0
F214.0
tp155
a(g36
F267.0
F269.0
tp156
a(g22
F269.0
F271.0
tp157
a(g58
F271.0
F273.0
tp158
a(g46
F273.0
F275.0
tp159
a(g48
F275.0
F468.0
tp160
a(g12
F479.0
F480.0
tp161
atp162
a(L12L
g2
(lp163
(g75
I0
F5.0
tp164
a(g18
F5.0
F107.0
tp165
a(g54
F107.0
F267.0
tp166
a(g60
F269.0
F271.0
tp167
a(g64
F271.0
F273.0
tp168
a(g66
F273.0
F367.0
tp169
a(g79
F367.0
F479.0
tp170
atp171
a(L24L
Vapac-sin#m1.small
p172
(lp173
(g71
F480.0
F480.0
tp174
atp175
atp176
a(F566.0
F5.67
(lp177
(L2L
g2
(lp178
(g6
F5.0
F213.0
tp179
a(g36
F279.0
F281.0
tp180
a(g24
F283.0
F472.0
tp181
a(g66
F472.0
F566.0
tp182
atp183
a(L3L
g69
(lp184
(g71
F567.0
F567.0
tp185
atp186
a(L8L
g122
(lp187
(g32
I0
F11.0
tp188
a(g16
F11.0
F22.0
tp189
a(g20
F22.0
F234.0
tp190
a(g56
F281.0
F284.0
tp191
a(g60
F284.0
F287.0
tp192
atp193
a(L9L
g2
(lp194
(g4
I0
F0.0
tp195
a(g28
I0
F5.0
tp196
a(g30
F5.0
F11.0
tp197
a(g34
F22.0
F205.0
tp198
a(g38
F284.0
F413.0
tp199
a(g62
F413.0
F492.0
tp200
atp201
a(L10L
g2
(lp202
(g42
I0
F6.0
tp203
a(g77
F6.0
F114.0
tp204
a(g44
F114.0
F279.0
tp205
a(g58
F281.0
F283.0
tp206
a(g46
F283.0
F285.0
tp207
a(g48
F285.0
F478.0
tp208
a(g12
F566.0
F567.0
tp209
atp210
a(L12L
g2
(lp211
(g75
I0
F5.0
tp212
a(g52
F5.0
F10.0
tp213
a(g18
F10.0
F112.0
tp214
a(g54
F112.0
F272.0
tp215
a(g8
F281.0
F283.0
tp216
a(g10
F283.0
F440.0
tp217
a(g22
F440.0
F442.0
tp218
a(g64
F442.0
F444.0
tp219
a(g79
F444.0
F556.0
tp220
atp221
atp222
a(F597.0
F5.04
(lp223
(L2L
g2
(lp224
(g4
I0
F0.0
tp225
a(g16
I0
F5.0
tp226
a(g34
F5.0
F188.0
tp227
a(g77
F188.0
F296.0
tp228
a(g10
F330.0
F487.0
tp229
a(g66
F487.0
F581.0
tp230
atp231
a(L8L
g2
(lp232
(g52
I0
F5.0
tp233
a(g18
F11.0
F113.0
tp234
a(g44
F113.0
F278.0
tp235
a(g58
F327.0
F329.0
tp236
a(g24
F329.0
F518.0
tp237
a(g62
F518.0
F597.0
tp238
atp239
a(L9L
g122
(lp240
(g28
I0
F11.0
tp241
a(g32
F11.0
F22.0
tp242
a(g42
F22.0
F33.0
tp243
a(g22
F327.0
F330.0
tp244
a(g56
F330.0
F333.0
tp245
a(g38
F333.0
F590.0
tp246
atp247
a(L10L
g2
(lp248
(g30
I0
F6.0
tp249
a(g75
F6.0
F11.0
tp250
a(g6
F11.0
F219.0
tp251
a(g20
F219.0
F325.0
tp252
a(g36
F325.0
F327.0
tp253
a(g48
F334.0
F527.0
tp254
a(g12
F597.0
F598.0
tp255
atp256
a(L12L
g122
(lp257
(g54
F5.0
F325.0
tp258
a(g8
F327.0
F330.0
tp259
a(g46
F330.0
F334.0
tp260
a(g60
F334.0
F337.0
tp261
a(g64
F337.0
F340.0
tp262
a(g79
F340.0
F565.0
tp263
atp264
a(L13L
g2
(lp265
(g71
F598.0
F598.0
tp266
atp267
atp268
a(F690.0
F4.41
(lp269
(L2L
g122
(lp270
(g42
I0
F11.0
tp271
a(g44
F11.0
F340.0
tp272
a(g10
F375.0
F689.0
tp273
atp274
a(L8L
g2
(lp275
(g16
I0
F5.0
tp276
a(g77
F11.0
F119.0
tp277
a(g18
F119.0
F221.0
tp278
a(g20
F221.0
F327.0
tp279
a(g22
F373.0
F375.0
tp280
a(g56
F375.0
F377.0
tp281
a(g24
F377.0
F566.0
tp282
a(g62
F566.0
F645.0
tp283
atp284
a(L9L
g122
(lp285
(g4
I0
F0.0
tp286
a(g34
F5.0
F371.0
tp287
a(g38
F377.0
F634.0
tp288
atp289
a(L10L
g2
(lp290
(g28
I0
F5.0
tp291
a(g30
F5.0
F11.0
tp292
a(g32
F11.0
F17.0
tp293
a(g6
F17.0
F225.0
tp294
a(g36
F371.0
F373.0
tp295
a(g8
F373.0
F375.0
tp296
a(g46
F375.0
F377.0
tp297
a(g48
F377.0
F570.0
tp298
a(g66
F570.0
F664.0
tp299
a(g12
F689.0
F690.0
tp300
atp301
a(L12L
g122
(lp302
(g75
I0
F11.0
tp303
a(g52
F11.0
F22.0
tp304
a(g54
F22.0
F342.0
tp305
a(g58
F373.0
F376.0
tp306
a(g60
F376.0
F379.0
tp307
a(g64
F379.0
F382.0
tp308
a(g79
F382.0
F607.0
tp309
atp310
a(L20L
g122
(lp311
(g71
F690.0
F690.0
tp312
atp313
atp314
a(F796.0
F4.09
(lp315
(L2L
g122
(lp316
(g32
I0
F11.0
tp317
a(g44
F11.0
F340.0
tp318
a(g8
F416.0
F419.0
tp319
a(g10
F419.0
F733.0
tp320
atp321
a(L8L
g122
(lp322
(g16
I0
F11.0
tp323
a(g20
F11.0
F223.0
tp324
a(g24
F418.0
F795.0
tp325
atp326
a(L9L
g122
(lp327
(g4
I0
F0.0
tp328
a(g34
F11.0
F377.0
tp329
a(g22
F416.0
F419.0
tp330
a(g38
F422.0
F679.0
tp331
atp332
a(L10L
g2
(lp333
(g28
I0
F5.0
tp334
a(g30
F5.0
F11.0
tp335
a(g42
F11.0
F17.0
tp336
a(g75
F17.0
F22.0
tp337
a(g6
F22.0
F230.0
tp338
a(g77
F230.0
F338.0
tp339
a(g36
F414.0
F416.0
tp340
a(g58
F416.0
F418.0
tp341
a(g46
F418.0
F420.0
tp342
a(g48
F420.0
F613.0
tp343
a(g66
F613.0
F707.0
tp344
a(g12
F795.0
F796.0
tp345
atp346
a(L12L
g122
(lp347
(g52
I0
F11.0
tp348
a(g54
F11.0
F331.0
tp349
a(g64
F416.0
F419.0
tp350
a(g79
F419.0
F644.0
tp351
atp352
a(L16L
Vapac-sin#m3.large
p353
(lp354
(g18
F5.0
F414.0
tp355
a(g56
F416.0
F422.0
tp356
a(g60
F422.0
F428.0
tp357
a(g62
F428.0
F743.0
tp358
atp359
a(L20L
g122
(lp360
(g71
F796.0
F796.0
tp361
atp362
atp363
a(F822.0
F3.78
(lp364
(L2L
g122
(lp365
(g75
I0
F11.0
tp366
a(g6
F11.0
F426.0
tp367
a(g8
F430.0
F433.0
tp368
a(g10
F433.0
F747.0
tp369
a(g12
F819.0
F822.0
tp370
atp371
a(L8L
g122
(lp372
(g18
F11.0
F215.0
tp373
a(g20
F215.0
F427.0
tp374
a(g22
F430.0
F433.0
tp375
a(g24
F436.0
F813.0
tp376
atp377
a(L9L
g122
(lp378
(g32
I0
F11.0
tp379
a(g52
F11.0
F22.0
tp380
a(g34
F22.0
F388.0
tp381
a(g36
F427.0
F430.0
tp382
a(g38
F433.0
F690.0
tp383
atp384
a(L10L
g122
(lp385
(g28
I0
F11.0
tp386
a(g44
F11.0
F340.0
tp387
a(g46
F430.0
F434.0
tp388
a(g48
F434.0
F819.0
tp389
atp390
a(L12L
g122
(lp391
(g4
I0
F0.0
tp392
a(g42
I0
F11.0
tp393
a(g16
F11.0
F22.0
tp394
a(g54
F22.0
F342.0
tp395
a(g56
F430.0
F433.0
tp396
a(g58
F433.0
F436.0
tp397
a(g60
F436.0
F439.0
tp398
a(g62
F439.0
F596.0
tp399
a(g64
F596.0
F599.0
tp400
a(g66
F599.0
F787.0
tp401
atp402
a(L14L
g122
(lp403
(g30
I0
F11.0
tp404
a(g77
F11.0
F227.0
tp405
a(g79
F433.0
F658.0
tp406
atp407
a(L20L
g353
(lp408
(g71
F822.0
F822.0
tp409
atp410
atp411
a(F861.0
F3.46
(lp412
(L2L
g122
(lp413
(g52
I0
F11.0
tp414
a(g44
F22.0
F351.0
tp415
a(g10
F445.0
F759.0
tp416
atp417
a(L8L
g122
(lp418
(g16
I0
F11.0
tp419
a(g77
F11.0
F227.0
tp420
a(g20
F227.0
F439.0
tp421
a(g36
F439.0
F442.0
tp422
a(g56
F442.0
F445.0
tp423
a(g24
F448.0
F825.0
tp424
atp425
a(L9L
g122
(lp426
(g4
I0
F0.0
tp427
a(g28
I0
F11.0
tp428
a(g30
F11.0
F22.0
tp429
a(g32
F22.0
F33.0
tp430
a(g34
F33.0
F399.0
tp431
a(g22
F442.0
F445.0
tp432
a(g38
F445.0
F702.0
tp433
atp434
a(L10L
g122
(lp435
(g42
I0
F11.0
tp436
a(g6
F11.0
F426.0
tp437
a(g8
F442.0
F445.0
tp438
a(g58
F445.0
F448.0
tp439
a(g48
F449.0
F834.0
tp440
a(g12
F858.0
F861.0
tp441
atp442
a(L12L
g122
(lp443
(g75
I0
F11.0
tp444
a(g54
F11.0
F331.0
tp445
a(g64
F442.0
F445.0
tp446
a(g66
F445.0
F633.0
tp447
a(g79
F633.0
F858.0
tp448
atp449
a(L16L
g353
(lp450
(g18
F11.0
F420.0
tp451
a(g46
F442.0
F449.0
tp452
a(g60
F449.0
F455.0
tp453
a(g62
F455.0
F770.0
tp454
atp455
a(L23L
Vapac-sin#m1.xlarge
p456
(lp457
(g71
F861.0
F861.0
tp458
atp459
atp460
a(F959.0
F3.23
(lp461
(L2L
g122
(lp462
(g52
I0
F11.0
tp463
a(g44
F22.0
F351.0
tp464
a(g8
F538.0
F541.0
tp465
a(g10
F541.0
F855.0
tp466
atp467
a(L8L
g122
(lp468
(g16
I0
F11.0
tp469
a(g77
F11.0
F227.0
tp470
a(g20
F227.0
F439.0
tp471
a(g24
F544.0
F921.0
tp472
atp473
a(L9L
g122
(lp474
(g4
I0
F0.0
tp475
a(g28
I0
F11.0
tp476
a(g30
F11.0
F22.0
tp477
a(g32
F22.0
F33.0
tp478
a(g34
F33.0
F399.0
tp479
a(g56
F538.0
F541.0
tp480
a(g38
F541.0
F798.0
tp481
a(g62
F798.0
F955.0
tp482
atp483
a(L10L
g122
(lp484
(g42
I0
F11.0
tp485
a(g6
F11.0
F426.0
tp486
a(g36
F535.0
F538.0
tp487
a(g22
F538.0
F541.0
tp488
a(g58
F541.0
F544.0
tp489
a(g46
F544.0
F548.0
tp490
a(g48
F548.0
F933.0
tp491
a(g12
F955.0
F958.0
tp492
atp493
a(L12L
g122
(lp494
(g75
I0
F11.0
tp495
a(g18
F11.0
F215.0
tp496
a(g54
F215.0
F535.0
tp497
a(g64
F538.0
F541.0
tp498
a(g66
F541.0
F729.0
tp499
a(g79
F729.0
F954.0
tp500
atp501
a(L20L
g122
(lp502
(g71
F958.0
F958.0
tp503
atp504
a(L28L
g172
(lp505
(g60
F538.0
F580.0
tp506
atp507
atp508
a(F960.0
F3.15
(lp509
(L2L
g122
(lp510
(g52
I0
F11.0
tp511
a(g44
F22.0
F351.0
tp512
a(g8
F538.0
F541.0
tp513
a(g10
F541.0
F855.0
tp514
atp515
a(L8L
g122
(lp516
(g16
I0
F11.0
tp517
a(g77
F11.0
F227.0
tp518
a(g20
F227.0
F439.0
tp519
a(g24
F544.0
F921.0
tp520
atp521
a(L9L
g122
(lp522
(g4
I0
F0.0
tp523
a(g28
I0
F11.0
tp524
a(g30
F11.0
F22.0
tp525
a(g32
F22.0
F33.0
tp526
a(g34
F33.0
F399.0
tp527
a(g56
F538.0
F541.0
tp528
a(g38
F541.0
F798.0
tp529
a(g62
F798.0
F955.0
tp530
atp531
a(L10L
g122
(lp532
(g42
I0
F11.0
tp533
a(g6
F11.0
F426.0
tp534
a(g36
F535.0
F538.0
tp535
a(g22
F538.0
F541.0
tp536
a(g58
F541.0
F544.0
tp537
a(g46
F544.0
F548.0
tp538
a(g48
F548.0
F933.0
tp539
a(g12
F957.0
F960.0
tp540
atp541
a(L12L
g122
(lp542
(g75
I0
F11.0
tp543
a(g18
F11.0
F215.0
tp544
a(g54
F215.0
F535.0
tp545
a(g60
F538.0
F541.0
tp546
a(g64
F541.0
F544.0
tp547
a(g66
F544.0
F732.0
tp548
a(g79
F732.0
F957.0
tp549
atp550
a(L24L
g172
(lp551
(g71
F960.0
F960.0
tp552
atp553
atp554
a(F1131.0
F2.83
(lp555
(L2L
g122
(lp556
(g6
F11.0
F426.0
tp557
a(g36
F556.0
F559.0
tp558
a(g24
F562.0
F939.0
tp559
a(g66
F939.0
F1127.0
tp560
atp561
a(L3L
Vapac-sin#m1.large
p562
(lp563
(g71
F1130.0
F1130.0
tp564
atp565
a(L8L
g353
(lp566
(g4
I0
F0.0
tp567
a(g32
I0
F22.0
tp568
a(g16
F22.0
F44.0
tp569
a(g20
F44.0
F468.0
tp570
a(g22
F559.0
F565.0
tp571
a(g56
F565.0
F571.0
tp572
atp573
a(L9L
g122
(lp574
(g28
I0
F11.0
tp575
a(g30
F11.0
F22.0
tp576
a(g34
F44.0
F410.0
tp577
a(g38
F571.0
F828.0
tp578
a(g62
F879.0
F1036.0
tp579
atp580
a(L10L
g122
(lp581
(g42
I0
F11.0
tp582
a(g77
F11.0
F227.0
tp583
a(g44
F227.0
F556.0
tp584
a(g58
F559.0
F562.0
tp585
a(g46
F562.0
F566.0
tp586
a(g48
F566.0
F951.0
tp587
a(g12
F1127.0
F1130.0
tp588
atp589
a(L12L
g122
(lp590
(g75
I0
F11.0
tp591
a(g52
F11.0
F22.0
tp592
a(g18
F22.0
F226.0
tp593
a(g54
F226.0
F546.0
tp594
a(g8
F559.0
F562.0
tp595
a(g10
F562.0
F876.0
tp596
a(g60
F876.0
F879.0
tp597
a(g64
F879.0
F882.0
tp598
a(g79
F882.0
F1107.0
tp599
atp600
atp601
a(F1194.0
F2.52
(lp602
(L2L
g122
(lp603
(g32
I0
F11.0
tp604
a(g16
F11.0
F22.0
tp605
a(g34
F22.0
F388.0
tp606
a(g77
F388.0
F604.0
tp607
a(g10
F660.0
F974.0
tp608
a(g66
F974.0
F1162.0
tp609
atp610
a(L8L
g122
(lp611
(g52
I0
F11.0
tp612
a(g18
F22.0
F226.0
tp613
a(g44
F226.0
F555.0
tp614
a(g58
F653.0
F656.0
tp615
a(g24
F656.0
F1033.0
tp616
a(g62
F1033.0
F1190.0
tp617
atp618
a(L9L
g353
(lp619
(g4
I0
F0.0
tp620
a(g28
I0
F22.0
tp621
a(g30
F22.0
F44.0
tp622
a(g22
F653.0
F659.0
tp623
a(g56
F659.0
F665.0
tp624
a(g38
F665.0
F1180.0
tp625
atp626
a(L10L
g122
(lp627
(g42
I0
F11.0
tp628
a(g75
F11.0
F22.0
tp629
a(g6
F22.0
F437.0
tp630
a(g20
F437.0
F649.0
tp631
a(g36
F650.0
F653.0
tp632
a(g48
F667.0
F1052.0
tp633
a(g12
F1190.0
F1193.0
tp634
atp635
a(L12L
g353
(lp636
(g54
F11.0
F650.0
tp637
a(g8
F653.0
F660.0
tp638
a(g46
F660.0
F667.0
tp639
a(g60
F667.0
F673.0
tp640
a(g64
F673.0
F679.0
tp641
a(g79
F679.0
F1128.0
tp642
atp643
a(L13L
g456
(lp644
(g71
F1193.0
F1193.0
tp645
atp646
atp647
a(F1381.0
F2.2
(lp648
(L2L
g353
(lp649
(g30
I0
F22.0
tp650
a(g42
F22.0
F44.0
tp651
a(g44
F44.0
F703.0
tp652
a(g10
F749.0
F1377.0
tp653
atp654
a(L8L
g122
(lp655
(g16
I0
F11.0
tp656
a(g77
F44.0
F260.0
tp657
a(g18
F260.0
F464.0
tp658
a(g20
F464.0
F676.0
tp659
a(g22
F746.0
F749.0
tp660
a(g56
F749.0
F752.0
tp661
a(g24
F753.0
F1130.0
tp662
a(g62
F1130.0
F1287.0
tp663
atp664
a(L9L
g353
(lp665
(g4
I0
F0.0
tp666
a(g34
F11.0
F743.0
tp667
a(g38
F752.0
F1267.0
tp668
atp669
a(L10L
g122
(lp670
(g32
I0
F11.0
tp671
a(g6
F44.0
F459.0
tp672
a(g36
F743.0
F746.0
tp673
a(g8
F746.0
F749.0
tp674
a(g46
F749.0
F753.0
tp675
a(g48
F753.0
F1138.0
tp676
a(g66
F1138.0
F1326.0
tp677
a(g12
F1377.0
F1380.0
tp678
atp679
a(L12L
g353
(lp680
(g28
I0
F22.0
tp681
a(g75
F22.0
F44.0
tp682
a(g52
F44.0
F66.0
tp683
a(g54
F66.0
F705.0
tp684
a(g58
F746.0
F753.0
tp685
a(g60
F753.0
F759.0
tp686
a(g64
F759.0
F765.0
tp687
a(g79
F765.0
F1214.0
tp688
atp689
a(L26L
g562
(lp690
(g71
F1380.0
F1380.0
tp691
atp692
atp693
a(F1622.0
F1.89
(lp694
(L2L
g353
(lp695
(g6
F11.0
F841.0
tp696
a(g10
F851.0
F1479.0
tp697
atp698
a(L8L
g353
(lp699
(g30
I0
F22.0
tp700
a(g16
F22.0
F44.0
tp701
a(g20
F44.0
F468.0
tp702
a(g22
F844.0
F850.0
tp703
a(g56
F850.0
F856.0
tp704
a(g58
F856.0
F863.0
tp705
a(g24
F863.0
F1617.0
tp706
atp707
a(L9L
g353
(lp708
(g28
I0
F22.0
tp709
a(g32
F22.0
F44.0
tp710
a(g34
F44.0
F776.0
tp711
a(g8
F844.0
F851.0
tp712
a(g38
F856.0
F1371.0
tp713
atp714
a(L10L
g353
(lp715
(g42
I0
F22.0
tp716
a(g44
F22.0
F681.0
tp717
a(g48
F848.0
F1619.0
tp718
atp719
a(L11L
g172
(lp720
(g71
F1622.0
F1622.0
tp721
atp722
a(L12L
g122
(lp723
(g4
I0
F0.0
tp724
a(g75
I0
F11.0
tp725
a(g52
F11.0
F22.0
tp726
a(g77
F22.0
F238.0
tp727
a(g18
F238.0
F442.0
tp728
a(g54
F442.0
F762.0
tp729
a(g36
F841.0
F844.0
tp730
a(g46
F844.0
F848.0
tp731
a(g60
F848.0
F851.0
tp732
a(g62
F851.0
F1008.0
tp733
a(g64
F1008.0
F1011.0
tp734
a(g66
F1011.0
F1199.0
tp735
a(g79
F1199.0
F1424.0
tp736
a(g12
F1619.0
F1622.0
tp737
atp738
atp739
a(F1752.0
F1.73
(lp740
(L2L
g353
(lp741
(g28
I0
F22.0
tp742
a(g75
F22.0
F44.0
tp743
a(g52
F44.0
F66.0
tp744
a(g44
F66.0
F725.0
tp745
a(g10
F922.0
F1550.0
tp746
atp747
a(L3L
g2
(lp748
(g71
F1752.0
F1752.0
tp749
atp750
a(L8L
g353
(lp751
(g4
I0
F0.0
tp752
a(g16
I0
F22.0
tp753
a(g77
F22.0
F453.0
tp754
a(g20
F453.0
F877.0
tp755
a(g36
F908.0
F915.0
tp756
a(g56
F915.0
F921.0
tp757
a(g24
F929.0
F1683.0
tp758
atp759
a(L9L
g353
(lp760
(g30
I0
F22.0
tp761
a(g32
F22.0
F44.0
tp762
a(g34
F44.0
F776.0
tp763
a(g22
F915.0
F921.0
tp764
a(g38
F921.0
F1436.0
tp765
atp766
a(L10L
g353
(lp767
(g6
F44.0
F874.0
tp768
a(g8
F915.0
F922.0
tp769
a(g58
F922.0
F929.0
tp770
a(g48
F930.0
F1701.0
tp771
a(g12
F1746.0
F1752.0
tp772
atp773
a(L12L
g353
(lp774
(g42
I0
F22.0
tp775
a(g54
F66.0
F705.0
tp776
a(g64
F915.0
F921.0
tp777
a(g66
F921.0
F1297.0
tp778
a(g79
F1297.0
F1746.0
tp779
atp780
a(L16L
g69
(lp781
(g18
F22.0
F908.0
tp782
a(g46
F915.0
F930.0
tp783
a(g60
F930.0
F944.0
tp784
a(g62
F944.0
F1626.0
tp785
atp786
atp787
a(F1918.0
F1.65
(lp788
(L2L
g353
(lp789
(g4
I0
F0.0
tp790
a(g52
I0
F22.0
tp791
a(g44
F22.0
F681.0
tp792
a(g8
F1077.0
F1084.0
tp793
a(g10
F1084.0
F1712.0
tp794
atp795
a(L8L
g353
(lp796
(g28
I0
F22.0
tp797
a(g16
F22.0
F44.0
tp798
a(g77
F44.0
F475.0
tp799
a(g20
F475.0
F899.0
tp800
a(g24
F1090.0
F1844.0
tp801
atp802
a(L9L
g353
(lp803
(g30
I0
F22.0
tp804
a(g32
F22.0
F44.0
tp805
a(g34
F44.0
F776.0
tp806
a(g56
F1077.0
F1083.0
tp807
a(g38
F1083.0
F1598.0
tp808
a(g62
F1598.0
F1913.0
tp809
atp810
a(L10L
g353
(lp811
(g42
I0
F22.0
tp812
a(g6
F22.0
F852.0
tp813
a(g36
F1070.0
F1077.0
tp814
a(g22
F1077.0
F1083.0
tp815
a(g58
F1083.0
F1090.0
tp816
a(g46
F1090.0
F1097.0
tp817
a(g48
F1097.0
F1868.0
tp818
a(g12
F1913.0
F1919.0
tp819
atp820
a(L12L
g353
(lp821
(g75
I0
F22.0
tp822
a(g18
F22.0
F431.0
tp823
a(g54
F431.0
F1070.0
tp824
a(g64
F1077.0
F1083.0
tp825
a(g66
F1083.0
F1459.0
tp826
a(g79
F1459.0
F1908.0
tp827
atp828
a(L20L
g122
(lp829
(g71
F1919.0
F1919.0
tp830
atp831
a(L28L
g172
(lp832
(g60
F1077.0
F1119.0
tp833
atp834
atp835
a(F1921.0
F1.57
(lp836
(L2L
g353
(lp837
(g4
I0
F0.0
tp838
a(g52
I0
F22.0
tp839
a(g44
F22.0
F681.0
tp840
a(g8
F1077.0
F1084.0
tp841
a(g10
F1084.0
F1712.0
tp842
atp843
a(L8L
g353
(lp844
(g28
I0
F22.0
tp845
a(g16
F22.0
F44.0
tp846
a(g77
F44.0
F475.0
tp847
a(g20
F475.0
F899.0
tp848
a(g24
F1090.0
F1844.0
tp849
atp850
a(L9L
g353
(lp851
(g30
I0
F22.0
tp852
a(g32
F22.0
F44.0
tp853
a(g34
F44.0
F776.0
tp854
a(g56
F1077.0
F1083.0
tp855
a(g38
F1083.0
F1598.0
tp856
a(g62
F1598.0
F1913.0
tp857
atp858
a(L10L
g353
(lp859
(g42
I0
F22.0
tp860
a(g6
F22.0
F852.0
tp861
a(g36
F1070.0
F1077.0
tp862
a(g22
F1077.0
F1083.0
tp863
a(g58
F1083.0
F1090.0
tp864
a(g46
F1090.0
F1097.0
tp865
a(g48
F1097.0
F1868.0
tp866
a(g12
F1914.0
F1920.0
tp867
atp868
a(L12L
g353
(lp869
(g75
I0
F22.0
tp870
a(g18
F22.0
F431.0
tp871
a(g54
F431.0
F1070.0
tp872
a(g60
F1077.0
F1083.0
tp873
a(g64
F1083.0
F1089.0
tp874
a(g66
F1089.0
F1465.0
tp875
a(g79
F1465.0
F1914.0
tp876
atp877
a(L24L
g172
(lp878
(g71
F1920.0
F1920.0
tp879
atp880
atp881
a(F2262.0
F1.42
(lp882
(L1L
g456
(lp883
(g71
F2262.0
F2262.0
tp884
atp885
a(L2L
g353
(lp886
(g6
F22.0
F852.0
tp887
a(g36
F1112.0
F1119.0
tp888
a(g24
F1126.0
F1880.0
tp889
a(g66
F1880.0
F2256.0
tp890
atp891
a(L8L
g69
(lp892
(g30
I0
F48.0
tp893
a(g32
F48.0
F97.0
tp894
a(g16
F97.0
F144.0
tp895
a(g20
F144.0
F1062.0
tp896
a(g56
F1119.0
F1132.0
tp897
a(g60
F1132.0
F1146.0
tp898
atp899
a(L9L
g353
(lp900
(g28
I0
F22.0
tp901
a(g34
F144.0
F876.0
tp902
a(g38
F1132.0
F1647.0
tp903
a(g62
F1647.0
F1962.0
tp904
atp905
a(L10L
g353
(lp906
(g42
I0
F22.0
tp907
a(g77
F22.0
F453.0
tp908
a(g44
F453.0
F1112.0
tp909
a(g58
F1119.0
F1126.0
tp910
a(g46
F1126.0
F1133.0
tp911
a(g48
F1133.0
F1904.0
tp912
a(g12
F2256.0
F2262.0
tp913
atp914
a(L12L
g353
(lp915
(g4
I0
F0.0
tp916
a(g75
I0
F22.0
tp917
a(g52
F22.0
F44.0
tp918
a(g18
F44.0
F453.0
tp919
a(g54
F453.0
F1092.0
tp920
a(g8
F1119.0
F1126.0
tp921
a(g10
F1126.0
F1754.0
tp922
a(g22
F1754.0
F1760.0
tp923
a(g64
F1760.0
F1766.0
tp924
a(g79
F1766.0
F2215.0
tp925
atp926
atp927
a(F2988.0
F1.26
(lp928
(L2L
g69
(lp929
(g4
I0
F0.0
tp930
a(g28
I0
F47.0
tp931
a(g42
F47.0
F95.0
tp932
a(g52
F95.0
F142.0
tp933
a(g44
F142.0
F1569.0
tp934
a(g10
F1622.0
F2983.0
tp935
atp936
a(L3L
g353
(lp937
(g71
F2989.0
F2989.0
tp938
atp939
a(L8L
g353
(lp940
(g16
I0
F22.0
tp941
a(g77
F95.0
F526.0
tp942
a(g20
F526.0
F950.0
tp943
a(g36
F1608.0
F1615.0
tp944
a(g8
F1615.0
F1622.0
tp945
a(g24
F1622.0
F2376.0
tp946
a(g62
F2406.0
F2721.0
tp947
atp948
a(L9L
g69
(lp949
(g34
F22.0
F1608.0
tp950
a(g22
F1615.0
F1629.0
tp951
a(g56
F1629.0
F1642.0
tp952
a(g38
F1642.0
F2758.0
tp953
atp954
a(L10L
g353
(lp955
(g32
I0
F22.0
tp956
a(g75
F22.0
F44.0
tp957
a(g6
F44.0
F874.0
tp958
a(g18
F874.0
F1283.0
tp959
a(g48
F1629.0
F2400.0
tp960
a(g60
F2400.0
F2406.0
tp961
a(g66
F2406.0
F2782.0
tp962
a(g12
F2983.0
F2989.0
tp963
atp964
a(L12L
g353
(lp965
(g30
I0
F22.0
tp966
a(g54
F142.0
F781.0
tp967
a(g58
F1615.0
F1622.0
tp968
a(g46
F1622.0
F1629.0
tp969
a(g64
F1629.0
F1635.0
tp970
a(g79
F1635.0
F2084.0
tp971
atp972
atp973
a.