(lp0
(F1428.0
F4.97
(lp1
(L32L
Vapac-sin#m1.small
p2
(lp3
(VID00037
p4
I0
F14.0
tp5
a(VID00005
p6
F14.0
F24.0
tp7
a(VID00056
p8
F698.0
F747.0
tp9
a(VID00014
p10
F747.0
F757.0
tp11
a(VID00000
p12
F980.0
F981.0
tp13
a(VID00029
p14
F981.0
F989.0
tp15
a(VID00035
p16
F989.0
F999.0
tp17
atp18
a(L2L
g2
(lp19
(VID00032
p20
I0
F12.0
tp21
a(VID00043
p22
F12.0
F21.0
tp23
a(VID00053
p24
F698.0
F739.0
tp25
a(VID00025
p26
F1036.0
F1300.0
tp27
atp28
a(L40L
g2
(lp29
(VID00036
p30
I0
F14.0
tp31
a(VID00046
p32
F14.0
F26.0
tp33
a(VID00007
p34
F26.0
F33.0
tp35
a(VID00041
p36
F33.0
F43.0
tp37
a(VID00028
p38
F1099.0
F1099.0
tp39
atp40
a(L9L
Vapac-sin#m3.2xlarge
p41
(lp42
(S'entry'
p43
I0
F0.0
tp44
a(VID00020
p45
I0
F932.0
tp46
a(VID00054
p47
F932.0
F1366.0
tp48
a(VID00027
p49
F1428.0
F1429.0
tp50
atp51
a(L10L
g41
(lp52
(VID00047
p53
I0
F557.0
tp54
a(VID00051
p55
F635.0
F698.0
tp56
a(VID00021
p57
F932.0
F1025.0
tp58
a(VID00024
p59
F1025.0
F1428.0
tp60
a(VID00057
p61
F1428.0
F1429.0
tp62
atp63
a(L43L
g2
(lp64
(VID00009
p65
I0
F10.0
tp66
a(VID00045
p67
F10.0
F21.0
tp68
a(VID00049
p69
F21.0
F282.0
tp70
a(VID00038
p71
F282.0
F296.0
tp72
a(VID00016
p73
F296.0
F307.0
tp74
a(VID00015
p75
F307.0
F319.0
tp76
a(VID00019
p77
F319.0
F677.0
tp78
a(VID00034
p79
F677.0
F683.0
tp80
a(S'exit'
p81
F1429.0
F1429.0
tp82
atp83
a(L46L
g2
(lp84
(VID00006
p85
I0
F12.0
tp86
a(VID00001
p87
F12.0
F21.0
tp88
a(VID00003
p89
F21.0
F35.0
tp90
a(VID00048
p91
F35.0
F230.0
tp92
a(VID00018
p93
F230.0
F545.0
tp94
a(VID00022
p95
F1025.0
F1036.0
tp96
a(VID00033
p97
F1036.0
F1048.0
tp98
atp99
a(L16L
Vapac-sin#m3.xlarge
p100
(lp101
(VID00017
p102
I0
F777.0
tp103
atp104
a(L25L
g2
(lp105
(VID00039
p106
I0
F9.0
tp107
a(VID00044
p108
F9.0
F17.0
tp109
a(VID00052
p110
F698.0
F707.0
tp111
a(VID00013
p112
F707.0
F716.0
tp113
a(VID00010
p114
F716.0
F726.0
tp115
a(VID00023
p116
F1025.0
F1065.0
tp117
a(VID00030
p118
F1065.0
F1076.0
tp119
a(VID00031
p120
F1076.0
F1086.0
tp121
a(VID00040
p122
F1086.0
F1099.0
tp123
atp124
a(L57L
g2
(lp125
(VID00004
p126
I0
F10.0
tp127
a(VID00002
p128
F10.0
F18.0
tp129
a(VID00008
p130
F18.0
F27.0
tp131
a(VID00055
p132
F707.0
F971.0
tp133
a(VID00012
p134
F971.0
F980.0
tp135
atp136
a(L28L
g41
(lp137
(VID00042
p138
I0
F0.0
tp139
a(VID00050
p140
I0
F635.0
tp141
a(VID00011
p142
F635.0
F636.0
tp143
a(VID00026
p144
F1025.0
F1027.0
tp145
atp146
atp147
a(F1441.0
F4.34
(lp148
(L32L
g2
(lp149
(g4
I0
F14.0
tp150
a(g6
F14.0
F24.0
tp151
a(g65
F24.0
F34.0
tp152
a(g12
F1286.0
F1287.0
tp153
a(g14
F1287.0
F1295.0
tp154
a(g16
F1295.0
F1305.0
tp155
atp156
a(L2L
g2
(lp157
(g20
I0
F12.0
tp158
a(g22
F12.0
F21.0
tp159
a(g24
F995.0
F1036.0
tp160
a(g73
F1036.0
F1047.0
tp161
a(g26
F1050.0
F1314.0
tp162
atp163
a(L40L
g2
(lp164
(g30
I0
F14.0
tp165
a(g32
F14.0
F26.0
tp166
a(g34
F26.0
F33.0
tp167
a(g36
F33.0
F43.0
tp168
a(g8
F995.0
F1044.0
tp169
a(g10
F1044.0
F1054.0
tp170
a(g38
F1305.0
F1305.0
tp171
atp172
a(L9L
g41
(lp173
(g43
I0
F0.0
tp174
a(g45
I0
F932.0
tp175
a(g55
F932.0
F995.0
tp176
a(g47
F995.0
F1429.0
tp177
a(g49
F1442.0
F1443.0
tp178
atp179
a(L10L
g41
(lp180
(g53
I0
F557.0
tp181
a(g102
F557.0
F946.0
tp182
a(g57
F946.0
F1039.0
tp183
a(g59
F1039.0
F1442.0
tp184
a(g61
F1442.0
F1443.0
tp185
atp186
a(L43L
g2
(lp187
(g67
I0
F11.0
tp188
a(g69
F11.0
F272.0
tp189
a(g75
F272.0
F284.0
tp190
a(g77
F284.0
F642.0
tp191
a(g79
F642.0
F648.0
tp192
a(g81
F1443.0
F1443.0
tp193
atp194
a(L46L
g2
(lp195
(g85
I0
F12.0
tp196
a(g87
F12.0
F21.0
tp197
a(g89
F21.0
F35.0
tp198
a(g91
F35.0
F230.0
tp199
a(g71
F230.0
F244.0
tp200
a(g114
F244.0
F254.0
tp201
a(g93
F254.0
F569.0
tp202
a(g95
F1039.0
F1050.0
tp203
a(g97
F1050.0
F1062.0
tp204
atp205
a(L25L
g2
(lp206
(g108
I0
F8.0
tp207
a(g110
F995.0
F1004.0
tp208
a(g116
F1039.0
F1079.0
tp209
a(g118
F1079.0
F1090.0
tp210
a(g120
F1090.0
F1100.0
tp211
a(g122
F1100.0
F1113.0
tp212
atp213
a(L57L
g2
(lp214
(g126
I0
F10.0
tp215
a(g128
F10.0
F18.0
tp216
a(g130
F18.0
F27.0
tp217
a(g132
F1004.0
F1268.0
tp218
a(g134
F1268.0
F1277.0
tp219
a(g112
F1277.0
F1286.0
tp220
atp221
a(L28L
g41
(lp222
(g138
I0
F0.0
tp223
a(g106
I0
F0.0
tp224
a(g140
I0
F635.0
tp225
a(g142
F635.0
F636.0
tp226
a(g144
F1039.0
F1041.0
tp227
atp228
atp229
a(F1768.0
F3.71
(lp230
(L32L
g2
(lp231
(g4
I0
F14.0
tp232
a(g6
F14.0
F24.0
tp233
a(g8
F1334.0
F1383.0
tp234
a(g10
F1383.0
F1393.0
tp235
a(g12
F1627.0
F1628.0
tp236
a(g16
F1628.0
F1638.0
tp237
atp238
a(L2L
g2
(lp239
(g20
I0
F12.0
tp240
a(g22
F12.0
F21.0
tp241
a(g24
F1334.0
F1375.0
tp242
a(g26
F1375.0
F1639.0
tp243
a(g118
F1639.0
F1650.0
tp244
atp245
a(L40L
g2
(lp246
(g30
I0
F14.0
tp247
a(g32
F14.0
F26.0
tp248
a(g34
F26.0
F33.0
tp249
a(g36
F33.0
F43.0
tp250
a(g14
F43.0
F51.0
tp251
a(g38
F1650.0
F1650.0
tp252
atp253
a(L9L
g41
(lp254
(g43
I0
F0.0
tp255
a(g45
I0
F932.0
tp256
a(g55
F1271.0
F1334.0
tp257
a(g47
F1334.0
F1768.0
tp258
a(g61
F1768.0
F1769.0
tp259
atp260
a(L10L
g41
(lp261
(g53
I0
F557.0
tp262
a(g142
F557.0
F558.0
tp263
a(g102
F558.0
F947.0
tp264
a(g75
F947.0
F947.0
tp265
a(g57
F947.0
F1040.0
tp266
a(g59
F1040.0
F1443.0
tp267
atp268
a(L43L
g2
(lp269
(g65
I0
F10.0
tp270
a(g67
F10.0
F21.0
tp271
a(g69
F21.0
F282.0
tp272
a(g71
F282.0
F296.0
tp273
a(g77
F296.0
F654.0
tp274
a(g79
F654.0
F660.0
tp275
a(g81
F1769.0
F1769.0
tp276
atp277
a(L46L
g2
(lp278
(g85
I0
F12.0
tp279
a(g87
F12.0
F21.0
tp280
a(g89
F21.0
F35.0
tp281
a(g91
F35.0
F230.0
tp282
a(g93
F230.0
F545.0
tp283
a(g95
F1040.0
F1051.0
tp284
a(g97
F1051.0
F1063.0
tp285
a(g122
F1063.0
F1076.0
tp286
atp287
a(L25L
g2
(lp288
(g106
I0
F9.0
tp289
a(g108
F9.0
F17.0
tp290
a(g110
F1334.0
F1343.0
tp291
a(g112
F1343.0
F1352.0
tp292
a(g114
F1352.0
F1362.0
tp293
a(g116
F1362.0
F1402.0
tp294
a(g120
F1402.0
F1412.0
tp295
atp296
a(L57L
g2
(lp297
(g126
I0
F10.0
tp298
a(g128
F10.0
F18.0
tp299
a(g130
F18.0
F27.0
tp300
a(g132
F1343.0
F1607.0
tp301
a(g134
F1607.0
F1616.0
tp302
a(g73
F1616.0
F1627.0
tp303
a(g49
F1639.0
F1655.0
tp304
atp305
a(L28L
g100
(lp306
(g138
I0
F0.0
tp307
a(g140
I0
F1271.0
tp308
a(g144
F1271.0
F1275.0
tp309
atp310
atp311
a(F1985.0
F3.08
(lp312
(L32L
g2
(lp313
(g4
I0
F14.0
tp314
a(g6
F14.0
F24.0
tp315
a(g106
F24.0
F33.0
tp316
a(g8
F1552.0
F1601.0
tp317
a(g16
F1601.0
F1611.0
tp318
atp319
a(L2L
g2
(lp320
(g20
I0
F12.0
tp321
a(g22
F12.0
F21.0
tp322
a(g65
F21.0
F31.0
tp323
a(g71
F31.0
F45.0
tp324
a(g73
F45.0
F56.0
tp325
a(g26
F1129.0
F1393.0
tp326
a(g118
F1393.0
F1404.0
tp327
atp328
a(L40L
g2
(lp329
(g32
I0
F12.0
tp330
a(g34
F12.0
F19.0
tp331
a(g108
F19.0
F27.0
tp332
a(g110
F1552.0
F1561.0
tp333
a(g134
F1561.0
F1570.0
tp334
atp335
a(L9L
g41
(lp336
(g43
I0
F0.0
tp337
a(g45
I0
F932.0
tp338
a(g53
F932.0
F1489.0
tp339
a(g55
F1489.0
F1552.0
tp340
a(g47
F1552.0
F1986.0
tp341
a(g61
F1986.0
F1987.0
tp342
atp343
a(L10L
g100
(lp344
(g142
I0
F1.0
tp345
a(g102
F1.0
F778.0
tp346
a(g10
F778.0
F779.0
tp347
a(g57
F932.0
F1118.0
tp348
a(g59
F1118.0
F1923.0
tp349
atp350
a(L43L
g2
(lp351
(g30
I0
F14.0
tp352
a(g67
F14.0
F25.0
tp353
a(g69
F25.0
F286.0
tp354
a(g114
F286.0
F296.0
tp355
a(g77
F296.0
F654.0
tp356
a(g79
F654.0
F660.0
tp357
a(g81
F1987.0
F1987.0
tp358
atp359
a(L46L
g2
(lp360
(g85
I0
F12.0
tp361
a(g87
F12.0
F21.0
tp362
a(g89
F21.0
F35.0
tp363
a(g91
F35.0
F230.0
tp364
a(g93
F230.0
F545.0
tp365
a(g95
F1118.0
F1129.0
tp366
a(g97
F1129.0
F1141.0
tp367
a(g122
F1141.0
F1154.0
tp368
a(g38
F1652.0
F1652.0
tp369
atp370
a(L25L
g2
(lp371
(g24
F1552.0
F1593.0
tp372
a(g112
F1593.0
F1602.0
tp373
a(g116
F1602.0
F1642.0
tp374
a(g120
F1642.0
F1652.0
tp375
atp376
a(L57L
g2
(lp377
(g126
I0
F10.0
tp378
a(g128
F10.0
F18.0
tp379
a(g130
F18.0
F27.0
tp380
a(g36
F27.0
F37.0
tp381
a(g132
F1561.0
F1825.0
tp382
a(g12
F1825.0
F1826.0
tp383
a(g49
F1923.0
F1939.0
tp384
atp385
a(L28L
g100
(lp386
(g138
I0
F0.0
tp387
a(g140
I0
F1271.0
tp388
a(g75
F1271.0
F1272.0
tp389
a(g14
F1272.0
F1273.0
tp390
a(g144
F1273.0
F1277.0
tp391
atp392
atp393
a(F2855.0
F2.76
(lp394
(L32L
g2
(lp395
(g4
I0
F14.0
tp396
a(g6
F14.0
F24.0
tp397
a(g8
F1397.0
F1446.0
tp398
a(g10
F1446.0
F1456.0
tp399
a(g12
F1679.0
F1680.0
tp400
a(g14
F1680.0
F1688.0
tp401
a(g16
F1688.0
F1698.0
tp402
atp403
a(L2L
g2
(lp404
(g20
I0
F12.0
tp405
a(g22
F12.0
F21.0
tp406
a(g24
F1397.0
F1438.0
tp407
a(g26
F2060.0
F2324.0
tp408
atp409
a(L40L
g2
(lp410
(g30
I0
F14.0
tp411
a(g32
F14.0
F26.0
tp412
a(g34
F26.0
F33.0
tp413
a(g36
F33.0
F43.0
tp414
a(g38
F2123.0
F2123.0
tp415
atp416
a(L9L
g100
(lp417
(g43
I0
F0.0
tp418
a(g45
I0
F1863.0
tp419
a(g47
F1863.0
F2730.0
tp420
a(g49
F2854.0
F2855.0
tp421
atp422
a(L10L
g100
(lp423
(g53
I0
F1113.0
tp424
a(g55
F1271.0
F1397.0
tp425
a(g57
F1863.0
F2049.0
tp426
a(g59
F2049.0
F2854.0
tp427
a(g61
F2854.0
F2855.0
tp428
atp429
a(L43L
g2
(lp430
(g65
I0
F10.0
tp431
a(g67
F10.0
F21.0
tp432
a(g69
F21.0
F282.0
tp433
a(g71
F282.0
F296.0
tp434
a(g73
F296.0
F307.0
tp435
a(g75
F307.0
F319.0
tp436
a(g77
F319.0
F677.0
tp437
a(g79
F677.0
F683.0
tp438
a(g81
F2855.0
F2855.0
tp439
atp440
a(L34L
Vapac-sin#m3.large
p441
(lp442
(g102
I0
F1554.0
tp443
atp444
a(L46L
g2
(lp445
(g85
I0
F12.0
tp446
a(g87
F12.0
F21.0
tp447
a(g89
F21.0
F35.0
tp448
a(g91
F35.0
F230.0
tp449
a(g93
F230.0
F545.0
tp450
a(g95
F2049.0
F2060.0
tp451
a(g97
F2060.0
F2072.0
tp452
atp453
a(L25L
g2
(lp454
(g106
I0
F9.0
tp455
a(g108
F9.0
F17.0
tp456
a(g110
F1397.0
F1406.0
tp457
a(g112
F1406.0
F1415.0
tp458
a(g114
F1415.0
F1425.0
tp459
a(g116
F2049.0
F2089.0
tp460
a(g118
F2089.0
F2100.0
tp461
a(g120
F2100.0
F2110.0
tp462
a(g122
F2110.0
F2123.0
tp463
atp464
a(L57L
g2
(lp465
(g126
I0
F10.0
tp466
a(g128
F10.0
F18.0
tp467
a(g130
F18.0
F27.0
tp468
a(g132
F1406.0
F1670.0
tp469
a(g134
F1670.0
F1679.0
tp470
atp471
a(L28L
g100
(lp472
(g138
I0
F0.0
tp473
a(g140
I0
F1271.0
tp474
a(g142
F1271.0
F1272.0
tp475
a(g144
F2049.0
F2053.0
tp476
atp477
atp478
a(F2883.0
F2.45
(lp479
(L32L
g2
(lp480
(g4
I0
F14.0
tp481
a(g6
F14.0
F24.0
tp482
a(g12
F2280.0
F2281.0
tp483
a(g14
F2281.0
F2289.0
tp484
a(g16
F2289.0
F2299.0
tp485
atp486
a(L2L
g2
(lp487
(g20
I0
F12.0
tp488
a(g22
F12.0
F21.0
tp489
a(g24
F1989.0
F2030.0
tp490
a(g73
F2030.0
F2041.0
tp491
a(g26
F2087.0
F2351.0
tp492
atp493
a(L40L
g2
(lp494
(g30
I0
F14.0
tp495
a(g32
F14.0
F26.0
tp496
a(g34
F26.0
F33.0
tp497
a(g36
F33.0
F43.0
tp498
a(g8
F1989.0
F2038.0
tp499
a(g10
F2038.0
F2048.0
tp500
a(g38
F2299.0
F2299.0
tp501
atp502
a(L9L
g100
(lp503
(g43
I0
F0.0
tp504
a(g45
I0
F1863.0
tp505
a(g55
F1863.0
F1989.0
tp506
a(g47
F1989.0
F2856.0
tp507
a(g49
F2881.0
F2882.0
tp508
atp509
a(L10L
g100
(lp510
(g53
I0
F1113.0
tp511
a(g102
F1113.0
F1890.0
tp512
a(g57
F1890.0
F2076.0
tp513
a(g59
F2076.0
F2881.0
tp514
a(g61
F2881.0
F2882.0
tp515
atp516
a(L43L
g2
(lp517
(g65
I0
F10.0
tp518
a(g67
F10.0
F21.0
tp519
a(g69
F21.0
F282.0
tp520
a(g75
F282.0
F294.0
tp521
a(g77
F294.0
F652.0
tp522
a(g79
F652.0
F658.0
tp523
a(g81
F2882.0
F2882.0
tp524
atp525
a(L46L
g2
(lp526
(g85
I0
F12.0
tp527
a(g87
F12.0
F21.0
tp528
a(g89
F21.0
F35.0
tp529
a(g91
F35.0
F230.0
tp530
a(g71
F230.0
F244.0
tp531
a(g114
F244.0
F254.0
tp532
a(g93
F254.0
F569.0
tp533
a(g95
F2076.0
F2087.0
tp534
a(g97
F2087.0
F2099.0
tp535
atp536
a(L25L
g2
(lp537
(g108
I0
F8.0
tp538
a(g110
F1989.0
F1998.0
tp539
a(g116
F2076.0
F2116.0
tp540
a(g118
F2116.0
F2127.0
tp541
a(g120
F2127.0
F2137.0
tp542
a(g122
F2137.0
F2150.0
tp543
atp544
a(L57L
g2
(lp545
(g126
I0
F10.0
tp546
a(g128
F10.0
F18.0
tp547
a(g130
F18.0
F27.0
tp548
a(g132
F1998.0
F2262.0
tp549
a(g134
F2262.0
F2271.0
tp550
a(g112
F2271.0
F2280.0
tp551
atp552
a(L28L
g100
(lp553
(g138
I0
F0.0
tp554
a(g106
I0
F1.0
tp555
a(g140
F1.0
F1272.0
tp556
a(g142
F1272.0
F1273.0
tp557
a(g144
F2076.0
F2080.0
tp558
atp559
atp560
a(F3536.0
F2.13
(lp561
(L32L
g2
(lp562
(g4
I0
F14.0
tp563
a(g6
F14.0
F24.0
tp564
a(g8
F2667.0
F2716.0
tp565
a(g10
F2716.0
F2726.0
tp566
a(g12
F2960.0
F2961.0
tp567
a(g16
F2961.0
F2971.0
tp568
atp569
a(L2L
g2
(lp570
(g20
I0
F12.0
tp571
a(g22
F12.0
F21.0
tp572
a(g24
F2667.0
F2708.0
tp573
a(g26
F2708.0
F2972.0
tp574
a(g118
F2972.0
F2983.0
tp575
atp576
a(L40L
g2
(lp577
(g30
I0
F14.0
tp578
a(g32
F14.0
F26.0
tp579
a(g34
F26.0
F33.0
tp580
a(g36
F33.0
F43.0
tp581
a(g14
F43.0
F51.0
tp582
a(g38
F2983.0
F2983.0
tp583
atp584
a(L9L
g100
(lp585
(g43
I0
F0.0
tp586
a(g45
I0
F1863.0
tp587
a(g55
F2541.0
F2667.0
tp588
a(g47
F2667.0
F3534.0
tp589
atp590
a(L10L
g100
(lp591
(g53
I0
F1113.0
tp592
a(g142
F1113.0
F1114.0
tp593
a(g102
F1114.0
F1891.0
tp594
a(g75
F1891.0
F1892.0
tp595
a(g57
F1892.0
F2078.0
tp596
a(g59
F2078.0
F2883.0
tp597
a(g61
F3534.0
F3535.0
tp598
atp599
a(L43L
g2
(lp600
(g65
I0
F10.0
tp601
a(g67
F10.0
F21.0
tp602
a(g69
F21.0
F282.0
tp603
a(g71
F282.0
F296.0
tp604
a(g77
F296.0
F654.0
tp605
a(g79
F654.0
F660.0
tp606
a(g81
F3535.0
F3535.0
tp607
atp608
a(L46L
g2
(lp609
(g85
I0
F12.0
tp610
a(g87
F12.0
F21.0
tp611
a(g89
F21.0
F35.0
tp612
a(g91
F35.0
F230.0
tp613
a(g93
F230.0
F545.0
tp614
a(g95
F2078.0
F2089.0
tp615
a(g97
F2089.0
F2101.0
tp616
a(g122
F2101.0
F2114.0
tp617
atp618
a(L25L
g2
(lp619
(g138
I0
F6.0
tp620
a(g106
F6.0
F15.0
tp621
a(g108
F15.0
F23.0
tp622
a(g110
F2667.0
F2676.0
tp623
a(g112
F2676.0
F2685.0
tp624
a(g114
F2685.0
F2695.0
tp625
a(g116
F2695.0
F2735.0
tp626
a(g120
F2735.0
F2745.0
tp627
atp628
a(L57L
g2
(lp629
(g126
I0
F10.0
tp630
a(g128
F10.0
F18.0
tp631
a(g130
F18.0
F27.0
tp632
a(g132
F2676.0
F2940.0
tp633
a(g134
F2940.0
F2949.0
tp634
a(g73
F2949.0
F2960.0
tp635
a(g49
F2972.0
F2988.0
tp636
atp637
a(L28L
g441
(lp638
(g140
I0
F2541.0
tp639
a(g144
F2541.0
F2549.0
tp640
atp641
atp642
a.