(lp0
(F2379.0
F10.71
(lp1
(L33L
Vapac-sin#m3.2xlarge
p2
(lp3
(VID00009
p4
F9.0
F12.0
tp5
a(VID00020
p6
F12.0
F13.0
tp7
a(VID00014
p8
F23.0
F24.0
tp9
a(VID00015
p10
F24.0
F25.0
tp11
a(VID00031
p12
F29.0
F31.0
tp13
a(VID00038
p14
F31.0
F1194.0
tp15
a(VID00045
p16
F1876.0
F1876.0
tp17
atp18
a(L3L
Vapac-sin#m3.xlarge
p19
(lp20
(VID00004
p21
F17.0
F23.0
tp22
a(VID00002
p23
F23.0
F26.0
tp24
a(VID00017
p25
F26.0
F27.0
tp26
a(VID00027
p27
F27.0
F29.0
tp28
a(VID00037
p29
F29.0
F1691.0
tp30
atp31
a(L5L
g2
(lp32
(VID00000
p33
F2.0
F16.0
tp34
a(VID00003
p35
F16.0
F19.0
tp36
a(VID00032
p37
F27.0
F1430.0
tp38
a(VID00042
p39
F1473.0
F1477.0
tp40
atp41
a(L6L
g2
(lp42
(S'entry'
p43
I0
F0.0
tp44
a(VID00001
p45
I0
F9.0
tp46
a(VID00010
p47
F9.0
F12.0
tp48
a(VID00024
p49
F24.0
F25.0
tp50
a(VID00033
p51
F28.0
F1409.0
tp52
atp53
a(L41L
g2
(lp54
(VID00007
p55
F9.0
F12.0
tp56
a(VID00035
p57
F27.0
F1473.0
tp58
a(VID00043
p59
F1863.0
F1868.0
tp60
atp61
a(L44L
g2
(lp62
(VID00008
p63
F9.0
F12.0
tp64
a(VID00018
p65
F12.0
F13.0
tp66
a(VID00040
p67
F15.0
F1863.0
tp68
a(VID00044
p69
F1868.0
F1876.0
tp70
atp71
a(L45L
g2
(lp72
(VID00012
p73
F26.0
F26.0
tp74
atp75
a(L14L
g19
(lp76
(VID00025
p77
F25.0
F27.0
tp78
a(VID00039
p79
F27.0
F1456.0
tp80
atp81
a(L47L
g2
(lp82
(VID00013
p83
F19.0
F19.0
tp84
atp85
a(L22L
g19
(lp86
(VID00011
p87
F10.0
F13.0
tp88
a(VID00029
p89
F13.0
F14.0
tp90
a(VID00041
p91
F31.0
F1844.0
tp92
atp93
a(L23L
g19
(lp94
(S'exit'
p95
F2379.0
F2379.0
tp96
atp97
a(L30L
g2
(lp98
(VID00019
p99
F12.0
F13.0
tp100
a(VID00030
p101
F13.0
F15.0
tp102
a(VID00028
p103
F15.0
F16.0
tp104
a(VID00034
p105
F25.0
F1173.0
tp106
atp107
a(L37L
g2
(lp108
(VID00006
p109
F16.0
F17.0
tp110
a(VID00005
p111
F17.0
F19.0
tp112
a(VID00022
p113
F26.0
F27.0
tp114
a(VID00023
p115
F27.0
F28.0
tp116
a(VID00021
p117
F28.0
F29.0
tp118
a(VID00016
p119
F29.0
F29.0
tp120
a(VID00026
p121
F29.0
F30.0
tp122
a(VID00036
p123
F30.0
F1344.0
tp124
a(VID00046
p125
F1876.0
F2379.0
tp126
atp127
atp128
a(F2392.0
F10.08
(lp129
(L33L
g2
(lp130
(g4
F9.0
F12.0
tp131
a(g47
F12.0
F15.0
tp132
a(g6
F15.0
F16.0
tp133
a(g103
F29.0
F30.0
tp134
a(g14
F30.0
F1193.0
tp135
a(g16
F1889.0
F1889.0
tp136
atp137
a(L3L
g19
(lp138
(g21
F17.0
F23.0
tp139
a(g23
F23.0
F26.0
tp140
a(g119
F26.0
F27.0
tp141
a(g27
F27.0
F29.0
tp142
a(g29
F29.0
F1691.0
tp143
atp144
a(L5L
g2
(lp145
(g33
F2.0
F16.0
tp146
a(g35
F16.0
F19.0
tp147
a(g73
F26.0
F26.0
tp148
a(g37
F27.0
F1430.0
tp149
a(g39
F1877.0
F1881.0
tp150
atp151
a(L6L
g2
(lp152
(g43
I0
F0.0
tp153
a(g45
I0
F9.0
tp154
a(g12
F28.0
F30.0
tp155
a(g51
F30.0
F1411.0
tp156
atp157
a(L7L
g2
(lp158
(g83
F19.0
F19.0
tp159
atp160
a(L41L
g2
(lp161
(g55
F9.0
F12.0
tp162
a(g25
F12.0
F13.0
tp163
a(g57
F27.0
F1473.0
tp164
a(g59
F1875.0
F1880.0
tp165
atp166
a(L44L
g2
(lp167
(g115
F19.0
F20.0
tp168
a(g49
F24.0
F25.0
tp169
a(g101
F25.0
F27.0
tp170
a(g67
F27.0
F1875.0
tp171
a(g69
F1881.0
F1889.0
tp172
atp173
a(L22L
g19
(lp174
(g87
F10.0
F13.0
tp175
a(g8
F23.0
F24.0
tp176
a(g10
F24.0
F25.0
tp177
a(g77
F25.0
F27.0
tp178
a(g65
F27.0
F29.0
tp179
a(g91
F30.0
F1843.0
tp180
atp181
a(L23L
g19
(lp182
(g95
F2392.0
F2392.0
tp183
atp184
a(L30L
g2
(lp185
(g99
F12.0
F13.0
tp186
a(g89
F13.0
F14.0
tp187
a(g79
F14.0
F729.0
tp188
a(g105
F729.0
F1877.0
tp189
atp190
a(L37L
g2
(lp191
(g109
F16.0
F17.0
tp192
a(g111
F17.0
F19.0
tp193
a(g63
F19.0
F22.0
tp194
a(g113
F26.0
F27.0
tp195
a(g117
F27.0
F28.0
tp196
a(g121
F28.0
F29.0
tp197
a(g123
F29.0
F1343.0
tp198
a(g125
F1889.0
F2392.0
tp199
atp200
atp201
a(F2524.0
F9.45
(lp202
(L33L
g2
(lp203
(g87
F9.0
F11.0
tp204
a(g27
F13.0
F14.0
tp205
a(g29
F14.0
F845.0
tp206
a(g14
F845.0
F2008.0
tp207
a(g16
F2021.0
F2021.0
tp208
atp209
a(L5L
g2
(lp210
(g33
F2.0
F16.0
tp211
a(g109
F16.0
F17.0
tp212
a(g23
F17.0
F19.0
tp213
a(g4
F19.0
F22.0
tp214
a(g37
F22.0
F1425.0
tp215
a(g39
F1888.0
F1892.0
tp216
atp217
a(L6L
g2
(lp218
(g43
I0
F0.0
tp219
a(g45
I0
F9.0
tp220
a(g113
F19.0
F20.0
tp221
a(g117
F20.0
F21.0
tp222
a(g121
F21.0
F22.0
tp223
a(g12
F22.0
F24.0
tp224
a(g51
F26.0
F1407.0
tp225
atp226
a(L41L
g2
(lp227
(g55
F9.0
F12.0
tp228
a(g111
F16.0
F18.0
tp229
a(g47
F18.0
F21.0
tp230
a(g57
F21.0
F1467.0
tp231
a(g59
F2008.0
F2013.0
tp232
atp233
a(L44L
g2
(lp234
(g21
F16.0
F19.0
tp235
a(g35
F19.0
F22.0
tp236
a(g63
F22.0
F25.0
tp237
a(g83
F25.0
F25.0
tp238
a(g115
F25.0
F26.0
tp239
a(g8
F26.0
F27.0
tp240
a(g49
F27.0
F28.0
tp241
a(g101
F28.0
F30.0
tp242
a(g67
F30.0
F1878.0
tp243
a(g69
F2013.0
F2021.0
tp244
atp245
a(L47L
g2
(lp246
(g119
F17.0
F17.0
tp247
atp248
a(L48L
g2
(lp249
(g73
F19.0
F19.0
tp250
atp251
a(L22L
g19
(lp252
(g25
F12.0
F13.0
tp253
a(g10
F18.0
F19.0
tp254
a(g77
F19.0
F21.0
tp255
a(g65
F25.0
F27.0
tp256
a(g91
F27.0
F1840.0
tp257
atp258
a(L23L
g19
(lp259
(g95
F2524.0
F2524.0
tp260
atp261
a(L30L
g2
(lp262
(g99
F22.0
F23.0
tp263
a(g89
F23.0
F24.0
tp264
a(g79
F24.0
F739.0
tp265
a(g103
F739.0
F740.0
tp266
a(g105
F740.0
F1888.0
tp267
atp268
a(L37L
g2
(lp269
(g6
F21.0
F22.0
tp270
a(g123
F22.0
F1336.0
tp271
a(g125
F2021.0
F2524.0
tp272
atp273
atp274
a(F2584.0
F8.9
(lp275
(L32L
g2
(lp276
(g83
F22.0
F22.0
tp277
atp278
a(L33L
g2
(lp279
(g87
F9.0
F11.0
tp280
a(g117
F11.0
F12.0
tp281
a(g121
F19.0
F20.0
tp282
a(g25
F20.0
F21.0
tp283
a(g29
F63.0
F894.0
tp284
a(g89
F894.0
F895.0
tp285
a(g103
F895.0
F896.0
tp286
a(g14
F896.0
F2059.0
tp287
a(g16
F2081.0
F2081.0
tp288
atp289
a(L5L
g2
(lp290
(g33
F2.0
F16.0
tp291
a(g109
F16.0
F17.0
tp292
a(g23
F17.0
F19.0
tp293
a(g4
F19.0
F22.0
tp294
a(g63
F22.0
F25.0
tp295
a(g113
F25.0
F26.0
tp296
a(g37
F26.0
F1429.0
tp297
a(g39
F2069.0
F2073.0
tp298
atp299
a(L6L
g2
(lp300
(g43
I0
F0.0
tp301
a(g45
I0
F9.0
tp302
a(g12
F12.0
F14.0
tp303
a(g51
F23.0
F1404.0
tp304
atp305
a(L41L
g2
(lp306
(g55
F9.0
F12.0
tp307
a(g111
F16.0
F18.0
tp308
a(g115
F22.0
F23.0
tp309
a(g57
F102.0
F1548.0
tp310
a(g59
F2059.0
F2064.0
tp311
atp312
a(L44L
g2
(lp313
(g21
F16.0
F19.0
tp314
a(g35
F19.0
F22.0
tp315
a(g47
F22.0
F25.0
tp316
a(g8
F25.0
F26.0
tp317
a(g49
F26.0
F27.0
tp318
a(g65
F27.0
F28.0
tp319
a(g99
F28.0
F29.0
tp320
a(g67
F144.0
F1992.0
tp321
a(g69
F2073.0
F2081.0
tp322
atp323
a(L48L
g2
(lp324
(g73
F19.0
F19.0
tp325
a(g119
F19.0
F19.0
tp326
atp327
a(L22L
Vapac-sin#m1.small
p328
(lp329
(g6
F26.0
F39.0
tp330
a(g27
F39.0
F63.0
tp331
a(g10
F63.0
F77.0
tp332
a(g77
F77.0
F102.0
tp333
a(g101
F102.0
F144.0
tp334
atp335
a(L23L
g19
(lp336
(g95
F2584.0
F2584.0
tp337
atp338
a(L30L
g2
(lp339
(g91
F14.0
F921.0
tp340
a(g105
F921.0
F2069.0
tp341
atp342
a(L37L
g2
(lp343
(g123
F20.0
F1334.0
tp344
a(g79
F1334.0
F2049.0
tp345
a(g125
F2081.0
F2584.0
tp346
atp347
atp348
a(F2830.0
F8.27
(lp349
(L33L
g2
(lp350
(g115
F17.0
F18.0
tp351
a(g119
F18.0
F18.0
tp352
a(g65
F20.0
F21.0
tp353
a(g103
F21.0
F22.0
tp354
a(g14
F22.0
F1185.0
tp355
a(g16
F2327.0
F2327.0
tp356
atp357
a(L5L
g2
(lp358
(g43
I0
F0.0
tp359
a(g33
I0
F14.0
tp360
a(g109
F14.0
F15.0
tp361
a(g23
F15.0
F17.0
tp362
a(g4
F17.0
F20.0
tp363
a(g113
F20.0
F21.0
tp364
a(g37
F21.0
F1424.0
tp365
a(g29
F1424.0
F2255.0
tp366
a(g39
F2315.0
F2319.0
tp367
atp368
a(L6L
g2
(lp369
(g45
F2.0
F11.0
tp370
a(g87
F11.0
F13.0
tp371
a(g8
F17.0
F18.0
tp372
a(g12
F21.0
F23.0
tp373
a(g91
F23.0
F930.0
tp374
a(g51
F930.0
F2311.0
tp375
atp376
a(L41L
g2
(lp377
(g55
F11.0
F14.0
tp378
a(g111
F14.0
F16.0
tp379
a(g83
F17.0
F17.0
tp380
a(g47
F17.0
F20.0
tp381
a(g117
F20.0
F21.0
tp382
a(g121
F21.0
F22.0
tp383
a(g57
F46.0
F1492.0
tp384
a(g59
F2255.0
F2260.0
tp385
atp386
a(L43L
g2
(lp387
(g73
F17.0
F17.0
tp388
atp389
a(L44L
g2
(lp390
(g21
F14.0
F17.0
tp391
a(g25
F17.0
F18.0
tp392
a(g49
F18.0
F19.0
tp393
a(g10
F19.0
F20.0
tp394
a(g101
F21.0
F23.0
tp395
a(g67
F23.0
F1871.0
tp396
a(g69
F2319.0
F2327.0
tp397
atp398
a(L17L
g328
(lp399
(g77
F21.0
F46.0
tp400
a(g89
F1338.0
F1357.0
tp401
atp402
a(L23L
Vapac-sin#m1.medium
p403
(lp404
(g95
F2830.0
F2830.0
tp405
atp406
a(L29L
g19
(lp407
(g105
F19.0
F2315.0
tp408
atp409
a(L37L
g2
(lp410
(g35
F14.0
F17.0
tp411
a(g63
F17.0
F20.0
tp412
a(g6
F20.0
F21.0
tp413
a(g123
F22.0
F1336.0
tp414
a(g27
F1336.0
F1337.0
tp415
a(g99
F1337.0
F1338.0
tp416
a(g79
F1357.0
F2072.0
tp417
a(g125
F2327.0
F2830.0
tp418
atp419
atp420
a(F2840.0
F7.64
(lp421
(L33L
g2
(lp422
(g65
F12.0
F13.0
tp423
a(g103
F13.0
F14.0
tp424
a(g14
F14.0
F1177.0
tp425
a(g105
F1177.0
F2325.0
tp426
a(g16
F2337.0
F2337.0
tp427
atp428
a(L5L
g2
(lp429
(g33
F2.0
F16.0
tp430
a(g109
F16.0
F17.0
tp431
a(g23
F17.0
F19.0
tp432
a(g4
F19.0
F22.0
tp433
a(g37
F22.0
F1425.0
tp434
a(g27
F1425.0
F1426.0
tp435
a(g29
F1426.0
F2257.0
tp436
a(g39
F2325.0
F2329.0
tp437
atp438
a(L6L
g2
(lp439
(g43
I0
F0.0
tp440
a(g45
I0
F9.0
tp441
a(g63
F9.0
F12.0
tp442
a(g73
F19.0
F19.0
tp443
a(g115
F20.0
F21.0
tp444
a(g6
F21.0
F22.0
tp445
a(g49
F24.0
F25.0
tp446
a(g101
F25.0
F27.0
tp447
a(g12
F27.0
F29.0
tp448
a(g91
F29.0
F936.0
tp449
a(g51
F936.0
F2317.0
tp450
atp451
a(L41L
g2
(lp452
(g55
F9.0
F12.0
tp453
a(g111
F16.0
F18.0
tp454
a(g47
F18.0
F21.0
tp455
a(g57
F81.0
F1527.0
tp456
a(g79
F1527.0
F2242.0
tp457
a(g59
F2257.0
F2262.0
tp458
atp459
a(L44L
g2
(lp460
(g21
F16.0
F19.0
tp461
a(g117
F22.0
F23.0
tp462
a(g8
F23.0
F24.0
tp463
a(g67
F27.0
F1875.0
tp464
a(g69
F2329.0
F2337.0
tp465
atp466
a(L17L
g328
(lp467
(g121
F17.0
F42.0
tp468
a(g10
F42.0
F56.0
tp469
a(g77
F56.0
F81.0
tp470
a(g89
F1358.0
F1377.0
tp471
atp472
a(L23L
g403
(lp473
(g95
F2840.0
F2840.0
tp474
atp475
a(L28L
g2
(lp476
(g119
F17.0
F17.0
tp477
atp478
a(L37L
g2
(lp479
(g35
F16.0
F19.0
tp480
a(g113
F19.0
F20.0
tp481
a(g83
F20.0
F20.0
tp482
a(g87
F20.0
F22.0
tp483
a(g123
F42.0
F1356.0
tp484
a(g25
F1356.0
F1357.0
tp485
a(g99
F1357.0
F1358.0
tp486
a(g125
F2337.0
F2840.0
tp487
atp488
atp489
a(F3143.0
F7.09
(lp490
(L33L
g328
(lp491
(g21
F15.0
F88.0
tp492
a(g73
F88.0
F98.0
tp493
a(g83
F98.0
F110.0
tp494
a(g115
F110.0
F130.0
tp495
a(g121
F130.0
F155.0
tp496
a(g49
F155.0
F184.0
tp497
a(g103
F184.0
F204.0
tp498
atp499
a(L37L
g2
(lp500
(g35
F14.0
F17.0
tp501
a(g117
F17.0
F18.0
tp502
a(g123
F155.0
F1469.0
tp503
a(g99
F1469.0
F1470.0
tp504
a(g79
F1489.0
F2204.0
tp505
a(g125
F2640.0
F3143.0
tp506
atp507
a(L6L
g2
(lp508
(g111
F14.0
F16.0
tp509
a(g63
F16.0
F19.0
tp510
a(g119
F19.0
F19.0
tp511
a(g8
F89.0
F90.0
tp512
a(g101
F90.0
F92.0
tp513
a(g12
F92.0
F94.0
tp514
a(g91
F94.0
F1001.0
tp515
a(g51
F1001.0
F2382.0
tp516
a(g39
F2480.0
F2484.0
tp517
atp518
a(L41L
g2
(lp519
(g45
F2.0
F11.0
tp520
a(g55
F11.0
F14.0
tp521
a(g47
F14.0
F17.0
tp522
a(g57
F18.0
F1464.0
tp523
a(g14
F1464.0
F2627.0
tp524
a(g59
F2627.0
F2632.0
tp525
a(g69
F2632.0
F2640.0
tp526
atp527
a(L43L
g2
(lp528
(g16
F2640.0
F2640.0
tp529
atp530
a(L44L
g2
(lp531
(g10
F16.0
F17.0
tp532
a(g77
F17.0
F18.0
tp533
a(g67
F92.0
F1940.0
tp534
atp535
a(L17L
g328
(lp536
(g6
F18.0
F31.0
tp537
a(g25
F31.0
F49.0
tp538
a(g65
F49.0
F70.0
tp539
a(g89
F1470.0
F1489.0
tp540
atp541
a(L23L
Vapac-sin#m3.medium
p542
(lp543
(g95
F3143.0
F3143.0
tp544
atp545
a(L30L
g19
(lp546
(g87
F12.0
F15.0
tp547
a(g27
F50.0
F52.0
tp548
a(g105
F184.0
F2480.0
tp549
atp550
a(L5L
g2
(lp551
(g43
I0
F0.0
tp552
a(g33
I0
F14.0
tp553
a(g109
F14.0
F15.0
tp554
a(g23
F15.0
F17.0
tp555
a(g4
F17.0
F20.0
tp556
a(g113
F99.0
F100.0
tp557
a(g37
F100.0
F1503.0
tp558
a(g29
F1503.0
F2334.0
tp559
atp560
atp561
a(F3226.0
F7.01
(lp562
(L33L
g328
(lp563
(g10
F20.0
F34.0
tp564
a(g77
F34.0
F59.0
tp565
a(g89
F59.0
F78.0
tp566
a(g12
F78.0
F122.0
tp567
atp568
a(L5L
g2
(lp569
(g43
I0
F0.0
tp570
a(g33
I0
F14.0
tp571
a(g21
F14.0
F17.0
tp572
a(g23
F17.0
F19.0
tp573
a(g63
F19.0
F22.0
tp574
a(g37
F22.0
F1425.0
tp575
a(g29
F1425.0
F2256.0
tp576
a(g39
F2711.0
F2715.0
tp577
atp578
a(L6L
g2
(lp579
(g45
F2.0
F11.0
tp580
a(g4
F11.0
F14.0
tp581
a(g119
F15.0
F15.0
tp582
a(g123
F16.0
F1330.0
tp583
a(g51
F1330.0
F2711.0
tp584
atp585
a(L41L
g2
(lp586
(g109
F14.0
F15.0
tp587
a(g113
F19.0
F20.0
tp588
a(g117
F22.0
F23.0
tp589
a(g57
F59.0
F1505.0
tp590
a(g14
F1505.0
F2668.0
tp591
a(g59
F2668.0
F2673.0
tp592
a(g69
F2715.0
F2723.0
tp593
atp594
a(L43L
g2
(lp595
(g16
F2723.0
F2723.0
tp596
atp597
a(L44L
g2
(lp598
(g47
F12.0
F15.0
tp599
a(g121
F15.0
F16.0
tp600
a(g103
F31.0
F32.0
tp601
a(g67
F32.0
F1880.0
tp602
a(g125
F2723.0
F3226.0
tp603
atp604
a(L14L
g19
(lp605
(g35
F15.0
F22.0
tp606
a(g83
F22.0
F23.0
tp607
a(g115
F23.0
F25.0
tp608
a(g6
F25.0
F26.0
tp609
a(g25
F26.0
F27.0
tp610
a(g8
F27.0
F28.0
tp611
a(g49
F28.0
F30.0
tp612
a(g79
F78.0
F1507.0
tp613
atp614
a(L17L
g2
(lp615
(g73
F19.0
F19.0
tp616
atp617
a(L22L
g19
(lp618
(g111
F15.0
F19.0
tp619
a(g87
F19.0
F22.0
tp620
a(g27
F27.0
F29.0
tp621
a(g65
F29.0
F31.0
tp622
a(g91
F122.0
F1935.0
tp623
atp624
a(L26L
g19
(lp625
(g95
F3226.0
F3226.0
tp626
atp627
a(L30L
g19
(lp628
(g55
F12.0
F19.0
tp629
a(g99
F19.0
F20.0
tp630
a(g101
F26.0
F29.0
tp631
a(g105
F30.0
F2326.0
tp632
atp633
atp634
a(F3340.0
F6.38
(lp635
(L33L
g328
(lp636
(g111
F16.0
F63.0
tp637
a(g119
F63.0
F76.0
tp638
a(g8
F76.0
F91.0
tp639
a(g12
F91.0
F135.0
tp640
atp641
a(L5L
g19
(lp642
(g23
F15.0
F18.0
tp643
a(g37
F19.0
F2825.0
tp644
atp645
a(L6L
g2
(lp646
(g45
F2.0
F11.0
tp647
a(g123
F77.0
F1391.0
tp648
a(g51
F1391.0
F2772.0
tp649
a(g39
F2825.0
F2829.0
tp650
atp651
a(L41L
g2
(lp652
(g109
F14.0
F15.0
tp653
a(g113
F18.0
F19.0
tp654
a(g117
F28.0
F29.0
tp655
a(g57
F96.0
F1542.0
tp656
a(g14
F1542.0
F2705.0
tp657
a(g59
F2758.0
F2763.0
tp658
a(g69
F2829.0
F2837.0
tp659
atp660
a(L44L
g2
(lp661
(g43
I0
F0.0
tp662
a(g33
I0
F14.0
tp663
a(g21
F14.0
F17.0
tp664
a(g35
F17.0
F20.0
tp665
a(g63
F20.0
F23.0
tp666
a(g83
F23.0
F23.0
tp667
a(g47
F23.0
F26.0
tp668
a(g121
F76.0
F77.0
tp669
a(g27
F77.0
F78.0
tp670
a(g29
F78.0
F909.0
tp671
a(g103
F909.0
F910.0
tp672
a(g67
F910.0
F2758.0
tp673
a(g125
F2837.0
F3340.0
tp674
atp675
a(L45L
g2
(lp676
(g73
F18.0
F18.0
tp677
atp678
a(L14L
g19
(lp679
(g55
F12.0
F19.0
tp680
a(g6
F26.0
F27.0
tp681
a(g49
F92.0
F94.0
tp682
a(g77
F94.0
F96.0
tp683
a(g79
F96.0
F1525.0
tp684
atp685
a(L22L
g19
(lp686
(g4
F12.0
F17.0
tp687
a(g10
F64.0
F65.0
tp688
a(g99
F65.0
F66.0
tp689
a(g89
F66.0
F67.0
tp690
a(g91
F135.0
F1948.0
tp691
atp692
a(L26L
Vapac-sin#m1.xlarge
p693
(lp694
(g95
F3340.0
F3340.0
tp695
atp696
a(L38L
g693
(lp697
(g16
F2837.0
F2837.0
tp698
atp699
a(L30L
g19
(lp700
(g115
F23.0
F25.0
tp701
a(g87
F25.0
F28.0
tp702
a(g25
F28.0
F29.0
tp703
a(g65
F29.0
F31.0
tp704
a(g101
F31.0
F34.0
tp705
a(g105
F94.0
F2390.0
tp706
atp707
atp708
a(F3398.0
F6.3
(lp709
(L33L
g328
(lp710
(g6
F26.0
F39.0
tp711
a(g49
F39.0
F68.0
tp712
a(g12
F68.0
F112.0
tp713
atp714
a(L43L
g2
(lp715
(g16
F2895.0
F2895.0
tp716
atp717
a(L5L
g19
(lp718
(g23
F17.0
F20.0
tp719
a(g37
F21.0
F2827.0
tp720
a(g39
F2827.0
F2835.0
tp721
atp722
a(L6L
g2
(lp723
(g43
I0
F0.0
tp724
a(g45
I0
F9.0
tp725
a(g111
F16.0
F18.0
tp726
a(g73
F20.0
F20.0
tp727
a(g113
F20.0
F21.0
tp728
a(g123
F26.0
F1340.0
tp729
a(g51
F1340.0
F2721.0
tp730
atp731
a(L41L
g2
(lp732
(g55
F9.0
F12.0
tp733
a(g109
F16.0
F17.0
tp734
a(g117
F23.0
F24.0
tp735
a(g8
F24.0
F25.0
tp736
a(g57
F25.0
F1471.0
tp737
a(g14
F1471.0
F2634.0
tp738
a(g59
F2882.0
F2887.0
tp739
a(g69
F2887.0
F2895.0
tp740
atp741
a(L11L
g2
(lp742
(g83
F22.0
F22.0
tp743
atp744
a(L44L
g2
(lp745
(g33
F2.0
F16.0
tp746
a(g21
F16.0
F19.0
tp747
a(g35
F19.0
F22.0
tp748
a(g47
F22.0
F25.0
tp749
a(g121
F25.0
F26.0
tp750
a(g29
F66.0
F897.0
tp751
a(g65
F897.0
F898.0
tp752
a(g103
F898.0
F899.0
tp753
a(g67
F899.0
F2747.0
tp754
a(g125
F2895.0
F3398.0
tp755
atp756
a(L14L
Vapac-sin#m3.large
p757
(lp758
(g25
F12.0
F15.0
tp759
a(g77
F19.0
F23.0
tp760
a(g79
F24.0
F2882.0
tp761
atp762
a(L17L
g2
(lp763
(g119
F17.0
F17.0
tp764
atp765
a(L22L
g19
(lp766
(g4
F10.0
F15.0
tp767
a(g63
F15.0
F20.0
tp768
a(g87
F20.0
F23.0
tp769
a(g89
F23.0
F24.0
tp770
a(g91
F112.0
F1925.0
tp771
atp772
a(L24L
g542
(lp773
(g99
F15.0
F21.0
tp774
atp775
a(L26L
g2
(lp776
(g95
F3398.0
F3398.0
tp777
atp778
a(L30L
g19
(lp779
(g10
F18.0
F19.0
tp780
a(g101
F40.0
F43.0
tp781
a(g105
F68.0
F2364.0
tp782
atp783
a(L31L
g328
(lp784
(g115
F22.0
F42.0
tp785
a(g27
F42.0
F66.0
tp786
atp787
atp788
a(F3406.0
F6.22
(lp789
(L33L
g328
(lp790
(g6
F26.0
F39.0
tp791
a(g12
F39.0
F83.0
tp792
atp793
a(L43L
g2
(lp794
(g16
F2903.0
F2903.0
tp795
atp796
a(L5L
g19
(lp797
(g37
F19.0
F2825.0
tp798
a(g39
F2825.0
F2833.0
tp799
atp800
a(L6L
g2
(lp801
(g43
I0
F0.0
tp802
a(g45
I0
F9.0
tp803
a(g111
F16.0
F18.0
tp804
a(g73
F18.0
F18.0
tp805
a(g113
F18.0
F19.0
tp806
a(g123
F26.0
F1340.0
tp807
a(g51
F1340.0
F2721.0
tp808
atp809
a(L41L
g2
(lp810
(g55
F9.0
F12.0
tp811
a(g23
F16.0
F18.0
tp812
a(g117
F23.0
F24.0
tp813
a(g8
F24.0
F25.0
tp814
a(g57
F25.0
F1471.0
tp815
a(g14
F1471.0
F2634.0
tp816
a(g59
F2890.0
F2895.0
tp817
a(g69
F2895.0
F2903.0
tp818
atp819
a(L11L
g2
(lp820
(g83
F22.0
F22.0
tp821
atp822
a(L44L
g2
(lp823
(g33
F2.0
F16.0
tp824
a(g21
F16.0
F19.0
tp825
a(g35
F19.0
F22.0
tp826
a(g47
F22.0
F25.0
tp827
a(g121
F25.0
F26.0
tp828
a(g29
F30.0
F861.0
tp829
a(g65
F861.0
F862.0
tp830
a(g103
F862.0
F863.0
tp831
a(g67
F863.0
F2711.0
tp832
a(g125
F2903.0
F3406.0
tp833
atp834
a(L14L
g757
(lp835
(g109
F17.0
F22.0
tp836
a(g115
F22.0
F25.0
tp837
a(g25
F25.0
F28.0
tp838
a(g49
F28.0
F32.0
tp839
a(g79
F32.0
F2890.0
tp840
atp841
a(L17L
g2
(lp842
(g119
F22.0
F22.0
tp843
atp844
a(L22L
g19
(lp845
(g4
F10.0
F15.0
tp846
a(g63
F15.0
F20.0
tp847
a(g87
F20.0
F23.0
tp848
a(g27
F28.0
F30.0
tp849
a(g89
F30.0
F31.0
tp850
a(g91
F83.0
F1896.0
tp851
atp852
a(L26L
g693
(lp853
(g95
F3406.0
F3406.0
tp854
atp855
a(L28L
g403
(lp856
(g99
F15.0
F25.0
tp857
atp858
a(L30L
g19
(lp859
(g10
F18.0
F19.0
tp860
a(g77
F19.0
F21.0
tp861
a(g101
F40.0
F43.0
tp862
a(g105
F43.0
F2339.0
tp863
atp864
atp865
a(F3410.0
F6.14
(lp866
(L33L
g328
(lp867
(g6
F26.0
F39.0
tp868
a(g12
F39.0
F83.0
tp869
atp870
a(L43L
g2
(lp871
(g16
F2907.0
F2907.0
tp872
atp873
a(L5L
g19
(lp874
(g37
F19.0
F2825.0
tp875
a(g39
F2825.0
F2833.0
tp876
atp877
a(L6L
g2
(lp878
(g43
I0
F0.0
tp879
a(g45
I0
F9.0
tp880
a(g111
F16.0
F18.0
tp881
a(g73
F18.0
F18.0
tp882
a(g113
F18.0
F19.0
tp883
a(g123
F26.0
F1340.0
tp884
a(g51
F1340.0
F2721.0
tp885
atp886
a(L41L
g2
(lp887
(g55
F9.0
F12.0
tp888
a(g23
F16.0
F18.0
tp889
a(g117
F23.0
F24.0
tp890
a(g8
F24.0
F25.0
tp891
a(g57
F25.0
F1471.0
tp892
a(g14
F1471.0
F2634.0
tp893
a(g59
F2894.0
F2899.0
tp894
a(g69
F2899.0
F2907.0
tp895
atp896
a(L11L
g2
(lp897
(g83
F22.0
F22.0
tp898
atp899
a(L44L
g2
(lp900
(g33
F2.0
F16.0
tp901
a(g21
F16.0
F19.0
tp902
a(g35
F19.0
F22.0
tp903
a(g47
F22.0
F25.0
tp904
a(g121
F25.0
F26.0
tp905
a(g29
F30.0
F861.0
tp906
a(g65
F861.0
F862.0
tp907
a(g103
F862.0
F863.0
tp908
a(g67
F863.0
F2711.0
tp909
a(g125
F2907.0
F3410.0
tp910
atp911
a(L14L
g757
(lp912
(g109
F17.0
F22.0
tp913
a(g115
F22.0
F25.0
tp914
a(g25
F25.0
F28.0
tp915
a(g49
F28.0
F32.0
tp916
a(g79
F36.0
F2894.0
tp917
atp918
a(L17L
g2
(lp919
(g119
F22.0
F22.0
tp920
atp921
a(L22L
g19
(lp922
(g4
F10.0
F15.0
tp923
a(g63
F15.0
F20.0
tp924
a(g87
F20.0
F23.0
tp925
a(g27
F28.0
F30.0
tp926
a(g89
F35.0
F36.0
tp927
a(g91
F83.0
F1896.0
tp928
atp929
a(L23L
g328
(lp930
(g95
F3410.0
F3410.0
tp931
atp932
a(L28L
g328
(lp933
(g99
F16.0
F35.0
tp934
atp935
a(L30L
g19
(lp936
(g10
F18.0
F19.0
tp937
a(g77
F19.0
F21.0
tp938
a(g101
F40.0
F43.0
tp939
a(g105
F43.0
F2339.0
tp940
atp941
atp942
a(F3423.0
F6.06
(lp943
(L33L
g328
(lp944
(g99
F29.0
F48.0
tp945
a(g12
F48.0
F92.0
tp946
atp947
a(L5L
g19
(lp948
(g109
F17.0
F20.0
tp949
a(g23
F20.0
F23.0
tp950
a(g4
F23.0
F28.0
tp951
a(g37
F28.0
F2834.0
tp952
a(g39
F2834.0
F2842.0
tp953
atp954
a(L6L
g2
(lp955
(g43
I0
F0.0
tp956
a(g45
I0
F9.0
tp957
a(g113
F23.0
F24.0
tp958
a(g123
F26.0
F1340.0
tp959
a(g51
F1340.0
F2721.0
tp960
atp961
a(L41L
g2
(lp962
(g55
F9.0
F12.0
tp963
a(g111
F16.0
F18.0
tp964
a(g117
F18.0
F19.0
tp965
a(g8
F19.0
F20.0
tp966
a(g57
F34.0
F1480.0
tp967
a(g14
F1480.0
F2643.0
tp968
a(g59
F2907.0
F2912.0
tp969
atp970
a(L11L
g2
(lp971
(g83
F22.0
F22.0
tp972
atp973
a(L44L
g2
(lp974
(g33
F2.0
F16.0
tp975
a(g21
F16.0
F19.0
tp976
a(g35
F19.0
F22.0
tp977
a(g47
F22.0
F25.0
tp978
a(g121
F25.0
F26.0
tp979
a(g29
F32.0
F863.0
tp980
a(g103
F863.0
F864.0
tp981
a(g67
F864.0
F2712.0
tp982
a(g69
F2912.0
F2920.0
tp983
a(g125
F2920.0
F3423.0
tp984
atp985
a(L14L
g757
(lp986
(g115
F22.0
F25.0
tp987
a(g6
F25.0
F27.0
tp988
a(g25
F27.0
F30.0
tp989
a(g77
F30.0
F34.0
tp990
a(g79
F49.0
F2907.0
tp991
atp992
a(L15L
g403
(lp993
(g95
F3423.0
F3423.0
tp994
atp995
a(L48L
g2
(lp996
(g73
F23.0
F23.0
tp997
a(g119
F23.0
F23.0
tp998
atp999
a(L18L
g2
(lp1000
(g16
F2920.0
F2920.0
tp1001
atp1002
a(L22L
g19
(lp1003
(g63
F10.0
F15.0
tp1004
a(g87
F15.0
F18.0
tp1005
a(g27
F30.0
F32.0
tp1006
a(g49
F32.0
F34.0
tp1007
a(g89
F48.0
F49.0
tp1008
a(g91
F92.0
F1905.0
tp1009
atp1010
a(L30L
g19
(lp1011
(g10
F18.0
F19.0
tp1012
a(g65
F19.0
F21.0
tp1013
a(g101
F27.0
F30.0
tp1014
a(g105
F34.0
F2330.0
tp1015
atp1016
atp1017
a.