(lp0
(F1718.0
F6.3
(lp1
(L16L
Vapac-sin#m3.2xlarge
p2
(lp3
(VID00001
p4
F33.0
F35.0
tp5
a(VID00006
p6
F35.0
F36.0
tp7
a(VID00011
p8
F36.0
F37.0
tp9
a(VID00017
p10
F39.0
F1023.0
tp11
atp12
a(L25L
g2
(lp13
(VID00002
p14
F33.0
F36.0
tp15
a(VID00010
p16
F36.0
F38.0
tp17
a(VID00015
p18
F38.0
F40.0
tp19
a(VID00018
p20
F40.0
F786.0
tp21
a(VID00022
p22
F1295.0
F1295.0
tp23
atp24
a(L18L
g2
(lp25
(VID00003
p26
F33.0
F36.0
tp27
a(VID00008
p28
F36.0
F37.0
tp29
a(VID00016
p30
F37.0
F908.0
tp31
a(S'exit'
p32
F1718.0
F1718.0
tp33
atp34
a(L3L
g2
(lp35
(VID00004
p36
F33.0
F36.0
tp37
a(VID00009
p38
F36.0
F37.0
tp39
a(VID00020
p40
F40.0
F1290.0
tp41
a(VID00023
p42
F1295.0
F1718.0
tp43
atp44
a(L4L
g2
(lp45
(S'entry'
p46
I0
F0.0
tp47
a(VID00000
p48
I0
F32.0
tp49
a(VID00005
p50
F32.0
F36.0
tp51
a(VID00007
p52
F36.0
F37.0
tp53
a(VID00012
p54
F37.0
F39.0
tp55
a(VID00013
p56
F39.0
F40.0
tp57
a(VID00014
p58
F40.0
F41.0
tp59
a(VID00019
p60
F41.0
F1156.0
tp61
a(VID00021
p62
F1290.0
F1295.0
tp63
atp64
atp65
a(F1958.0
F5.67
(lp66
(L25L
g2
(lp67
(g36
F33.0
F36.0
tp68
a(g28
F36.0
F37.0
tp69
a(g54
F38.0
F40.0
tp70
a(g16
F40.0
F42.0
tp71
a(g10
F42.0
F1026.0
tp72
atp73
a(L18L
g2
(lp74
(g50
F33.0
F37.0
tp75
a(g52
F37.0
F38.0
tp76
a(g30
F38.0
F909.0
tp77
a(g32
F1958.0
F1958.0
tp78
atp79
a(L3L
g2
(lp80
(g26
F33.0
F36.0
tp81
a(g38
F36.0
F37.0
tp82
a(g8
F37.0
F38.0
tp83
a(g40
F44.0
F1294.0
tp84
a(g42
F1535.0
F1958.0
tp85
atp86
a(L4L
g2
(lp87
(g46
I0
F0.0
tp88
a(g48
I0
F32.0
tp89
a(g4
F32.0
F34.0
tp90
a(g14
F34.0
F37.0
tp91
a(g56
F37.0
F38.0
tp92
a(g58
F38.0
F39.0
tp93
a(g18
F42.0
F44.0
tp94
a(g60
F44.0
F1159.0
tp95
a(g62
F1530.0
F1535.0
tp96
atp97
a(L6L
Vapac-sin#m3.xlarge
p98
(lp99
(g6
F35.0
F36.0
tp100
a(g20
F38.0
F1530.0
tp101
a(g22
F1535.0
F1535.0
tp102
atp103
atp104
a(F2081.0
F5.04
(lp105
(L25L
g2
(lp106
(g36
F33.0
F36.0
tp107
a(g50
F36.0
F40.0
tp108
a(g26
F40.0
F43.0
tp109
a(g14
F43.0
F46.0
tp110
a(g52
F46.0
F47.0
tp111
a(g38
F47.0
F48.0
tp112
a(g54
F48.0
F50.0
tp113
a(g56
F50.0
F51.0
tp114
a(g10
F51.0
F1035.0
tp115
atp116
a(L18L
g2
(lp117
(g32
F2081.0
F2081.0
tp118
atp119
a(L3L
g2
(lp120
(g8
F35.0
F36.0
tp121
a(g40
F51.0
F1301.0
tp122
a(g42
F1658.0
F2081.0
tp123
atp124
a(L4L
g2
(lp125
(g46
I0
F0.0
tp126
a(g48
I0
F32.0
tp127
a(g4
F32.0
F34.0
tp128
a(g6
F34.0
F35.0
tp129
a(g28
F43.0
F44.0
tp130
a(g16
F44.0
F46.0
tp131
a(g58
F48.0
F49.0
tp132
a(g18
F49.0
F51.0
tp133
a(g60
F51.0
F1166.0
tp134
a(g62
F1653.0
F1658.0
tp135
atp136
a(L6L
g2
(lp137
(g30
F36.0
F907.0
tp138
a(g20
F907.0
F1653.0
tp139
a(g22
F1658.0
F1658.0
tp140
atp141
atp142
a(F2206.0
F4.41
(lp143
(L0L
Vapac-sin#m1.small
p144
(lp145
(g32
F2206.0
F2206.0
tp146
atp147
a(L25L
g2
(lp148
(g36
F33.0
F36.0
tp149
a(g14
F36.0
F39.0
tp150
a(g52
F39.0
F40.0
tp151
a(g38
F40.0
F41.0
tp152
a(g54
F41.0
F43.0
tp153
a(g56
F43.0
F44.0
tp154
a(g10
F44.0
F1028.0
tp155
a(g20
F1028.0
F1774.0
tp156
atp157
a(L3L
g2
(lp158
(g6
F34.0
F35.0
tp159
a(g8
F35.0
F36.0
tp160
a(g58
F41.0
F42.0
tp161
a(g18
F44.0
F46.0
tp162
a(g40
F46.0
F1296.0
tp163
a(g42
F1783.0
F2206.0
tp164
atp165
a(L4L
g2
(lp166
(g46
I0
F0.0
tp167
a(g48
I0
F32.0
tp168
a(g4
F32.0
F34.0
tp169
a(g50
F34.0
F38.0
tp170
a(g26
F38.0
F41.0
tp171
a(g28
F41.0
F42.0
tp172
a(g16
F42.0
F44.0
tp173
a(g60
F44.0
F1159.0
tp174
a(g62
F1778.0
F1783.0
tp175
atp176
a(L6L
g98
(lp177
(g30
F36.0
F1778.0
tp178
a(g22
F1783.0
F1783.0
tp179
atp180
atp181
a(F2450.0
F3.78
(lp182
(L25L
g2
(lp183
(g36
F33.0
F36.0
tp184
a(g50
F36.0
F40.0
tp185
a(g26
F40.0
F43.0
tp186
a(g14
F43.0
F46.0
tp187
a(g52
F46.0
F47.0
tp188
a(g38
F47.0
F48.0
tp189
a(g28
F48.0
F49.0
tp190
a(g54
F49.0
F51.0
tp191
a(g56
F51.0
F52.0
tp192
a(g16
F52.0
F54.0
tp193
a(g10
F54.0
F1038.0
tp194
a(g20
F1038.0
F1784.0
tp195
atp196
a(L18L
g2
(lp197
(g32
F2450.0
F2450.0
tp198
atp199
a(L3L
g2
(lp200
(g8
F35.0
F36.0
tp201
a(g58
F48.0
F49.0
tp202
a(g18
F54.0
F56.0
tp203
a(g40
F56.0
F1306.0
tp204
a(g42
F2027.0
F2450.0
tp205
atp206
a(L4L
g2
(lp207
(g46
I0
F0.0
tp208
a(g48
I0
F32.0
tp209
a(g4
F32.0
F34.0
tp210
a(g6
F34.0
F35.0
tp211
a(g30
F36.0
F907.0
tp212
a(g60
F907.0
F2022.0
tp213
a(g62
F2022.0
F2027.0
tp214
atp215
a(L6L
g98
(lp216
(g22
F2027.0
F2027.0
tp217
atp218
atp219
a(F2464.0
F3.15
(lp220
(L25L
g98
(lp221
(g6
F36.0
F37.0
tp222
a(g52
F45.0
F47.0
tp223
a(g38
F47.0
F49.0
tp224
a(g54
F49.0
F53.0
tp225
a(g56
F53.0
F55.0
tp226
a(g10
F55.0
F2022.0
tp227
atp228
a(L3L
g2
(lp229
(g46
I0
F0.0
tp230
a(g48
I0
F32.0
tp231
a(g50
F32.0
F36.0
tp232
a(g16
F36.0
F38.0
tp233
a(g18
F38.0
F40.0
tp234
a(g40
F40.0
F1290.0
tp235
a(g20
F1290.0
F2036.0
tp236
a(g62
F2036.0
F2041.0
tp237
a(g42
F2041.0
F2464.0
tp238
atp239
a(L4L
g2
(lp240
(g4
F33.0
F35.0
tp241
a(g36
F35.0
F38.0
tp242
a(g26
F38.0
F41.0
tp243
a(g14
F41.0
F44.0
tp244
a(g28
F44.0
F45.0
tp245
a(g8
F45.0
F46.0
tp246
a(g30
F46.0
F917.0
tp247
a(g58
F917.0
F918.0
tp248
a(g60
F918.0
F2033.0
tp249
atp250
a(L5L
g2
(lp251
(g22
F2041.0
F2041.0
tp252
atp253
a(L17L
g98
(lp254
(g32
F2464.0
F2464.0
tp255
atp256
atp257
a(F3331.0
F2.52
(lp258
(L24L
Vapac-sin#m3.medium
p259
(lp260
(g22
F2908.0
F2908.0
tp261
atp262
a(L25L
g98
(lp263
(g26
F33.0
F38.0
tp264
a(g38
F40.0
F42.0
tp265
a(g28
F42.0
F44.0
tp266
a(g54
F54.0
F58.0
tp267
a(g16
F58.0
F61.0
tp268
a(g10
F61.0
F2028.0
tp269
atp270
a(L3L
g2
(lp271
(g46
I0
F0.0
tp272
a(g48
I0
F32.0
tp273
a(g4
F32.0
F34.0
tp274
a(g6
F34.0
F35.0
tp275
a(g8
F35.0
F36.0
tp276
a(g30
F36.0
F907.0
tp277
a(g40
F907.0
F2157.0
tp278
a(g20
F2157.0
F2903.0
tp279
a(g62
F2903.0
F2908.0
tp280
a(g42
F2908.0
F3331.0
tp281
atp282
a(L4L
g98
(lp283
(g36
F33.0
F39.0
tp284
a(g50
F39.0
F46.0
tp285
a(g14
F46.0
F51.0
tp286
a(g52
F51.0
F53.0
tp287
a(g56
F53.0
F55.0
tp288
a(g58
F55.0
F58.0
tp289
a(g18
F61.0
F64.0
tp290
a(g60
F64.0
F2294.0
tp291
atp292
a(L17L
g144
(lp293
(g32
F3331.0
F3331.0
tp294
atp295
atp296
a(F5195.0
F2.36
(lp297
(L3L
g144
(lp298
(g36
F35.0
F109.0
tp299
a(g50
F109.0
F204.0
tp300
a(g38
F204.0
F228.0
tp301
a(g18
F228.0
F269.0
tp302
atp303
a(L4L
g2
(lp304
(g46
I0
F0.0
tp305
a(g48
I0
F32.0
tp306
a(g14
F32.0
F35.0
tp307
a(g52
F35.0
F36.0
tp308
a(g54
F36.0
F38.0
tp309
a(g16
F205.0
F207.0
tp310
a(g30
F207.0
F1078.0
tp311
a(g40
F1078.0
F2328.0
tp312
a(g60
F2328.0
F3443.0
tp313
a(g62
F3497.0
F3502.0
tp314
atp315
a(L7L
g144
(lp316
(g4
F34.0
F90.0
tp317
a(g6
F90.0
F109.0
tp318
a(g28
F109.0
F135.0
tp319
a(g56
F135.0
F167.0
tp320
a(g8
F167.0
F201.0
tp321
a(g58
F229.0
F267.0
tp322
atp323
a(L17L
g2
(lp324
(g32
F5195.0
F5195.0
tp325
atp326
a(L22L
Vapac-sin#m1.medium
p327
(lp328
(g22
F3502.0
F3502.0
tp329
atp330
a(L24L
Vapac-sin#m3.large
p331
(lp332
(g42
F3502.0
F5195.0
tp333
atp334
a(L25L
g98
(lp335
(g26
F33.0
F38.0
tp336
a(g10
F38.0
F2005.0
tp337
a(g20
F2005.0
F3497.0
tp338
atp339
atp340
a(F5201.0
F2.28
(lp341
(L24L
g331
(lp342
(g42
F3508.0
F5201.0
tp343
a(g32
F5201.0
F5201.0
tp344
atp345
a(L25L
g98
(lp346
(g36
F33.0
F39.0
tp347
a(g38
F39.0
F41.0
tp348
a(g10
F44.0
F2011.0
tp349
a(g20
F2011.0
F3503.0
tp350
atp351
a(L3L
g144
(lp352
(g6
F35.0
F54.0
tp353
a(g26
F54.0
F119.0
tp354
a(g28
F119.0
F145.0
tp355
a(g8
F145.0
F179.0
tp356
atp357
a(L4L
g2
(lp358
(g46
I0
F0.0
tp359
a(g48
I0
F32.0
tp360
a(g4
F32.0
F34.0
tp361
a(g50
F34.0
F38.0
tp362
a(g14
F38.0
F41.0
tp363
a(g52
F41.0
F42.0
tp364
a(g54
F42.0
F44.0
tp365
a(g56
F146.0
F147.0
tp366
a(g16
F147.0
F149.0
tp367
a(g30
F179.0
F1050.0
tp368
a(g58
F1050.0
F1051.0
tp369
a(g18
F1051.0
F1053.0
tp370
a(g40
F1053.0
F2303.0
tp371
a(g60
F2303.0
F3418.0
tp372
a(g62
F3503.0
F3508.0
tp373
atp374
a(L5L
g327
(lp375
(g22
F3508.0
F3508.0
tp376
atp377
atp378
a(F7180.0
F2.21
(lp379
(L25L
g98
(lp380
(g36
F33.0
F39.0
tp381
a(g14
F39.0
F44.0
tp382
a(g52
F44.0
F46.0
tp383
a(g56
F46.0
F48.0
tp384
a(g10
F49.0
F2016.0
tp385
a(g20
F2016.0
F3508.0
tp386
atp387
a(L3L
g259
(lp388
(g8
F35.0
F46.0
tp389
a(g58
F46.0
F59.0
tp390
a(g18
F59.0
F73.0
tp391
a(g42
F3513.0
F7180.0
tp392
atp393
a(L4L
g2
(lp394
(g46
I0
F0.0
tp395
a(g48
I0
F32.0
tp396
a(g4
F32.0
F34.0
tp397
a(g6
F34.0
F35.0
tp398
a(g50
F35.0
F39.0
tp399
a(g26
F39.0
F42.0
tp400
a(g38
F42.0
F43.0
tp401
a(g28
F43.0
F44.0
tp402
a(g54
F47.0
F49.0
tp403
a(g16
F49.0
F51.0
tp404
a(g30
F51.0
F922.0
tp405
a(g40
F922.0
F2172.0
tp406
a(g60
F2172.0
F3287.0
tp407
a(g62
F3508.0
F3513.0
tp408
atp409
a(L14L
g327
(lp410
(g22
F3513.0
F3513.0
tp411
atp412
a(L17L
Vapac-sin#m1.xlarge
p413
(lp414
(g32
F7180.0
F7180.0
tp415
atp416
atp417
a.