(lp0
(F411.0
F7.56
(lp1
(L2L
Vapac-sin#m3.xlarge
p2
(lp3
(S'entry'
p4
I0
F0.0
tp5
atp6
a(L7L
Vapac-sin#m3.2xlarge
p7
(lp8
(VID00001
p9
I0
F6.0
tp10
a(VID00010
p11
F6.0
F166.0
tp12
a(VID00021
p13
F215.0
F217.0
tp14
a(VID00024
p15
F217.0
F346.0
tp16
atp17
a(L8L
g7
(lp18
(VID00003
p19
I0
F5.0
tp20
a(VID00008
p21
F6.0
F114.0
tp22
a(VID00020
p23
F215.0
F217.0
tp24
a(VID00016
p25
F217.0
F219.0
tp26
a(VID00019
p27
F219.0
F221.0
tp28
a(VID00026
p29
F221.0
F315.0
tp30
atp31
a(L12L
Vapac-sin#m1.small
p32
(lp33
(S'exit'
p34
F411.0
F411.0
tp35
atp36
a(L17L
g7
(lp37
(VID00000
p38
I0
F5.0
tp39
a(VID00012
p40
F5.0
F107.0
tp41
a(VID00013
p42
F107.0
F213.0
tp43
a(VID00023
p44
F219.0
F408.0
tp45
atp46
a(L22L
g7
(lp47
(VID00007
p48
F5.0
F213.0
tp49
a(VID00015
p50
F215.0
F217.0
tp51
a(VID00018
p52
F217.0
F219.0
tp53
a(VID00025
p54
F219.0
F298.0
tp55
a(VID00028
p56
F298.0
F410.0
tp57
a(VID00029
p58
F410.0
F411.0
tp59
atp60
a(L25L
g7
(lp61
(VID00006
p62
I0
F6.0
tp63
a(VID00009
p64
F16.0
F199.0
tp65
a(VID00027
p66
F217.0
F374.0
tp67
atp68
a(L28L
g7
(lp69
(VID00005
p70
I0
F5.0
tp71
a(VID00004
p72
F5.0
F11.0
tp73
a(VID00002
p74
F11.0
F16.0
tp75
a(VID00011
p76
F16.0
F181.0
tp77
a(VID00014
p78
F213.0
F215.0
tp79
a(VID00017
p80
F215.0
F217.0
tp81
a(VID00022
p82
F217.0
F410.0
tp83
atp84
atp85
a(F418.0
F6.93
(lp86
(L4L
g2
(lp87
(g34
F418.0
F418.0
tp88
atp89
a(L7L
g7
(lp90
(g9
I0
F6.0
tp91
a(g11
F11.0
F171.0
tp92
a(g23
F222.0
F224.0
tp93
a(g15
F226.0
F355.0
tp94
atp95
a(L8L
g2
(lp96
(g19
I0
F11.0
tp97
a(g40
F11.0
F215.0
tp98
a(g25
F222.0
F225.0
tp99
a(g27
F225.0
F228.0
tp100
a(g29
F228.0
F416.0
tp101
atp102
a(L17L
g7
(lp103
(g21
F6.0
F114.0
tp104
a(g42
F114.0
F220.0
tp105
a(g13
F222.0
F224.0
tp106
a(g80
F224.0
F226.0
tp107
a(g44
F226.0
F415.0
tp108
atp109
a(L21L
g7
(lp110
(g4
I0
F0.0
tp111
atp112
a(L22L
g7
(lp113
(g38
I0
F5.0
tp114
a(g48
F5.0
F213.0
tp115
a(g52
F222.0
F224.0
tp116
a(g54
F224.0
F303.0
tp117
a(g56
F303.0
F415.0
tp118
atp119
a(L25L
g7
(lp120
(g62
I0
F6.0
tp121
a(g64
F16.0
F199.0
tp122
a(g66
F224.0
F381.0
tp123
atp124
a(L28L
g7
(lp125
(g70
I0
F5.0
tp126
a(g72
F5.0
F11.0
tp127
a(g74
F11.0
F16.0
tp128
a(g76
F16.0
F181.0
tp129
a(g78
F220.0
F222.0
tp130
a(g50
F222.0
F224.0
tp131
a(g82
F224.0
F417.0
tp132
a(g58
F417.0
F418.0
tp133
atp134
atp135
a(F502.0
F6.3
(lp136
(L0L
Vapac-sin#m3.medium
p137
(lp138
(g4
I0
F0.0
tp139
atp140
a(L2L
g2
(lp141
(g21
F12.0
F228.0
tp142
a(g56
F276.0
F501.0
tp143
atp144
a(L8L
g2
(lp145
(g19
I0
F11.0
tp146
a(g74
F11.0
F22.0
tp147
a(g40
F22.0
F226.0
tp148
a(g50
F274.0
F278.0
tp149
a(g27
F278.0
F281.0
tp150
a(g29
F281.0
F469.0
tp151
atp152
a(L17L
g7
(lp153
(g70
I0
F5.0
tp154
a(g48
F17.0
F225.0
tp155
a(g13
F274.0
F276.0
tp156
a(g25
F276.0
F278.0
tp157
a(g44
F278.0
F467.0
tp158
atp159
a(L22L
g7
(lp160
(g72
I0
F6.0
tp161
a(g42
F6.0
F112.0
tp162
a(g11
F112.0
F272.0
tp163
a(g23
F274.0
F276.0
tp164
a(g15
F276.0
F405.0
tp165
a(g52
F405.0
F407.0
tp166
a(g54
F407.0
F486.0
tp167
a(g58
F501.0
F502.0
tp168
atp169
a(L25L
g7
(lp170
(g64
F22.0
F205.0
tp171
a(g66
F276.0
F433.0
tp172
a(g34
F502.0
F502.0
tp173
atp174
a(L28L
g7
(lp175
(g62
I0
F6.0
tp176
a(g9
F6.0
F12.0
tp177
a(g38
F12.0
F17.0
tp178
a(g76
F17.0
F182.0
tp179
a(g78
F272.0
F274.0
tp180
a(g80
F274.0
F276.0
tp181
a(g82
F278.0
F471.0
tp182
atp183
atp184
a(F525.0
F5.67
(lp185
(L8L
g2
(lp186
(g38
I0
F11.0
tp187
a(g74
F11.0
F22.0
tp188
a(g40
F22.0
F226.0
tp189
a(g23
F281.0
F284.0
tp190
a(g50
F284.0
F288.0
tp191
a(g52
F288.0
F291.0
tp192
a(g27
F291.0
F294.0
tp193
a(g29
F294.0
F482.0
tp194
atp195
a(L17L
g7
(lp196
(g9
I0
F6.0
tp197
a(g48
F11.0
F219.0
tp198
a(g25
F281.0
F283.0
tp199
a(g44
F283.0
F472.0
tp200
atp201
a(L18L
Vapac-sin#m1.large
p202
(lp203
(g4
I0
F0.0
tp204
atp205
a(L22L
g7
(lp206
(g70
I0
F5.0
tp207
a(g72
F5.0
F11.0
tp208
a(g42
F11.0
F117.0
tp209
a(g11
F117.0
F277.0
tp210
a(g80
F281.0
F283.0
tp211
a(g15
F283.0
F412.0
tp212
a(g56
F412.0
F524.0
tp213
a(g58
F524.0
F525.0
tp214
atp215
a(L25L
g7
(lp216
(g62
I0
F6.0
tp217
a(g19
F6.0
F11.0
tp218
a(g64
F22.0
F205.0
tp219
a(g66
F284.0
F441.0
tp220
a(g54
F441.0
F520.0
tp221
atp222
a(L26L
g137
(lp223
(g34
F525.0
F525.0
tp224
atp225
a(L28L
g7
(lp226
(g21
F6.0
F114.0
tp227
a(g76
F114.0
F279.0
tp228
a(g78
F279.0
F281.0
tp229
a(g13
F281.0
F283.0
tp230
a(g82
F288.0
F481.0
tp231
atp232
atp233
a(F581.0
F5.04
(lp234
(L2L
g2
(lp235
(g4
I0
F0.0
tp236
atp237
a(L4L
g2
(lp238
(g34
F581.0
F581.0
tp239
atp240
a(L17L
g7
(lp241
(g70
I0
F5.0
tp242
a(g72
F5.0
F11.0
tp243
a(g38
F11.0
F16.0
tp244
a(g48
F16.0
F224.0
tp245
a(g25
F292.0
F294.0
tp246
a(g44
F294.0
F483.0
tp247
a(g52
F483.0
F485.0
tp248
a(g54
F485.0
F564.0
tp249
atp250
a(L22L
g7
(lp251
(g62
I0
F6.0
tp252
a(g9
F6.0
F12.0
tp253
a(g19
F12.0
F17.0
tp254
a(g42
F17.0
F123.0
tp255
a(g11
F123.0
F283.0
tp256
a(g13
F292.0
F294.0
tp257
a(g27
F294.0
F296.0
tp258
a(g29
F296.0
F390.0
tp259
a(g56
F390.0
F502.0
tp260
atp261
a(L25L
g7
(lp262
(g64
F5.0
F188.0
tp263
a(g40
F188.0
F290.0
tp264
a(g78
F290.0
F292.0
tp265
a(g23
F292.0
F294.0
tp266
a(g66
F294.0
F451.0
tp267
a(g15
F451.0
F580.0
tp268
atp269
a(L28L
g7
(lp270
(g74
I0
F5.0
tp271
a(g21
F12.0
F120.0
tp272
a(g76
F120.0
F285.0
tp273
a(g80
F292.0
F294.0
tp274
a(g50
F294.0
F296.0
tp275
a(g82
F296.0
F489.0
tp276
a(g58
F580.0
F581.0
tp277
atp278
atp279
a(F694.0
F4.41
(lp280
(L17L
g7
(lp281
(g70
I0
F5.0
tp282
a(g72
F5.0
F11.0
tp283
a(g48
F17.0
F225.0
tp284
a(g42
F225.0
F331.0
tp285
a(g80
F373.0
F375.0
tp286
a(g15
F375.0
F504.0
tp287
a(g44
F504.0
F693.0
tp288
atp289
a(L22L
g7
(lp290
(g62
I0
F6.0
tp291
a(g9
F6.0
F12.0
tp292
a(g38
F12.0
F17.0
tp293
a(g19
F17.0
F22.0
tp294
a(g40
F22.0
F124.0
tp295
a(g11
F124.0
F284.0
tp296
a(g52
F373.0
F375.0
tp297
a(g54
F375.0
F454.0
tp298
a(g27
F454.0
F456.0
tp299
a(g29
F456.0
F550.0
tp300
a(g56
F550.0
F662.0
tp301
a(g58
F693.0
F694.0
tp302
atp303
a(L24L
Vapac-sin#m3.large
p304
(lp305
(g34
F694.0
F694.0
tp306
atp307
a(L25L
g2
(lp308
(g64
F5.0
F371.0
tp309
a(g66
F375.0
F689.0
tp310
atp311
a(L28L
g7
(lp312
(g74
I0
F5.0
tp313
a(g21
F12.0
F120.0
tp314
a(g76
F120.0
F285.0
tp315
a(g78
F371.0
F373.0
tp316
a(g23
F373.0
F375.0
tp317
a(g13
F375.0
F377.0
tp318
a(g25
F377.0
F379.0
tp319
a(g50
F379.0
F381.0
tp320
a(g82
F381.0
F574.0
tp321
atp322
a(L31L
g7
(lp323
(g4
I0
F0.0
tp324
atp325
atp326
a(F763.0
F3.78
(lp327
(L8L
g2
(lp328
(g4
I0
F0.0
tp329
atp330
a(L17L
g2
(lp331
(g70
I0
F11.0
tp332
a(g72
F11.0
F22.0
tp333
a(g62
F22.0
F33.0
tp334
a(g19
F33.0
F44.0
tp335
a(g42
F44.0
F256.0
tp336
a(g44
F385.0
F762.0
tp337
atp338
a(L22L
g7
(lp339
(g9
I0
F6.0
tp340
a(g48
F11.0
F219.0
tp341
a(g11
F219.0
F379.0
tp342
a(g25
F383.0
F385.0
tp343
a(g52
F385.0
F387.0
tp344
a(g54
F387.0
F466.0
tp345
a(g27
F466.0
F468.0
tp346
a(g29
F468.0
F562.0
tp347
a(g56
F562.0
F674.0
tp348
a(g58
F762.0
F763.0
tp349
atp350
a(L24L
g137
(lp351
(g34
F763.0
F763.0
tp352
atp353
a(L25L
g2
(lp354
(g38
I0
F11.0
tp355
a(g64
F11.0
F377.0
tp356
a(g23
F383.0
F386.0
tp357
a(g66
F386.0
F700.0
tp358
atp359
a(L28L
g7
(lp360
(g74
I0
F5.0
tp361
a(g21
F6.0
F114.0
tp362
a(g40
F114.0
F216.0
tp363
a(g76
F216.0
F381.0
tp364
a(g78
F381.0
F383.0
tp365
a(g13
F383.0
F385.0
tp366
a(g80
F385.0
F387.0
tp367
a(g15
F387.0
F516.0
tp368
a(g50
F516.0
F518.0
tp369
a(g82
F518.0
F711.0
tp370
atp371
atp372
a(F822.0
F3.46
(lp373
(L8L
g304
(lp374
(g62
I0
F22.0
tp375
a(g40
F22.0
F431.0
tp376
a(g27
F436.0
F442.0
tp377
a(g29
F442.0
F818.0
tp378
atp379
a(L25L
g2
(lp380
(g4
I0
F0.0
tp381
a(g72
I0
F11.0
tp382
a(g19
F11.0
F22.0
tp383
a(g64
F22.0
F388.0
tp384
a(g66
F438.0
F752.0
tp385
atp386
a(L28L
g7
(lp387
(g9
I0
F6.0
tp388
a(g38
F6.0
F11.0
tp389
a(g74
F11.0
F16.0
tp390
a(g11
F22.0
F182.0
tp391
a(g76
F182.0
F347.0
tp392
a(g78
F434.0
F436.0
tp393
a(g23
F436.0
F438.0
tp394
a(g13
F438.0
F440.0
tp395
a(g15
F440.0
F569.0
tp396
a(g50
F569.0
F571.0
tp397
a(g82
F571.0
F764.0
tp398
a(g58
F821.0
F822.0
tp399
a(g34
F822.0
F822.0
tp400
atp401
a(L22L
g2
(lp402
(g70
I0
F11.0
tp403
a(g48
F11.0
F426.0
tp404
a(g52
F436.0
F439.0
tp405
a(g54
F439.0
F596.0
tp406
a(g56
F596.0
F821.0
tp407
atp408
a(L17L
g2
(lp409
(g21
F6.0
F222.0
tp410
a(g42
F222.0
F434.0
tp411
a(g80
F436.0
F439.0
tp412
a(g25
F439.0
F442.0
tp413
a(g44
F442.0
F819.0
tp414
atp415
atp416
a(F948.0
F3.15
(lp417
(L5L
g2
(lp418
(g4
I0
F0.0
tp419
atp420
a(L10L
g304
(lp421
(g34
F948.0
F948.0
tp422
atp423
a(L17L
g7
(lp424
(g70
I0
F5.0
tp425
a(g38
F5.0
F10.0
tp426
a(g48
F10.0
F218.0
tp427
a(g21
F218.0
F326.0
tp428
a(g42
F326.0
F432.0
tp429
a(g78
F529.0
F531.0
tp430
a(g80
F531.0
F533.0
tp431
a(g15
F533.0
F662.0
tp432
a(g44
F662.0
F851.0
tp433
a(g54
F851.0
F930.0
tp434
a(g58
F947.0
F948.0
tp435
atp436
a(L22L
g2
(lp437
(g40
F5.0
F209.0
tp438
a(g11
F209.0
F529.0
tp439
a(g27
F531.0
F534.0
tp440
a(g29
F534.0
F722.0
tp441
a(g56
F722.0
F947.0
tp442
atp443
a(L25L
g2
(lp444
(g9
I0
F11.0
tp445
a(g64
F44.0
F410.0
tp446
a(g66
F534.0
F848.0
tp447
a(g52
F848.0
F851.0
tp448
atp449
a(L28L
g2
(lp450
(g72
I0
F11.0
tp451
a(g62
F11.0
F22.0
tp452
a(g19
F22.0
F33.0
tp453
a(g74
F33.0
F44.0
tp454
a(g76
F44.0
F373.0
tp455
a(g23
F531.0
F534.0
tp456
a(g13
F534.0
F537.0
tp457
a(g25
F537.0
F540.0
tp458
a(g50
F540.0
F544.0
tp459
a(g82
F544.0
F929.0
tp460
atp461
atp462
a(F1047.0
F2.83
(lp463
(L8L
g304
(lp464
(g40
F11.0
F420.0
tp465
a(g52
F559.0
F565.0
tp466
a(g27
F565.0
F571.0
tp467
a(g29
F571.0
F947.0
tp468
atp469
a(L11L
g137
(lp470
(g4
I0
F0.0
tp471
atp472
a(L17L
g2
(lp473
(g9
I0
F11.0
tp474
a(g38
F11.0
F22.0
tp475
a(g48
F22.0
F437.0
tp476
a(g78
F556.0
F559.0
tp477
a(g25
F559.0
F562.0
tp478
a(g44
F562.0
F939.0
tp479
atp480
a(L22L
g2
(lp481
(g70
I0
F11.0
tp482
a(g42
F11.0
F223.0
tp483
a(g11
F223.0
F543.0
tp484
a(g80
F559.0
F562.0
tp485
a(g15
F562.0
F819.0
tp486
a(g56
F819.0
F1044.0
tp487
a(g58
F1044.0
F1047.0
tp488
atp489
a(L24L
Vapac-sin#m1.xlarge
p490
(lp491
(g34
F1047.0
F1047.0
tp492
atp493
a(L25L
g2
(lp494
(g62
I0
F11.0
tp495
a(g19
F11.0
F22.0
tp496
a(g74
F22.0
F33.0
tp497
a(g64
F33.0
F399.0
tp498
a(g66
F562.0
F876.0
tp499
a(g54
F876.0
F1033.0
tp500
atp501
a(L28L
g2
(lp502
(g72
I0
F11.0
tp503
a(g21
F11.0
F227.0
tp504
a(g76
F227.0
F556.0
tp505
a(g23
F559.0
F562.0
tp506
a(g13
F562.0
F565.0
tp507
a(g50
F565.0
F569.0
tp508
a(g82
F569.0
F954.0
tp509
atp510
atp511
a(F1161.0
F2.52
(lp512
(L17L
g2
(lp513
(g70
I0
F11.0
tp514
a(g72
F11.0
F22.0
tp515
a(g38
F22.0
F33.0
tp516
a(g48
F33.0
F448.0
tp517
a(g25
F584.0
F587.0
tp518
a(g44
F587.0
F964.0
tp519
a(g52
F964.0
F967.0
tp520
a(g54
F967.0
F1124.0
tp521
atp522
a(L18L
g202
(lp523
(g4
I0
F0.0
tp524
atp525
a(L22L
g2
(lp526
(g62
I0
F11.0
tp527
a(g9
F11.0
F22.0
tp528
a(g19
F22.0
F33.0
tp529
a(g42
F33.0
F245.0
tp530
a(g11
F245.0
F565.0
tp531
a(g13
F584.0
F587.0
tp532
a(g27
F587.0
F590.0
tp533
a(g29
F590.0
F778.0
tp534
a(g56
F778.0
F1003.0
tp535
atp536
a(L25L
g2
(lp537
(g64
F11.0
F377.0
tp538
a(g40
F377.0
F581.0
tp539
a(g78
F581.0
F584.0
tp540
a(g23
F584.0
F587.0
tp541
a(g66
F587.0
F901.0
tp542
a(g15
F901.0
F1158.0
tp543
atp544
a(L27L
g202
(lp545
(g34
F1161.0
F1161.0
tp546
atp547
a(L28L
g2
(lp548
(g74
I0
F11.0
tp549
a(g21
F22.0
F238.0
tp550
a(g76
F238.0
F567.0
tp551
a(g80
F584.0
F587.0
tp552
a(g50
F587.0
F591.0
tp553
a(g82
F591.0
F976.0
tp554
a(g58
F1158.0
F1161.0
tp555
atp556
atp557
a(F1386.0
F2.2
(lp558
(L17L
g2
(lp559
(g70
I0
F11.0
tp560
a(g72
F11.0
F22.0
tp561
a(g48
F33.0
F448.0
tp562
a(g42
F448.0
F660.0
tp563
a(g80
F746.0
F749.0
tp564
a(g15
F749.0
F1006.0
tp565
a(g44
F1006.0
F1383.0
tp566
atp567
a(L22L
g2
(lp568
(g62
I0
F11.0
tp569
a(g9
F11.0
F22.0
tp570
a(g38
F22.0
F33.0
tp571
a(g19
F33.0
F44.0
tp572
a(g40
F44.0
F248.0
tp573
a(g11
F248.0
F568.0
tp574
a(g52
F746.0
F749.0
tp575
a(g54
F749.0
F906.0
tp576
a(g27
F906.0
F909.0
tp577
a(g29
F909.0
F1097.0
tp578
a(g56
F1097.0
F1322.0
tp579
a(g58
F1383.0
F1386.0
tp580
atp581
a(L24L
g32
(lp582
(g34
F1386.0
F1386.0
tp583
atp584
a(L25L
g304
(lp585
(g64
F11.0
F743.0
tp586
a(g66
F749.0
F1377.0
tp587
atp588
a(L28L
g2
(lp589
(g74
I0
F11.0
tp590
a(g21
F22.0
F238.0
tp591
a(g76
F238.0
F567.0
tp592
a(g78
F743.0
F746.0
tp593
a(g23
F746.0
F749.0
tp594
a(g13
F749.0
F752.0
tp595
a(g25
F752.0
F755.0
tp596
a(g50
F755.0
F759.0
tp597
a(g82
F759.0
F1144.0
tp598
atp599
a(L31L
g7
(lp600
(g4
I0
F0.0
tp601
atp602
atp603
a(F1523.0
F1.89
(lp604
(L6L
g2
(lp605
(g4
I0
F0.0
tp606
atp607
a(L17L
g304
(lp608
(g70
I0
F22.0
tp609
a(g72
F22.0
F44.0
tp610
a(g62
F44.0
F66.0
tp611
a(g19
F66.0
F88.0
tp612
a(g42
F88.0
F512.0
tp613
a(g44
F766.0
F1520.0
tp614
atp615
a(L22L
g2
(lp616
(g9
I0
F11.0
tp617
a(g48
F22.0
F437.0
tp618
a(g11
F437.0
F757.0
tp619
a(g25
F763.0
F766.0
tp620
a(g52
F766.0
F769.0
tp621
a(g54
F769.0
F926.0
tp622
a(g27
F926.0
F929.0
tp623
a(g29
F929.0
F1117.0
tp624
a(g56
F1117.0
F1342.0
tp625
a(g58
F1520.0
F1523.0
tp626
atp627
a(L24L
g32
(lp628
(g34
F1523.0
F1523.0
tp629
atp630
a(L25L
g304
(lp631
(g38
I0
F22.0
tp632
a(g64
F22.0
F754.0
tp633
a(g23
F763.0
F770.0
tp634
a(g66
F770.0
F1398.0
tp635
atp636
a(L28L
g2
(lp637
(g74
I0
F11.0
tp638
a(g21
F11.0
F227.0
tp639
a(g40
F227.0
F431.0
tp640
a(g76
F431.0
F760.0
tp641
a(g78
F760.0
F763.0
tp642
a(g13
F763.0
F766.0
tp643
a(g80
F766.0
F769.0
tp644
a(g15
F769.0
F1026.0
tp645
a(g50
F1026.0
F1030.0
tp646
a(g82
F1030.0
F1415.0
tp647
atp648
atp649
a(F1685.0
F1.81
(lp650
(L0L
g137
(lp651
(g4
I0
F0.0
tp652
atp653
a(L3L
g137
(lp654
(g54
F946.0
F1628.0
tp655
atp656
a(L4L
g32
(lp657
(g52
F904.0
F946.0
tp658
a(g27
F946.0
F986.0
tp659
atp660
a(L17L
g304
(lp661
(g70
I0
F22.0
tp662
a(g72
F22.0
F44.0
tp663
a(g62
F44.0
F66.0
tp664
a(g48
F66.0
F896.0
tp665
a(g13
F904.0
F910.0
tp666
a(g25
F910.0
F917.0
tp667
a(g44
F917.0
F1671.0
tp668
atp669
a(L20L
g490
(lp670
(g34
F1685.0
F1685.0
tp671
atp672
a(L22L
g2
(lp673
(g74
I0
F11.0
tp674
a(g64
F11.0
F377.0
tp675
a(g40
F377.0
F581.0
tp676
a(g11
F581.0
F901.0
tp677
a(g78
F901.0
F904.0
tp678
a(g23
F904.0
F907.0
tp679
a(g80
F907.0
F910.0
tp680
a(g15
F910.0
F1167.0
tp681
a(g29
F1167.0
F1355.0
tp682
a(g56
F1355.0
F1580.0
tp683
a(g58
F1682.0
F1685.0
tp684
atp685
a(L25L
g304
(lp686
(g9
I0
F22.0
tp687
a(g19
F22.0
F44.0
tp688
a(g21
F44.0
F475.0
tp689
a(g42
F475.0
F899.0
tp690
a(g66
F907.0
F1535.0
tp691
atp692
a(L28L
g304
(lp693
(g38
I0
F22.0
tp694
a(g76
F44.0
F703.0
tp695
a(g50
F904.0
F911.0
tp696
a(g82
F911.0
F1682.0
tp697
atp698
atp699
a(F1731.0
F1.73
(lp700
(L4L
g2
(lp701
(g4
I0
F0.0
tp702
atp703
a(L8L
g137
(lp704
(g40
F11.0
F897.0
tp705
a(g27
F900.0
F913.0
tp706
a(g29
F913.0
F1728.0
tp707
a(g34
F1731.0
F1731.0
tp708
atp709
a(L17L
g304
(lp710
(g72
I0
F22.0
tp711
a(g21
F33.0
F464.0
tp712
a(g42
F464.0
F888.0
tp713
a(g44
F920.0
F1674.0
tp714
atp715
a(L22L
g2
(lp716
(g70
I0
F11.0
tp717
a(g62
F11.0
F22.0
tp718
a(g9
F22.0
F33.0
tp719
a(g38
F33.0
F44.0
tp720
a(g48
F44.0
F459.0
tp721
a(g19
F459.0
F470.0
tp722
a(g11
F470.0
F790.0
tp723
a(g78
F897.0
F900.0
tp724
a(g13
F900.0
F903.0
tp725
a(g15
F913.0
F1170.0
tp726
a(g52
F1170.0
F1173.0
tp727
a(g54
F1173.0
F1330.0
tp728
a(g56
F1330.0
F1555.0
tp729
a(g58
F1728.0
F1731.0
tp730
atp731
a(L25L
g304
(lp732
(g64
F22.0
F754.0
tp733
a(g66
F907.0
F1535.0
tp734
atp735
a(L28L
g304
(lp736
(g74
I0
F22.0
tp737
a(g76
F22.0
F681.0
tp738
a(g23
F900.0
F907.0
tp739
a(g80
F907.0
F913.0
tp740
a(g25
F913.0
F920.0
tp741
a(g50
F920.0
F927.0
tp742
a(g82
F927.0
F1698.0
tp743
atp744
atp745
a(F1740.0
F1.65
(lp746
(L0L
g137
(lp747
(g4
I0
F0.0
tp748
atp749
a(L4L
g32
(lp750
(g52
F904.0
F946.0
tp751
a(g27
F946.0
F986.0
tp752
atp753
a(L17L
g304
(lp754
(g70
I0
F22.0
tp755
a(g72
F22.0
F44.0
tp756
a(g62
F44.0
F66.0
tp757
a(g48
F66.0
F896.0
tp758
a(g13
F904.0
F910.0
tp759
a(g25
F910.0
F917.0
tp760
a(g44
F917.0
F1671.0
tp761
atp762
a(L20L
g490
(lp763
(g34
F1740.0
F1740.0
tp764
atp765
a(L22L
g2
(lp766
(g74
I0
F11.0
tp767
a(g64
F11.0
F377.0
tp768
a(g40
F377.0
F581.0
tp769
a(g11
F581.0
F901.0
tp770
a(g78
F901.0
F904.0
tp771
a(g23
F904.0
F907.0
tp772
a(g15
F910.0
F1167.0
tp773
a(g54
F1167.0
F1324.0
tp774
a(g29
F1324.0
F1512.0
tp775
a(g56
F1512.0
F1737.0
tp776
a(g58
F1737.0
F1740.0
tp777
atp778
a(L25L
g304
(lp779
(g9
I0
F22.0
tp780
a(g19
F22.0
F44.0
tp781
a(g21
F44.0
F475.0
tp782
a(g42
F475.0
F899.0
tp783
a(g66
F907.0
F1535.0
tp784
atp785
a(L28L
g304
(lp786
(g38
I0
F22.0
tp787
a(g76
F44.0
F703.0
tp788
a(g80
F904.0
F910.0
tp789
a(g50
F910.0
F917.0
tp790
a(g82
F917.0
F1688.0
tp791
atp792
atp793
a(F1743.0
F1.57
(lp794
(L4L
g2
(lp795
(g34
F1743.0
F1743.0
tp796
atp797
a(L5L
g2
(lp798
(g4
I0
F0.0
tp799
atp800
a(L17L
g304
(lp801
(g70
I0
F22.0
tp802
a(g38
F22.0
F44.0
tp803
a(g48
F44.0
F874.0
tp804
a(g13
F904.0
F910.0
tp805
a(g25
F910.0
F917.0
tp806
a(g44
F917.0
F1671.0
tp807
atp808
a(L22L
g2
(lp809
(g74
I0
F11.0
tp810
a(g64
F11.0
F377.0
tp811
a(g40
F377.0
F581.0
tp812
a(g11
F581.0
F901.0
tp813
a(g78
F901.0
F904.0
tp814
a(g80
F904.0
F907.0
tp815
a(g15
F907.0
F1164.0
tp816
a(g52
F1164.0
F1167.0
tp817
a(g54
F1167.0
F1324.0
tp818
a(g27
F1324.0
F1327.0
tp819
a(g29
F1327.0
F1515.0
tp820
a(g56
F1515.0
F1740.0
tp821
a(g58
F1740.0
F1743.0
tp822
atp823
a(L25L
g304
(lp824
(g9
I0
F22.0
tp825
a(g19
F22.0
F44.0
tp826
a(g21
F44.0
F475.0
tp827
a(g42
F475.0
F899.0
tp828
a(g66
F911.0
F1539.0
tp829
atp830
a(L28L
g304
(lp831
(g72
I0
F22.0
tp832
a(g62
F22.0
F44.0
tp833
a(g76
F44.0
F703.0
tp834
a(g23
F904.0
F911.0
tp835
a(g50
F911.0
F918.0
tp836
a(g82
F918.0
F1689.0
tp837
atp838
atp839
a(F2095.0
F1.42
(lp840
(L5L
g137
(lp841
(g34
F2095.0
F2095.0
tp842
atp843
a(L8L
g137
(lp844
(g70
I0
F47.0
tp845
a(g40
F47.0
F933.0
tp846
a(g23
F1119.0
F1133.0
tp847
a(g13
F1133.0
F1147.0
tp848
a(g50
F1147.0
F1162.0
tp849
a(g52
F1162.0
F1176.0
tp850
a(g27
F1176.0
F1189.0
tp851
a(g29
F1189.0
F2004.0
tp852
atp853
a(L17L
g304
(lp854
(g62
I0
F22.0
tp855
a(g38
F22.0
F44.0
tp856
a(g48
F44.0
F874.0
tp857
a(g44
F1132.0
F1886.0
tp858
atp859
a(L22L
g304
(lp860
(g72
I0
F22.0
tp861
a(g19
F22.0
F44.0
tp862
a(g42
F44.0
F468.0
tp863
a(g11
F468.0
F1107.0
tp864
a(g15
F1125.0
F1640.0
tp865
a(g56
F1640.0
F2089.0
tp866
a(g58
F2089.0
F2095.0
tp867
atp868
a(L25L
g304
(lp869
(g9
I0
F22.0
tp870
a(g64
F22.0
F754.0
tp871
a(g66
F1133.0
F1761.0
tp872
a(g54
F1761.0
F2076.0
tp873
atp874
a(L28L
g304
(lp875
(g74
I0
F22.0
tp876
a(g21
F22.0
F453.0
tp877
a(g76
F453.0
F1112.0
tp878
a(g78
F1112.0
F1119.0
tp879
a(g80
F1119.0
F1125.0
tp880
a(g25
F1125.0
F1132.0
tp881
a(g82
F1162.0
F1933.0
tp882
atp883
a(L31L
g304
(lp884
(g4
I0
F0.0
tp885
atp886
atp887
a(F2326.0
F1.26
(lp888
(L4L
g304
(lp889
(g4
I0
F0.0
tp890
atp891
a(L17L
g304
(lp892
(g72
I0
F22.0
tp893
a(g38
F22.0
F44.0
tp894
a(g48
F44.0
F874.0
tp895
a(g23
F1170.0
F1177.0
tp896
a(g44
F1177.0
F1931.0
tp897
a(g52
F1931.0
F1937.0
tp898
a(g54
F1937.0
F2252.0
tp899
atp900
a(L22L
g304
(lp901
(g70
I0
F22.0
tp902
a(g62
F22.0
F44.0
tp903
a(g9
F44.0
F66.0
tp904
a(g19
F66.0
F88.0
tp905
a(g42
F88.0
F512.0
tp906
a(g11
F512.0
F1151.0
tp907
a(g13
F1170.0
F1176.0
tp908
a(g80
F1176.0
F1182.0
tp909
a(g50
F1182.0
F1189.0
tp910
a(g27
F1189.0
F1195.0
tp911
a(g29
F1195.0
F1571.0
tp912
a(g56
F1571.0
F2020.0
tp913
a(g58
F2320.0
F2326.0
tp914
atp915
a(L24L
g202
(lp916
(g34
F2326.0
F2326.0
tp917
atp918
a(L25L
g304
(lp919
(g64
F22.0
F754.0
tp920
a(g40
F754.0
F1163.0
tp921
a(g78
F1163.0
F1170.0
tp922
a(g66
F1177.0
F1805.0
tp923
a(g15
F1805.0
F2320.0
tp924
atp925
a(L28L
g304
(lp926
(g74
I0
F22.0
tp927
a(g21
F66.0
F497.0
tp928
a(g76
F497.0
F1156.0
tp929
a(g25
F1170.0
F1177.0
tp930
a(g82
F1189.0
F1960.0
tp931
atp932
atp933
a.