(lp0
(F416.0
F29.45
(lp1
(L1L
Vapac-sin#m3.2xlarge
p2
(lp3
(VID00020
p4
I0
F6.0
tp5
a(VID00029
p6
F6.0
F78.0
tp7
a(VID00041
p8
F78.0
F217.0
tp9
a(VID00067
p10
F219.0
F221.0
tp11
a(VID00048
p12
F221.0
F222.0
tp13
a(VID00069
p14
F222.0
F224.0
tp15
a(VID00093
p16
F224.0
F378.0
tp17
atp18
a(L13L
g2
(lp19
(VID00035
p20
F22.0
F126.0
tp21
a(VID00060
p22
F219.0
F221.0
tp23
a(VID00062
p24
F221.0
F222.0
tp25
a(VID00063
p26
F222.0
F224.0
tp27
a(VID00070
p28
F224.0
F226.0
tp29
a(VID00094
p30
F226.0
F362.0
tp31
atp32
a(L14L
Vapac-sin#m3.xlarge
p33
(lp34
(VID00014
p35
I0
F12.0
tp36
a(VID00068
p37
F219.0
F222.0
tp38
a(VID00091
p39
F222.0
F411.0
tp40
atp41
a(L19L
g2
(lp42
(VID00030
p43
F6.0
F155.0
tp44
a(VID00097
p45
F414.0
F416.0
tp46
atp47
a(L27L
g2
(lp48
(VID00000
p49
I0
F5.0
tp50
a(VID00003
p51
F5.0
F11.0
tp52
a(VID00008
p53
F11.0
F17.0
tp54
a(VID00033
p55
F18.0
F109.0
tp56
a(VID00076
p57
F184.0
F331.0
tp58
atp59
a(L29L
g2
(lp60
(VID00011
p61
I0
F5.0
tp62
a(VID00038
p63
F50.0
F160.0
tp64
a(VID00047
p65
F217.0
F219.0
tp66
a(VID00092
p67
F222.0
F327.0
tp68
atp69
a(L32L
g2
(lp70
(VID00007
p71
I0
F6.0
tp72
a(VID00013
p73
F6.0
F12.0
tp74
a(VID00010
p75
F12.0
F18.0
tp76
a(VID00037
p77
F18.0
F180.0
tp78
a(VID00065
p79
F219.0
F221.0
tp80
a(VID00085
p81
F221.0
F414.0
tp82
a(VID00098
p83
F414.0
F416.0
tp84
atp85
a(L34L
g33
(lp86
(VID00034
p87
F5.0
F216.0
tp88
atp89
a(L35L
g33
(lp90
(S'exit'
p91
F416.0
F416.0
tp92
atp93
a(L40L
g2
(lp94
(VID00027
p95
F6.0
F112.0
tp96
a(VID00046
p97
F180.0
F182.0
tp98
a(VID00083
p99
F184.0
F314.0
tp100
atp101
a(L43L
g33
(lp102
(VID00040
p103
F6.0
F217.0
tp104
atp105
a(L44L
g2
(lp106
(VID00043
p107
F6.0
F174.0
tp108
a(VID00052
p109
F182.0
F184.0
tp110
a(VID00078
p111
F184.0
F338.0
tp112
atp113
a(L45L
g2
(lp114
(VID00045
p115
F6.0
F165.0
tp116
a(VID00059
p117
F182.0
F184.0
tp118
a(VID00051
p119
F184.0
F186.0
tp120
a(VID00075
p121
F186.0
F376.0
tp122
atp123
a(L46L
g2
(lp124
(VID00017
p125
I0
F6.0
tp126
a(VID00018
p127
F6.0
F11.0
tp128
a(VID00019
p129
F11.0
F17.0
tp130
a(VID00072
p131
F222.0
F224.0
tp132
a(VID00096
p133
F224.0
F378.0
tp134
atp135
a(L48L
g2
(lp136
(VID00004
p137
I0
F6.0
tp138
a(VID00001
p139
F6.0
F12.0
tp140
a(VID00009
p141
F12.0
F18.0
tp142
a(VID00032
p143
F18.0
F149.0
tp144
a(VID00054
p145
F182.0
F183.0
tp146
a(VID00056
p147
F183.0
F185.0
tp148
a(VID00080
p149
F185.0
F271.0
tp150
a(VID00073
p151
F271.0
F410.0
tp152
atp153
a(L51L
g2
(lp154
(VID00023
p155
F5.0
F150.0
tp156
atp157
a(L52L
g2
(lp158
(VID00006
p159
I0
F6.0
tp160
a(VID00036
p161
F12.0
F180.0
tp162
a(VID00050
p163
F182.0
F184.0
tp164
a(VID00074
p165
F184.0
F365.0
tp166
atp167
a(L53L
g2
(lp168
(VID00016
p169
I0
F6.0
tp170
a(VID00039
p171
F6.0
F212.0
tp172
a(VID00066
p173
F219.0
F220.0
tp174
a(VID00090
p175
F220.0
F377.0
tp176
atp177
a(L55L
g2
(lp178
(VID00022
p179
I0
F6.0
tp180
a(VID00044
p181
F12.0
F141.0
tp182
a(VID00053
p183
F182.0
F183.0
tp184
a(VID00079
p185
F184.0
F275.0
tp186
a(VID00089
p187
F275.0
F409.0
tp188
atp189
a(L62L
g2
(lp190
(VID00002
p191
I0
F6.0
tp192
a(VID00025
p193
F6.0
F180.0
tp194
a(VID00057
p195
F182.0
F184.0
tp196
a(VID00086
p197
F222.0
F411.0
tp198
a(VID00099
p199
F411.0
F413.0
tp200
atp201
a(L63L
g2
(lp202
(VID00026
p203
F11.0
F148.0
tp204
a(VID00077
p205
F183.0
F314.0
tp206
a(VID00095
p207
F314.0
F393.0
tp208
atp209
a(L64L
Vapac-sin#m3.large
p210
(lp211
(VID00012
p212
I0
F22.0
tp213
a(VID00058
p214
F182.0
F187.0
tp215
a(VID00071
p216
F222.0
F228.0
tp217
atp218
a(L65L
Vapac-sin#m3.medium
p219
(lp220
(S'entry'
p221
I0
F0.0
tp222
atp223
a(L76L
g219
(lp224
(VID00015
p225
I0
F50.0
tp226
atp227
a(L78L
g2
(lp228
(VID00049
p229
F182.0
F184.0
tp230
a(VID00088
p231
F220.0
F320.0
tp232
atp233
a(L85L
g2
(lp234
(VID00005
p235
I0
F6.0
tp236
a(VID00024
p237
F12.0
F111.0
tp238
a(VID00055
p239
F182.0
F184.0
tp240
a(VID00064
p241
F219.0
F220.0
tp242
a(VID00061
p243
F220.0
F221.0
tp244
a(VID00087
p245
F224.0
F363.0
tp246
atp247
a(L87L
g33
(lp248
(VID00021
p249
I0
F12.0
tp250
a(VID00082
p251
F187.0
F414.0
tp252
atp253
a(L97L
g2
(lp254
(VID00028
p255
F6.0
F79.0
tp256
a(VID00031
p257
F79.0
F155.0
tp258
a(VID00081
p259
F184.0
F348.0
tp260
atp261
a(L99L
g2
(lp262
(VID00042
p263
F17.0
F187.0
tp264
a(VID00084
p265
F221.0
F375.0
tp266
atp267
atp268
a(F422.0
F28.51
(lp269
(L1L
g2
(lp270
(g4
I0
F6.0
tp271
a(g6
F6.0
F78.0
tp272
a(g225
F78.0
F84.0
tp273
a(g8
F84.0
F223.0
tp274
a(g10
F225.0
F227.0
tp275
a(g12
F227.0
F228.0
tp276
a(g14
F228.0
F230.0
tp277
a(g16
F230.0
F384.0
tp278
atp279
a(L13L
g2
(lp280
(g20
F48.0
F152.0
tp281
a(g22
F225.0
F227.0
tp282
a(g24
F227.0
F228.0
tp283
a(g26
F228.0
F230.0
tp284
a(g28
F230.0
F232.0
tp285
a(g30
F232.0
F368.0
tp286
atp287
a(L14L
g33
(lp288
(g35
I0
F12.0
tp289
a(g37
F225.0
F228.0
tp290
a(g39
F228.0
F417.0
tp291
atp292
a(L19L
g2
(lp293
(g43
F6.0
F155.0
tp294
atp295
a(L27L
g2
(lp296
(g49
I0
F5.0
tp297
a(g51
F5.0
F11.0
tp298
a(g53
F11.0
F17.0
tp299
a(g55
F17.0
F108.0
tp300
a(g57
F184.0
F331.0
tp301
atp302
a(L29L
g2
(lp303
(g61
I0
F5.0
tp304
a(g87
F5.0
F111.0
tp305
a(g63
F111.0
F221.0
tp306
a(g65
F223.0
F225.0
tp307
a(g67
F228.0
F333.0
tp308
atp309
a(L32L
g2
(lp310
(g71
I0
F6.0
tp311
a(g77
F12.0
F174.0
tp312
a(g79
F225.0
F227.0
tp313
a(g81
F227.0
F420.0
tp314
a(g83
F420.0
F422.0
tp315
atp316
a(L35L
g33
(lp317
(g91
F422.0
F422.0
tp318
atp319
a(L40L
g2
(lp320
(g95
F6.0
F112.0
tp321
a(g97
F180.0
F182.0
tp322
a(g117
F182.0
F184.0
tp323
a(g99
F184.0
F314.0
tp324
atp325
a(L44L
g2
(lp326
(g107
F6.0
F174.0
tp327
a(g109
F182.0
F184.0
tp328
a(g111
F184.0
F338.0
tp329
atp330
a(L45L
g2
(lp331
(g115
F6.0
F165.0
tp332
a(g119
F182.0
F184.0
tp333
a(g121
F184.0
F374.0
tp334
a(g45
F410.0
F412.0
tp335
atp336
a(L46L
g2
(lp337
(g125
I0
F6.0
tp338
a(g127
F6.0
F11.0
tp339
a(g129
F11.0
F17.0
tp340
a(g131
F228.0
F230.0
tp341
a(g133
F230.0
F384.0
tp342
atp343
a(L48L
g2
(lp344
(g137
I0
F6.0
tp345
a(g139
F6.0
F12.0
tp346
a(g141
F12.0
F18.0
tp347
a(g143
F18.0
F149.0
tp348
a(g145
F182.0
F183.0
tp349
a(g147
F183.0
F185.0
tp350
a(g149
F185.0
F271.0
tp351
a(g151
F271.0
F410.0
tp352
atp353
a(L51L
g2
(lp354
(g155
F5.0
F150.0
tp355
atp356
a(L52L
g2
(lp357
(g159
I0
F6.0
tp358
a(g161
F6.0
F174.0
tp359
a(g163
F182.0
F184.0
tp360
a(g165
F184.0
F365.0
tp361
atp362
a(L53L
g2
(lp363
(g73
I0
F6.0
tp364
a(g169
F6.0
F12.0
tp365
a(g171
F12.0
F218.0
tp366
a(g173
F225.0
F226.0
tp367
a(g175
F226.0
F383.0
tp368
atp369
a(L55L
g2
(lp370
(g179
I0
F6.0
tp371
a(g181
F12.0
F141.0
tp372
a(g214
F182.0
F183.0
tp373
a(g183
F183.0
F184.0
tp374
a(g185
F184.0
F275.0
tp375
a(g187
F275.0
F409.0
tp376
atp377
a(L62L
g2
(lp378
(g191
I0
F6.0
tp379
a(g193
F6.0
F180.0
tp380
a(g195
F182.0
F184.0
tp381
a(g197
F228.0
F417.0
tp382
a(g199
F417.0
F419.0
tp383
atp384
a(L63L
g2
(lp385
(g203
F11.0
F148.0
tp386
a(g205
F184.0
F315.0
tp387
a(g207
F315.0
F394.0
tp388
atp389
a(L64L
g219
(lp390
(g212
I0
F48.0
tp391
a(g216
F228.0
F242.0
tp392
atp393
a(L65L
Vapac-sin#m1.large
p394
(lp395
(g221
I0
F0.0
tp396
atp397
a(L71L
g33
(lp398
(g75
I0
F12.0
tp399
a(g103
F12.0
F223.0
tp400
atp401
a(L78L
g2
(lp402
(g229
F182.0
F184.0
tp403
a(g231
F226.0
F326.0
tp404
atp405
a(L85L
g2
(lp406
(g235
I0
F6.0
tp407
a(g237
F12.0
F111.0
tp408
a(g239
F182.0
F184.0
tp409
a(g241
F225.0
F226.0
tp410
a(g243
F226.0
F227.0
tp411
a(g245
F230.0
F369.0
tp412
atp413
a(L87L
g33
(lp414
(g249
I0
F12.0
tp415
a(g251
F183.0
F410.0
tp416
atp417
a(L97L
g2
(lp418
(g255
F6.0
F79.0
tp419
a(g257
F79.0
F155.0
tp420
a(g259
F184.0
F348.0
tp421
atp422
a(L99L
g2
(lp423
(g263
F17.0
F187.0
tp424
a(g265
F227.0
F381.0
tp425
atp426
atp427
a(F443.0
F27.25
(lp428
(L1L
g2
(lp429
(g6
F6.0
F78.0
tp430
a(g225
F78.0
F84.0
tp431
a(g8
F84.0
F223.0
tp432
a(g10
F246.0
F248.0
tp433
a(g12
F248.0
F249.0
tp434
a(g14
F249.0
F251.0
tp435
a(g16
F251.0
F405.0
tp436
atp437
a(L13L
g2
(lp438
(g235
I0
F6.0
tp439
a(g155
F6.0
F151.0
tp440
a(g22
F246.0
F248.0
tp441
a(g24
F248.0
F249.0
tp442
a(g26
F249.0
F251.0
tp443
a(g28
F251.0
F253.0
tp444
a(g30
F253.0
F389.0
tp445
atp446
a(L14L
g33
(lp447
(g35
I0
F12.0
tp448
a(g37
F246.0
F249.0
tp449
a(g39
F249.0
F438.0
tp450
atp451
a(L27L
g2
(lp452
(g53
I0
F6.0
tp453
a(g55
F12.0
F103.0
tp454
a(g57
F215.0
F362.0
tp455
atp456
a(L29L
g2
(lp457
(g49
I0
F5.0
tp458
a(g61
F5.0
F10.0
tp459
a(g87
F10.0
F116.0
tp460
a(g63
F116.0
F226.0
tp461
a(g65
F244.0
F246.0
tp462
a(g67
F249.0
F354.0
tp463
atp464
a(L32L
g2
(lp465
(g71
I0
F6.0
tp466
a(g257
F6.0
F82.0
tp467
a(g77
F82.0
F244.0
tp468
a(g79
F246.0
F248.0
tp469
a(g81
F248.0
F441.0
tp470
a(g83
F441.0
F443.0
tp471
atp472
a(L35L
g33
(lp473
(g91
F443.0
F443.0
tp474
atp475
a(L40L
g2
(lp476
(g255
F6.0
F79.0
tp477
a(g97
F211.0
F213.0
tp478
a(g117
F213.0
F215.0
tp479
a(g99
F215.0
F345.0
tp480
atp481
a(L44L
g2
(lp482
(g107
F6.0
F174.0
tp483
a(g109
F213.0
F215.0
tp484
a(g111
F215.0
F369.0
tp485
atp486
a(L45L
g2
(lp487
(g4
I0
F6.0
tp488
a(g115
F6.0
F165.0
tp489
a(g119
F213.0
F215.0
tp490
a(g121
F215.0
F405.0
tp491
a(g45
F441.0
F443.0
tp492
atp493
a(L46L
g2
(lp494
(g51
I0
F6.0
tp495
a(g125
F6.0
F12.0
tp496
a(g127
F12.0
F17.0
tp497
a(g129
F17.0
F23.0
tp498
a(g131
F249.0
F251.0
tp499
a(g133
F251.0
F405.0
tp500
atp501
a(L48L
g2
(lp502
(g141
I0
F6.0
tp503
a(g143
F6.0
F137.0
tp504
a(g145
F213.0
F214.0
tp505
a(g147
F214.0
F216.0
tp506
a(g149
F216.0
F302.0
tp507
a(g151
F302.0
F441.0
tp508
atp509
a(L52L
g2
(lp510
(g159
I0
F6.0
tp511
a(g161
F12.0
F180.0
tp512
a(g163
F213.0
F215.0
tp513
a(g165
F215.0
F396.0
tp514
atp515
a(L53L
g2
(lp516
(g139
I0
F6.0
tp517
a(g73
F6.0
F12.0
tp518
a(g169
F12.0
F18.0
tp519
a(g171
F18.0
F224.0
tp520
a(g173
F246.0
F247.0
tp521
a(g175
F247.0
F404.0
tp522
atp523
a(L55L
g2
(lp524
(g179
I0
F6.0
tp525
a(g181
F12.0
F141.0
tp526
a(g214
F213.0
F214.0
tp527
a(g183
F214.0
F215.0
tp528
a(g185
F215.0
F306.0
tp529
a(g187
F306.0
F440.0
tp530
atp531
a(L62L
g2
(lp532
(g191
I0
F6.0
tp533
a(g193
F6.0
F180.0
tp534
a(g195
F213.0
F215.0
tp535
a(g197
F249.0
F438.0
tp536
a(g199
F438.0
F440.0
tp537
atp538
a(L63L
g2
(lp539
(g203
F6.0
F143.0
tp540
a(g205
F215.0
F346.0
tp541
a(g207
F346.0
F425.0
tp542
atp543
a(L64L
g219
(lp544
(g212
I0
F48.0
tp545
a(g216
F249.0
F263.0
tp546
atp547
a(L71L
g33
(lp548
(g75
I0
F12.0
tp549
a(g103
F12.0
F223.0
tp550
atp551
a(L73L
g2
(lp552
(g20
F48.0
F152.0
tp553
atp554
a(L78L
g2
(lp555
(g229
F213.0
F215.0
tp556
a(g231
F247.0
F347.0
tp557
atp558
a(L85L
g2
(lp559
(g137
I0
F6.0
tp560
a(g95
F6.0
F112.0
tp561
a(g237
F112.0
F211.0
tp562
a(g239
F213.0
F215.0
tp563
a(g241
F246.0
F247.0
tp564
a(g243
F247.0
F248.0
tp565
a(g245
F251.0
F390.0
tp566
atp567
a(L87L
g33
(lp568
(g249
I0
F12.0
tp569
a(g251
F214.0
F441.0
tp570
atp571
a(L97L
g2
(lp572
(g221
I0
F0.0
tp573
a(g43
F6.0
F155.0
tp574
a(g259
F215.0
F379.0
tp575
atp576
a(L99L
g2
(lp577
(g263
F23.0
F193.0
tp578
a(g265
F248.0
F402.0
tp579
atp580
atp581
a(F448.0
F25.99
(lp582
(L1L
g2
(lp583
(g6
F23.0
F95.0
tp584
a(g225
F95.0
F101.0
tp585
a(g8
F101.0
F240.0
tp586
a(g10
F251.0
F253.0
tp587
a(g12
F253.0
F254.0
tp588
a(g14
F254.0
F256.0
tp589
a(g16
F256.0
F410.0
tp590
atp591
a(L13L
g2
(lp592
(g155
F5.0
F150.0
tp593
a(g22
F251.0
F253.0
tp594
a(g24
F253.0
F254.0
tp595
a(g26
F254.0
F256.0
tp596
a(g28
F256.0
F258.0
tp597
a(g30
F258.0
F394.0
tp598
atp599
a(L14L
g33
(lp600
(g35
I0
F12.0
tp601
a(g37
F251.0
F254.0
tp602
a(g39
F254.0
F443.0
tp603
atp604
a(L27L
g2
(lp605
(g49
I0
F5.0
tp606
a(g53
F5.0
F11.0
tp607
a(g55
F12.0
F103.0
tp608
a(g57
F215.0
F362.0
tp609
atp610
a(L29L
g2
(lp611
(g61
I0
F5.0
tp612
a(g87
F5.0
F111.0
tp613
a(g63
F111.0
F221.0
tp614
a(g65
F249.0
F251.0
tp615
a(g67
F254.0
F359.0
tp616
atp617
a(L32L
g2
(lp618
(g71
I0
F6.0
tp619
a(g257
F11.0
F87.0
tp620
a(g77
F87.0
F249.0
tp621
a(g79
F251.0
F253.0
tp622
a(g81
F253.0
F446.0
tp623
a(g83
F446.0
F448.0
tp624
atp625
a(L35L
g33
(lp626
(g91
F448.0
F448.0
tp627
atp628
a(L40L
g2
(lp629
(g255
F6.0
F79.0
tp630
a(g20
F79.0
F183.0
tp631
a(g97
F211.0
F213.0
tp632
a(g117
F213.0
F215.0
tp633
a(g99
F215.0
F345.0
tp634
atp635
a(L44L
g2
(lp636
(g107
F6.0
F174.0
tp637
a(g109
F213.0
F215.0
tp638
a(g111
F215.0
F369.0
tp639
atp640
a(L45L
g2
(lp641
(g4
I0
F6.0
tp642
a(g115
F6.0
F165.0
tp643
a(g119
F213.0
F215.0
tp644
a(g121
F215.0
F405.0
tp645
a(g45
F441.0
F443.0
tp646
atp647
a(L46L
g2
(lp648
(g125
I0
F6.0
tp649
a(g127
F6.0
F11.0
tp650
a(g129
F11.0
F17.0
tp651
a(g131
F254.0
F256.0
tp652
a(g133
F256.0
F410.0
tp653
atp654
a(L48L
g2
(lp655
(g141
I0
F6.0
tp656
a(g143
F6.0
F137.0
tp657
a(g145
F213.0
F214.0
tp658
a(g147
F214.0
F216.0
tp659
a(g149
F216.0
F302.0
tp660
a(g151
F302.0
F441.0
tp661
atp662
a(L52L
g2
(lp663
(g161
F12.0
F180.0
tp664
a(g163
F213.0
F215.0
tp665
a(g165
F215.0
F396.0
tp666
atp667
a(L53L
g2
(lp668
(g139
I0
F6.0
tp669
a(g73
F6.0
F12.0
tp670
a(g169
F12.0
F18.0
tp671
a(g171
F18.0
F224.0
tp672
a(g173
F251.0
F252.0
tp673
a(g175
F252.0
F409.0
tp674
atp675
a(L55L
g2
(lp676
(g179
I0
F6.0
tp677
a(g181
F12.0
F141.0
tp678
a(g214
F213.0
F214.0
tp679
a(g183
F214.0
F215.0
tp680
a(g185
F215.0
F306.0
tp681
a(g187
F306.0
F440.0
tp682
atp683
a(L62L
g2
(lp684
(g191
I0
F6.0
tp685
a(g193
F6.0
F180.0
tp686
a(g195
F213.0
F215.0
tp687
a(g197
F254.0
F443.0
tp688
a(g199
F443.0
F445.0
tp689
atp690
a(L63L
g2
(lp691
(g51
I0
F6.0
tp692
a(g203
F6.0
F143.0
tp693
a(g205
F215.0
F346.0
tp694
a(g207
F346.0
F425.0
tp695
atp696
a(L64L
g219
(lp697
(g212
I0
F48.0
tp698
a(g216
F254.0
F268.0
tp699
atp700
a(L71L
g33
(lp701
(g75
I0
F12.0
tp702
a(g103
F12.0
F223.0
tp703
atp704
a(L78L
g2
(lp705
(g229
F213.0
F215.0
tp706
a(g231
F252.0
F352.0
tp707
atp708
a(L85L
g2
(lp709
(g137
I0
F6.0
tp710
a(g95
F6.0
F112.0
tp711
a(g237
F112.0
F211.0
tp712
a(g239
F213.0
F215.0
tp713
a(g241
F251.0
F252.0
tp714
a(g243
F252.0
F253.0
tp715
a(g245
F256.0
F395.0
tp716
atp717
a(L87L
g33
(lp718
(g249
I0
F12.0
tp719
a(g159
F12.0
F23.0
tp720
a(g251
F214.0
F441.0
tp721
atp722
a(L97L
g2
(lp723
(g221
I0
F0.0
tp724
a(g235
I0
F6.0
tp725
a(g43
F6.0
F155.0
tp726
a(g259
F215.0
F379.0
tp727
atp728
a(L99L
g2
(lp729
(g263
F17.0
F187.0
tp730
a(g265
F253.0
F407.0
tp731
atp732
atp733
a(F453.0
F25.91
(lp734
(L1L
g2
(lp735
(g6
F6.0
F78.0
tp736
a(g225
F78.0
F84.0
tp737
a(g8
F84.0
F223.0
tp738
a(g10
F256.0
F258.0
tp739
a(g12
F258.0
F259.0
tp740
a(g14
F259.0
F261.0
tp741
a(g16
F261.0
F415.0
tp742
atp743
a(L13L
g2
(lp744
(g155
F5.0
F150.0
tp745
a(g20
F150.0
F254.0
tp746
a(g22
F256.0
F258.0
tp747
a(g24
F258.0
F259.0
tp748
a(g26
F259.0
F261.0
tp749
a(g28
F261.0
F263.0
tp750
a(g30
F263.0
F399.0
tp751
atp752
a(L14L
g33
(lp753
(g35
I0
F12.0
tp754
a(g37
F256.0
F259.0
tp755
a(g39
F259.0
F448.0
tp756
atp757
a(L27L
g2
(lp758
(g49
I0
F5.0
tp759
a(g53
F5.0
F11.0
tp760
a(g55
F12.0
F103.0
tp761
a(g57
F215.0
F362.0
tp762
atp763
a(L29L
g2
(lp764
(g61
I0
F5.0
tp765
a(g87
F5.0
F111.0
tp766
a(g63
F111.0
F221.0
tp767
a(g65
F254.0
F256.0
tp768
a(g67
F259.0
F364.0
tp769
atp770
a(L32L
g2
(lp771
(g71
I0
F6.0
tp772
a(g257
F11.0
F87.0
tp773
a(g77
F87.0
F249.0
tp774
a(g79
F256.0
F258.0
tp775
a(g81
F258.0
F451.0
tp776
a(g83
F451.0
F453.0
tp777
atp778
a(L35L
g33
(lp779
(g91
F453.0
F453.0
tp780
atp781
a(L40L
g2
(lp782
(g255
F6.0
F79.0
tp783
a(g97
F211.0
F213.0
tp784
a(g117
F213.0
F215.0
tp785
a(g99
F215.0
F345.0
tp786
atp787
a(L44L
g2
(lp788
(g107
F6.0
F174.0
tp789
a(g109
F213.0
F215.0
tp790
a(g111
F215.0
F369.0
tp791
atp792
a(L45L
g2
(lp793
(g4
I0
F6.0
tp794
a(g115
F6.0
F165.0
tp795
a(g119
F213.0
F215.0
tp796
a(g121
F215.0
F405.0
tp797
a(g45
F441.0
F443.0
tp798
atp799
a(L46L
g2
(lp800
(g125
I0
F6.0
tp801
a(g127
F6.0
F11.0
tp802
a(g129
F11.0
F17.0
tp803
a(g131
F259.0
F261.0
tp804
a(g133
F261.0
F415.0
tp805
atp806
a(L48L
g2
(lp807
(g141
I0
F6.0
tp808
a(g143
F6.0
F137.0
tp809
a(g145
F213.0
F214.0
tp810
a(g147
F214.0
F216.0
tp811
a(g149
F216.0
F302.0
tp812
a(g151
F302.0
F441.0
tp813
atp814
a(L52L
g2
(lp815
(g161
F12.0
F180.0
tp816
a(g163
F213.0
F215.0
tp817
a(g165
F215.0
F396.0
tp818
atp819
a(L53L
g2
(lp820
(g139
I0
F6.0
tp821
a(g73
F6.0
F12.0
tp822
a(g169
F12.0
F18.0
tp823
a(g171
F18.0
F224.0
tp824
a(g173
F256.0
F257.0
tp825
a(g175
F257.0
F414.0
tp826
atp827
a(L55L
g2
(lp828
(g179
I0
F6.0
tp829
a(g181
F12.0
F141.0
tp830
a(g214
F213.0
F214.0
tp831
a(g183
F214.0
F215.0
tp832
a(g185
F215.0
F306.0
tp833
a(g187
F306.0
F440.0
tp834
atp835
a(L62L
g2
(lp836
(g191
I0
F6.0
tp837
a(g193
F6.0
F180.0
tp838
a(g195
F213.0
F215.0
tp839
a(g197
F259.0
F448.0
tp840
a(g199
F448.0
F450.0
tp841
atp842
a(L63L
g2
(lp843
(g51
I0
F6.0
tp844
a(g203
F6.0
F143.0
tp845
a(g205
F215.0
F346.0
tp846
a(g207
F346.0
F425.0
tp847
atp848
a(L64L
Vapac-sin#m1.small
p849
(lp850
(g212
I0
F143.0
tp851
a(g216
F259.0
F300.0
tp852
atp853
a(L71L
g33
(lp854
(g75
I0
F12.0
tp855
a(g103
F12.0
F223.0
tp856
atp857
a(L78L
g2
(lp858
(g229
F213.0
F215.0
tp859
a(g231
F257.0
F357.0
tp860
atp861
a(L85L
g2
(lp862
(g137
I0
F6.0
tp863
a(g95
F6.0
F112.0
tp864
a(g237
F112.0
F211.0
tp865
a(g239
F213.0
F215.0
tp866
a(g241
F256.0
F257.0
tp867
a(g243
F257.0
F258.0
tp868
a(g245
F261.0
F400.0
tp869
atp870
a(L87L
g33
(lp871
(g249
I0
F12.0
tp872
a(g251
F214.0
F441.0
tp873
atp874
a(L97L
g2
(lp875
(g221
I0
F0.0
tp876
a(g235
I0
F6.0
tp877
a(g43
F6.0
F155.0
tp878
a(g259
F215.0
F379.0
tp879
atp880
a(L99L
g2
(lp881
(g159
I0
F6.0
tp882
a(g263
F17.0
F187.0
tp883
a(g265
F258.0
F412.0
tp884
atp885
atp886
a(F478.0
F24.65
(lp887
(L1L
g2
(lp888
(g6
F6.0
F78.0
tp889
a(g225
F78.0
F84.0
tp890
a(g8
F84.0
F223.0
tp891
a(g10
F256.0
F258.0
tp892
a(g12
F258.0
F259.0
tp893
a(g14
F259.0
F261.0
tp894
a(g16
F261.0
F415.0
tp895
atp896
a(L13L
g2
(lp897
(g155
F5.0
F150.0
tp898
a(g20
F150.0
F254.0
tp899
a(g22
F256.0
F258.0
tp900
a(g24
F258.0
F259.0
tp901
a(g26
F259.0
F261.0
tp902
a(g28
F261.0
F263.0
tp903
a(g30
F263.0
F399.0
tp904
atp905
a(L14L
g33
(lp906
(g35
I0
F12.0
tp907
a(g37
F256.0
F259.0
tp908
a(g39
F259.0
F448.0
tp909
atp910
a(L27L
g2
(lp911
(g49
I0
F5.0
tp912
a(g53
F5.0
F11.0
tp913
a(g55
F12.0
F103.0
tp914
a(g57
F216.0
F363.0
tp915
atp916
a(L29L
g2
(lp917
(g61
I0
F5.0
tp918
a(g87
F5.0
F111.0
tp919
a(g63
F111.0
F221.0
tp920
a(g65
F254.0
F256.0
tp921
a(g67
F259.0
F364.0
tp922
atp923
a(L32L
g2
(lp924
(g71
I0
F6.0
tp925
a(g257
F11.0
F87.0
tp926
a(g77
F87.0
F249.0
tp927
a(g79
F256.0
F258.0
tp928
a(g81
F258.0
F451.0
tp929
a(g83
F457.0
F459.0
tp930
atp931
a(L35L
Vapac-sin#m1.medium
p932
(lp933
(g91
F478.0
F478.0
tp934
atp935
a(L40L
g33
(lp936
(g255
F6.0
F152.0
tp937
a(g97
F211.0
F214.0
tp938
a(g117
F214.0
F217.0
tp939
a(g99
F217.0
F476.0
tp940
atp941
a(L44L
g2
(lp942
(g107
F6.0
F174.0
tp943
a(g109
F214.0
F216.0
tp944
a(g111
F216.0
F370.0
tp945
atp946
a(L45L
g2
(lp947
(g4
I0
F6.0
tp948
a(g115
F6.0
F165.0
tp949
a(g119
F214.0
F216.0
tp950
a(g121
F216.0
F406.0
tp951
a(g45
F476.0
F478.0
tp952
atp953
a(L46L
g2
(lp954
(g125
I0
F6.0
tp955
a(g127
F6.0
F11.0
tp956
a(g129
F11.0
F17.0
tp957
a(g131
F259.0
F261.0
tp958
a(g133
F261.0
F415.0
tp959
atp960
a(L48L
g2
(lp961
(g141
I0
F6.0
tp962
a(g143
F6.0
F137.0
tp963
a(g145
F214.0
F215.0
tp964
a(g147
F215.0
F217.0
tp965
a(g149
F217.0
F303.0
tp966
a(g151
F303.0
F442.0
tp967
atp968
a(L52L
g2
(lp969
(g161
F12.0
F180.0
tp970
a(g163
F214.0
F216.0
tp971
a(g165
F216.0
F397.0
tp972
atp973
a(L53L
g2
(lp974
(g139
I0
F6.0
tp975
a(g73
F6.0
F12.0
tp976
a(g169
F12.0
F18.0
tp977
a(g171
F18.0
F224.0
tp978
a(g173
F256.0
F257.0
tp979
a(g175
F257.0
F414.0
tp980
atp981
a(L55L
g2
(lp982
(g179
I0
F6.0
tp983
a(g181
F12.0
F141.0
tp984
a(g214
F214.0
F215.0
tp985
a(g183
F215.0
F216.0
tp986
a(g185
F216.0
F307.0
tp987
a(g187
F307.0
F441.0
tp988
atp989
a(L62L
g2
(lp990
(g191
I0
F6.0
tp991
a(g193
F6.0
F180.0
tp992
a(g195
F214.0
F216.0
tp993
a(g197
F259.0
F448.0
tp994
a(g199
F448.0
F450.0
tp995
atp996
a(L63L
g2
(lp997
(g51
I0
F6.0
tp998
a(g203
F6.0
F143.0
tp999
a(g205
F216.0
F347.0
tp1000
a(g207
F347.0
F426.0
tp1001
atp1002
a(L64L
g849
(lp1003
(g212
I0
F143.0
tp1004
a(g216
F259.0
F300.0
tp1005
atp1006
a(L71L
g33
(lp1007
(g75
I0
F12.0
tp1008
a(g103
F12.0
F223.0
tp1009
atp1010
a(L78L
g33
(lp1011
(g229
F214.0
F217.0
tp1012
a(g231
F257.0
F457.0
tp1013
atp1014
a(L85L
g2
(lp1015
(g137
I0
F6.0
tp1016
a(g95
F6.0
F112.0
tp1017
a(g237
F112.0
F211.0
tp1018
a(g239
F214.0
F216.0
tp1019
a(g241
F256.0
F257.0
tp1020
a(g243
F257.0
F258.0
tp1021
a(g245
F261.0
F400.0
tp1022
atp1023
a(L87L
g33
(lp1024
(g249
I0
F12.0
tp1025
a(g251
F215.0
F442.0
tp1026
atp1027
a(L97L
g2
(lp1028
(g221
I0
F0.0
tp1029
a(g235
I0
F6.0
tp1030
a(g43
F6.0
F155.0
tp1031
a(g259
F216.0
F380.0
tp1032
atp1033
a(L99L
g2
(lp1034
(g159
I0
F6.0
tp1035
a(g263
F17.0
F187.0
tp1036
a(g265
F258.0
F412.0
tp1037
atp1038
atp1039
a(F496.0
F23.47
(lp1040
(L1L
g2
(lp1041
(g4
I0
F6.0
tp1042
a(g6
F23.0
F95.0
tp1043
a(g12
F181.0
F182.0
tp1044
a(g14
F182.0
F184.0
tp1045
a(g16
F184.0
F338.0
tp1046
atp1047
a(L13L
g2
(lp1048
(g155
F5.0
F150.0
tp1049
a(g20
F150.0
F254.0
tp1050
a(g24
F291.0
F292.0
tp1051
a(g26
F292.0
F294.0
tp1052
a(g28
F294.0
F296.0
tp1053
a(g30
F296.0
F432.0
tp1054
atp1055
a(L14L
g33
(lp1056
(g35
I0
F12.0
tp1057
a(g8
F12.0
F289.0
tp1058
a(g39
F305.0
F494.0
tp1059
atp1060
a(L27L
g2
(lp1061
(g49
I0
F5.0
tp1062
a(g53
F5.0
F11.0
tp1063
a(g57
F235.0
F382.0
tp1064
a(g67
F382.0
F487.0
tp1065
atp1066
a(L32L
g2
(lp1067
(g71
I0
F6.0
tp1068
a(g75
F6.0
F12.0
tp1069
a(g87
F17.0
F123.0
tp1070
a(g77
F123.0
F285.0
tp1071
a(g79
F291.0
F293.0
tp1072
a(g81
F293.0
F486.0
tp1073
a(g83
F494.0
F496.0
tp1074
atp1075
a(L35L
g210
(lp1076
(g91
F496.0
F496.0
tp1077
atp1078
a(L40L
g33
(lp1079
(g255
F6.0
F152.0
tp1080
a(g99
F235.0
F494.0
tp1081
atp1082
a(L44L
g2
(lp1083
(g107
F6.0
F174.0
tp1084
a(g111
F234.0
F388.0
tp1085
a(g147
F388.0
F390.0
tp1086
a(g149
F390.0
F476.0
tp1087
atp1088
a(L45L
g2
(lp1089
(g115
F6.0
F165.0
tp1090
a(g97
F231.0
F233.0
tp1091
a(g117
F233.0
F235.0
tp1092
a(g119
F235.0
F237.0
tp1093
a(g121
F237.0
F427.0
tp1094
a(g45
F494.0
F496.0
tp1095
atp1096
a(L46L
g33
(lp1097
(g129
I0
F11.0
tp1098
a(g131
F182.0
F185.0
tp1099
a(g133
F185.0
F492.0
tp1100
atp1101
a(L48L
g2
(lp1102
(g141
I0
F6.0
tp1103
a(g143
F6.0
F137.0
tp1104
a(g55
F137.0
F228.0
tp1105
a(g145
F233.0
F234.0
tp1106
a(g151
F236.0
F375.0
tp1107
atp1108
a(L52L
g2
(lp1109
(g161
F12.0
F180.0
tp1110
a(g163
F233.0
F235.0
tp1111
a(g165
F235.0
F416.0
tp1112
atp1113
a(L53L
g2
(lp1114
(g139
I0
F6.0
tp1115
a(g73
F6.0
F12.0
tp1116
a(g61
F12.0
F17.0
tp1117
a(g169
F17.0
F23.0
tp1118
a(g171
F23.0
F229.0
tp1119
a(g37
F291.0
F293.0
tp1120
a(g173
F293.0
F294.0
tp1121
a(g175
F294.0
F451.0
tp1122
atp1123
a(L55L
g2
(lp1124
(g179
I0
F6.0
tp1125
a(g181
F12.0
F141.0
tp1126
a(g183
F233.0
F234.0
tp1127
a(g185
F237.0
F328.0
tp1128
a(g187
F328.0
F462.0
tp1129
atp1130
a(L62L
g2
(lp1131
(g191
I0
F6.0
tp1132
a(g193
F6.0
F180.0
tp1133
a(g195
F233.0
F235.0
tp1134
a(g65
F289.0
F291.0
tp1135
a(g197
F292.0
F481.0
tp1136
a(g199
F492.0
F494.0
tp1137
atp1138
a(L63L
g2
(lp1139
(g51
I0
F6.0
tp1140
a(g203
F6.0
F143.0
tp1141
a(g205
F234.0
F365.0
tp1142
a(g207
F365.0
F444.0
tp1143
atp1144
a(L64L
g219
(lp1145
(g212
I0
F48.0
tp1146
a(g214
F233.0
F244.0
tp1147
a(g10
F291.0
F305.0
tp1148
a(g216
F305.0
F319.0
tp1149
atp1150
a(L65L
g394
(lp1151
(g221
I0
F0.0
tp1152
atp1153
a(L71L
g33
(lp1154
(g125
I0
F11.0
tp1155
a(g103
F11.0
F222.0
tp1156
a(g22
F291.0
F294.0
tp1157
atp1158
a(L78L
g33
(lp1159
(g229
F233.0
F236.0
tp1160
a(g231
F292.0
F492.0
tp1161
atp1162
a(L85L
g2
(lp1163
(g235
I0
F6.0
tp1164
a(g137
F6.0
F12.0
tp1165
a(g95
F12.0
F118.0
tp1166
a(g237
F118.0
F217.0
tp1167
a(g109
F233.0
F235.0
tp1168
a(g239
F235.0
F237.0
tp1169
a(g241
F291.0
F292.0
tp1170
a(g243
F292.0
F293.0
tp1171
a(g245
F294.0
F433.0
tp1172
atp1173
a(L87L
g33
(lp1174
(g249
I0
F12.0
tp1175
a(g159
F12.0
F23.0
tp1176
a(g251
F244.0
F471.0
tp1177
atp1178
a(L95L
g33
(lp1179
(g63
F6.0
F225.0
tp1180
atp1181
a(L97L
g2
(lp1182
(g43
F6.0
F155.0
tp1183
a(g257
F155.0
F231.0
tp1184
a(g259
F235.0
F399.0
tp1185
atp1186
a(L99L
g2
(lp1187
(g225
I0
F6.0
tp1188
a(g127
F6.0
F11.0
tp1189
a(g263
F11.0
F181.0
tp1190
a(g265
F294.0
F448.0
tp1191
atp1192
atp1193
a(F498.0
F22.84
(lp1194
(L1L
g33
(lp1195
(g4
I0
F11.0
tp1196
a(g6
F23.0
F167.0
tp1197
a(g12
F181.0
F184.0
tp1198
a(g14
F184.0
F187.0
tp1199
a(g16
F187.0
F496.0
tp1200
atp1201
a(L13L
g2
(lp1202
(g155
F5.0
F150.0
tp1203
a(g20
F150.0
F254.0
tp1204
a(g22
F291.0
F293.0
tp1205
a(g24
F293.0
F294.0
tp1206
a(g26
F294.0
F296.0
tp1207
a(g28
F296.0
F298.0
tp1208
a(g30
F298.0
F434.0
tp1209
atp1210
a(L14L
g33
(lp1211
(g35
I0
F12.0
tp1212
a(g8
F12.0
F289.0
tp1213
a(g39
F305.0
F494.0
tp1214
atp1215
a(L27L
g2
(lp1216
(g49
I0
F5.0
tp1217
a(g53
F5.0
F11.0
tp1218
a(g57
F235.0
F382.0
tp1219
a(g67
F382.0
F487.0
tp1220
atp1221
a(L32L
g2
(lp1222
(g71
I0
F6.0
tp1223
a(g75
F6.0
F12.0
tp1224
a(g87
F17.0
F123.0
tp1225
a(g77
F123.0
F285.0
tp1226
a(g79
F291.0
F293.0
tp1227
a(g81
F293.0
F486.0
tp1228
a(g83
F494.0
F496.0
tp1229
atp1230
a(L35L
g210
(lp1231
(g91
F498.0
F498.0
tp1232
atp1233
a(L40L
g33
(lp1234
(g255
F6.0
F152.0
tp1235
a(g99
F235.0
F494.0
tp1236
atp1237
a(L44L
g2
(lp1238
(g107
F11.0
F179.0
tp1239
a(g111
F234.0
F388.0
tp1240
a(g147
F388.0
F390.0
tp1241
a(g149
F390.0
F476.0
tp1242
atp1243
a(L45L
g2
(lp1244
(g115
F6.0
F165.0
tp1245
a(g97
F231.0
F233.0
tp1246
a(g117
F233.0
F235.0
tp1247
a(g119
F235.0
F237.0
tp1248
a(g121
F237.0
F427.0
tp1249
a(g45
F494.0
F496.0
tp1250
atp1251
a(L46L
g33
(lp1252
(g129
I0
F11.0
tp1253
a(g131
F184.0
F187.0
tp1254
a(g133
F187.0
F494.0
tp1255
atp1256
a(L48L
g2
(lp1257
(g141
I0
F6.0
tp1258
a(g143
F6.0
F137.0
tp1259
a(g55
F137.0
F228.0
tp1260
a(g145
F233.0
F234.0
tp1261
a(g151
F236.0
F375.0
tp1262
atp1263
a(L52L
g2
(lp1264
(g161
F12.0
F180.0
tp1265
a(g163
F233.0
F235.0
tp1266
a(g165
F235.0
F416.0
tp1267
atp1268
a(L53L
g2
(lp1269
(g139
I0
F6.0
tp1270
a(g73
F6.0
F12.0
tp1271
a(g61
F12.0
F17.0
tp1272
a(g169
F17.0
F23.0
tp1273
a(g171
F23.0
F229.0
tp1274
a(g37
F291.0
F293.0
tp1275
a(g173
F293.0
F294.0
tp1276
a(g175
F294.0
F451.0
tp1277
atp1278
a(L55L
g2
(lp1279
(g179
I0
F6.0
tp1280
a(g181
F12.0
F141.0
tp1281
a(g183
F233.0
F234.0
tp1282
a(g185
F237.0
F328.0
tp1283
a(g187
F328.0
F462.0
tp1284
atp1285
a(L62L
g2
(lp1286
(g191
I0
F6.0
tp1287
a(g193
F6.0
F180.0
tp1288
a(g195
F233.0
F235.0
tp1289
a(g65
F289.0
F291.0
tp1290
a(g197
F294.0
F483.0
tp1291
a(g199
F496.0
F498.0
tp1292
atp1293
a(L63L
g2
(lp1294
(g51
I0
F6.0
tp1295
a(g203
F6.0
F143.0
tp1296
a(g205
F234.0
F365.0
tp1297
a(g207
F365.0
F444.0
tp1298
atp1299
a(L64L
g219
(lp1300
(g212
I0
F48.0
tp1301
a(g214
F233.0
F244.0
tp1302
a(g10
F291.0
F305.0
tp1303
a(g216
F305.0
F319.0
tp1304
atp1305
a(L65L
g394
(lp1306
(g221
I0
F0.0
tp1307
atp1308
a(L71L
g33
(lp1309
(g125
I0
F11.0
tp1310
a(g103
F11.0
F222.0
tp1311
atp1312
a(L78L
g33
(lp1313
(g229
F233.0
F236.0
tp1314
a(g231
F292.0
F492.0
tp1315
atp1316
a(L85L
g2
(lp1317
(g235
I0
F6.0
tp1318
a(g137
F6.0
F12.0
tp1319
a(g95
F12.0
F118.0
tp1320
a(g237
F118.0
F217.0
tp1321
a(g109
F233.0
F235.0
tp1322
a(g239
F235.0
F237.0
tp1323
a(g241
F291.0
F292.0
tp1324
a(g243
F292.0
F293.0
tp1325
a(g245
F296.0
F435.0
tp1326
atp1327
a(L87L
g33
(lp1328
(g249
I0
F12.0
tp1329
a(g159
F12.0
F23.0
tp1330
a(g251
F244.0
F471.0
tp1331
atp1332
a(L95L
g33
(lp1333
(g63
F6.0
F225.0
tp1334
atp1335
a(L97L
g2
(lp1336
(g43
F6.0
F155.0
tp1337
a(g257
F155.0
F231.0
tp1338
a(g259
F235.0
F399.0
tp1339
atp1340
a(L99L
g2
(lp1341
(g225
I0
F6.0
tp1342
a(g127
F6.0
F11.0
tp1343
a(g263
F11.0
F181.0
tp1344
a(g265
F293.0
F447.0
tp1345
atp1346
atp1347
a(F566.0
F22.13
(lp1348
(L1L
g33
(lp1349
(g73
I0
F11.0
tp1350
a(g35
F11.0
F23.0
tp1351
a(g12
F192.0
F195.0
tp1352
a(g14
F195.0
F198.0
tp1353
a(g16
F198.0
F507.0
tp1354
atp1355
a(L13L
g2
(lp1356
(g6
F11.0
F83.0
tp1357
a(g155
F83.0
F228.0
tp1358
a(g97
F280.0
F282.0
tp1359
a(g241
F290.0
F291.0
tp1360
a(g22
F291.0
F293.0
tp1361
a(g24
F293.0
F294.0
tp1362
a(g26
F294.0
F296.0
tp1363
a(g28
F296.0
F298.0
tp1364
a(g30
F298.0
F434.0
tp1365
atp1366
a(L14L
g33
(lp1367
(g8
F11.0
F288.0
tp1368
a(g37
F290.0
F293.0
tp1369
a(g39
F331.0
F520.0
tp1370
atp1371
a(L27L
g2
(lp1372
(g249
I0
F6.0
tp1373
a(g181
F6.0
F135.0
tp1374
a(g163
F282.0
F284.0
tp1375
a(g205
F284.0
F415.0
tp1376
a(g57
F415.0
F562.0
tp1377
atp1378
a(L29L
g2
(lp1379
(g51
I0
F6.0
tp1380
a(g141
F6.0
F12.0
tp1381
a(g75
F12.0
F18.0
tp1382
a(g63
F18.0
F128.0
tp1383
a(g187
F292.0
F426.0
tp1384
atp1385
a(L32L
g2
(lp1386
(g87
F17.0
F123.0
tp1387
a(g77
F123.0
F285.0
tp1388
a(g65
F288.0
F290.0
tp1389
a(g79
F290.0
F292.0
tp1390
a(g81
F292.0
F485.0
tp1391
a(g207
F485.0
F564.0
tp1392
atp1393
a(L35L
g394
(lp1394
(g91
F566.0
F566.0
tp1395
atp1396
a(L38L
g2
(lp1397
(g121
F284.0
F474.0
tp1398
atp1399
a(L40L
g33
(lp1400
(g53
I0
F11.0
tp1401
a(g99
F284.0
F543.0
tp1402
atp1403
a(L44L
g2
(lp1404
(g179
I0
F6.0
tp1405
a(g107
F6.0
F174.0
tp1406
a(g95
F174.0
F280.0
tp1407
a(g145
F282.0
F283.0
tp1408
a(g111
F283.0
F437.0
tp1409
a(g149
F450.0
F536.0
tp1410
atp1411
a(L45L
g2
(lp1412
(g115
F6.0
F165.0
tp1413
a(g255
F165.0
F238.0
tp1414
a(g119
F282.0
F284.0
tp1415
a(g185
F286.0
F377.0
tp1416
a(g45
F563.0
F565.0
tp1417
atp1418
a(L46L
g33
(lp1419
(g139
I0
F11.0
tp1420
a(g129
F11.0
F22.0
tp1421
a(g131
F195.0
F198.0
tp1422
a(g133
F198.0
F505.0
tp1423
atp1424
a(L48L
g33
(lp1425
(g159
I0
F11.0
tp1426
a(g143
F12.0
F274.0
tp1427
a(g151
F285.0
F563.0
tp1428
atp1429
a(L52L
g2
(lp1430
(g4
I0
F6.0
tp1431
a(g161
F11.0
F179.0
tp1432
a(g55
F179.0
F270.0
tp1433
a(g117
F282.0
F284.0
tp1434
a(g165
F284.0
F465.0
tp1435
atp1436
a(L53L
g2
(lp1437
(g137
I0
F6.0
tp1438
a(g212
F6.0
F12.0
tp1439
a(g61
F12.0
F17.0
tp1440
a(g169
F17.0
F23.0
tp1441
a(g171
F23.0
F229.0
tp1442
a(g67
F293.0
F398.0
tp1443
a(g175
F398.0
F555.0
tp1444
atp1445
a(L62L
g2
(lp1446
(g191
I0
F6.0
tp1447
a(g193
F6.0
F180.0
tp1448
a(g195
F282.0
F284.0
tp1449
a(g173
F290.0
F291.0
tp1450
a(g197
F294.0
F483.0
tp1451
a(g199
F564.0
F566.0
tp1452
atp1453
a(L64L
g849
(lp1454
(g10
F290.0
F331.0
tp1455
a(g216
F331.0
F372.0
tp1456
atp1457
a(L71L
g33
(lp1458
(g49
I0
F11.0
tp1459
a(g125
F11.0
F22.0
tp1460
a(g103
F22.0
F233.0
tp1461
atp1462
a(L78L
g2
(lp1463
(g221
I0
F0.0
tp1464
a(g203
F6.0
F143.0
tp1465
a(g257
F143.0
F219.0
tp1466
a(g183
F282.0
F283.0
tp1467
a(g229
F283.0
F285.0
tp1468
a(g231
F291.0
F391.0
tp1469
atp1470
a(L85L
g2
(lp1471
(g235
I0
F6.0
tp1472
a(g237
F11.0
F110.0
tp1473
a(g109
F282.0
F284.0
tp1474
a(g239
F284.0
F286.0
tp1475
a(g243
F290.0
F291.0
tp1476
a(g245
F296.0
F435.0
tp1477
atp1478
a(L87L
g33
(lp1479
(g20
F12.0
F220.0
tp1480
a(g214
F282.0
F285.0
tp1481
a(g251
F285.0
F512.0
tp1482
atp1483
a(L97L
g2
(lp1484
(g71
I0
F6.0
tp1485
a(g43
F6.0
F155.0
tp1486
a(g259
F284.0
F448.0
tp1487
a(g147
F448.0
F450.0
tp1488
a(g83
F555.0
F557.0
tp1489
atp1490
a(L99L
g2
(lp1491
(g225
I0
F6.0
tp1492
a(g127
F6.0
F11.0
tp1493
a(g263
F22.0
F192.0
tp1494
a(g265
F293.0
F447.0
tp1495
atp1496
atp1497
a(F567.0
F20.24
(lp1498
(L1L
g33
(lp1499
(g73
I0
F11.0
tp1500
a(g35
F11.0
F23.0
tp1501
a(g12
F192.0
F195.0
tp1502
a(g14
F195.0
F198.0
tp1503
a(g16
F198.0
F507.0
tp1504
atp1505
a(L13L
g2
(lp1506
(g6
F11.0
F83.0
tp1507
a(g155
F83.0
F228.0
tp1508
a(g97
F280.0
F282.0
tp1509
a(g241
F290.0
F291.0
tp1510
a(g22
F291.0
F293.0
tp1511
a(g24
F293.0
F294.0
tp1512
a(g26
F294.0
F296.0
tp1513
a(g28
F296.0
F298.0
tp1514
a(g30
F298.0
F434.0
tp1515
atp1516
a(L14L
g33
(lp1517
(g8
F11.0
F288.0
tp1518
a(g37
F290.0
F293.0
tp1519
a(g39
F331.0
F520.0
tp1520
atp1521
a(L27L
g2
(lp1522
(g249
I0
F6.0
tp1523
a(g181
F6.0
F135.0
tp1524
a(g163
F282.0
F284.0
tp1525
a(g205
F284.0
F415.0
tp1526
a(g57
F415.0
F562.0
tp1527
atp1528
a(L29L
g2
(lp1529
(g51
I0
F6.0
tp1530
a(g141
F6.0
F12.0
tp1531
a(g75
F12.0
F18.0
tp1532
a(g63
F18.0
F128.0
tp1533
a(g187
F292.0
F426.0
tp1534
a(g245
F426.0
F565.0
tp1535
atp1536
a(L32L
g2
(lp1537
(g87
F17.0
F123.0
tp1538
a(g77
F123.0
F285.0
tp1539
a(g65
F288.0
F290.0
tp1540
a(g79
F290.0
F292.0
tp1541
a(g81
F293.0
F486.0
tp1542
a(g207
F486.0
F565.0
tp1543
atp1544
a(L35L
g394
(lp1545
(g91
F567.0
F567.0
tp1546
atp1547
a(L40L
g33
(lp1548
(g53
I0
F11.0
tp1549
a(g99
F284.0
F543.0
tp1550
atp1551
a(L44L
g2
(lp1552
(g179
I0
F6.0
tp1553
a(g107
F6.0
F174.0
tp1554
a(g95
F174.0
F280.0
tp1555
a(g145
F282.0
F283.0
tp1556
a(g111
F283.0
F437.0
tp1557
a(g149
F450.0
F536.0
tp1558
atp1559
a(L45L
g2
(lp1560
(g115
F6.0
F165.0
tp1561
a(g255
F165.0
F238.0
tp1562
a(g119
F282.0
F284.0
tp1563
a(g121
F284.0
F474.0
tp1564
a(g185
F474.0
F565.0
tp1565
a(g45
F565.0
F567.0
tp1566
atp1567
a(L46L
g33
(lp1568
(g139
I0
F11.0
tp1569
a(g129
F11.0
F22.0
tp1570
a(g131
F195.0
F198.0
tp1571
a(g133
F198.0
F505.0
tp1572
atp1573
a(L48L
g33
(lp1574
(g159
I0
F11.0
tp1575
a(g143
F12.0
F274.0
tp1576
a(g151
F285.0
F563.0
tp1577
atp1578
a(L52L
g2
(lp1579
(g4
I0
F6.0
tp1580
a(g161
F11.0
F179.0
tp1581
a(g55
F179.0
F270.0
tp1582
a(g117
F282.0
F284.0
tp1583
a(g165
F284.0
F465.0
tp1584
atp1585
a(L53L
g2
(lp1586
(g137
I0
F6.0
tp1587
a(g212
F6.0
F12.0
tp1588
a(g61
F12.0
F17.0
tp1589
a(g169
F17.0
F23.0
tp1590
a(g171
F23.0
F229.0
tp1591
a(g67
F293.0
F398.0
tp1592
a(g175
F398.0
F555.0
tp1593
atp1594
a(L62L
g2
(lp1595
(g191
I0
F6.0
tp1596
a(g193
F6.0
F180.0
tp1597
a(g195
F282.0
F284.0
tp1598
a(g173
F290.0
F291.0
tp1599
a(g197
F294.0
F483.0
tp1600
a(g199
F565.0
F567.0
tp1601
atp1602
a(L64L
g849
(lp1603
(g10
F290.0
F331.0
tp1604
a(g216
F331.0
F372.0
tp1605
atp1606
a(L71L
g33
(lp1607
(g49
I0
F11.0
tp1608
a(g125
F11.0
F22.0
tp1609
a(g103
F22.0
F233.0
tp1610
atp1611
a(L78L
g2
(lp1612
(g221
I0
F0.0
tp1613
a(g203
F6.0
F143.0
tp1614
a(g257
F143.0
F219.0
tp1615
a(g183
F282.0
F283.0
tp1616
a(g229
F283.0
F285.0
tp1617
a(g231
F291.0
F391.0
tp1618
atp1619
a(L85L
g33
(lp1620
(g235
I0
F11.0
tp1621
a(g237
F11.0
F209.0
tp1622
a(g109
F282.0
F285.0
tp1623
a(g239
F285.0
F288.0
tp1624
a(g243
F290.0
F293.0
tp1625
atp1626
a(L87L
g33
(lp1627
(g20
F12.0
F220.0
tp1628
a(g214
F282.0
F285.0
tp1629
a(g251
F285.0
F512.0
tp1630
atp1631
a(L97L
g2
(lp1632
(g71
I0
F6.0
tp1633
a(g43
F6.0
F155.0
tp1634
a(g259
F284.0
F448.0
tp1635
a(g147
F448.0
F450.0
tp1636
a(g83
F565.0
F567.0
tp1637
atp1638
a(L99L
g2
(lp1639
(g225
I0
F6.0
tp1640
a(g127
F6.0
F11.0
tp1641
a(g263
F22.0
F192.0
tp1642
a(g265
F293.0
F447.0
tp1643
atp1644
atp1645
a(F568.0
F19.61
(lp1646
(L1L
g33
(lp1647
(g73
I0
F11.0
tp1648
a(g12
F192.0
F195.0
tp1649
a(g14
F195.0
F198.0
tp1650
a(g16
F198.0
F507.0
tp1651
atp1652
a(L13L
g2
(lp1653
(g6
F11.0
F83.0
tp1654
a(g49
F83.0
F88.0
tp1655
a(g155
F88.0
F233.0
tp1656
a(g97
F280.0
F282.0
tp1657
a(g22
F291.0
F293.0
tp1658
a(g24
F293.0
F294.0
tp1659
a(g26
F294.0
F296.0
tp1660
a(g28
F296.0
F298.0
tp1661
a(g30
F298.0
F434.0
tp1662
atp1663
a(L14L
g33
(lp1664
(g35
I0
F12.0
tp1665
a(g8
F12.0
F289.0
tp1666
a(g37
F291.0
F294.0
tp1667
a(g39
F332.0
F521.0
tp1668
atp1669
a(L27L
g2
(lp1670
(g249
I0
F6.0
tp1671
a(g181
F6.0
F135.0
tp1672
a(g163
F282.0
F284.0
tp1673
a(g205
F285.0
F416.0
tp1674
a(g57
F416.0
F563.0
tp1675
atp1676
a(L29L
g2
(lp1677
(g51
I0
F6.0
tp1678
a(g141
F6.0
F12.0
tp1679
a(g75
F12.0
F18.0
tp1680
a(g63
F18.0
F128.0
tp1681
a(g187
F293.0
F427.0
tp1682
a(g245
F427.0
F566.0
tp1683
atp1684
a(L32L
g2
(lp1685
(g87
F17.0
F123.0
tp1686
a(g77
F123.0
F285.0
tp1687
a(g65
F289.0
F291.0
tp1688
a(g79
F291.0
F293.0
tp1689
a(g81
F294.0
F487.0
tp1690
a(g207
F487.0
F566.0
tp1691
atp1692
a(L35L
g2
(lp1693
(g91
F568.0
F568.0
tp1694
atp1695
a(L40L
g33
(lp1696
(g53
I0
F11.0
tp1697
a(g99
F284.0
F543.0
tp1698
atp1699
a(L44L
g2
(lp1700
(g179
I0
F6.0
tp1701
a(g107
F6.0
F174.0
tp1702
a(g95
F174.0
F280.0
tp1703
a(g145
F282.0
F283.0
tp1704
a(g111
F283.0
F437.0
tp1705
a(g149
F450.0
F536.0
tp1706
atp1707
a(L45L
g2
(lp1708
(g115
F6.0
F165.0
tp1709
a(g255
F165.0
F238.0
tp1710
a(g119
F282.0
F284.0
tp1711
a(g121
F284.0
F474.0
tp1712
a(g185
F474.0
F565.0
tp1713
a(g45
F566.0
F568.0
tp1714
atp1715
a(L46L
g33
(lp1716
(g139
I0
F11.0
tp1717
a(g129
F11.0
F22.0
tp1718
a(g131
F195.0
F198.0
tp1719
a(g133
F198.0
F505.0
tp1720
atp1721
a(L48L
g33
(lp1722
(g159
I0
F11.0
tp1723
a(g143
F12.0
F274.0
tp1724
a(g151
F288.0
F566.0
tp1725
atp1726
a(L52L
g2
(lp1727
(g4
I0
F6.0
tp1728
a(g161
F11.0
F179.0
tp1729
a(g55
F179.0
F270.0
tp1730
a(g117
F282.0
F284.0
tp1731
a(g165
F284.0
F465.0
tp1732
atp1733
a(L53L
g2
(lp1734
(g137
I0
F6.0
tp1735
a(g212
F6.0
F12.0
tp1736
a(g61
F12.0
F17.0
tp1737
a(g169
F17.0
F23.0
tp1738
a(g171
F23.0
F229.0
tp1739
a(g67
F294.0
F399.0
tp1740
a(g173
F399.0
F400.0
tp1741
a(g175
F400.0
F557.0
tp1742
atp1743
a(L62L
g2
(lp1744
(g191
I0
F6.0
tp1745
a(g193
F6.0
F180.0
tp1746
a(g195
F282.0
F284.0
tp1747
a(g197
F294.0
F483.0
tp1748
a(g199
F566.0
F568.0
tp1749
atp1750
a(L64L
g849
(lp1751
(g10
F291.0
F332.0
tp1752
a(g216
F332.0
F373.0
tp1753
atp1754
a(L71L
g33
(lp1755
(g125
I0
F11.0
tp1756
a(g103
F11.0
F222.0
tp1757
atp1758
a(L78L
g33
(lp1759
(g221
I0
F0.0
tp1760
a(g203
F6.0
F279.0
tp1761
a(g183
F282.0
F285.0
tp1762
a(g229
F285.0
F288.0
tp1763
a(g231
F292.0
F492.0
tp1764
atp1765
a(L85L
g33
(lp1766
(g235
I0
F11.0
tp1767
a(g237
F11.0
F209.0
tp1768
a(g109
F282.0
F285.0
tp1769
a(g239
F285.0
F288.0
tp1770
a(g243
F291.0
F294.0
tp1771
atp1772
a(L87L
g33
(lp1773
(g20
F12.0
F220.0
tp1774
a(g214
F282.0
F285.0
tp1775
a(g251
F285.0
F512.0
tp1776
atp1777
a(L97L
g2
(lp1778
(g71
I0
F6.0
tp1779
a(g43
F6.0
F155.0
tp1780
a(g257
F155.0
F231.0
tp1781
a(g259
F284.0
F448.0
tp1782
a(g147
F448.0
F450.0
tp1783
a(g83
F566.0
F568.0
tp1784
atp1785
a(L99L
g2
(lp1786
(g225
I0
F6.0
tp1787
a(g127
F6.0
F11.0
tp1788
a(g263
F22.0
F192.0
tp1789
a(g241
F291.0
F292.0
tp1790
a(g265
F293.0
F447.0
tp1791
atp1792
atp1793
a(F586.0
F18.35
(lp1794
(L1L
g33
(lp1795
(g12
F269.0
F272.0
tp1796
a(g14
F272.0
F275.0
tp1797
a(g16
F275.0
F584.0
tp1798
atp1799
a(L13L
g2
(lp1800
(g6
F11.0
F83.0
tp1801
a(g155
F83.0
F228.0
tp1802
a(g97
F280.0
F282.0
tp1803
a(g241
F296.0
F297.0
tp1804
a(g22
F297.0
F299.0
tp1805
a(g24
F299.0
F300.0
tp1806
a(g26
F300.0
F302.0
tp1807
a(g28
F302.0
F304.0
tp1808
a(g30
F304.0
F440.0
tp1809
atp1810
a(L14L
g33
(lp1811
(g35
I0
F12.0
tp1812
a(g8
F17.0
F294.0
tp1813
a(g37
F296.0
F299.0
tp1814
a(g39
F360.0
F549.0
tp1815
atp1816
a(L27L
g33
(lp1817
(g249
I0
F12.0
tp1818
a(g181
F12.0
F269.0
tp1819
a(g163
F282.0
F286.0
tp1820
a(g57
F286.0
F579.0
tp1821
atp1822
a(L29L
g33
(lp1823
(g141
I0
F11.0
tp1824
a(g75
F11.0
F23.0
tp1825
a(g63
F23.0
F242.0
tp1826
a(g187
F298.0
F567.0
tp1827
atp1828
a(L32L
g2
(lp1829
(g87
F17.0
F123.0
tp1830
a(g77
F123.0
F285.0
tp1831
a(g65
F294.0
F296.0
tp1832
a(g79
F296.0
F298.0
tp1833
a(g81
F299.0
F492.0
tp1834
a(g207
F492.0
F571.0
tp1835
atp1836
a(L35L
Vapac-sin#m1.xlarge
p1837
(lp1838
(g91
F586.0
F586.0
tp1839
atp1840
a(L40L
g33
(lp1841
(g53
I0
F11.0
tp1842
a(g99
F284.0
F543.0
tp1843
atp1844
a(L44L
g2
(lp1845
(g179
I0
F6.0
tp1846
a(g107
F6.0
F174.0
tp1847
a(g95
F174.0
F280.0
tp1848
a(g111
F319.0
F473.0
tp1849
atp1850
a(L45L
g2
(lp1851
(g115
F6.0
F165.0
tp1852
a(g255
F165.0
F238.0
tp1853
a(g119
F282.0
F284.0
tp1854
a(g121
F284.0
F474.0
tp1855
a(g185
F474.0
F565.0
tp1856
a(g45
F580.0
F582.0
tp1857
atp1858
a(L46L
g33
(lp1859
(g139
I0
F11.0
tp1860
a(g129
F11.0
F22.0
tp1861
a(g131
F272.0
F275.0
tp1862
a(g133
F275.0
F582.0
tp1863
atp1864
a(L48L
g33
(lp1865
(g159
I0
F11.0
tp1866
a(g143
F11.0
F273.0
tp1867
a(g147
F282.0
F285.0
tp1868
a(g151
F288.0
F566.0
tp1869
atp1870
a(L52L
g2
(lp1871
(g4
I0
F6.0
tp1872
a(g73
F6.0
F12.0
tp1873
a(g161
F12.0
F180.0
tp1874
a(g55
F180.0
F271.0
tp1875
a(g117
F282.0
F284.0
tp1876
a(g165
F286.0
F467.0
tp1877
a(g149
F467.0
F553.0
tp1878
atp1879
a(L53L
g2
(lp1880
(g137
I0
F6.0
tp1881
a(g212
F6.0
F12.0
tp1882
a(g61
F12.0
F17.0
tp1883
a(g169
F17.0
F23.0
tp1884
a(g171
F23.0
F229.0
tp1885
a(g67
F299.0
F404.0
tp1886
a(g175
F404.0
F561.0
tp1887
atp1888
a(L62L
g2
(lp1889
(g191
I0
F6.0
tp1890
a(g193
F6.0
F180.0
tp1891
a(g195
F282.0
F284.0
tp1892
a(g173
F296.0
F297.0
tp1893
a(g197
F300.0
F489.0
tp1894
a(g199
F584.0
F586.0
tp1895
atp1896
a(L64L
g849
(lp1897
(g145
F282.0
F319.0
tp1898
a(g10
F319.0
F360.0
tp1899
a(g216
F360.0
F401.0
tp1900
atp1901
a(L71L
g33
(lp1902
(g49
I0
F11.0
tp1903
a(g125
F11.0
F22.0
tp1904
a(g103
F22.0
F233.0
tp1905
atp1906
a(L78L
g33
(lp1907
(g221
I0
F0.0
tp1908
a(g203
F6.0
F279.0
tp1909
a(g183
F282.0
F285.0
tp1910
a(g229
F285.0
F288.0
tp1911
a(g231
F297.0
F497.0
tp1912
atp1913
a(L85L
g33
(lp1914
(g235
I0
F11.0
tp1915
a(g237
F11.0
F209.0
tp1916
a(g109
F282.0
F285.0
tp1917
a(g239
F285.0
F288.0
tp1918
a(g243
F296.0
F299.0
tp1919
a(g245
F302.0
F580.0
tp1920
atp1921
a(L87L
g33
(lp1922
(g20
F12.0
F220.0
tp1923
a(g214
F282.0
F285.0
tp1924
a(g251
F285.0
F512.0
tp1925
atp1926
a(L97L
g2
(lp1927
(g71
I0
F6.0
tp1928
a(g43
F6.0
F155.0
tp1929
a(g257
F155.0
F231.0
tp1930
a(g205
F285.0
F416.0
tp1931
a(g259
F416.0
F580.0
tp1932
a(g83
F580.0
F582.0
tp1933
atp1934
a(L99L
g2
(lp1935
(g51
I0
F6.0
tp1936
a(g225
F6.0
F12.0
tp1937
a(g127
F12.0
F17.0
tp1938
a(g263
F22.0
F192.0
tp1939
a(g265
F299.0
F453.0
tp1940
atp1941
atp1942
a(F623.0
F16.77
(lp1943
(L1L
g33
(lp1944
(g137
I0
F12.0
tp1945
a(g75
F12.0
F24.0
tp1946
a(g183
F298.0
F301.0
tp1947
a(g12
F301.0
F304.0
tp1948
a(g14
F304.0
F307.0
tp1949
a(g16
F307.0
F616.0
tp1950
atp1951
a(L13L
g33
(lp1952
(g155
F5.0
F296.0
tp1953
a(g195
F298.0
F301.0
tp1954
a(g229
F301.0
F304.0
tp1955
a(g22
F324.0
F327.0
tp1956
a(g24
F327.0
F330.0
tp1957
a(g26
F330.0
F333.0
tp1958
a(g28
F333.0
F336.0
tp1959
a(g30
F336.0
F608.0
tp1960
atp1961
a(L14L
g33
(lp1962
(g35
I0
F12.0
tp1963
a(g8
F22.0
F299.0
tp1964
a(g37
F324.0
F327.0
tp1965
a(g39
F365.0
F554.0
tp1966
atp1967
a(L32L
g2
(lp1968
(g191
I0
F6.0
tp1969
a(g73
F6.0
F12.0
tp1970
a(g87
F12.0
F118.0
tp1971
a(g77
F118.0
F280.0
tp1972
a(g65
F322.0
F324.0
tp1973
a(g79
F324.0
F326.0
tp1974
a(g81
F330.0
F523.0
tp1975
a(g207
F523.0
F602.0
tp1976
atp1977
a(L35L
g849
(lp1978
(g91
F623.0
F623.0
tp1979
atp1980
a(L40L
g33
(lp1981
(g6
F11.0
F155.0
tp1982
a(g53
F155.0
F166.0
tp1983
a(g99
F300.0
F559.0
tp1984
atp1985
a(L44L
g2
(lp1986
(g107
F6.0
F174.0
tp1987
a(g95
F174.0
F280.0
tp1988
a(g214
F298.0
F299.0
tp1989
a(g111
F301.0
F455.0
tp1990
a(g133
F455.0
F609.0
tp1991
atp1992
a(L45L
g2
(lp1993
(g4
I0
F6.0
tp1994
a(g115
F11.0
F170.0
tp1995
a(g255
F170.0
F243.0
tp1996
a(g97
F296.0
F298.0
tp1997
a(g119
F298.0
F300.0
tp1998
a(g121
F300.0
F490.0
tp1999
a(g205
F490.0
F621.0
tp2000
a(g45
F621.0
F623.0
tp2001
atp2002
a(L46L
g210
(lp2003
(g127
I0
F22.0
tp2004
a(g129
F22.0
F45.0
tp2005
a(g131
F304.0
F311.0
tp2006
atp2007
a(L48L
g33
(lp2008
(g143
F33.0
F295.0
tp2009
a(g163
F298.0
F302.0
tp2010
a(g151
F304.0
F582.0
tp2011
atp2012
a(L52L
g2
(lp2013
(g49
I0
F5.0
tp2014
a(g161
F12.0
F180.0
tp2015
a(g55
F180.0
F271.0
tp2016
a(g117
F298.0
F300.0
tp2017
a(g165
F302.0
F483.0
tp2018
a(g149
F483.0
F569.0
tp2019
atp2020
a(L53L
g2
(lp2021
(g61
I0
F5.0
tp2022
a(g169
F5.0
F11.0
tp2023
a(g171
F11.0
F217.0
tp2024
a(g103
F217.0
F322.0
tp2025
a(g173
F324.0
F325.0
tp2026
a(g175
F325.0
F482.0
tp2027
atp2028
a(L55L
g33
(lp2029
(g179
I0
F11.0
tp2030
a(g181
F12.0
F269.0
tp2031
a(g185
F301.0
F484.0
tp2032
atp2033
a(L60L
g33
(lp2034
(g221
I0
F0.0
tp2035
atp2036
a(L62L
g2
(lp2037
(g193
F6.0
F180.0
tp2038
a(g67
F327.0
F432.0
tp2039
a(g197
F432.0
F621.0
tp2040
a(g199
F621.0
F623.0
tp2041
atp2042
a(L64L
g849
(lp2043
(g125
I0
F145.0
tp2044
a(g10
F324.0
F365.0
tp2045
a(g216
F365.0
F406.0
tp2046
atp2047
a(L70L
g33
(lp2048
(g159
I0
F11.0
tp2049
a(g237
F22.0
F220.0
tp2050
a(g239
F298.0
F301.0
tp2051
atp2052
a(L78L
g33
(lp2053
(g71
I0
F12.0
tp2054
a(g203
F23.0
F296.0
tp2055
a(g109
F298.0
F301.0
tp2056
a(g231
F327.0
F527.0
tp2057
atp2058
a(L85L
g33
(lp2059
(g235
I0
F11.0
tp2060
a(g139
F11.0
F22.0
tp2061
a(g141
F22.0
F33.0
tp2062
a(g145
F298.0
F301.0
tp2063
a(g147
F301.0
F304.0
tp2064
a(g241
F324.0
F327.0
tp2065
a(g243
F327.0
F330.0
tp2066
a(g245
F333.0
F611.0
tp2067
atp2068
a(L87L
g33
(lp2069
(g249
I0
F12.0
tp2070
a(g51
F12.0
F23.0
tp2071
a(g212
F23.0
F34.0
tp2072
a(g20
F34.0
F242.0
tp2073
a(g251
F299.0
F526.0
tp2074
atp2075
a(L97L
g2
(lp2076
(g43
F12.0
F161.0
tp2077
a(g257
F166.0
F242.0
tp2078
a(g57
F301.0
F448.0
tp2079
a(g259
F448.0
F612.0
tp2080
a(g83
F621.0
F623.0
tp2081
atp2082
a(L99L
g2
(lp2083
(g225
I0
F6.0
tp2084
a(g63
F6.0
F116.0
tp2085
a(g263
F116.0
F286.0
tp2086
a(g187
F326.0
F460.0
tp2087
a(g265
F460.0
F614.0
tp2088
atp2089
atp2090
a(F659.0
F15.83
(lp2091
(L32L
g2
(lp2092
(g139
I0
F6.0
tp2093
a(g73
F6.0
F12.0
tp2094
a(g87
F23.0
F129.0
tp2095
a(g77
F129.0
F291.0
tp2096
a(g65
F348.0
F350.0
tp2097
a(g79
F350.0
F352.0
tp2098
a(g81
F356.0
F549.0
tp2099
a(g207
F549.0
F628.0
tp2100
atp2101
a(L97L
g2
(lp2102
(g255
F6.0
F79.0
tp2103
a(g71
F79.0
F85.0
tp2104
a(g43
F85.0
F234.0
tp2105
a(g257
F234.0
F310.0
tp2106
a(g57
F315.0
F462.0
tp2107
a(g259
F462.0
F626.0
tp2108
atp2109
a(L99L
g2
(lp2110
(g225
I0
F6.0
tp2111
a(g63
F6.0
F116.0
tp2112
a(g263
F116.0
F286.0
tp2113
a(g187
F352.0
F486.0
tp2114
a(g265
F486.0
F640.0
tp2115
atp2116
a(L1L
g33
(lp2117
(g212
I0
F11.0
tp2118
a(g20
F11.0
F219.0
tp2119
a(g117
F312.0
F315.0
tp2120
a(g183
F315.0
F318.0
tp2121
a(g12
F342.0
F345.0
tp2122
a(g14
F345.0
F348.0
tp2123
a(g16
F348.0
F657.0
tp2124
atp2125
a(L7L
g219
(lp2126
(g221
I0
F0.0
tp2127
atp2128
a(L40L
g33
(lp2129
(g99
F315.0
F574.0
tp2130
atp2131
a(L64L
g849
(lp2132
(g125
I0
F145.0
tp2133
a(g10
F350.0
F391.0
tp2134
a(g216
F391.0
F432.0
tp2135
atp2136
a(L14L
g33
(lp2137
(g51
I0
F11.0
tp2138
a(g75
F11.0
F23.0
tp2139
a(g35
F23.0
F35.0
tp2140
a(g8
F35.0
F312.0
tp2141
a(g37
F350.0
F353.0
tp2142
a(g39
F391.0
F580.0
tp2143
atp2144
a(L55L
g33
(lp2145
(g6
F12.0
F156.0
tp2146
a(g119
F312.0
F315.0
tp2147
a(g185
F319.0
F502.0
tp2148
a(g83
F647.0
F650.0
tp2149
atp2150
a(L44L
g33
(lp2151
(g107
F6.0
F342.0
tp2152
a(g214
F342.0
F345.0
tp2153
a(g111
F345.0
F653.0
tp2154
atp2155
a(L45L
g2
(lp2156
(g4
I0
F6.0
tp2157
a(g115
F6.0
F165.0
tp2158
a(g155
F165.0
F310.0
tp2159
a(g97
F310.0
F312.0
tp2160
a(g121
F315.0
F505.0
tp2161
a(g205
F505.0
F636.0
tp2162
a(g45
F653.0
F655.0
tp2163
atp2164
a(L78L
g33
(lp2165
(g137
I0
F12.0
tp2166
a(g49
F12.0
F23.0
tp2167
a(g203
F23.0
F296.0
tp2168
a(g109
F312.0
F315.0
tp2169
a(g231
F353.0
F553.0
tp2170
atp2171
a(L13L
g33
(lp2172
(g53
I0
F11.0
tp2173
a(g161
F12.0
F348.0
tp2174
a(g195
F348.0
F351.0
tp2175
a(g229
F351.0
F354.0
tp2176
a(g22
F354.0
F357.0
tp2177
a(g24
F357.0
F360.0
tp2178
a(g26
F360.0
F363.0
tp2179
a(g28
F363.0
F366.0
tp2180
a(g30
F366.0
F638.0
tp2181
atp2182
a(L48L
g33
(lp2183
(g143
F18.0
F280.0
tp2184
a(g163
F312.0
F316.0
tp2185
a(g239
F316.0
F319.0
tp2186
a(g151
F354.0
F632.0
tp2187
atp2188
a(L35L
g33
(lp2189
(g91
F659.0
F659.0
tp2190
atp2191
a(L52L
g2
(lp2192
(g237
F6.0
F105.0
tp2193
a(g191
F105.0
F111.0
tp2194
a(g55
F111.0
F202.0
tp2195
a(g165
F316.0
F497.0
tp2196
a(g149
F497.0
F583.0
tp2197
atp2198
a(L53L
g2
(lp2199
(g179
I0
F6.0
tp2200
a(g159
F6.0
F12.0
tp2201
a(g141
F12.0
F18.0
tp2202
a(g61
F18.0
F23.0
tp2203
a(g169
F23.0
F29.0
tp2204
a(g171
F29.0
F235.0
tp2205
a(g103
F235.0
F340.0
tp2206
a(g173
F350.0
F351.0
tp2207
a(g175
F351.0
F508.0
tp2208
atp2209
a(L87L
g33
(lp2210
(g249
I0
F12.0
tp2211
a(g181
F12.0
F269.0
tp2212
a(g251
F345.0
F572.0
tp2213
atp2214
a(L46L
g33
(lp2215
(g127
I0
F11.0
tp2216
a(g129
F11.0
F22.0
tp2217
a(g131
F345.0
F348.0
tp2218
a(g133
F348.0
F655.0
tp2219
atp2220
a(L62L
g2
(lp2221
(g235
I0
F6.0
tp2222
a(g193
F111.0
F285.0
tp2223
a(g67
F353.0
F458.0
tp2224
a(g197
F458.0
F647.0
tp2225
a(g199
F657.0
F659.0
tp2226
atp2227
a(L85L
g33
(lp2228
(g95
F12.0
F224.0
tp2229
a(g145
F312.0
F315.0
tp2230
a(g147
F315.0
F318.0
tp2231
a(g241
F350.0
F353.0
tp2232
a(g243
F353.0
F356.0
tp2233
a(g245
F363.0
F641.0
tp2234
atp2235
atp2236
a(F679.0
F14.57
(lp2237
(L32L
g2
(lp2238
(g159
I0
F6.0
tp2239
a(g139
F6.0
F12.0
tp2240
a(g73
F12.0
F18.0
tp2241
a(g87
F18.0
F124.0
tp2242
a(g35
F124.0
F130.0
tp2243
a(g63
F130.0
F240.0
tp2244
a(g79
F365.0
F367.0
tp2245
a(g22
F367.0
F369.0
tp2246
a(g81
F371.0
F564.0
tp2247
a(g207
F564.0
F643.0
tp2248
atp2249
a(L97L
g2
(lp2250
(g255
F11.0
F84.0
tp2251
a(g43
F84.0
F233.0
tp2252
a(g257
F233.0
F309.0
tp2253
a(g183
F312.0
F313.0
tp2254
a(g205
F313.0
F444.0
tp2255
a(g259
F444.0
F608.0
tp2256
a(g83
F677.0
F679.0
tp2257
atp2258
a(L35L
g932
(lp2259
(g91
F679.0
F679.0
tp2260
atp2261
a(L1L
g33
(lp2262
(g212
I0
F11.0
tp2263
a(g20
F11.0
F219.0
tp2264
a(g109
F312.0
F315.0
tp2265
a(g145
F315.0
F318.0
tp2266
a(g12
F362.0
F365.0
tp2267
a(g14
F365.0
F368.0
tp2268
a(g16
F368.0
F677.0
tp2269
atp2270
a(L40L
g33
(lp2271
(g237
F12.0
F210.0
tp2272
a(g99
F315.0
F574.0
tp2273
atp2274
a(L64L
g849
(lp2275
(g195
F312.0
F354.0
tp2276
a(g216
F365.0
F406.0
tp2277
atp2278
a(L46L
g33
(lp2279
(g221
I0
F0.0
tp2280
a(g225
I0
F11.0
tp2281
a(g129
F11.0
F22.0
tp2282
a(g263
F22.0
F362.0
tp2283
a(g131
F365.0
F368.0
tp2284
a(g133
F368.0
F675.0
tp2285
atp2286
a(L44L
g33
(lp2287
(g107
F6.0
F342.0
tp2288
a(g147
F342.0
F345.0
tp2289
a(g65
F362.0
F365.0
tp2290
a(g241
F365.0
F368.0
tp2291
a(g187
F368.0
F637.0
tp2292
atp2293
a(L45L
g2
(lp2294
(g4
I0
F6.0
tp2295
a(g115
F6.0
F165.0
tp2296
a(g155
F165.0
F310.0
tp2297
a(g97
F310.0
F312.0
tp2298
a(g121
F315.0
F505.0
tp2299
a(g111
F505.0
F659.0
tp2300
a(g45
F677.0
F679.0
tp2301
atp2302
a(L14L
g33
(lp2303
(g235
I0
F11.0
tp2304
a(g75
F11.0
F23.0
tp2305
a(g169
F23.0
F35.0
tp2306
a(g127
F35.0
F46.0
tp2307
a(g8
F46.0
F323.0
tp2308
a(g39
F368.0
F557.0
tp2309
atp2310
a(L13L
g33
(lp2311
(g71
I0
F12.0
tp2312
a(g161
F18.0
F354.0
tp2313
a(g37
F365.0
F368.0
tp2314
a(g24
F368.0
F371.0
tp2315
a(g26
F371.0
F374.0
tp2316
a(g28
F374.0
F377.0
tp2317
a(g30
F377.0
F649.0
tp2318
atp2319
a(L48L
g33
(lp2320
(g143
F12.0
F274.0
tp2321
a(g163
F312.0
F316.0
tp2322
a(g151
F318.0
F596.0
tp2323
atp2324
a(L52L
g33
(lp2325
(g191
I0
F11.0
tp2326
a(g53
F11.0
F22.0
tp2327
a(g55
F23.0
F206.0
tp2328
a(g165
F316.0
F677.0
tp2329
atp2330
a(L53L
g2
(lp2331
(g179
I0
F6.0
tp2332
a(g141
F6.0
F12.0
tp2333
a(g61
F12.0
F17.0
tp2334
a(g171
F35.0
F241.0
tp2335
a(g103
F241.0
F346.0
tp2336
a(g173
F365.0
F366.0
tp2337
a(g175
F366.0
F523.0
tp2338
a(g265
F523.0
F677.0
tp2339
atp2340
a(L87L
g33
(lp2341
(g249
I0
F12.0
tp2342
a(g181
F12.0
F269.0
tp2343
a(g251
F315.0
F542.0
tp2344
atp2345
a(L55L
g33
(lp2346
(g6
F6.0
F150.0
tp2347
a(g239
F312.0
F315.0
tp2348
a(g185
F315.0
F498.0
tp2349
a(g149
F498.0
F671.0
tp2350
atp2351
a(L90L
g33
(lp2352
(g214
F312.0
F315.0
tp2353
a(g57
F315.0
F608.0
tp2354
atp2355
a(L78L
g33
(lp2356
(g49
I0
F11.0
tp2357
a(g51
F11.0
F22.0
tp2358
a(g203
F22.0
F295.0
tp2359
a(g117
F312.0
F315.0
tp2360
a(g231
F368.0
F568.0
tp2361
atp2362
a(L62L
g2
(lp2363
(g137
I0
F6.0
tp2364
a(g193
F11.0
F185.0
tp2365
a(g125
F185.0
F191.0
tp2366
a(g77
F191.0
F353.0
tp2367
a(g67
F368.0
F473.0
tp2368
a(g197
F473.0
F662.0
tp2369
a(g199
F677.0
F679.0
tp2370
atp2371
a(L85L
g33
(lp2372
(g95
F6.0
F218.0
tp2373
a(g119
F312.0
F315.0
tp2374
a(g229
F315.0
F318.0
tp2375
a(g10
F365.0
F368.0
tp2376
a(g243
F368.0
F371.0
tp2377
a(g245
F374.0
F652.0
tp2378
atp2379
atp2380
a(F756.0
F14.25
(lp2381
(L32L
g2
(lp2382
(g6
F12.0
F84.0
tp2383
a(g139
F84.0
F90.0
tp2384
a(g73
F90.0
F96.0
tp2385
a(g75
F96.0
F102.0
tp2386
a(g87
F102.0
F208.0
tp2387
a(g35
F208.0
F214.0
tp2388
a(g63
F214.0
F324.0
tp2389
a(g79
F435.0
F437.0
tp2390
a(g22
F437.0
F439.0
tp2391
a(g81
F439.0
F632.0
tp2392
a(g207
F632.0
F711.0
tp2393
atp2394
a(L97L
g2
(lp2395
(g255
F6.0
F79.0
tp2396
a(g43
F79.0
F228.0
tp2397
a(g257
F228.0
F304.0
tp2398
a(g183
F312.0
F313.0
tp2399
a(g205
F313.0
F444.0
tp2400
a(g259
F444.0
F608.0
tp2401
a(g83
F747.0
F749.0
tp2402
atp2403
a(L35L
g394
(lp2404
(g91
F756.0
F756.0
tp2405
atp2406
a(L1L
g33
(lp2407
(g20
F22.0
F230.0
tp2408
a(g117
F312.0
F315.0
tp2409
a(g12
F362.0
F365.0
tp2410
a(g14
F365.0
F368.0
tp2411
a(g16
F368.0
F677.0
tp2412
atp2413
a(L71L
g394
(lp2414
(g221
I0
F0.0
tp2415
atp2416
a(L40L
g33
(lp2417
(g237
F90.0
F288.0
tp2418
a(g99
F315.0
F574.0
tp2419
atp2420
a(L64L
g849
(lp2421
(g214
F312.0
F346.0
tp2422
a(g163
F346.0
F393.0
tp2423
a(g10
F435.0
F476.0
tp2424
a(g24
F476.0
F511.0
tp2425
a(g216
F511.0
F552.0
tp2426
atp2427
a(L14L
g33
(lp2428
(g51
I0
F11.0
tp2429
a(g212
F11.0
F22.0
tp2430
a(g169
F22.0
F34.0
tp2431
a(g127
F34.0
F45.0
tp2432
a(g8
F45.0
F322.0
tp2433
a(g39
F476.0
F665.0
tp2434
atp2435
a(L55L
g210
(lp2436
(g119
F312.0
F319.0
tp2437
a(g185
F348.0
F714.0
tp2438
atp2439
a(L44L
g33
(lp2440
(g107
F6.0
F342.0
tp2441
a(g109
F342.0
F345.0
tp2442
a(g239
F345.0
F348.0
tp2443
a(g65
F432.0
F435.0
tp2444
a(g241
F435.0
F438.0
tp2445
a(g187
F438.0
F707.0
tp2446
atp2447
a(L45L
g2
(lp2448
(g4
I0
F6.0
tp2449
a(g115
F6.0
F165.0
tp2450
a(g155
F165.0
F310.0
tp2451
a(g97
F310.0
F312.0
tp2452
a(g121
F319.0
F509.0
tp2453
a(g111
F509.0
F663.0
tp2454
a(g45
F754.0
F756.0
tp2455
atp2456
a(L78L
g33
(lp2457
(g49
I0
F11.0
tp2458
a(g203
F11.0
F284.0
tp2459
a(g149
F318.0
F491.0
tp2460
a(g231
F491.0
F691.0
tp2461
atp2462
a(L13L
g33
(lp2463
(g71
I0
F12.0
tp2464
a(g161
F96.0
F432.0
tp2465
a(g37
F435.0
F438.0
tp2466
a(g26
F438.0
F441.0
tp2467
a(g28
F441.0
F444.0
tp2468
a(g30
F444.0
F716.0
tp2469
atp2470
a(L48L
g33
(lp2471
(g143
F18.0
F280.0
tp2472
a(g195
F312.0
F315.0
tp2473
a(g151
F321.0
F599.0
tp2474
atp2475
a(L52L
g33
(lp2476
(g191
I0
F11.0
tp2477
a(g53
F11.0
F22.0
tp2478
a(g55
F102.0
F285.0
tp2479
a(g165
F393.0
F754.0
tp2480
atp2481
a(L53L
g2
(lp2482
(g179
I0
F6.0
tp2483
a(g159
F6.0
F12.0
tp2484
a(g141
F12.0
F18.0
tp2485
a(g61
F18.0
F23.0
tp2486
a(g171
F34.0
F240.0
tp2487
a(g103
F240.0
F345.0
tp2488
a(g173
F435.0
F436.0
tp2489
a(g175
F436.0
F593.0
tp2490
a(g265
F593.0
F747.0
tp2491
atp2492
a(L87L
g33
(lp2493
(g249
I0
F12.0
tp2494
a(g181
F12.0
F269.0
tp2495
a(g251
F346.0
F573.0
tp2496
atp2497
a(L46L
g33
(lp2498
(g225
I0
F11.0
tp2499
a(g129
F11.0
F22.0
tp2500
a(g263
F22.0
F362.0
tp2501
a(g131
F365.0
F368.0
tp2502
a(g133
F368.0
F675.0
tp2503
atp2504
a(L95L
g33
(lp2505
(g57
F345.0
F638.0
tp2506
atp2507
a(L62L
g2
(lp2508
(g235
I0
F6.0
tp2509
a(g137
F6.0
F12.0
tp2510
a(g193
F12.0
F186.0
tp2511
a(g125
F186.0
F192.0
tp2512
a(g77
F214.0
F376.0
tp2513
a(g67
F438.0
F543.0
tp2514
a(g197
F543.0
F732.0
tp2515
a(g199
F732.0
F734.0
tp2516
atp2517
a(L85L
g33
(lp2518
(g95
F12.0
F224.0
tp2519
a(g145
F312.0
F315.0
tp2520
a(g147
F315.0
F318.0
tp2521
a(g229
F318.0
F321.0
tp2522
a(g243
F435.0
F438.0
tp2523
a(g245
F441.0
F719.0
tp2524
atp2525
atp2526
a(F757.0
F13.62
(lp2527
(L32L
g2
(lp2528
(g6
F12.0
F84.0
tp2529
a(g139
F84.0
F90.0
tp2530
a(g73
F90.0
F96.0
tp2531
a(g75
F96.0
F102.0
tp2532
a(g87
F102.0
F208.0
tp2533
a(g35
F208.0
F214.0
tp2534
a(g63
F214.0
F324.0
tp2535
a(g79
F435.0
F437.0
tp2536
a(g22
F437.0
F439.0
tp2537
a(g81
F439.0
F632.0
tp2538
a(g207
F632.0
F711.0
tp2539
atp2540
a(L97L
g2
(lp2541
(g255
F6.0
F79.0
tp2542
a(g43
F79.0
F228.0
tp2543
a(g257
F228.0
F304.0
tp2544
a(g183
F312.0
F313.0
tp2545
a(g205
F313.0
F444.0
tp2546
a(g57
F444.0
F591.0
tp2547
a(g259
F591.0
F755.0
tp2548
a(g83
F755.0
F757.0
tp2549
atp2550
a(L35L
g394
(lp2551
(g91
F757.0
F757.0
tp2552
atp2553
a(L1L
g33
(lp2554
(g20
F22.0
F230.0
tp2555
a(g117
F312.0
F315.0
tp2556
a(g12
F362.0
F365.0
tp2557
a(g14
F365.0
F368.0
tp2558
a(g16
F368.0
F677.0
tp2559
atp2560
a(L71L
g394
(lp2561
(g221
I0
F0.0
tp2562
atp2563
a(L40L
g33
(lp2564
(g237
F90.0
F288.0
tp2565
a(g99
F315.0
F574.0
tp2566
atp2567
a(L64L
g849
(lp2568
(g214
F312.0
F346.0
tp2569
a(g163
F346.0
F393.0
tp2570
a(g10
F435.0
F476.0
tp2571
a(g24
F476.0
F511.0
tp2572
a(g216
F511.0
F552.0
tp2573
atp2574
a(L14L
g33
(lp2575
(g51
I0
F11.0
tp2576
a(g212
F11.0
F22.0
tp2577
a(g169
F22.0
F34.0
tp2578
a(g127
F34.0
F45.0
tp2579
a(g8
F45.0
F322.0
tp2580
a(g39
F476.0
F665.0
tp2581
atp2582
a(L55L
g210
(lp2583
(g119
F312.0
F319.0
tp2584
a(g185
F348.0
F714.0
tp2585
atp2586
a(L44L
g33
(lp2587
(g107
F6.0
F342.0
tp2588
a(g109
F342.0
F345.0
tp2589
a(g239
F345.0
F348.0
tp2590
a(g65
F432.0
F435.0
tp2591
a(g241
F435.0
F438.0
tp2592
a(g187
F438.0
F707.0
tp2593
atp2594
a(L45L
g2
(lp2595
(g4
I0
F6.0
tp2596
a(g115
F6.0
F165.0
tp2597
a(g155
F165.0
F310.0
tp2598
a(g97
F310.0
F312.0
tp2599
a(g121
F319.0
F509.0
tp2600
a(g111
F509.0
F663.0
tp2601
a(g45
F755.0
F757.0
tp2602
atp2603
a(L78L
g33
(lp2604
(g49
I0
F11.0
tp2605
a(g203
F11.0
F284.0
tp2606
a(g149
F318.0
F491.0
tp2607
a(g231
F491.0
F691.0
tp2608
atp2609
a(L13L
g33
(lp2610
(g71
I0
F12.0
tp2611
a(g161
F96.0
F432.0
tp2612
a(g37
F435.0
F438.0
tp2613
a(g26
F438.0
F441.0
tp2614
a(g28
F441.0
F444.0
tp2615
a(g30
F444.0
F716.0
tp2616
atp2617
a(L48L
g33
(lp2618
(g143
F18.0
F280.0
tp2619
a(g195
F312.0
F315.0
tp2620
a(g151
F321.0
F599.0
tp2621
atp2622
a(L52L
g33
(lp2623
(g191
I0
F11.0
tp2624
a(g53
F11.0
F22.0
tp2625
a(g55
F102.0
F285.0
tp2626
a(g165
F393.0
F754.0
tp2627
atp2628
a(L53L
g2
(lp2629
(g179
I0
F6.0
tp2630
a(g159
F6.0
F12.0
tp2631
a(g141
F12.0
F18.0
tp2632
a(g61
F18.0
F23.0
tp2633
a(g171
F34.0
F240.0
tp2634
a(g103
F240.0
F345.0
tp2635
a(g173
F435.0
F436.0
tp2636
a(g175
F436.0
F593.0
tp2637
a(g265
F593.0
F747.0
tp2638
atp2639
a(L87L
g33
(lp2640
(g249
I0
F12.0
tp2641
a(g181
F12.0
F269.0
tp2642
a(g251
F346.0
F573.0
tp2643
atp2644
a(L46L
g33
(lp2645
(g225
I0
F11.0
tp2646
a(g129
F11.0
F22.0
tp2647
a(g263
F22.0
F362.0
tp2648
a(g131
F365.0
F368.0
tp2649
a(g133
F368.0
F675.0
tp2650
atp2651
a(L62L
g2
(lp2652
(g235
I0
F6.0
tp2653
a(g137
F6.0
F12.0
tp2654
a(g193
F12.0
F186.0
tp2655
a(g125
F186.0
F192.0
tp2656
a(g77
F214.0
F376.0
tp2657
a(g67
F438.0
F543.0
tp2658
a(g197
F543.0
F732.0
tp2659
a(g199
F732.0
F734.0
tp2660
atp2661
a(L85L
g33
(lp2662
(g95
F12.0
F224.0
tp2663
a(g145
F312.0
F315.0
tp2664
a(g147
F315.0
F318.0
tp2665
a(g229
F318.0
F321.0
tp2666
a(g243
F435.0
F438.0
tp2667
a(g245
F441.0
F719.0
tp2668
atp2669
atp2670
a(F857.0
F13.07
(lp2671
(L1L
g33
(lp2672
(g137
I0
F12.0
tp2673
a(g257
F33.0
F185.0
tp2674
a(g103
F185.0
F396.0
tp2675
a(g79
F465.0
F468.0
tp2676
a(g12
F527.0
F530.0
tp2677
a(g131
F530.0
F533.0
tp2678
a(g14
F533.0
F536.0
tp2679
a(g16
F536.0
F845.0
tp2680
atp2681
a(L5L
g210
(lp2682
(g141
I0
F22.0
tp2683
a(g99
F324.0
F843.0
tp2684
atp2685
a(L11L
g33
(lp2686
(g129
I0
F11.0
tp2687
a(g263
F11.0
F351.0
tp2688
a(g65
F462.0
F465.0
tp2689
a(g175
F468.0
F782.0
tp2690
atp2691
a(L14L
g33
(lp2692
(g159
I0
F11.0
tp2693
a(g212
F11.0
F22.0
tp2694
a(g125
F22.0
F33.0
tp2695
a(g35
F33.0
F45.0
tp2696
a(g8
F143.0
F420.0
tp2697
a(g133
F533.0
F840.0
tp2698
atp2699
a(L17L
g219
(lp2700
(g221
I0
F0.0
tp2701
atp2702
a(L24L
g210
(lp2703
(g181
F12.0
F527.0
tp2704
atp2705
a(L33L
g2
(lp2706
(g91
F857.0
F857.0
tp2707
atp2708
a(L40L
g33
(lp2709
(g237
F22.0
F220.0
tp2710
a(g229
F321.0
F324.0
tp2711
a(g187
F468.0
F737.0
tp2712
atp2713
a(L41L
g33
(lp2714
(g71
I0
F12.0
tp2715
a(g55
F23.0
F206.0
tp2716
a(g117
F321.0
F324.0
tp2717
a(g205
F554.0
F815.0
tp2718
atp2719
a(L44L
g33
(lp2720
(g107
F11.0
F347.0
tp2721
a(g119
F347.0
F350.0
tp2722
a(g39
F544.0
F733.0
tp2723
atp2724
a(L45L
g33
(lp2725
(g179
I0
F11.0
tp2726
a(g155
F11.0
F302.0
tp2727
a(g214
F321.0
F324.0
tp2728
a(g145
F324.0
F327.0
tp2729
a(g111
F327.0
F635.0
tp2730
a(g207
F635.0
F793.0
tp2731
atp2732
a(L48L
g33
(lp2733
(g4
I0
F11.0
tp2734
a(g139
F11.0
F22.0
tp2735
a(g53
F22.0
F33.0
tp2736
a(g161
F33.0
F369.0
tp2737
a(g239
F369.0
F372.0
tp2738
a(g185
F372.0
F555.0
tp2739
a(g151
F555.0
F833.0
tp2740
atp2741
a(L52L
g33
(lp2742
(g49
I0
F11.0
tp2743
a(g143
F22.0
F284.0
tp2744
a(g165
F323.0
F684.0
tp2745
atp2746
a(L53L
g33
(lp2747
(g73
I0
F11.0
tp2748
a(g169
F11.0
F23.0
tp2749
a(g171
F23.0
F436.0
tp2750
a(g22
F465.0
F468.0
tp2751
a(g265
F468.0
F776.0
tp2752
atp2753
a(L55L
g33
(lp2754
(g6
F11.0
F155.0
tp2755
a(g251
F324.0
F551.0
tp2756
a(g183
F551.0
F554.0
tp2757
a(g67
F554.0
F764.0
tp2758
atp2759
a(L62L
g2
(lp2760
(g235
I0
F6.0
tp2761
a(g255
F6.0
F79.0
tp2762
a(g191
F79.0
F85.0
tp2763
a(g193
F85.0
F259.0
tp2764
a(g163
F321.0
F323.0
tp2765
a(g37
F465.0
F467.0
tp2766
a(g197
F470.0
F659.0
tp2767
a(g199
F845.0
F847.0
tp2768
atp2769
a(L72L
g849
(lp2770
(g195
F321.0
F363.0
tp2771
a(g241
F465.0
F503.0
tp2772
a(g10
F503.0
F544.0
tp2773
atp2774
a(L78L
g33
(lp2775
(g203
F11.0
F284.0
tp2776
a(g57
F324.0
F617.0
tp2777
a(g231
F617.0
F817.0
tp2778
atp2779
a(L82L
g849
(lp2780
(g127
I0
F143.0
tp2781
a(g28
F530.0
F572.0
tp2782
atp2783
a(L85L
g33
(lp2784
(g95
F12.0
F224.0
tp2785
a(g109
F321.0
F324.0
tp2786
a(g147
F324.0
F327.0
tp2787
a(g26
F465.0
F468.0
tp2788
a(g245
F468.0
F746.0
tp2789
atp2790
a(L87L
g33
(lp2791
(g249
I0
F12.0
tp2792
a(g20
F22.0
F230.0
tp2793
a(g87
F230.0
F441.0
tp2794
a(g243
F465.0
F468.0
tp2795
a(g81
F468.0
F855.0
tp2796
atp2797
a(L90L
g33
(lp2798
(g51
I0
F11.0
tp2799
a(g75
F11.0
F23.0
tp2800
a(g61
F23.0
F34.0
tp2801
a(g77
F45.0
F369.0
tp2802
a(g173
F465.0
F468.0
tp2803
a(g30
F572.0
F844.0
tp2804
atp2805
a(L97L
g2
(lp2806
(g115
F11.0
F170.0
tp2807
a(g43
F170.0
F319.0
tp2808
a(g97
F319.0
F321.0
tp2809
a(g121
F350.0
F540.0
tp2810
a(g259
F540.0
F704.0
tp2811
a(g149
F704.0
F790.0
tp2812
a(g45
F843.0
F845.0
tp2813
a(g83
F855.0
F857.0
tp2814
atp2815
a(L99L
g210
(lp2816
(g225
I0
F23.0
tp2817
a(g63
F23.0
F462.0
tp2818
a(g24
F465.0
F470.0
tp2819
a(g216
F530.0
F536.0
tp2820
atp2821
atp2822
a(F883.0
F12.05
(lp2823
(L1L
g33
(lp2824
(g191
I0
F11.0
tp2825
a(g257
F45.0
F197.0
tp2826
a(g103
F197.0
F408.0
tp2827
a(g79
F490.0
F493.0
tp2828
a(g24
F493.0
F496.0
tp2829
a(g12
F496.0
F499.0
tp2830
a(g131
F499.0
F502.0
tp2831
a(g16
F543.0
F852.0
tp2832
atp2833
a(L3L
g210
(lp2834
(g63
F33.0
F472.0
tp2835
a(g28
F499.0
F505.0
tp2836
atp2837
a(L11L
g33
(lp2838
(g49
I0
F11.0
tp2839
a(g141
F11.0
F22.0
tp2840
a(g225
F22.0
F33.0
tp2841
a(g263
F147.0
F487.0
tp2842
a(g175
F496.0
F810.0
tp2843
atp2844
a(L14L
g33
(lp2845
(g235
I0
F11.0
tp2846
a(g61
F11.0
F22.0
tp2847
a(g125
F22.0
F33.0
tp2848
a(g35
F33.0
F45.0
tp2849
a(g127
F45.0
F56.0
tp2850
a(g8
F56.0
F333.0
tp2851
a(g133
F502.0
F809.0
tp2852
atp2853
a(L20L
g210
(lp2854
(g71
I0
F23.0
tp2855
a(g53
F23.0
F45.0
tp2856
a(g99
F362.0
F881.0
tp2857
atp2858
a(L35L
g210
(lp2859
(g91
F883.0
F883.0
tp2860
atp2861
a(L40L
g33
(lp2862
(g255
F11.0
F157.0
tp2863
a(g237
F157.0
F355.0
tp2864
a(g251
F363.0
F590.0
tp2865
a(g241
F590.0
F593.0
tp2866
a(g187
F593.0
F862.0
tp2867
atp2868
a(L41L
g33
(lp2869
(g4
I0
F11.0
tp2870
a(g51
F11.0
F22.0
tp2871
a(g212
F22.0
F33.0
tp2872
a(g75
F33.0
F45.0
tp2873
a(g55
F45.0
F228.0
tp2874
a(g205
F363.0
F624.0
tp2875
a(g67
F624.0
F834.0
tp2876
atp2877
a(L44L
g33
(lp2878
(g107
F11.0
F347.0
tp2879
a(g163
F360.0
F364.0
tp2880
a(g145
F364.0
F367.0
tp2881
a(g195
F367.0
F370.0
tp2882
a(g37
F490.0
F493.0
tp2883
a(g173
F493.0
F496.0
tp2884
a(g39
F496.0
F685.0
tp2885
atp2886
a(L45L
g33
(lp2887
(g159
I0
F11.0
tp2888
a(g155
F11.0
F302.0
tp2889
a(g183
F360.0
F363.0
tp2890
a(g109
F363.0
F366.0
tp2891
a(g111
F367.0
F675.0
tp2892
a(g216
F675.0
F678.0
tp2893
a(g207
F678.0
F836.0
tp2894
atp2895
a(L48L
g33
(lp2896
(g139
I0
F11.0
tp2897
a(g161
F11.0
F347.0
tp2898
a(g151
F373.0
F651.0
tp2899
atp2900
a(L51L
g210
(lp2901
(g6
F11.0
F300.0
tp2902
a(g119
F360.0
F367.0
tp2903
a(g229
F367.0
F373.0
tp2904
atp2905
a(L52L
g33
(lp2906
(g137
I0
F12.0
tp2907
a(g143
F22.0
F284.0
tp2908
a(g165
F364.0
F725.0
tp2909
a(g83
F880.0
F883.0
tp2910
atp2911
a(L53L
g33
(lp2912
(g73
I0
F11.0
tp2913
a(g171
F12.0
F425.0
tp2914
a(g22
F490.0
F493.0
tp2915
a(g265
F493.0
F801.0
tp2916
atp2917
a(L57L
g210
(lp2918
(g20
F33.0
F449.0
tp2919
atp2920
a(L62L
g33
(lp2921
(g193
F11.0
F358.0
tp2922
a(g239
F360.0
F363.0
tp2923
a(g65
F487.0
F490.0
tp2924
a(g10
F490.0
F493.0
tp2925
a(g197
F496.0
F874.0
tp2926
a(g199
F874.0
F877.0
tp2927
atp2928
a(L64L
g394
(lp2929
(g221
I0
F0.0
tp2930
atp2931
a(L78L
g33
(lp2932
(g203
F22.0
F295.0
tp2933
a(g57
F366.0
F659.0
tp2934
a(g231
F659.0
F859.0
tp2935
atp2936
a(L82L
g849
(lp2937
(g129
I0
F147.0
tp2938
a(g14
F499.0
F543.0
tp2939
atp2940
a(L85L
g33
(lp2941
(g249
I0
F12.0
tp2942
a(g95
F12.0
F224.0
tp2943
a(g214
F360.0
F363.0
tp2944
a(g185
F363.0
F546.0
tp2945
a(g147
F546.0
F549.0
tp2946
a(g26
F549.0
F552.0
tp2947
a(g245
F552.0
F830.0
tp2948
atp2949
a(L87L
g33
(lp2950
(g181
F12.0
F269.0
tp2951
a(g87
F269.0
F480.0
tp2952
a(g243
F490.0
F493.0
tp2953
a(g81
F493.0
F880.0
tp2954
atp2955
a(L90L
g33
(lp2956
(g169
I0
F12.0
tp2957
a(g77
F45.0
F369.0
tp2958
a(g30
F505.0
F777.0
tp2959
atp2960
a(L97L
g2
(lp2961
(g179
I0
F6.0
tp2962
a(g115
F6.0
F165.0
tp2963
a(g43
F165.0
F314.0
tp2964
a(g97
F358.0
F360.0
tp2965
a(g117
F360.0
F362.0
tp2966
a(g121
F367.0
F557.0
tp2967
a(g259
F557.0
F721.0
tp2968
a(g149
F721.0
F807.0
tp2969
a(g45
F881.0
F883.0
tp2970
atp2971
atp2972
a(F986.0
F11.58
(lp2973
(L1L
g33
(lp2974
(g141
I0
F11.0
tp2975
a(g257
F11.0
F163.0
tp2976
a(g195
F395.0
F398.0
tp2977
a(g14
F509.0
F512.0
tp2978
atp2979
a(L3L
g219
(lp2980
(g137
I0
F50.0
tp2981
a(g212
F50.0
F98.0
tp2982
a(g117
F395.0
F409.0
tp2983
a(g119
F409.0
F423.0
tp2984
a(g229
F423.0
F436.0
tp2985
a(g131
F509.0
F523.0
tp2986
atp2987
a(L11L
g33
(lp2988
(g71
I0
F12.0
tp2989
a(g125
F12.0
F23.0
tp2990
a(g77
F24.0
F348.0
tp2991
a(g241
F503.0
F506.0
tp2992
a(g175
F506.0
F820.0
tp2993
atp2994
a(L14L
g33
(lp2995
(g235
I0
F11.0
tp2996
a(g127
F11.0
F22.0
tp2997
a(g8
F22.0
F299.0
tp2998
a(g173
F503.0
F506.0
tp2999
a(g133
F523.0
F830.0
tp3000
atp3001
a(L17L
g219
(lp3002
(g221
I0
F0.0
tp3003
atp3004
a(L26L
g210
(lp3005
(g55
F12.0
F378.0
tp3006
a(g251
F398.0
F853.0
tp3007
atp3008
a(L40L
g33
(lp3009
(g237
F11.0
F209.0
tp3010
a(g99
F409.0
F668.0
tp3011
atp3012
a(L44L
g33
(lp3013
(g107
F11.0
F347.0
tp3014
a(g214
F395.0
F398.0
tp3015
a(g147
F398.0
F401.0
tp3016
a(g187
F506.0
F775.0
tp3017
a(g39
F775.0
F964.0
tp3018
atp3019
a(L45L
g33
(lp3020
(g179
I0
F11.0
tp3021
a(g155
F22.0
F313.0
tp3022
a(g239
F395.0
F398.0
tp3023
a(g111
F398.0
F706.0
tp3024
a(g151
F706.0
F984.0
tp3025
atp3026
a(L52L
g33
(lp3027
(g143
F11.0
F273.0
tp3028
a(g97
F392.0
F395.0
tp3029
a(g165
F399.0
F760.0
tp3030
a(g67
F760.0
F970.0
tp3031
atp3032
a(L53L
g33
(lp3033
(g4
I0
F11.0
tp3034
a(g49
F11.0
F22.0
tp3035
a(g171
F66.0
F479.0
tp3036
a(g79
F503.0
F506.0
tp3037
a(g265
F509.0
F817.0
tp3038
atp3039
a(L62L
g33
(lp3040
(g51
I0
F11.0
tp3041
a(g191
F11.0
F22.0
tp3042
a(g193
F22.0
F369.0
tp3043
a(g163
F395.0
F399.0
tp3044
a(g183
F399.0
F402.0
tp3045
a(g185
F402.0
F585.0
tp3046
a(g37
F585.0
F588.0
tp3047
a(g197
F588.0
F966.0
tp3048
a(g199
F966.0
F969.0
tp3049
atp3050
a(L64L
g849
(lp3051
(g129
I0
F147.0
tp3052
a(g26
F503.0
F546.0
tp3053
atp3054
a(L66L
g33
(lp3055
(g75
I0
F12.0
tp3056
a(g35
F12.0
F24.0
tp3057
a(g263
F147.0
F487.0
tp3058
a(g24
F503.0
F506.0
tp3059
a(g12
F506.0
F509.0
tp3060
a(g207
F515.0
F673.0
tp3061
a(g30
F673.0
F945.0
tp3062
atp3063
a(L67L
g849
(lp3064
(g91
F986.0
F986.0
tp3065
atp3066
a(L72L
g210
(lp3067
(g73
I0
F22.0
tp3068
a(g61
F22.0
F43.0
tp3069
a(g169
F43.0
F66.0
tp3070
a(g103
F66.0
F487.0
tp3071
a(g65
F496.0
F503.0
tp3072
a(g22
F503.0
F509.0
tp3073
a(g216
F509.0
F515.0
tp3074
atp3075
a(L78L
g33
(lp3076
(g139
I0
F11.0
tp3077
a(g203
F11.0
F284.0
tp3078
a(g109
F395.0
F398.0
tp3079
a(g57
F398.0
F691.0
tp3080
a(g231
F691.0
F891.0
tp3081
a(g83
F970.0
F973.0
tp3082
atp3083
a(L85L
g33
(lp3084
(g95
F50.0
F262.0
tp3085
a(g243
F503.0
F506.0
tp3086
a(g245
F546.0
F824.0
tp3087
atp3088
a(L87L
g33
(lp3089
(g249
I0
F12.0
tp3090
a(g181
F12.0
F269.0
tp3091
a(g87
F269.0
F480.0
tp3092
a(g10
F503.0
F506.0
tp3093
a(g81
F506.0
F893.0
tp3094
atp3095
a(L90L
g33
(lp3096
(g53
I0
F11.0
tp3097
a(g161
F22.0
F358.0
tp3098
a(g145
F395.0
F398.0
tp3099
a(g149
F401.0
F574.0
tp3100
a(g16
F574.0
F883.0
tp3101
atp3102
a(L97L
g2
(lp3103
(g115
F11.0
F170.0
tp3104
a(g255
F170.0
F243.0
tp3105
a(g43
F243.0
F392.0
tp3106
a(g20
F392.0
F496.0
tp3107
a(g121
F496.0
F686.0
tp3108
a(g259
F686.0
F850.0
tp3109
a(g45
F984.0
F986.0
tp3110
atp3111
a(L99L
g210
(lp3112
(g159
I0
F22.0
tp3113
a(g225
F22.0
F45.0
tp3114
a(g63
F45.0
F484.0
tp3115
a(g28
F509.0
F515.0
tp3116
atp3117
a(L100L
g210
(lp3118
(g6
F22.0
F311.0
tp3119
a(g205
F402.0
F925.0
tp3120
atp3121
atp3122
a(F1002.0
F10.87
(lp3123
(L1L
g210
(lp3124
(g141
I0
F22.0
tp3125
a(g257
F22.0
F326.0
tp3126
a(g195
F411.0
F417.0
tp3127
a(g14
F523.0
F530.0
tp3128
atp3129
a(L2L
g394
(lp3130
(g91
F1002.0
F1002.0
tp3131
atp3132
a(L3L
g849
(lp3133
(g137
I0
F150.0
tp3134
a(g212
F150.0
F293.0
tp3135
a(g119
F411.0
F454.0
tp3136
a(g229
F454.0
F493.0
tp3137
a(g131
F523.0
F566.0
tp3138
atp3139
a(L11L
g33
(lp3140
(g221
I0
F0.0
tp3141
a(g71
I0
F12.0
tp3142
a(g125
F12.0
F23.0
tp3143
a(g77
F24.0
F348.0
tp3144
a(g241
F517.0
F520.0
tp3145
a(g175
F520.0
F834.0
tp3146
atp3147
a(L14L
g33
(lp3148
(g235
I0
F11.0
tp3149
a(g127
F11.0
F22.0
tp3150
a(g8
F22.0
F299.0
tp3151
a(g173
F517.0
F520.0
tp3152
a(g133
F566.0
F873.0
tp3153
atp3154
a(L26L
g210
(lp3155
(g55
F12.0
F378.0
tp3156
a(g251
F414.0
F869.0
tp3157
atp3158
a(L40L
g210
(lp3159
(g237
F11.0
F408.0
tp3160
a(g99
F417.0
F936.0
tp3161
atp3162
a(L44L
g33
(lp3163
(g107
F23.0
F359.0
tp3164
a(g214
F411.0
F414.0
tp3165
a(g147
F414.0
F417.0
tp3166
a(g187
F520.0
F789.0
tp3167
a(g39
F789.0
F978.0
tp3168
atp3169
a(L45L
g33
(lp3170
(g155
F34.0
F325.0
tp3171
a(g239
F411.0
F414.0
tp3172
a(g111
F414.0
F722.0
tp3173
a(g151
F722.0
F1000.0
tp3174
atp3175
a(L52L
g33
(lp3176
(g143
F22.0
F284.0
tp3177
a(g97
F408.0
F411.0
tp3178
a(g165
F415.0
F776.0
tp3179
a(g67
F776.0
F986.0
tp3180
atp3181
a(L53L
g33
(lp3182
(g249
I0
F12.0
tp3183
a(g4
F12.0
F23.0
tp3184
a(g49
F23.0
F34.0
tp3185
a(g171
F89.0
F502.0
tp3186
a(g79
F517.0
F520.0
tp3187
a(g265
F523.0
F831.0
tp3188
atp3189
a(L62L
g33
(lp3190
(g51
I0
F11.0
tp3191
a(g191
F11.0
F22.0
tp3192
a(g193
F22.0
F369.0
tp3193
a(g163
F411.0
F415.0
tp3194
a(g183
F415.0
F418.0
tp3195
a(g185
F418.0
F601.0
tp3196
a(g37
F601.0
F604.0
tp3197
a(g197
F604.0
F982.0
tp3198
a(g199
F982.0
F985.0
tp3199
atp3200
a(L64L
g849
(lp3201
(g129
I0
F147.0
tp3202
a(g26
F517.0
F560.0
tp3203
atp3204
a(L66L
g33
(lp3205
(g75
I0
F12.0
tp3206
a(g35
F12.0
F24.0
tp3207
a(g263
F147.0
F487.0
tp3208
a(g24
F517.0
F520.0
tp3209
a(g12
F520.0
F523.0
tp3210
a(g207
F529.0
F687.0
tp3211
a(g30
F687.0
F959.0
tp3212
atp3213
a(L72L
g210
(lp3214
(g179
I0
F23.0
tp3215
a(g73
F23.0
F45.0
tp3216
a(g61
F45.0
F66.0
tp3217
a(g169
F66.0
F89.0
tp3218
a(g103
F89.0
F510.0
tp3219
a(g65
F510.0
F517.0
tp3220
a(g22
F517.0
F523.0
tp3221
a(g216
F523.0
F529.0
tp3222
atp3223
a(L78L
g33
(lp3224
(g139
I0
F11.0
tp3225
a(g203
F11.0
F284.0
tp3226
a(g109
F411.0
F414.0
tp3227
a(g57
F414.0
F707.0
tp3228
a(g231
F707.0
F907.0
tp3229
a(g83
F986.0
F989.0
tp3230
atp3231
a(L85L
g33
(lp3232
(g95
F150.0
F362.0
tp3233
a(g243
F517.0
F520.0
tp3234
a(g245
F560.0
F838.0
tp3235
atp3236
a(L87L
g33
(lp3237
(g181
F12.0
F269.0
tp3238
a(g87
F269.0
F480.0
tp3239
a(g10
F517.0
F520.0
tp3240
a(g81
F520.0
F907.0
tp3241
atp3242
a(L90L
g33
(lp3243
(g53
I0
F11.0
tp3244
a(g161
F45.0
F381.0
tp3245
a(g145
F411.0
F414.0
tp3246
a(g149
F417.0
F590.0
tp3247
a(g16
F590.0
F899.0
tp3248
atp3249
a(L97L
g2
(lp3250
(g115
F23.0
F182.0
tp3251
a(g255
F182.0
F255.0
tp3252
a(g43
F255.0
F404.0
tp3253
a(g20
F404.0
F508.0
tp3254
a(g121
F508.0
F698.0
tp3255
a(g259
F698.0
F862.0
tp3256
a(g45
F1000.0
F1002.0
tp3257
atp3258
a(L99L
g210
(lp3259
(g159
I0
F22.0
tp3260
a(g225
F22.0
F45.0
tp3261
a(g63
F45.0
F484.0
tp3262
a(g28
F523.0
F529.0
tp3263
atp3264
a(L100L
g210
(lp3265
(g6
F22.0
F311.0
tp3266
a(g117
F411.0
F417.0
tp3267
a(g205
F418.0
F941.0
tp3268
atp3269
atp3270
a(F1143.0
F10.56
(lp3271
(L1L
g33
(lp3272
(g6
F11.0
F155.0
tp3273
a(g61
F155.0
F166.0
tp3274
a(g171
F166.0
F579.0
tp3275
a(g26
F582.0
F585.0
tp3276
a(g12
F585.0
F588.0
tp3277
a(g16
F594.0
F903.0
tp3278
atp3279
a(L3L
g932
(lp3280
(g75
I0
F75.0
tp3281
a(g239
F559.0
F579.0
tp3282
a(g195
F579.0
F600.0
tp3283
atp3284
a(L7L
g219
(lp3285
(g221
I0
F0.0
tp3286
atp3287
a(L11L
g33
(lp3288
(g77
F12.0
F336.0
tp3289
a(g216
F588.0
F591.0
tp3290
a(g207
F591.0
F749.0
tp3291
atp3292
a(L13L
g33
(lp3293
(g193
F22.0
F369.0
tp3294
a(g257
F369.0
F521.0
tp3295
a(g119
F559.0
F562.0
tp3296
a(g145
F562.0
F565.0
tp3297
a(g229
F565.0
F568.0
tp3298
a(g231
F585.0
F785.0
tp3299
a(g175
F785.0
F1099.0
tp3300
atp3301
a(L14L
g33
(lp3302
(g35
I0
F12.0
tp3303
a(g63
F149.0
F368.0
tp3304
a(g241
F582.0
F585.0
tp3305
a(g39
F634.0
F823.0
tp3306
a(g133
F823.0
F1130.0
tp3307
atp3308
a(L26L
g210
(lp3309
(g55
F75.0
F441.0
tp3310
a(g251
F593.0
F1048.0
tp3311
atp3312
a(L34L
g849
(lp3313
(g73
I0
F144.0
tp3314
a(g214
F559.0
F593.0
tp3315
a(g10
F593.0
F634.0
tp3316
atp3317
a(L40L
g210
(lp3318
(g143
F33.0
F556.0
tp3319
a(g117
F559.0
F565.0
tp3320
a(g99
F565.0
F1084.0
tp3321
atp3322
a(L44L
g210
(lp3323
(g235
I0
F22.0
tp3324
a(g103
F33.0
F454.0
tp3325
a(g187
F588.0
F1125.0
tp3326
a(g199
F1130.0
F1136.0
tp3327
atp3328
a(L45L
g33
(lp3329
(g4
I0
F11.0
tp3330
a(g115
F11.0
F329.0
tp3331
a(g109
F559.0
F562.0
tp3332
a(g111
F565.0
F873.0
tp3333
a(g67
F873.0
F1083.0
tp3334
atp3335
a(L46L
g849
(lp3336
(g169
I0
F150.0
tp3337
a(g127
F150.0
F293.0
tp3338
a(g24
F582.0
F617.0
tp3339
atp3340
a(L52L
g33
(lp3341
(g51
I0
F11.0
tp3342
a(g191
F11.0
F22.0
tp3343
a(g141
F22.0
F33.0
tp3344
a(g161
F144.0
F480.0
tp3345
a(g165
F563.0
F924.0
tp3346
a(g147
F924.0
F927.0
tp3347
a(g149
F927.0
F1100.0
tp3348
atp3349
a(L53L
g33
(lp3350
(g179
I0
F11.0
tp3351
a(g49
F11.0
F22.0
tp3352
a(g8
F293.0
F570.0
tp3353
a(g265
F585.0
F893.0
tp3354
atp3355
a(L54L
g33
(lp3356
(g155
F22.0
F313.0
tp3357
a(g57
F562.0
F855.0
tp3358
atp3359
a(L62L
g33
(lp3360
(g137
I0
F12.0
tp3361
a(g53
F12.0
F23.0
tp3362
a(g163
F559.0
F563.0
tp3363
a(g183
F563.0
F566.0
tp3364
a(g185
F579.0
F762.0
tp3365
a(g197
F762.0
F1140.0
tp3366
a(g83
F1140.0
F1143.0
tp3367
atp3368
a(L64L
g849
(lp3369
(g129
I0
F147.0
tp3370
a(g243
F582.0
F616.0
tp3371
atp3372
a(L66L
g33
(lp3373
(g159
I0
F11.0
tp3374
a(g139
F11.0
F22.0
tp3375
a(g125
F22.0
F33.0
tp3376
a(g263
F147.0
F487.0
tp3377
a(g65
F579.0
F582.0
tp3378
a(g37
F582.0
F585.0
tp3379
a(g79
F585.0
F588.0
tp3380
a(g173
F588.0
F591.0
tp3381
a(g14
F591.0
F594.0
tp3382
a(g30
F673.0
F945.0
tp3383
atp3384
a(L67L
g932
(lp3385
(g91
F1143.0
F1143.0
tp3386
atp3387
a(L78L
g210
(lp3388
(g203
F11.0
F557.0
tp3389
atp3390
a(L85L
g210
(lp3391
(g95
F12.0
F436.0
tp3392
a(g245
F585.0
F1140.0
tp3393
atp3394
a(L87L
g33
(lp3395
(g249
I0
F12.0
tp3396
a(g181
F12.0
F269.0
tp3397
a(g87
F269.0
F480.0
tp3398
a(g22
F582.0
F585.0
tp3399
a(g81
F616.0
F1003.0
tp3400
atp3401
a(L97L
g2
(lp3402
(g107
F11.0
F179.0
tp3403
a(g255
F179.0
F252.0
tp3404
a(g71
F252.0
F258.0
tp3405
a(g43
F258.0
F407.0
tp3406
a(g212
F407.0
F413.0
tp3407
a(g20
F413.0
F517.0
tp3408
a(g97
F557.0
F559.0
tp3409
a(g121
F562.0
F752.0
tp3410
a(g259
F752.0
F916.0
tp3411
a(g151
F916.0
F1055.0
tp3412
atp3413
a(L99L
g849
(lp3414
(g225
I0
F149.0
tp3415
a(g131
F588.0
F631.0
tp3416
a(g28
F631.0
F673.0
tp3417
atp3418
a(L100L
g210
(lp3419
(g237
F22.0
F419.0
tp3420
a(g205
F566.0
F1089.0
tp3421
a(g45
F1100.0
F1106.0
tp3422
atp3423
atp3424
a(F1221.0
F9.85
(lp3425
(L1L
g33
(lp3426
(g137
I0
F12.0
tp3427
a(g6
F12.0
F156.0
tp3428
a(g61
F156.0
F167.0
tp3429
a(g171
F167.0
F580.0
tp3430
a(g26
F643.0
F646.0
tp3431
a(g12
F646.0
F649.0
tp3432
a(g16
F655.0
F964.0
tp3433
atp3434
a(L3L
g849
(lp3435
(g75
I0
F151.0
tp3436
a(g239
F617.0
F657.0
tp3437
a(g195
F657.0
F699.0
tp3438
atp3439
a(L11L
g33
(lp3440
(g77
F12.0
F336.0
tp3441
a(g216
F649.0
F652.0
tp3442
a(g207
F652.0
F810.0
tp3443
atp3444
a(L13L
g33
(lp3445
(g193
F46.0
F393.0
tp3446
a(g20
F393.0
F601.0
tp3447
a(g119
F617.0
F620.0
tp3448
a(g145
F620.0
F623.0
tp3449
a(g229
F623.0
F626.0
tp3450
a(g231
F646.0
F846.0
tp3451
a(g175
F846.0
F1160.0
tp3452
atp3453
a(L14L
g33
(lp3454
(g35
I0
F12.0
tp3455
a(g63
F149.0
F368.0
tp3456
a(g241
F643.0
F646.0
tp3457
a(g39
F692.0
F881.0
tp3458
a(g133
F881.0
F1188.0
tp3459
atp3460
a(L26L
g210
(lp3461
(g51
I0
F23.0
tp3462
a(g191
F23.0
F46.0
tp3463
a(g141
F46.0
F68.0
tp3464
a(g251
F651.0
F1106.0
tp3465
atp3466
a(L34L
g849
(lp3467
(g214
F617.0
F651.0
tp3468
a(g10
F651.0
F692.0
tp3469
atp3470
a(L40L
g210
(lp3471
(g143
F68.0
F591.0
tp3472
a(g117
F617.0
F623.0
tp3473
a(g99
F623.0
F1142.0
tp3474
atp3475
a(L44L
g210
(lp3476
(g53
I0
F22.0
tp3477
a(g103
F185.0
F606.0
tp3478
a(g187
F649.0
F1186.0
tp3479
a(g199
F1188.0
F1194.0
tp3480
atp3481
a(L45L
g33
(lp3482
(g115
F6.0
F324.0
tp3483
a(g155
F324.0
F615.0
tp3484
a(g111
F623.0
F931.0
tp3485
a(g67
F931.0
F1141.0
tp3486
atp3487
a(L46L
g849
(lp3488
(g169
I0
F150.0
tp3489
a(g127
F150.0
F293.0
tp3490
a(g24
F643.0
F678.0
tp3491
atp3492
a(L52L
g33
(lp3493
(g159
I0
F11.0
tp3494
a(g203
F23.0
F296.0
tp3495
a(g161
F296.0
F632.0
tp3496
a(g165
F632.0
F993.0
tp3497
a(g147
F993.0
F996.0
tp3498
a(g149
F996.0
F1169.0
tp3499
atp3500
a(L53L
g33
(lp3501
(g49
I0
F11.0
tp3502
a(g212
F11.0
F22.0
tp3503
a(g8
F293.0
F570.0
tp3504
a(g265
F646.0
F954.0
tp3505
atp3506
a(L62L
g33
(lp3507
(g163
F617.0
F621.0
tp3508
a(g183
F621.0
F624.0
tp3509
a(g185
F657.0
F840.0
tp3510
a(g197
F840.0
F1218.0
tp3511
a(g83
F1218.0
F1221.0
tp3512
atp3513
a(L64L
g849
(lp3514
(g249
I0
F153.0
tp3515
a(g129
F153.0
F300.0
tp3516
a(g243
F643.0
F677.0
tp3517
atp3518
a(L66L
g33
(lp3519
(g139
I0
F11.0
tp3520
a(g257
F22.0
F174.0
tp3521
a(g125
F174.0
F185.0
tp3522
a(g263
F300.0
F640.0
tp3523
a(g65
F640.0
F643.0
tp3524
a(g37
F643.0
F646.0
tp3525
a(g79
F646.0
F649.0
tp3526
a(g173
F649.0
F652.0
tp3527
a(g14
F652.0
F655.0
tp3528
a(g30
F734.0
F1006.0
tp3529
atp3530
a(L67L
g932
(lp3531
(g91
F1221.0
F1221.0
tp3532
atp3533
a(L78L
g210
(lp3534
(g235
I0
F22.0
tp3535
a(g109
F617.0
F623.0
tp3536
a(g57
F623.0
F1210.0
tp3537
atp3538
a(L85L
g210
(lp3539
(g95
F12.0
F436.0
tp3540
a(g245
F646.0
F1201.0
tp3541
atp3542
a(L87L
g33
(lp3543
(g181
F153.0
F410.0
tp3544
a(g87
F410.0
F621.0
tp3545
a(g22
F643.0
F646.0
tp3546
a(g81
F677.0
F1064.0
tp3547
atp3548
a(L90L
g394
(lp3549
(g221
I0
F0.0
tp3550
atp3551
a(L97L
g2
(lp3552
(g179
I0
F6.0
tp3553
a(g4
F6.0
F12.0
tp3554
a(g107
F12.0
F180.0
tp3555
a(g255
F180.0
F253.0
tp3556
a(g71
F253.0
F259.0
tp3557
a(g43
F259.0
F408.0
tp3558
a(g237
F408.0
F507.0
tp3559
a(g97
F615.0
F617.0
tp3560
a(g121
F620.0
F810.0
tp3561
a(g259
F810.0
F974.0
tp3562
a(g151
F974.0
F1113.0
tp3563
atp3564
a(L99L
g849
(lp3565
(g225
I0
F149.0
tp3566
a(g131
F649.0
F692.0
tp3567
a(g28
F692.0
F734.0
tp3568
atp3569
a(L100L
g210
(lp3570
(g73
I0
F22.0
tp3571
a(g55
F151.0
F517.0
tp3572
a(g205
F624.0
F1147.0
tp3573
a(g45
F1210.0
F1216.0
tp3574
atp3575
atp3576
a(F1223.0
F9.53
(lp3577
(L1L
g33
(lp3578
(g137
I0
F12.0
tp3579
a(g6
F12.0
F156.0
tp3580
a(g61
F156.0
F167.0
tp3581
a(g171
F167.0
F580.0
tp3582
a(g26
F662.0
F665.0
tp3583
a(g12
F665.0
F668.0
tp3584
a(g16
F674.0
F983.0
tp3585
atp3586
a(L3L
g849
(lp3587
(g75
I0
F151.0
tp3588
a(g239
F617.0
F657.0
tp3589
a(g195
F657.0
F699.0
tp3590
atp3591
a(L11L
g210
(lp3592
(g77
F12.0
F659.0
tp3593
a(g216
F668.0
F674.0
tp3594
a(g207
F674.0
F990.0
tp3595
atp3596
a(L13L
g33
(lp3597
(g193
F46.0
F393.0
tp3598
a(g20
F393.0
F601.0
tp3599
a(g119
F617.0
F620.0
tp3600
a(g145
F620.0
F623.0
tp3601
a(g229
F623.0
F626.0
tp3602
a(g231
F665.0
F865.0
tp3603
a(g175
F865.0
F1179.0
tp3604
atp3605
a(L14L
g33
(lp3606
(g35
I0
F12.0
tp3607
a(g63
F149.0
F368.0
tp3608
a(g241
F662.0
F665.0
tp3609
a(g39
F703.0
F892.0
tp3610
a(g133
F892.0
F1199.0
tp3611
atp3612
a(L26L
g210
(lp3613
(g51
I0
F23.0
tp3614
a(g191
F23.0
F46.0
tp3615
a(g141
F46.0
F68.0
tp3616
a(g251
F651.0
F1106.0
tp3617
atp3618
a(L34L
g849
(lp3619
(g214
F617.0
F651.0
tp3620
a(g10
F662.0
F703.0
tp3621
atp3622
a(L40L
g210
(lp3623
(g143
F68.0
F591.0
tp3624
a(g117
F617.0
F623.0
tp3625
a(g99
F623.0
F1142.0
tp3626
atp3627
a(L44L
g210
(lp3628
(g53
I0
F22.0
tp3629
a(g103
F185.0
F606.0
tp3630
a(g187
F668.0
F1205.0
tp3631
a(g199
F1205.0
F1211.0
tp3632
atp3633
a(L45L
g33
(lp3634
(g115
F6.0
F324.0
tp3635
a(g155
F324.0
F615.0
tp3636
a(g111
F623.0
F931.0
tp3637
a(g67
F931.0
F1141.0
tp3638
atp3639
a(L46L
g849
(lp3640
(g169
I0
F150.0
tp3641
a(g127
F150.0
F293.0
tp3642
a(g24
F662.0
F697.0
tp3643
atp3644
a(L52L
g33
(lp3645
(g159
I0
F11.0
tp3646
a(g203
F23.0
F296.0
tp3647
a(g161
F296.0
F632.0
tp3648
a(g165
F632.0
F993.0
tp3649
a(g147
F993.0
F996.0
tp3650
a(g149
F996.0
F1169.0
tp3651
atp3652
a(L53L
g33
(lp3653
(g49
I0
F11.0
tp3654
a(g212
F11.0
F22.0
tp3655
a(g8
F293.0
F570.0
tp3656
a(g265
F665.0
F973.0
tp3657
atp3658
a(L62L
g33
(lp3659
(g163
F617.0
F621.0
tp3660
a(g183
F621.0
F624.0
tp3661
a(g185
F657.0
F840.0
tp3662
a(g197
F840.0
F1218.0
tp3663
a(g83
F1220.0
F1223.0
tp3664
atp3665
a(L64L
g849
(lp3666
(g249
I0
F153.0
tp3667
a(g129
F153.0
F300.0
tp3668
a(g243
F662.0
F696.0
tp3669
atp3670
a(L66L
g33
(lp3671
(g139
I0
F11.0
tp3672
a(g257
F22.0
F174.0
tp3673
a(g125
F174.0
F185.0
tp3674
a(g263
F300.0
F640.0
tp3675
a(g65
F659.0
F662.0
tp3676
a(g37
F662.0
F665.0
tp3677
a(g79
F665.0
F668.0
tp3678
a(g173
F668.0
F671.0
tp3679
a(g14
F671.0
F674.0
tp3680
a(g30
F753.0
F1025.0
tp3681
atp3682
a(L78L
g210
(lp3683
(g235
I0
F22.0
tp3684
a(g109
F617.0
F623.0
tp3685
a(g57
F623.0
F1210.0
tp3686
atp3687
a(L84L
g33
(lp3688
(g91
F1223.0
F1223.0
tp3689
atp3690
a(L85L
g210
(lp3691
(g95
F12.0
F436.0
tp3692
a(g245
F665.0
F1220.0
tp3693
atp3694
a(L87L
g33
(lp3695
(g181
F153.0
F410.0
tp3696
a(g87
F410.0
F621.0
tp3697
a(g22
F662.0
F665.0
tp3698
a(g81
F696.0
F1083.0
tp3699
atp3700
a(L90L
g219
(lp3701
(g221
I0
F0.0
tp3702
atp3703
a(L97L
g2
(lp3704
(g179
I0
F6.0
tp3705
a(g4
F6.0
F12.0
tp3706
a(g107
F12.0
F180.0
tp3707
a(g255
F180.0
F253.0
tp3708
a(g71
F253.0
F259.0
tp3709
a(g43
F259.0
F408.0
tp3710
a(g237
F408.0
F507.0
tp3711
a(g97
F615.0
F617.0
tp3712
a(g121
F620.0
F810.0
tp3713
a(g259
F810.0
F974.0
tp3714
a(g151
F974.0
F1113.0
tp3715
atp3716
a(L99L
g849
(lp3717
(g225
I0
F149.0
tp3718
a(g131
F668.0
F711.0
tp3719
a(g28
F711.0
F753.0
tp3720
atp3721
a(L100L
g210
(lp3722
(g73
I0
F22.0
tp3723
a(g55
F151.0
F517.0
tp3724
a(g205
F624.0
F1147.0
tp3725
a(g45
F1210.0
F1216.0
tp3726
atp3727
atp3728
a(F1339.0
F9.29
(lp3729
(L1L
g210
(lp3730
(g4
I0
F23.0
tp3731
a(g257
F23.0
F327.0
tp3732
a(g61
F327.0
F348.0
tp3733
a(g12
F702.0
F708.0
tp3734
a(g16
F715.0
F1333.0
tp3735
atp3736
a(L11L
g210
(lp3737
(g77
F34.0
F681.0
tp3738
a(g14
F708.0
F715.0
tp3739
a(g207
F742.0
F1058.0
tp3740
a(g199
F1333.0
F1339.0
tp3741
atp3742
a(L13L
g33
(lp3743
(g115
F11.0
F329.0
tp3744
a(g145
F571.0
F574.0
tp3745
a(g175
F736.0
F1050.0
tp3746
atp3747
a(L14L
g33
(lp3748
(g53
I0
F11.0
tp3749
a(g125
F11.0
F22.0
tp3750
a(g35
F22.0
F34.0
tp3751
a(g63
F149.0
F368.0
tp3752
a(g8
F436.0
F713.0
tp3753
a(g241
F730.0
F733.0
tp3754
a(g39
F733.0
F922.0
tp3755
a(g133
F922.0
F1229.0
tp3756
atp3757
a(L26L
g210
(lp3758
(g159
I0
F22.0
tp3759
a(g55
F45.0
F411.0
tp3760
a(g251
F574.0
F1029.0
tp3761
atp3762
a(L29L
g210
(lp3763
(g49
I0
F22.0
tp3764
a(g75
F22.0
F45.0
tp3765
a(g121
F574.0
F1333.0
tp3766
atp3767
a(L40L
g210
(lp3768
(g139
I0
F23.0
tp3769
a(g237
F23.0
F420.0
tp3770
a(g117
F571.0
F577.0
tp3771
a(g99
F577.0
F1096.0
tp3772
a(g45
F1333.0
F1339.0
tp3773
atp3774
a(L44L
g210
(lp3775
(g107
F23.0
F694.0
tp3776
a(g109
F694.0
F700.0
tp3777
a(g239
F700.0
F706.0
tp3778
a(g187
F736.0
F1273.0
tp3779
atp3780
a(L45L
g33
(lp3781
(g155
F22.0
F313.0
tp3782
a(g214
F571.0
F574.0
tp3783
a(g111
F574.0
F882.0
tp3784
a(g147
F882.0
F885.0
tp3785
a(g67
F1077.0
F1287.0
tp3786
atp3787
a(L46L
g849
(lp3788
(g212
I0
F143.0
tp3789
a(g169
F143.0
F293.0
tp3790
a(g127
F293.0
F436.0
tp3791
atp3792
a(L48L
g210
(lp3793
(g137
I0
F23.0
tp3794
a(g161
F44.0
F717.0
tp3795
a(g151
F717.0
F1273.0
tp3796
atp3797
a(L52L
g210
(lp3798
(g143
F22.0
F545.0
tp3799
a(g165
F578.0
F1301.0
tp3800
atp3801
a(L53L
g33
(lp3802
(g235
I0
F11.0
tp3803
a(g51
F11.0
F22.0
tp3804
a(g191
F22.0
F33.0
tp3805
a(g73
F33.0
F44.0
tp3806
a(g171
F293.0
F706.0
tp3807
a(g65
F727.0
F730.0
tp3808
a(g265
F733.0
F1041.0
tp3809
a(g30
F1041.0
F1313.0
tp3810
atp3811
a(L62L
g33
(lp3812
(g71
I0
F12.0
tp3813
a(g193
F33.0
F380.0
tp3814
a(g97
F568.0
F571.0
tp3815
a(g119
F571.0
F574.0
tp3816
a(g163
F574.0
F578.0
tp3817
a(g183
F578.0
F581.0
tp3818
a(g185
F706.0
F889.0
tp3819
a(g197
F889.0
F1267.0
tp3820
a(g83
F1298.0
F1301.0
tp3821
atp3822
a(L64L
g33
(lp3823
(g129
I0
F11.0
tp3824
a(g10
F730.0
F733.0
tp3825
a(g243
F733.0
F736.0
tp3826
a(g24
F736.0
F739.0
tp3827
a(g216
F739.0
F742.0
tp3828
atp3829
a(L66L
g210
(lp3830
(g141
I0
F22.0
tp3831
a(g263
F22.0
F702.0
tp3832
a(g173
F730.0
F736.0
tp3833
a(g26
F736.0
F743.0
tp3834
atp3835
a(L76L
g210
(lp3836
(g103
F22.0
F443.0
tp3837
a(g231
F733.0
F1133.0
tp3838
atp3839
a(L78L
g210
(lp3840
(g203
F22.0
F568.0
tp3841
a(g57
F700.0
F1287.0
tp3842
atp3843
a(L85L
g210
(lp3844
(g249
I0
F24.0
tp3845
a(g95
F24.0
F448.0
tp3846
a(g229
F571.0
F577.0
tp3847
a(g79
F730.0
F736.0
tp3848
a(g245
F743.0
F1298.0
tp3849
atp3850
a(L87L
g33
(lp3851
(g181
F24.0
F281.0
tp3852
a(g87
F348.0
F559.0
tp3853
a(g22
F730.0
F733.0
tp3854
a(g81
F736.0
F1123.0
tp3855
atp3856
a(L96L
g2
(lp3857
(g221
I0
F0.0
tp3858
atp3859
a(L97L
g33
(lp3860
(g179
I0
F11.0
tp3861
a(g255
F11.0
F157.0
tp3862
a(g43
F157.0
F454.0
tp3863
a(g195
F571.0
F574.0
tp3864
a(g259
F574.0
F901.0
tp3865
a(g149
F901.0
F1074.0
tp3866
a(g37
F1074.0
F1077.0
tp3867
atp3868
a(L99L
g849
(lp3869
(g225
I0
F149.0
tp3870
a(g131
F708.0
F751.0
tp3871
a(g28
F751.0
F793.0
tp3872
atp3873
a(L100L
g210
(lp3874
(g6
F22.0
F311.0
tp3875
a(g20
F311.0
F727.0
tp3876
a(g205
F727.0
F1250.0
tp3877
atp3878
a(L101L
g219
(lp3879
(g91
F1339.0
F1339.0
tp3880
atp3881
atp3882
a(F1368.0
F8.51
(lp3883
(L1L
g210
(lp3884
(g257
F11.0
F315.0
tp3885
a(g61
F315.0
F336.0
tp3886
a(g12
F729.0
F735.0
tp3887
a(g16
F742.0
F1360.0
tp3888
atp3889
a(L11L
g210
(lp3890
(g191
I0
F23.0
tp3891
a(g75
F23.0
F46.0
tp3892
a(g77
F46.0
F693.0
tp3893
a(g14
F735.0
F742.0
tp3894
a(g207
F783.0
F1099.0
tp3895
a(g199
F1360.0
F1366.0
tp3896
atp3897
a(L13L
g210
(lp3898
(g115
F23.0
F659.0
tp3899
a(g145
F659.0
F665.0
tp3900
a(g175
F738.0
F1365.0
tp3901
atp3902
a(L14L
g33
(lp3903
(g53
I0
F11.0
tp3904
a(g125
F11.0
F22.0
tp3905
a(g35
F22.0
F34.0
tp3906
a(g63
F149.0
F368.0
tp3907
a(g8
F368.0
F645.0
tp3908
a(g241
F732.0
F735.0
tp3909
a(g39
F746.0
F935.0
tp3910
a(g133
F935.0
F1242.0
tp3911
atp3912
a(L26L
g210
(lp3913
(g159
I0
F22.0
tp3914
a(g55
F46.0
F412.0
tp3915
a(g251
F597.0
F1052.0
tp3916
atp3917
a(L29L
g210
(lp3918
(g49
I0
F22.0
tp3919
a(g51
F22.0
F45.0
tp3920
a(g119
F594.0
F601.0
tp3921
a(g121
F601.0
F1360.0
tp3922
atp3923
a(L40L
g210
(lp3924
(g139
I0
F23.0
tp3925
a(g237
F23.0
F420.0
tp3926
a(g117
F594.0
F600.0
tp3927
a(g99
F600.0
F1119.0
tp3928
a(g45
F1360.0
F1366.0
tp3929
atp3930
a(L44L
g210
(lp3931
(g107
F11.0
F682.0
tp3932
a(g183
F682.0
F688.0
tp3933
a(g109
F688.0
F694.0
tp3934
a(g239
F694.0
F700.0
tp3935
a(g187
F773.0
F1310.0
tp3936
atp3937
a(L45L
g33
(lp3938
(g155
F22.0
F313.0
tp3939
a(g214
F594.0
F597.0
tp3940
a(g111
F665.0
F973.0
tp3941
a(g147
F973.0
F976.0
tp3942
a(g149
F976.0
F1149.0
tp3943
a(g67
F1149.0
F1359.0
tp3944
atp3945
a(L46L
g849
(lp3946
(g169
I0
F150.0
tp3947
a(g127
F150.0
F293.0
tp3948
atp3949
a(L48L
g210
(lp3950
(g212
I0
F22.0
tp3951
a(g161
F23.0
F696.0
tp3952
a(g151
F696.0
F1252.0
tp3953
atp3954
a(L52L
g210
(lp3955
(g143
F22.0
F545.0
tp3956
a(g165
F598.0
F1321.0
tp3957
atp3958
a(L53L
g33
(lp3959
(g137
I0
F12.0
tp3960
a(g73
F12.0
F23.0
tp3961
a(g171
F150.0
F563.0
tp3962
a(g65
F729.0
F732.0
tp3963
a(g265
F735.0
F1043.0
tp3964
a(g30
F1043.0
F1315.0
tp3965
atp3966
a(L62L
g33
(lp3967
(g4
I0
F11.0
tp3968
a(g71
F11.0
F23.0
tp3969
a(g6
F23.0
F167.0
tp3970
a(g193
F167.0
F514.0
tp3971
a(g163
F594.0
F598.0
tp3972
a(g185
F700.0
F883.0
tp3973
a(g197
F883.0
F1261.0
tp3974
a(g83
F1365.0
F1368.0
tp3975
atp3976
a(L64L
g219
(lp3977
(g129
I0
F49.0
tp3978
a(g10
F732.0
F746.0
tp3979
a(g243
F746.0
F757.0
tp3980
a(g24
F757.0
F769.0
tp3981
a(g216
F769.0
F783.0
tp3982
atp3983
a(L66L
g210
(lp3984
(g141
I0
F22.0
tp3985
a(g263
F49.0
F729.0
tp3986
a(g173
F732.0
F738.0
tp3987
a(g26
F738.0
F745.0
tp3988
atp3989
a(L76L
g210
(lp3990
(g235
I0
F22.0
tp3991
a(g103
F22.0
F443.0
tp3992
a(g231
F735.0
F1135.0
tp3993
atp3994
a(L78L
g210
(lp3995
(g179
I0
F23.0
tp3996
a(g203
F45.0
F591.0
tp3997
a(g57
F694.0
F1281.0
tp3998
atp3999
a(L85L
g210
(lp4000
(g95
F12.0
F436.0
tp4001
a(g229
F594.0
F600.0
tp4002
a(g245
F745.0
F1300.0
tp4003
atp4004
a(L87L
g33
(lp4005
(g249
I0
F12.0
tp4006
a(g181
F12.0
F269.0
tp4007
a(g87
F336.0
F547.0
tp4008
a(g22
F732.0
F735.0
tp4009
a(g81
F757.0
F1144.0
tp4010
atp4011
a(L96L
g2
(lp4012
(g221
I0
F0.0
tp4013
atp4014
a(L97L
g33
(lp4015
(g255
F22.0
F168.0
tp4016
a(g43
F168.0
F465.0
tp4017
a(g97
F591.0
F594.0
tp4018
a(g195
F594.0
F597.0
tp4019
a(g259
F597.0
F924.0
tp4020
a(g37
F924.0
F927.0
tp4021
atp4022
a(L99L
g849
(lp4023
(g225
I0
F149.0
tp4024
a(g79
F732.0
F773.0
tp4025
a(g131
F773.0
F816.0
tp4026
a(g28
F816.0
F858.0
tp4027
atp4028
a(L100L
g210
(lp4029
(g20
F22.0
F438.0
tp4030
a(g205
F688.0
F1211.0
tp4031
atp4032
a(L101L
g219
(lp4033
(g91
F1368.0
F1368.0
tp4034
atp4035
atp4036
a(F1526.0
F7.96
(lp4037
(L1L
g210
(lp4038
(g4
I0
F23.0
tp4039
a(g61
F23.0
F44.0
tp4040
a(g12
F753.0
F759.0
tp4041
a(g131
F759.0
F766.0
tp4042
a(g16
F795.0
F1413.0
tp4043
atp4044
a(L11L
g210
(lp4045
(g77
F101.0
F748.0
tp4046
a(g39
F762.0
F1140.0
tp4047
a(g207
F1140.0
F1456.0
tp4048
atp4049
a(L13L
g210
(lp4050
(g115
F11.0
F647.0
tp4051
a(g239
F712.0
F718.0
tp4052
a(g145
F718.0
F724.0
tp4053
a(g175
F762.0
F1389.0
tp4054
atp4055
a(L14L
g33
(lp4056
(g53
I0
F11.0
tp4057
a(g225
F11.0
F22.0
tp4058
a(g8
F286.0
F563.0
tp4059
a(g65
F753.0
F756.0
tp4060
a(g133
F766.0
F1073.0
tp4061
a(g199
F1456.0
F1459.0
tp4062
atp4063
a(L26L
g210
(lp4064
(g159
I0
F22.0
tp4065
a(g55
F45.0
F411.0
tp4066
a(g251
F717.0
F1172.0
tp4067
atp4068
a(L29L
g210
(lp4069
(g49
I0
F22.0
tp4070
a(g75
F22.0
F45.0
tp4071
a(g121
F719.0
F1478.0
tp4072
atp4073
a(L40L
g210
(lp4074
(g139
I0
F23.0
tp4075
a(g237
F23.0
F420.0
tp4076
a(g117
F712.0
F718.0
tp4077
a(g99
F718.0
F1237.0
tp4078
atp4079
a(L44L
g210
(lp4080
(g107
F23.0
F694.0
tp4081
a(g109
F712.0
F718.0
tp4082
a(g187
F777.0
F1314.0
tp4083
atp4084
a(L45L
g210
(lp4085
(g155
F22.0
F603.0
tp4086
a(g214
F712.0
F717.0
tp4087
a(g111
F724.0
F1340.0
tp4088
a(g147
F1340.0
F1347.0
tp4089
atp4090
a(L46L
g849
(lp4091
(g212
I0
F143.0
tp4092
a(g127
F143.0
F286.0
tp4093
a(g241
F756.0
F794.0
tp4094
a(g216
F794.0
F835.0
tp4095
atp4096
a(L48L
g210
(lp4097
(g235
I0
F22.0
tp4098
a(g137
F22.0
F45.0
tp4099
a(g161
F45.0
F718.0
tp4100
a(g229
F718.0
F724.0
tp4101
a(g151
F724.0
F1280.0
tp4102
atp4103
a(L52L
g210
(lp4104
(g143
F22.0
F545.0
tp4105
a(g165
F726.0
F1449.0
tp4106
atp4107
a(L53L
g33
(lp4108
(g191
I0
F11.0
tp4109
a(g73
F11.0
F22.0
tp4110
a(g171
F50.0
F463.0
tp4111
a(g67
F759.0
F969.0
tp4112
a(g231
F969.0
F1169.0
tp4113
a(g265
F1169.0
F1477.0
tp4114
a(g83
F1517.0
F1520.0
tp4115
atp4116
a(L62L
g210
(lp4117
(g193
F11.0
F705.0
tp4118
a(g97
F705.0
F712.0
tp4119
a(g119
F712.0
F719.0
tp4120
a(g163
F719.0
F726.0
tp4121
a(g183
F726.0
F732.0
tp4122
a(g24
F756.0
F761.0
tp4123
a(g197
F761.0
F1517.0
tp4124
a(g91
F1526.0
F1526.0
tp4125
atp4126
a(L64L
g219
(lp4127
(g169
I0
F50.0
tp4128
a(g35
F50.0
F101.0
tp4129
a(g22
F756.0
F769.0
tp4130
a(g243
F769.0
F780.0
tp4131
a(g14
F780.0
F795.0
tp4132
atp4133
a(L66L
g210
(lp4134
(g141
I0
F22.0
tp4135
a(g263
F73.0
F753.0
tp4136
atp4137
a(L78L
g210
(lp4138
(g221
I0
F0.0
tp4139
a(g203
F46.0
F592.0
tp4140
a(g57
F718.0
F1305.0
tp4141
atp4142
a(L82L
g932
(lp4143
(g129
I0
F73.0
tp4144
a(g79
F756.0
F777.0
tp4145
a(g26
F777.0
F798.0
tp4146
a(g28
F798.0
F819.0
tp4147
atp4148
a(L85L
g210
(lp4149
(g95
F45.0
F469.0
tp4150
a(g195
F712.0
F718.0
tp4151
a(g245
F798.0
F1353.0
tp4152
atp4153
a(L87L
g33
(lp4154
(g249
I0
F12.0
tp4155
a(g181
F12.0
F269.0
tp4156
a(g87
F269.0
F480.0
tp4157
a(g103
F480.0
F691.0
tp4158
a(g37
F756.0
F759.0
tp4159
a(g10
F759.0
F762.0
tp4160
a(g81
F780.0
F1167.0
tp4161
a(g30
F1167.0
F1439.0
tp4162
atp4163
a(L97L
g33
(lp4164
(g179
I0
F11.0
tp4165
a(g255
F22.0
F168.0
tp4166
a(g43
F168.0
F465.0
tp4167
a(g257
F465.0
F617.0
tp4168
a(g185
F718.0
F901.0
tp4169
a(g259
F901.0
F1228.0
tp4170
a(g149
F1347.0
F1520.0
tp4171
atp4172
a(L99L
g210
(lp4173
(g71
I0
F23.0
tp4174
a(g51
F23.0
F46.0
tp4175
a(g125
F46.0
F68.0
tp4176
a(g63
F68.0
F507.0
tp4177
a(g173
F756.0
F762.0
tp4178
atp4179
a(L100L
g210
(lp4180
(g6
F22.0
F311.0
tp4181
a(g20
F311.0
F727.0
tp4182
a(g205
F732.0
F1255.0
tp4183
a(g45
F1520.0
F1526.0
tp4184
atp4185
atp4186
a(F1611.0
F7.56
(lp4187
(L1L
g210
(lp4188
(g257
F22.0
F326.0
tp4189
a(g61
F326.0
F347.0
tp4190
a(g12
F827.0
F833.0
tp4191
a(g131
F833.0
F840.0
tp4192
a(g16
F886.0
F1504.0
tp4193
atp4194
a(L11L
g210
(lp4195
(g77
F101.0
F748.0
tp4196
a(g39
F853.0
F1231.0
tp4197
a(g207
F1231.0
F1547.0
tp4198
atp4199
a(L13L
g210
(lp4200
(g115
F23.0
F659.0
tp4201
a(g239
F712.0
F718.0
tp4202
a(g145
F718.0
F724.0
tp4203
a(g175
F853.0
F1480.0
tp4204
atp4205
a(L14L
g210
(lp4206
(g53
I0
F22.0
tp4207
a(g225
F22.0
F45.0
tp4208
a(g8
F286.0
F840.0
tp4209
a(g65
F840.0
F847.0
tp4210
a(g133
F847.0
F1461.0
tp4211
a(g199
F1547.0
F1553.0
tp4212
atp4213
a(L26L
g210
(lp4214
(g221
I0
F0.0
tp4215
a(g71
I0
F23.0
tp4216
a(g159
F23.0
F45.0
tp4217
a(g55
F45.0
F411.0
tp4218
a(g251
F717.0
F1172.0
tp4219
atp4220
a(L29L
g210
(lp4221
(g49
I0
F22.0
tp4222
a(g75
F22.0
F45.0
tp4223
a(g121
F719.0
F1478.0
tp4224
atp4225
a(L40L
g210
(lp4226
(g139
I0
F23.0
tp4227
a(g237
F23.0
F420.0
tp4228
a(g117
F712.0
F718.0
tp4229
a(g99
F718.0
F1237.0
tp4230
atp4231
a(L44L
g210
(lp4232
(g4
I0
F23.0
tp4233
a(g107
F23.0
F694.0
tp4234
a(g109
F712.0
F718.0
tp4235
a(g147
F718.0
F725.0
tp4236
a(g187
F888.0
F1425.0
tp4237
atp4238
a(L45L
g210
(lp4239
(g235
I0
F22.0
tp4240
a(g155
F22.0
F603.0
tp4241
a(g214
F712.0
F717.0
tp4242
a(g111
F724.0
F1340.0
tp4243
atp4244
a(L46L
g849
(lp4245
(g212
I0
F143.0
tp4246
a(g127
F143.0
F286.0
tp4247
a(g241
F847.0
F885.0
tp4248
a(g216
F885.0
F926.0
tp4249
atp4250
a(L48L
g210
(lp4251
(g179
I0
F23.0
tp4252
a(g137
F23.0
F46.0
tp4253
a(g161
F46.0
F719.0
tp4254
a(g229
F719.0
F725.0
tp4255
a(g151
F725.0
F1281.0
tp4256
atp4257
a(L52L
g210
(lp4258
(g143
F22.0
F545.0
tp4259
a(g165
F726.0
F1449.0
tp4260
atp4261
a(L53L
g33
(lp4262
(g191
I0
F11.0
tp4263
a(g73
F11.0
F22.0
tp4264
a(g171
F50.0
F463.0
tp4265
a(g67
F850.0
F1060.0
tp4266
a(g231
F1060.0
F1260.0
tp4267
a(g265
F1260.0
F1568.0
tp4268
a(g83
F1608.0
F1611.0
tp4269
atp4270
a(L62L
g210
(lp4271
(g193
F11.0
F705.0
tp4272
a(g97
F705.0
F712.0
tp4273
a(g119
F712.0
F719.0
tp4274
a(g163
F719.0
F726.0
tp4275
a(g183
F726.0
F732.0
tp4276
a(g24
F847.0
F852.0
tp4277
a(g197
F852.0
F1608.0
tp4278
a(g91
F1611.0
F1611.0
tp4279
atp4280
a(L64L
g219
(lp4281
(g169
I0
F50.0
tp4282
a(g35
F50.0
F101.0
tp4283
a(g22
F847.0
F860.0
tp4284
a(g243
F860.0
F871.0
tp4285
a(g14
F871.0
F886.0
tp4286
atp4287
a(L66L
g210
(lp4288
(g141
I0
F22.0
tp4289
a(g263
F147.0
F827.0
tp4290
atp4291
a(L78L
g210
(lp4292
(g203
F23.0
F569.0
tp4293
a(g57
F718.0
F1305.0
tp4294
atp4295
a(L82L
g849
(lp4296
(g129
I0
F147.0
tp4297
a(g79
F847.0
F888.0
tp4298
a(g26
F888.0
F931.0
tp4299
a(g28
F931.0
F973.0
tp4300
atp4301
a(L85L
g210
(lp4302
(g95
F46.0
F470.0
tp4303
a(g195
F712.0
F718.0
tp4304
a(g245
F931.0
F1486.0
tp4305
atp4306
a(L87L
g33
(lp4307
(g249
I0
F12.0
tp4308
a(g181
F12.0
F269.0
tp4309
a(g87
F347.0
F558.0
tp4310
a(g103
F558.0
F769.0
tp4311
a(g37
F847.0
F850.0
tp4312
a(g10
F850.0
F853.0
tp4313
a(g81
F871.0
F1258.0
tp4314
a(g30
F1258.0
F1530.0
tp4315
atp4316
a(L97L
g33
(lp4317
(g255
F22.0
F168.0
tp4318
a(g43
F168.0
F465.0
tp4319
a(g185
F718.0
F901.0
tp4320
a(g259
F901.0
F1228.0
tp4321
a(g149
F1228.0
F1401.0
tp4322
atp4323
a(L99L
g210
(lp4324
(g51
I0
F23.0
tp4325
a(g125
F23.0
F45.0
tp4326
a(g63
F45.0
F484.0
tp4327
a(g173
F847.0
F853.0
tp4328
atp4329
a(L100L
g210
(lp4330
(g6
F45.0
F334.0
tp4331
a(g20
F334.0
F750.0
tp4332
a(g205
F750.0
F1273.0
tp4333
a(g45
F1478.0
F1484.0
tp4334
atp4335
atp4336
a(F1739.0
F7.41
(lp4337
(L0L
g849
(lp4338
(g35
I0
F153.0
tp4339
atp4340
a(L1L
g210
(lp4341
(g51
I0
F23.0
tp4342
a(g257
F44.0
F348.0
tp4343
a(g109
F746.0
F752.0
tp4344
a(g173
F953.0
F959.0
tp4345
a(g131
F1029.0
F1036.0
tp4346
a(g16
F1073.0
F1691.0
tp4347
atp4348
a(L3L
g849
(lp4349
(g119
F746.0
F789.0
tp4350
atp4351
a(L7L
g1837
(lp4352
(g221
I0
F0.0
tp4353
atp4354
a(L8L
g219
(lp4355
(g255
F11.0
F645.0
tp4356
atp4357
a(L11L
g33
(lp4358
(g75
I0
F12.0
tp4359
a(g103
F34.0
F245.0
tp4360
a(g77
F245.0
F569.0
tp4361
a(g175
F959.0
F1273.0
tp4362
a(g216
F1273.0
F1276.0
tp4363
a(g207
F1276.0
F1434.0
tp4364
atp4365
a(L14L
g33
(lp4366
(g235
I0
F11.0
tp4367
a(g71
F11.0
F23.0
tp4368
a(g125
F23.0
F34.0
tp4369
a(g225
F34.0
F45.0
tp4370
a(g63
F45.0
F264.0
tp4371
a(g8
F282.0
F559.0
tp4372
a(g65
F950.0
F953.0
tp4373
a(g37
F953.0
F956.0
tp4374
a(g10
F956.0
F959.0
tp4375
a(g39
F959.0
F1148.0
tp4376
a(g133
F1148.0
F1455.0
tp4377
atp4378
a(L26L
g210
(lp4379
(g55
F12.0
F378.0
tp4380
a(g251
F751.0
F1206.0
tp4381
atp4382
a(L36L
g33
(lp4383
(g91
F1739.0
F1739.0
tp4384
atp4385
a(L40L
g210
(lp4386
(g237
F23.0
F420.0
tp4387
a(g99
F752.0
F1271.0
tp4388
atp4389
a(L44L
g210
(lp4390
(g107
F23.0
F694.0
tp4391
a(g239
F746.0
F752.0
tp4392
a(g145
F752.0
F758.0
tp4393
a(g187
F994.0
F1531.0
tp4394
atp4395
a(L45L
g210
(lp4396
(g155
F22.0
F603.0
tp4397
a(g117
F746.0
F752.0
tp4398
a(g111
F758.0
F1374.0
tp4399
a(g147
F1374.0
F1381.0
tp4400
a(g199
F1691.0
F1697.0
tp4401
atp4402
a(L46L
g849
(lp4403
(g61
I0
F139.0
tp4404
a(g127
F139.0
F282.0
tp4405
a(g79
F953.0
F994.0
tp4406
a(g14
F1029.0
F1073.0
tp4407
atp4408
a(L52L
g210
(lp4409
(g159
I0
F22.0
tp4410
a(g191
F22.0
F45.0
tp4411
a(g143
F146.0
F669.0
tp4412
a(g97
F739.0
F746.0
tp4413
a(g214
F746.0
F751.0
tp4414
a(g165
F753.0
F1476.0
tp4415
atp4416
a(L53L
g210
(lp4417
(g179
I0
F23.0
tp4418
a(g137
F23.0
F46.0
tp4419
a(g171
F67.0
F892.0
tp4420
a(g265
F992.0
F1609.0
tp4421
a(g83
F1732.0
F1739.0
tp4422
atp4423
a(L62L
g210
(lp4424
(g193
F45.0
F739.0
tp4425
a(g163
F746.0
F753.0
tp4426
a(g183
F753.0
F759.0
tp4427
a(g185
F759.0
F1125.0
tp4428
a(g151
F1125.0
F1681.0
tp4429
atp4430
a(L66L
g210
(lp4431
(g129
I0
F23.0
tp4432
a(g263
F23.0
F703.0
tp4433
a(g24
F953.0
F958.0
tp4434
a(g197
F958.0
F1714.0
tp4435
atp4436
a(L72L
g210
(lp4437
(g212
I0
F22.0
tp4438
a(g73
F22.0
F44.0
tp4439
a(g169
F44.0
F67.0
tp4440
a(g243
F953.0
F958.0
tp4441
a(g26
F958.0
F965.0
tp4442
atp4443
a(L78L
g210
(lp4444
(g139
I0
F23.0
tp4445
a(g203
F23.0
F569.0
tp4446
a(g57
F752.0
F1339.0
tp4447
atp4448
a(L81L
g210
(lp4449
(g231
F959.0
F1359.0
tp4450
atp4451
a(L85L
g210
(lp4452
(g4
I0
F23.0
tp4453
a(g95
F46.0
F470.0
tp4454
a(g20
F470.0
F886.0
tp4455
a(g195
F886.0
F892.0
tp4456
a(g245
F965.0
F1520.0
tp4457
atp4458
a(L87L
g210
(lp4459
(g181
F12.0
F527.0
tp4460
a(g87
F527.0
F950.0
tp4461
a(g241
F953.0
F959.0
tp4462
a(g81
F959.0
F1732.0
tp4463
atp4464
a(L90L
g210
(lp4465
(g49
I0
F22.0
tp4466
a(g53
F22.0
F44.0
tp4467
a(g161
F44.0
F717.0
tp4468
a(g229
F746.0
F752.0
tp4469
a(g30
F1071.0
F1614.0
tp4470
atp4471
a(L97L
g33
(lp4472
(g249
I0
F12.0
tp4473
a(g115
F23.0
F341.0
tp4474
a(g43
F341.0
F638.0
tp4475
a(g121
F789.0
F1169.0
tp4476
a(g259
F1169.0
F1496.0
tp4477
a(g67
F1496.0
F1706.0
tp4478
atp4479
a(L99L
g849
(lp4480
(g141
I0
F146.0
tp4481
a(g22
F953.0
F992.0
tp4482
a(g12
F992.0
F1029.0
tp4483
a(g28
F1029.0
F1071.0
tp4484
atp4485
a(L100L
g210
(lp4486
(g6
F22.0
F311.0
tp4487
a(g205
F759.0
F1282.0
tp4488
a(g149
F1381.0
F1726.0
tp4489
a(g45
F1726.0
F1732.0
tp4490
atp4491
atp4492
a(F1845.0
F6.38
(lp4493
(L1L
g210
(lp4494
(g257
F68.0
F372.0
tp4495
a(g61
F372.0
F393.0
tp4496
a(g79
F977.0
F983.0
tp4497
a(g16
F1058.0
F1676.0
tp4498
atp4499
a(L2L
g932
(lp4500
(g91
F1845.0
F1845.0
tp4501
atp4502
a(L3L
g849
(lp4503
(g119
F845.0
F888.0
tp4504
a(g195
F888.0
F930.0
tp4505
atp4506
a(L11L
g210
(lp4507
(g191
I0
F23.0
tp4508
a(g75
F23.0
F46.0
tp4509
a(g77
F46.0
F693.0
tp4510
a(g37
F977.0
F984.0
tp4511
a(g175
F984.0
F1611.0
tp4512
atp4513
a(L14L
g33
(lp4514
(g125
I0
F11.0
tp4515
a(g35
F11.0
F23.0
tp4516
a(g63
F295.0
F514.0
tp4517
a(g8
F514.0
F791.0
tp4518
a(g10
F977.0
F980.0
tp4519
a(g133
F1057.0
F1364.0
tp4520
atp4521
a(L26L
g219
(lp4522
(g55
F46.0
F838.0
tp4523
a(g251
F848.0
F1833.0
tp4524
atp4525
a(L40L
g210
(lp4526
(g237
F46.0
F443.0
tp4527
a(g99
F851.0
F1370.0
tp4528
a(g39
F1370.0
F1748.0
tp4529
atp4530
a(L44L
g210
(lp4531
(g179
I0
F23.0
tp4532
a(g107
F23.0
F694.0
tp4533
a(g97
F838.0
F845.0
tp4534
a(g109
F845.0
F851.0
tp4535
a(g187
F983.0
F1520.0
tp4536
a(g216
F1520.0
F1526.0
tp4537
a(g207
F1526.0
F1842.0
tp4538
atp4539
a(L45L
g210
(lp4540
(g155
F45.0
F626.0
tp4541
a(g183
F845.0
F851.0
tp4542
a(g239
F851.0
F857.0
tp4543
a(g111
F857.0
F1473.0
tp4544
a(g147
F1473.0
F1480.0
tp4545
a(g45
F1833.0
F1839.0
tp4546
atp4547
a(L46L
g849
(lp4548
(g127
I0
F143.0
tp4549
a(g14
F1014.0
F1058.0
tp4550
atp4551
a(L52L
g210
(lp4552
(g137
I0
F23.0
tp4553
a(g49
F23.0
F45.0
tp4554
a(g143
F146.0
F669.0
tp4555
a(g165
F852.0
F1575.0
tp4556
atp4557
a(L53L
g210
(lp4558
(g71
I0
F23.0
tp4559
a(g139
F23.0
F46.0
tp4560
a(g53
F46.0
F68.0
tp4561
a(g73
F68.0
F90.0
tp4562
a(g171
F90.0
F915.0
tp4563
a(g265
F983.0
F1600.0
tp4564
a(g83
F1838.0
F1845.0
tp4565
atp4566
a(L62L
g210
(lp4567
(g159
I0
F22.0
tp4568
a(g193
F23.0
F717.0
tp4569
a(g163
F845.0
F852.0
tp4570
a(g185
F857.0
F1223.0
tp4571
a(g151
F1223.0
F1779.0
tp4572
atp4573
a(L64L
g219
(lp4574
(g129
I0
F49.0
tp4575
a(g65
F962.0
F977.0
tp4576
a(g241
F977.0
F990.0
tp4577
a(g28
F1014.0
F1028.0
tp4578
atp4579
a(L66L
g210
(lp4580
(g263
F49.0
F729.0
tp4581
a(g173
F977.0
F983.0
tp4582
a(g24
F983.0
F988.0
tp4583
a(g197
F988.0
F1744.0
tp4584
atp4585
a(L72L
g219
(lp4586
(g169
I0
F50.0
tp4587
a(g103
F50.0
F962.0
tp4588
a(g243
F977.0
F988.0
tp4589
a(g26
F988.0
F1002.0
tp4590
a(g12
F1002.0
F1014.0
tp4591
atp4592
a(L78L
g210
(lp4593
(g221
I0
F0.0
tp4594
a(g203
F23.0
F569.0
tp4595
a(g57
F851.0
F1438.0
tp4596
a(g231
F1438.0
F1838.0
tp4597
atp4598
a(L85L
g210
(lp4599
(g4
I0
F23.0
tp4600
a(g235
F23.0
F45.0
tp4601
a(g212
F45.0
F67.0
tp4602
a(g20
F67.0
F483.0
tp4603
a(g117
F845.0
F851.0
tp4604
a(g145
F851.0
F857.0
tp4605
a(g229
F857.0
F863.0
tp4606
a(g22
F977.0
F983.0
tp4607
a(g245
F1002.0
F1557.0
tp4608
atp4609
a(L87L
g210
(lp4610
(g181
F12.0
F527.0
tp4611
a(g87
F527.0
F950.0
tp4612
a(g81
F988.0
F1761.0
tp4613
atp4614
a(L90L
g210
(lp4615
(g51
I0
F23.0
tp4616
a(g161
F90.0
F763.0
tp4617
a(g30
F1028.0
F1571.0
tp4618
atp4619
a(L97L
g33
(lp4620
(g249
I0
F12.0
tp4621
a(g115
F23.0
F341.0
tp4622
a(g255
F341.0
F487.0
tp4623
a(g43
F487.0
F784.0
tp4624
a(g214
F845.0
F848.0
tp4625
a(g121
F888.0
F1268.0
tp4626
a(g259
F1268.0
F1595.0
tp4627
a(g67
F1595.0
F1805.0
tp4628
a(g199
F1842.0
F1845.0
tp4629
atp4630
a(L99L
g849
(lp4631
(g141
I0
F146.0
tp4632
a(g225
F146.0
F295.0
tp4633
a(g131
F1014.0
F1057.0
tp4634
atp4635
a(L100L
g210
(lp4636
(g95
F23.0
F447.0
tp4637
a(g6
F447.0
F736.0
tp4638
a(g205
F851.0
F1374.0
tp4639
a(g149
F1480.0
F1825.0
tp4640
atp4641
atp4642
a(F1968.0
F6.23
(lp4643
(L1L
g210
(lp4644
(g141
I0
F22.0
tp4645
a(g257
F45.0
F349.0
tp4646
a(g61
F349.0
F370.0
tp4647
a(g63
F370.0
F809.0
tp4648
a(g241
F987.0
F993.0
tp4649
a(g12
F993.0
F999.0
tp4650
a(g14
F999.0
F1006.0
tp4651
a(g207
F1083.0
F1399.0
tp4652
atp4653
a(L3L
g849
(lp4654
(g137
I0
F150.0
tp4655
a(g147
F822.0
F866.0
tp4656
a(g229
F866.0
F905.0
tp4657
a(g79
F987.0
F1028.0
tp4658
atp4659
a(L11L
g210
(lp4660
(g71
I0
F23.0
tp4661
a(g73
F23.0
F45.0
tp4662
a(g77
F46.0
F693.0
tp4663
a(g175
F993.0
F1620.0
tp4664
atp4665
a(L14L
g210
(lp4666
(g235
I0
F22.0
tp4667
a(g212
F22.0
F44.0
tp4668
a(g125
F44.0
F66.0
tp4669
a(g127
F66.0
F88.0
tp4670
a(g8
F88.0
F642.0
tp4671
a(g22
F987.0
F993.0
tp4672
a(g133
F1042.0
F1656.0
tp4673
atp4674
a(L26L
g219
(lp4675
(g55
F23.0
F815.0
tp4676
a(g214
F822.0
F833.0
tp4677
a(g251
F833.0
F1818.0
tp4678
atp4679
a(L40L
g210
(lp4680
(g237
F23.0
F420.0
tp4681
a(g99
F828.0
F1347.0
tp4682
a(g16
F1347.0
F1965.0
tp4683
atp4684
a(L42L
g1837
(lp4685
(g221
I0
F0.0
tp4686
atp4687
a(L44L
g210
(lp4688
(g107
F23.0
F694.0
tp4689
a(g183
F822.0
F828.0
tp4690
a(g145
F828.0
F834.0
tp4691
a(g187
F1028.0
F1565.0
tp4692
a(g39
F1565.0
F1943.0
tp4693
atp4694
a(L45L
g210
(lp4695
(g155
F34.0
F615.0
tp4696
a(g119
F822.0
F829.0
tp4697
a(g111
F834.0
F1450.0
tp4698
a(g149
F1450.0
F1795.0
tp4699
atp4700
a(L52L
g210
(lp4701
(g191
I0
F23.0
tp4702
a(g143
F23.0
F546.0
tp4703
a(g97
F815.0
F822.0
tp4704
a(g165
F829.0
F1552.0
tp4705
atp4706
a(L53L
g33
(lp4707
(g179
I0
F11.0
tp4708
a(g249
F11.0
F23.0
tp4709
a(g49
F23.0
F34.0
tp4710
a(g169
F34.0
F46.0
tp4711
a(g171
F46.0
F459.0
tp4712
a(g265
F993.0
F1301.0
tp4713
a(g199
F1965.0
F1968.0
tp4714
atp4715
a(L62L
g210
(lp4716
(g51
I0
F23.0
tp4717
a(g193
F23.0
F717.0
tp4718
a(g163
F822.0
F829.0
tp4719
a(g109
F829.0
F835.0
tp4720
a(g185
F835.0
F1201.0
tp4721
a(g195
F1201.0
F1207.0
tp4722
a(g151
F1207.0
F1763.0
tp4723
atp4724
a(L63L
g219
(lp4725
(g91
F1968.0
F1968.0
tp4726
atp4727
a(L64L
g849
(lp4728
(g129
I0
F147.0
tp4729
a(g10
F987.0
F1028.0
tp4730
atp4731
a(L66L
g210
(lp4732
(g75
I0
F23.0
tp4733
a(g35
F23.0
F46.0
tp4734
a(g263
F147.0
F827.0
tp4735
a(g173
F987.0
F993.0
tp4736
a(g24
F993.0
F998.0
tp4737
a(g197
F998.0
F1754.0
tp4738
atp4739
a(L72L
g219
(lp4740
(g103
F66.0
F978.0
tp4741
a(g37
F987.0
F1002.0
tp4742
a(g243
F1002.0
F1013.0
tp4743
atp4744
a(L78L
g210
(lp4745
(g139
I0
F23.0
tp4746
a(g203
F23.0
F569.0
tp4747
a(g57
F835.0
F1422.0
tp4748
a(g231
F1422.0
F1822.0
tp4749
atp4750
a(L85L
g210
(lp4751
(g95
F150.0
F574.0
tp4752
a(g117
F822.0
F828.0
tp4753
a(g26
F987.0
F994.0
tp4754
a(g245
F994.0
F1549.0
tp4755
atp4756
a(L87L
g210
(lp4757
(g181
F23.0
F538.0
tp4758
a(g87
F538.0
F961.0
tp4759
a(g65
F980.0
F987.0
tp4760
a(g81
F1013.0
F1786.0
tp4761
atp4762
a(L90L
g210
(lp4763
(g4
I0
F23.0
tp4764
a(g53
F23.0
F45.0
tp4765
a(g161
F45.0
F718.0
tp4766
a(g239
F822.0
F828.0
tp4767
a(g30
F1125.0
F1668.0
tp4768
atp4769
a(L97L
g33
(lp4770
(g115
F11.0
F329.0
tp4771
a(g255
F329.0
F475.0
tp4772
a(g43
F475.0
F772.0
tp4773
a(g20
F772.0
F980.0
tp4774
a(g121
F980.0
F1360.0
tp4775
a(g259
F1360.0
F1687.0
tp4776
a(g45
F1818.0
F1821.0
tp4777
a(g83
F1943.0
F1946.0
tp4778
atp4779
a(L99L
g849
(lp4780
(g159
I0
F144.0
tp4781
a(g225
F144.0
F293.0
tp4782
a(g131
F999.0
F1042.0
tp4783
a(g216
F1042.0
F1083.0
tp4784
a(g28
F1083.0
F1125.0
tp4785
atp4786
a(L100L
g210
(lp4787
(g6
F144.0
F433.0
tp4788
a(g205
F828.0
F1351.0
tp4789
a(g67
F1351.0
F1772.0
tp4790
atp4791
atp4792
a(F1971.0
F5.91
(lp4793
(L1L
g210
(lp4794
(g141
I0
F22.0
tp4795
a(g257
F45.0
F349.0
tp4796
a(g61
F349.0
F370.0
tp4797
a(g63
F370.0
F809.0
tp4798
a(g241
F999.0
F1005.0
tp4799
a(g12
F1005.0
F1011.0
tp4800
a(g14
F1011.0
F1018.0
tp4801
a(g207
F1095.0
F1411.0
tp4802
atp4803
a(L3L
g849
(lp4804
(g137
I0
F150.0
tp4805
a(g147
F822.0
F866.0
tp4806
a(g229
F866.0
F905.0
tp4807
a(g79
F999.0
F1040.0
tp4808
atp4809
a(L11L
g210
(lp4810
(g71
I0
F23.0
tp4811
a(g73
F23.0
F45.0
tp4812
a(g77
F46.0
F693.0
tp4813
a(g175
F1005.0
F1632.0
tp4814
atp4815
a(L14L
g210
(lp4816
(g235
I0
F22.0
tp4817
a(g212
F22.0
F44.0
tp4818
a(g125
F44.0
F66.0
tp4819
a(g127
F66.0
F88.0
tp4820
a(g8
F88.0
F642.0
tp4821
a(g22
F999.0
F1005.0
tp4822
a(g133
F1054.0
F1668.0
tp4823
atp4824
a(L26L
g219
(lp4825
(g55
F23.0
F815.0
tp4826
a(g214
F822.0
F833.0
tp4827
a(g251
F833.0
F1818.0
tp4828
atp4829
a(L40L
g210
(lp4830
(g237
F23.0
F420.0
tp4831
a(g99
F828.0
F1347.0
tp4832
a(g16
F1347.0
F1965.0
tp4833
atp4834
a(L42L
g1837
(lp4835
(g221
I0
F0.0
tp4836
atp4837
a(L44L
g210
(lp4838
(g107
F23.0
F694.0
tp4839
a(g183
F822.0
F828.0
tp4840
a(g145
F828.0
F834.0
tp4841
a(g187
F1040.0
F1577.0
tp4842
a(g39
F1577.0
F1955.0
tp4843
atp4844
a(L45L
g210
(lp4845
(g155
F69.0
F650.0
tp4846
a(g119
F822.0
F829.0
tp4847
a(g111
F834.0
F1450.0
tp4848
a(g149
F1450.0
F1795.0
tp4849
atp4850
a(L52L
g210
(lp4851
(g191
I0
F23.0
tp4852
a(g143
F23.0
F546.0
tp4853
a(g97
F815.0
F822.0
tp4854
a(g165
F829.0
F1552.0
tp4855
atp4856
a(L53L
g210
(lp4857
(g179
I0
F23.0
tp4858
a(g249
F23.0
F47.0
tp4859
a(g49
F47.0
F69.0
tp4860
a(g169
F69.0
F92.0
tp4861
a(g171
F92.0
F917.0
tp4862
a(g265
F1005.0
F1622.0
tp4863
a(g199
F1965.0
F1971.0
tp4864
atp4865
a(L62L
g210
(lp4866
(g51
I0
F23.0
tp4867
a(g193
F23.0
F717.0
tp4868
a(g163
F822.0
F829.0
tp4869
a(g109
F829.0
F835.0
tp4870
a(g185
F835.0
F1201.0
tp4871
a(g195
F1201.0
F1207.0
tp4872
a(g151
F1207.0
F1763.0
tp4873
atp4874
a(L63L
g932
(lp4875
(g91
F1971.0
F1971.0
tp4876
atp4877
a(L64L
g849
(lp4878
(g129
I0
F147.0
tp4879
a(g10
F999.0
F1040.0
tp4880
atp4881
a(L66L
g210
(lp4882
(g75
I0
F23.0
tp4883
a(g35
F23.0
F46.0
tp4884
a(g263
F147.0
F827.0
tp4885
a(g173
F999.0
F1005.0
tp4886
a(g24
F1005.0
F1010.0
tp4887
a(g197
F1010.0
F1766.0
tp4888
atp4889
a(L72L
g219
(lp4890
(g103
F66.0
F978.0
tp4891
a(g37
F999.0
F1014.0
tp4892
a(g243
F1014.0
F1025.0
tp4893
atp4894
a(L78L
g210
(lp4895
(g139
I0
F23.0
tp4896
a(g203
F23.0
F569.0
tp4897
a(g57
F835.0
F1422.0
tp4898
a(g231
F1422.0
F1822.0
tp4899
atp4900
a(L85L
g210
(lp4901
(g95
F150.0
F574.0
tp4902
a(g117
F822.0
F828.0
tp4903
a(g26
F999.0
F1006.0
tp4904
a(g245
F1006.0
F1561.0
tp4905
atp4906
a(L87L
g210
(lp4907
(g181
F47.0
F562.0
tp4908
a(g87
F562.0
F985.0
tp4909
a(g65
F992.0
F999.0
tp4910
a(g81
F1025.0
F1798.0
tp4911
atp4912
a(L90L
g210
(lp4913
(g4
I0
F23.0
tp4914
a(g53
F23.0
F45.0
tp4915
a(g161
F45.0
F718.0
tp4916
a(g239
F822.0
F828.0
tp4917
a(g30
F1137.0
F1680.0
tp4918
atp4919
a(L97L
g33
(lp4920
(g115
F23.0
F341.0
tp4921
a(g255
F341.0
F487.0
tp4922
a(g43
F487.0
F784.0
tp4923
a(g20
F784.0
F992.0
tp4924
a(g121
F992.0
F1372.0
tp4925
a(g259
F1372.0
F1699.0
tp4926
a(g45
F1818.0
F1821.0
tp4927
a(g83
F1955.0
F1958.0
tp4928
atp4929
a(L99L
g849
(lp4930
(g159
I0
F144.0
tp4931
a(g225
F144.0
F293.0
tp4932
a(g131
F1011.0
F1054.0
tp4933
a(g216
F1054.0
F1095.0
tp4934
a(g28
F1095.0
F1137.0
tp4935
atp4936
a(L100L
g210
(lp4937
(g6
F144.0
F433.0
tp4938
a(g205
F828.0
F1351.0
tp4939
a(g67
F1351.0
F1772.0
tp4940
atp4941
atp4942
a(F2189.0
F5.75
(lp4943
(L1L
g210
(lp4944
(g141
I0
F22.0
tp4945
a(g257
F22.0
F326.0
tp4946
a(g61
F326.0
F347.0
tp4947
a(g63
F347.0
F786.0
tp4948
a(g241
F969.0
F975.0
tp4949
a(g12
F975.0
F981.0
tp4950
a(g14
F981.0
F988.0
tp4951
a(g207
F1065.0
F1381.0
tp4952
atp4953
a(L3L
g849
(lp4954
(g147
F951.0
F995.0
tp4955
a(g229
F995.0
F1034.0
tp4956
a(g79
F1034.0
F1075.0
tp4957
atp4958
a(L5L
g394
(lp4959
(g221
I0
F0.0
tp4960
atp4961
a(L11L
g210
(lp4962
(g73
I0
F22.0
tp4963
a(g77
F46.0
F693.0
tp4964
a(g175
F975.0
F1602.0
tp4965
atp4966
a(L14L
g210
(lp4967
(g212
I0
F22.0
tp4968
a(g125
F22.0
F44.0
tp4969
a(g127
F44.0
F66.0
tp4970
a(g8
F66.0
F620.0
tp4971
a(g22
F969.0
F975.0
tp4972
a(g133
F1024.0
F1638.0
tp4973
atp4974
a(L26L
g219
(lp4975
(g55
F23.0
F815.0
tp4976
a(g214
F951.0
F962.0
tp4977
a(g251
F962.0
F1947.0
tp4978
atp4979
a(L40L
g210
(lp4980
(g249
I0
F24.0
tp4981
a(g237
F46.0
F443.0
tp4982
a(g99
F965.0
F1484.0
tp4983
a(g16
F1484.0
F2102.0
tp4984
atp4985
a(L44L
g210
(lp4986
(g107
F11.0
F682.0
tp4987
a(g183
F951.0
F957.0
tp4988
a(g145
F957.0
F963.0
tp4989
a(g187
F1075.0
F1612.0
tp4990
a(g39
F1612.0
F1990.0
tp4991
atp4992
a(L45L
g210
(lp4993
(g255
F48.0
F341.0
tp4994
a(g159
F341.0
F363.0
tp4995
a(g155
F363.0
F944.0
tp4996
a(g119
F951.0
F958.0
tp4997
a(g111
F963.0
F1579.0
tp4998
a(g149
F1579.0
F1924.0
tp4999
atp5000
a(L52L
g210
(lp5001
(g137
I0
F23.0
tp5002
a(g49
F23.0
F45.0
tp5003
a(g191
F45.0
F68.0
tp5004
a(g143
F68.0
F591.0
tp5005
a(g97
F944.0
F951.0
tp5006
a(g165
F958.0
F1681.0
tp5007
atp5008
a(L53L
g210
(lp5009
(g71
I0
F23.0
tp5010
a(g139
F23.0
F46.0
tp5011
a(g169
F46.0
F69.0
tp5012
a(g171
F69.0
F894.0
tp5013
a(g265
F975.0
F1592.0
tp5014
a(g199
F2102.0
F2108.0
tp5015
atp5016
a(L62L
g210
(lp5017
(g51
I0
F23.0
tp5018
a(g193
F68.0
F762.0
tp5019
a(g163
F951.0
F958.0
tp5020
a(g109
F958.0
F964.0
tp5021
a(g185
F964.0
F1330.0
tp5022
a(g195
F1330.0
F1336.0
tp5023
a(g151
F1336.0
F1892.0
tp5024
atp5025
a(L63L
g1837
(lp5026
(g91
F2189.0
F2189.0
tp5027
atp5028
a(L64L
g849
(lp5029
(g129
I0
F147.0
tp5030
a(g10
F969.0
F1010.0
tp5031
atp5032
a(L66L
g210
(lp5033
(g75
I0
F23.0
tp5034
a(g35
F23.0
F46.0
tp5035
a(g263
F147.0
F827.0
tp5036
a(g173
F969.0
F975.0
tp5037
a(g24
F975.0
F980.0
tp5038
a(g197
F980.0
F1736.0
tp5039
atp5040
a(L72L
g219
(lp5041
(g103
F44.0
F956.0
tp5042
a(g37
F969.0
F984.0
tp5043
a(g243
F984.0
F995.0
tp5044
atp5045
a(L78L
g210
(lp5046
(g179
I0
F23.0
tp5047
a(g203
F23.0
F569.0
tp5048
a(g57
F964.0
F1551.0
tp5049
a(g231
F1551.0
F1951.0
tp5050
atp5051
a(L85L
g219
(lp5052
(g235
I0
F48.0
tp5053
a(g117
F951.0
F965.0
tp5054
a(g26
F969.0
F983.0
tp5055
a(g245
F983.0
F2186.0
tp5056
atp5057
a(L87L
g210
(lp5058
(g181
F24.0
F539.0
tp5059
a(g87
F539.0
F962.0
tp5060
a(g65
F962.0
F969.0
tp5061
a(g81
F995.0
F1768.0
tp5062
atp5063
a(L90L
g210
(lp5064
(g53
I0
F22.0
tp5065
a(g161
F22.0
F695.0
tp5066
a(g239
F951.0
F957.0
tp5067
a(g30
F1107.0
F1650.0
tp5068
atp5069
a(L97L
g33
(lp5070
(g4
I0
F11.0
tp5071
a(g115
F23.0
F341.0
tp5072
a(g43
F341.0
F638.0
tp5073
a(g20
F638.0
F846.0
tp5074
a(g121
F958.0
F1338.0
tp5075
a(g259
F1338.0
F1665.0
tp5076
a(g45
F1947.0
F1950.0
tp5077
a(g83
F2186.0
F2189.0
tp5078
atp5079
a(L99L
g849
(lp5080
(g225
I0
F149.0
tp5081
a(g131
F981.0
F1024.0
tp5082
a(g216
F1024.0
F1065.0
tp5083
a(g28
F1065.0
F1107.0
tp5084
atp5085
a(L100L
g210
(lp5086
(g95
F23.0
F447.0
tp5087
a(g6
F447.0
F736.0
tp5088
a(g205
F957.0
F1480.0
tp5089
a(g67
F1480.0
F1901.0
tp5090
atp5091
atp5092
a(F2236.0
F5.67
(lp5093
(L1L
g210
(lp5094
(g257
F91.0
F395.0
tp5095
a(g63
F395.0
F834.0
tp5096
a(g12
F976.0
F982.0
tp5097
a(g14
F982.0
F989.0
tp5098
a(g207
F1633.0
F1949.0
tp5099
atp5100
a(L3L
g849
(lp5101
(g119
F951.0
F994.0
tp5102
a(g109
F994.0
F1036.0
tp5103
a(g229
F1036.0
F1075.0
tp5104
atp5105
a(L5L
g210
(lp5106
(g221
I0
F0.0
tp5107
atp5108
a(L11L
g210
(lp5109
(g191
I0
F23.0
tp5110
a(g73
F23.0
F45.0
tp5111
a(g75
F45.0
F68.0
tp5112
a(g77
F68.0
F715.0
tp5113
a(g175
F1010.0
F1637.0
tp5114
atp5115
a(L14L
g210
(lp5116
(g61
I0
F21.0
tp5117
a(g125
F21.0
F43.0
tp5118
a(g127
F43.0
F65.0
tp5119
a(g8
F65.0
F619.0
tp5120
a(g22
F1004.0
F1010.0
tp5121
a(g245
F1032.0
F1587.0
tp5122
a(g133
F1587.0
F2201.0
tp5123
atp5124
a(L26L
g219
(lp5125
(g55
F68.0
F860.0
tp5126
a(g214
F951.0
F962.0
tp5127
a(g251
F962.0
F1947.0
tp5128
atp5129
a(L35L
g2
(lp5130
(g91
F2236.0
F2236.0
tp5131
atp5132
a(L40L
g210
(lp5133
(g249
I0
F24.0
tp5134
a(g237
F46.0
F443.0
tp5135
a(g117
F951.0
F957.0
tp5136
a(g99
F957.0
F1476.0
tp5137
a(g16
F1476.0
F2094.0
tp5138
atp5139
a(L44L
g210
(lp5140
(g107
F11.0
F682.0
tp5141
a(g97
F944.0
F951.0
tp5142
a(g145
F951.0
F957.0
tp5143
a(g147
F957.0
F964.0
tp5144
a(g187
F1018.0
F1555.0
tp5145
a(g39
F1579.0
F1957.0
tp5146
atp5147
a(L45L
g210
(lp5148
(g255
F48.0
F341.0
tp5149
a(g159
F341.0
F363.0
tp5150
a(g155
F363.0
F944.0
tp5151
a(g111
F957.0
F1573.0
tp5152
a(g10
F1573.0
F1579.0
tp5153
atp5154
a(L52L
g210
(lp5155
(g137
I0
F23.0
tp5156
a(g49
F23.0
F45.0
tp5157
a(g143
F45.0
F568.0
tp5158
a(g67
F1019.0
F1440.0
tp5159
atp5160
a(L53L
g210
(lp5161
(g71
I0
F23.0
tp5162
a(g139
F23.0
F46.0
tp5163
a(g51
F46.0
F69.0
tp5164
a(g53
F69.0
F91.0
tp5165
a(g169
F91.0
F114.0
tp5166
a(g171
F114.0
F939.0
tp5167
a(g173
F1004.0
F1010.0
tp5168
a(g265
F1010.0
F1627.0
tp5169
a(g216
F1627.0
F1633.0
tp5170
atp5171
a(L62L
g210
(lp5172
(g193
F23.0
F717.0
tp5173
a(g163
F951.0
F958.0
tp5174
a(g183
F958.0
F964.0
tp5175
a(g239
F964.0
F970.0
tp5176
a(g185
F970.0
F1336.0
tp5177
a(g195
F1336.0
F1342.0
tp5178
a(g151
F1342.0
F1898.0
tp5179
atp5180
a(L66L
g210
(lp5181
(g141
I0
F22.0
tp5182
a(g35
F22.0
F45.0
tp5183
a(g263
F296.0
F976.0
tp5184
a(g65
F997.0
F1004.0
tp5185
a(g24
F1004.0
F1009.0
tp5186
a(g197
F1009.0
F1765.0
tp5187
atp5188
a(L72L
g219
(lp5189
(g103
F43.0
F955.0
tp5190
a(g37
F1004.0
F1019.0
tp5191
a(g243
F1019.0
F1030.0
tp5192
atp5193
a(L78L
g210
(lp5194
(g179
I0
F23.0
tp5195
a(g203
F69.0
F615.0
tp5196
a(g57
F1036.0
F1623.0
tp5197
a(g231
F1687.0
F2087.0
tp5198
atp5199
a(L85L
g219
(lp5200
(g235
I0
F48.0
tp5201
a(g212
F48.0
F96.0
tp5202
a(g20
F96.0
F997.0
tp5203
a(g79
F1004.0
F1018.0
tp5204
a(g26
F1018.0
F1032.0
tp5205
atp5206
a(L87L
g210
(lp5207
(g181
F24.0
F539.0
tp5208
a(g87
F539.0
F962.0
tp5209
a(g81
F1030.0
F1803.0
tp5210
atp5211
a(L90L
g210
(lp5212
(g161
F45.0
F718.0
tp5213
a(g165
F958.0
F1681.0
tp5214
a(g241
F1681.0
F1687.0
tp5215
a(g30
F1687.0
F2230.0
tp5216
atp5217
a(L97L
g33
(lp5218
(g4
I0
F11.0
tp5219
a(g115
F23.0
F341.0
tp5220
a(g43
F341.0
F638.0
tp5221
a(g121
F994.0
F1374.0
tp5222
a(g259
F1374.0
F1701.0
tp5223
a(g149
F1701.0
F1874.0
tp5224
a(g45
F1947.0
F1950.0
tp5225
a(g83
F2087.0
F2090.0
tp5226
atp5227
a(L99L
g849
(lp5228
(g225
I0
F149.0
tp5229
a(g129
F149.0
F296.0
tp5230
a(g131
F982.0
F1025.0
tp5231
a(g28
F1025.0
F1067.0
tp5232
atp5233
a(L100L
g210
(lp5234
(g95
F23.0
F447.0
tp5235
a(g6
F447.0
F736.0
tp5236
a(g205
F964.0
F1487.0
tp5237
a(g199
F2230.0
F2236.0
tp5238
atp5239
atp5240
a(F2542.0
F5.44
(lp5241
(L1L
g394
(lp5242
(g235
I0
F36.0
tp5243
a(g139
F36.0
F73.0
tp5244
a(g257
F716.0
F1210.0
tp5245
a(g12
F1350.0
F1359.0
tp5246
a(g14
F1359.0
F1370.0
tp5247
a(g207
F1387.0
F1900.0
tp5248
atp5249
a(L3L
g849
(lp5250
(g214
F1261.0
F1295.0
tp5251
a(g119
F1295.0
F1338.0
tp5252
a(g241
F1357.0
F1395.0
tp5253
atp5254
a(L11L
g849
(lp5255
(g191
I0
F146.0
tp5256
a(g75
F146.0
F297.0
tp5257
a(g129
F297.0
F444.0
tp5258
atp5259
a(L14L
g210
(lp5260
(g61
I0
F21.0
tp5261
a(g125
F21.0
F43.0
tp5262
a(g127
F43.0
F65.0
tp5263
a(g8
F65.0
F619.0
tp5264
a(g22
F1357.0
F1363.0
tp5265
a(g133
F1373.0
F1987.0
tp5266
atp5267
a(L26L
g219
(lp5268
(g212
I0
F48.0
tp5269
a(g55
F297.0
F1089.0
tp5270
a(g251
F1295.0
F2280.0
tp5271
atp5272
a(L40L
g210
(lp5273
(g237
F73.0
F470.0
tp5274
a(g99
F1275.0
F1794.0
tp5275
a(g195
F1794.0
F1800.0
tp5276
a(g259
F1800.0
F2455.0
tp5277
atp5278
a(L44L
g210
(lp5279
(g107
F23.0
F694.0
tp5280
a(g53
F694.0
F716.0
tp5281
a(g97
F1254.0
F1261.0
tp5282
a(g239
F1261.0
F1267.0
tp5283
a(g145
F1267.0
F1273.0
tp5284
a(g65
F1350.0
F1357.0
tp5285
a(g79
F1357.0
F1363.0
tp5286
a(g187
F1363.0
F1900.0
tp5287
a(g39
F1900.0
F2278.0
tp5288
atp5289
a(L45L
g210
(lp5290
(g4
I0
F23.0
tp5291
a(g137
F23.0
F46.0
tp5292
a(g155
F46.0
F627.0
tp5293
a(g111
F1273.0
F1889.0
tp5294
a(g10
F1889.0
F1895.0
tp5295
atp5296
a(L47L
g219
(lp5297
(g255
F36.0
F670.0
tp5298
atp5299
a(L52L
g210
(lp5300
(g49
I0
F22.0
tp5301
a(g165
F1268.0
F1991.0
tp5302
a(g147
F1991.0
F1998.0
tp5303
a(g67
F1998.0
F2419.0
tp5304
atp5305
a(L53L
g210
(lp5306
(g221
I0
F0.0
tp5307
a(g179
I0
F23.0
tp5308
a(g159
F23.0
F45.0
tp5309
a(g73
F45.0
F67.0
tp5310
a(g171
F67.0
F892.0
tp5311
a(g265
F1363.0
F1980.0
tp5312
a(g245
F1980.0
F2535.0
tp5313
a(g83
F2535.0
F2542.0
tp5314
atp5315
a(L62L
g210
(lp5316
(g193
F146.0
F840.0
tp5317
a(g163
F1261.0
F1268.0
tp5318
a(g183
F1268.0
F1274.0
tp5319
a(g109
F1274.0
F1280.0
tp5320
a(g185
F1280.0
F1646.0
tp5321
a(g151
F1803.0
F2359.0
tp5322
a(g45
F2455.0
F2461.0
tp5323
atp5324
a(L64L
g849
(lp5325
(g37
F1357.0
F1402.0
tp5326
a(g26
F1402.0
F1445.0
tp5327
atp5328
a(L66L
g210
(lp5329
(g35
I0
F23.0
tp5330
a(g77
F23.0
F670.0
tp5331
a(g263
F670.0
F1350.0
tp5332
a(g173
F1357.0
F1363.0
tp5333
a(g24
F1363.0
F1368.0
tp5334
a(g197
F1368.0
F2124.0
tp5335
atp5336
a(L72L
g219
(lp5337
(g169
I0
F50.0
tp5338
a(g103
F50.0
F962.0
tp5339
atp5340
a(L78L
g210
(lp5341
(g203
F23.0
F569.0
tp5342
a(g20
F569.0
F985.0
tp5343
a(g57
F1280.0
F1867.0
tp5344
a(g231
F1867.0
F2267.0
tp5345
atp5346
a(L85L
g219
(lp5347
(g71
I0
F51.0
tp5348
a(g143
F51.0
F1184.0
tp5349
a(g117
F1261.0
F1275.0
tp5350
a(g243
F1357.0
F1368.0
tp5351
atp5352
a(L87L
g210
(lp5353
(g181
F24.0
F539.0
tp5354
a(g87
F539.0
F962.0
tp5355
a(g81
F1368.0
F2141.0
tp5356
atp5357
a(L90L
g210
(lp5358
(g51
I0
F23.0
tp5359
a(g161
F67.0
F740.0
tp5360
a(g16
F1370.0
F1988.0
tp5361
a(g30
F1988.0
F2531.0
tp5362
atp5363
a(L97L
g210
(lp5364
(g249
I0
F24.0
tp5365
a(g115
F24.0
F660.0
tp5366
a(g43
F660.0
F1254.0
tp5367
a(g121
F1338.0
F2097.0
tp5368
a(g149
F2097.0
F2442.0
tp5369
a(g199
F2531.0
F2537.0
tp5370
atp5371
a(L98L
g849
(lp5372
(g91
F2542.0
F2542.0
tp5373
atp5374
a(L99L
g219
(lp5375
(g141
I0
F49.0
tp5376
a(g225
F49.0
F99.0
tp5377
a(g63
F99.0
F1050.0
tp5378
a(g131
F1359.0
F1373.0
tp5379
a(g216
F1373.0
F1387.0
tp5380
a(g28
F1387.0
F1401.0
tp5381
atp5382
a(L100L
g210
(lp5383
(g95
F46.0
F470.0
tp5384
a(g6
F470.0
F759.0
tp5385
a(g205
F1274.0
F1797.0
tp5386
a(g229
F1797.0
F1803.0
tp5387
a(g175
F1803.0
F2430.0
tp5388
atp5389
atp5390
a(F2681.0
F5.28
(lp5391
(L1L
g219
(lp5392
(g235
I0
F48.0
tp5393
a(g257
F716.0
F1375.0
tp5394
a(g12
F1375.0
F1387.0
tp5395
a(g14
F1387.0
F1402.0
tp5396
a(g207
F1415.0
F2099.0
tp5397
atp5398
a(L3L
g849
(lp5399
(g214
F1481.0
F1515.0
tp5400
a(g241
F1515.0
F1553.0
tp5401
atp5402
a(L11L
g849
(lp5403
(g249
I0
F153.0
tp5404
a(g191
F153.0
F299.0
tp5405
a(g75
F299.0
F450.0
tp5406
a(g129
F450.0
F597.0
tp5407
atp5408
a(L14L
g210
(lp5409
(g125
I0
F22.0
tp5410
a(g127
F22.0
F44.0
tp5411
a(g8
F44.0
F598.0
tp5412
a(g22
F1494.0
F1500.0
tp5413
a(g133
F1500.0
F2114.0
tp5414
atp5415
a(L25L
g2
(lp5416
(g221
I0
F0.0
tp5417
atp5418
a(L26L
g219
(lp5419
(g255
F48.0
F682.0
tp5420
a(g55
F682.0
F1474.0
tp5421
a(g251
F1515.0
F2500.0
tp5422
atp5423
a(L40L
g210
(lp5424
(g237
F45.0
F442.0
tp5425
a(g99
F1495.0
F2014.0
tp5426
a(g195
F2014.0
F2020.0
tp5427
a(g259
F2020.0
F2675.0
tp5428
atp5429
a(L42L
g932
(lp5430
(g239
F1481.0
F1501.0
tp5431
atp5432
a(L44L
g210
(lp5433
(g179
I0
F23.0
tp5434
a(g107
F23.0
F694.0
tp5435
a(g53
F694.0
F716.0
tp5436
a(g212
F716.0
F738.0
tp5437
a(g97
F1474.0
F1481.0
tp5438
a(g145
F1481.0
F1487.0
tp5439
a(g65
F1487.0
F1494.0
tp5440
a(g79
F1494.0
F1500.0
tp5441
a(g187
F1500.0
F2037.0
tp5442
a(g39
F2109.0
F2487.0
tp5443
atp5444
a(L45L
g210
(lp5445
(g137
I0
F23.0
tp5446
a(g155
F23.0
F604.0
tp5447
a(g111
F1487.0
F2103.0
tp5448
a(g10
F2103.0
F2109.0
tp5449
atp5450
a(L52L
g210
(lp5451
(g49
I0
F22.0
tp5452
a(g165
F1488.0
F2211.0
tp5453
a(g147
F2211.0
F2218.0
tp5454
a(g67
F2218.0
F2639.0
tp5455
atp5456
a(L53L
g210
(lp5457
(g159
I0
F22.0
tp5458
a(g139
F22.0
F45.0
tp5459
a(g73
F45.0
F67.0
tp5460
a(g171
F96.0
F921.0
tp5461
a(g265
F1500.0
F2117.0
tp5462
a(g245
F2117.0
F2672.0
tp5463
a(g83
F2672.0
F2679.0
tp5464
atp5465
a(L62L
g210
(lp5466
(g193
F299.0
F993.0
tp5467
a(g163
F1481.0
F1488.0
tp5468
a(g183
F1488.0
F1494.0
tp5469
a(g109
F1494.0
F1500.0
tp5470
a(g185
F1501.0
F1867.0
tp5471
a(g151
F2023.0
F2579.0
tp5472
a(g45
F2675.0
F2681.0
tp5473
atp5474
a(L64L
g849
(lp5475
(g37
F1494.0
F1539.0
tp5476
a(g26
F1539.0
F1582.0
tp5477
atp5478
a(L66L
g210
(lp5479
(g35
I0
F23.0
tp5480
a(g77
F23.0
F670.0
tp5481
a(g263
F670.0
F1350.0
tp5482
a(g173
F1494.0
F1500.0
tp5483
a(g24
F1500.0
F1505.0
tp5484
a(g197
F1505.0
F2261.0
tp5485
atp5486
a(L72L
g219
(lp5487
(g61
I0
F46.0
tp5488
a(g169
F46.0
F96.0
tp5489
a(g103
F96.0
F1008.0
tp5490
atp5491
a(L78L
g210
(lp5492
(g203
F46.0
F592.0
tp5493
a(g20
F738.0
F1154.0
tp5494
a(g57
F1500.0
F2087.0
tp5495
a(g231
F2087.0
F2487.0
tp5496
atp5497
a(L85L
g219
(lp5498
(g71
I0
F51.0
tp5499
a(g143
F51.0
F1184.0
tp5500
a(g117
F1481.0
F1495.0
tp5501
a(g243
F1495.0
F1506.0
tp5502
atp5503
a(L87L
g210
(lp5504
(g181
F153.0
F668.0
tp5505
a(g87
F668.0
F1091.0
tp5506
a(g81
F1506.0
F2279.0
tp5507
atp5508
a(L90L
g210
(lp5509
(g4
I0
F23.0
tp5510
a(g51
F23.0
F46.0
tp5511
a(g161
F67.0
F740.0
tp5512
a(g119
F1481.0
F1488.0
tp5513
a(g16
F1488.0
F2106.0
tp5514
a(g30
F2106.0
F2649.0
tp5515
atp5516
a(L97L
g210
(lp5517
(g115
F23.0
F659.0
tp5518
a(g43
F659.0
F1253.0
tp5519
a(g121
F1488.0
F2247.0
tp5520
a(g149
F2247.0
F2592.0
tp5521
a(g199
F2649.0
F2655.0
tp5522
atp5523
a(L98L
g849
(lp5524
(g91
F2681.0
F2681.0
tp5525
atp5526
a(L99L
g219
(lp5527
(g141
I0
F49.0
tp5528
a(g225
F49.0
F99.0
tp5529
a(g63
F99.0
F1050.0
tp5530
a(g131
F1387.0
F1401.0
tp5531
a(g216
F1401.0
F1415.0
tp5532
a(g28
F1415.0
F1429.0
tp5533
atp5534
a(L100L
g210
(lp5535
(g95
F23.0
F447.0
tp5536
a(g6
F447.0
F736.0
tp5537
a(g205
F1494.0
F2017.0
tp5538
a(g229
F2017.0
F2023.0
tp5539
a(g175
F2023.0
F2650.0
tp5540
atp5541
atp5542
a(F2737.0
F4.97
(lp5543
(L1L
g219
(lp5544
(g235
I0
F48.0
tp5545
a(g257
F716.0
F1375.0
tp5546
a(g12
F1375.0
F1387.0
tp5547
a(g14
F1387.0
F1402.0
tp5548
a(g207
F1415.0
F2099.0
tp5549
atp5550
a(L3L
g849
(lp5551
(g214
F1481.0
F1515.0
tp5552
a(g241
F1515.0
F1553.0
tp5553
atp5554
a(L11L
g849
(lp5555
(g249
I0
F153.0
tp5556
a(g191
F153.0
F299.0
tp5557
a(g75
F299.0
F450.0
tp5558
a(g129
F450.0
F597.0
tp5559
a(g22
F1500.0
F1539.0
tp5560
atp5561
a(L14L
g219
(lp5562
(g125
I0
F48.0
tp5563
a(g127
F48.0
F96.0
tp5564
a(g8
F96.0
F1297.0
tp5565
a(g133
F1401.0
F2731.0
tp5566
atp5567
a(L25L
g2
(lp5568
(g221
I0
F0.0
tp5569
atp5570
a(L26L
g219
(lp5571
(g255
F48.0
F682.0
tp5572
a(g55
F682.0
F1474.0
tp5573
a(g251
F1515.0
F2500.0
tp5574
atp5575
a(L40L
g210
(lp5576
(g99
F1495.0
F2014.0
tp5577
a(g195
F2014.0
F2020.0
tp5578
a(g259
F2020.0
F2675.0
tp5579
atp5580
a(L44L
g210
(lp5581
(g107
F23.0
F694.0
tp5582
a(g53
F694.0
F716.0
tp5583
a(g212
F716.0
F738.0
tp5584
a(g97
F1474.0
F1481.0
tp5585
a(g239
F1481.0
F1487.0
tp5586
a(g145
F1487.0
F1493.0
tp5587
a(g65
F1493.0
F1500.0
tp5588
a(g79
F1500.0
F1506.0
tp5589
a(g187
F1506.0
F2043.0
tp5590
a(g39
F2115.0
F2493.0
tp5591
atp5592
a(L45L
g210
(lp5593
(g137
I0
F23.0
tp5594
a(g155
F23.0
F604.0
tp5595
a(g111
F1493.0
F2109.0
tp5596
a(g10
F2109.0
F2115.0
tp5597
atp5598
a(L52L
g210
(lp5599
(g49
I0
F22.0
tp5600
a(g165
F1488.0
F2211.0
tp5601
a(g147
F2211.0
F2218.0
tp5602
a(g67
F2218.0
F2639.0
tp5603
atp5604
a(L53L
g210
(lp5605
(g179
I0
F23.0
tp5606
a(g159
F23.0
F45.0
tp5607
a(g139
F45.0
F68.0
tp5608
a(g73
F68.0
F90.0
tp5609
a(g171
F96.0
F921.0
tp5610
a(g265
F1539.0
F2156.0
tp5611
a(g245
F2156.0
F2711.0
tp5612
a(g83
F2711.0
F2718.0
tp5613
atp5614
a(L62L
g210
(lp5615
(g193
F299.0
F993.0
tp5616
a(g163
F1481.0
F1488.0
tp5617
a(g183
F1488.0
F1494.0
tp5618
a(g109
F1494.0
F1500.0
tp5619
a(g185
F1500.0
F1866.0
tp5620
a(g151
F2023.0
F2579.0
tp5621
a(g45
F2675.0
F2681.0
tp5622
atp5623
a(L64L
g849
(lp5624
(g37
F1500.0
F1545.0
tp5625
a(g26
F1545.0
F1588.0
tp5626
atp5627
a(L66L
g210
(lp5628
(g35
I0
F23.0
tp5629
a(g77
F23.0
F670.0
tp5630
a(g263
F670.0
F1350.0
tp5631
a(g173
F1500.0
F1506.0
tp5632
a(g24
F1506.0
F1511.0
tp5633
a(g197
F1511.0
F2267.0
tp5634
a(g91
F2737.0
F2737.0
tp5635
atp5636
a(L72L
g219
(lp5637
(g61
I0
F46.0
tp5638
a(g169
F46.0
F96.0
tp5639
a(g103
F96.0
F1008.0
tp5640
atp5641
a(L78L
g210
(lp5642
(g203
F488.0
F1034.0
tp5643
a(g20
F1034.0
F1450.0
tp5644
a(g57
F1500.0
F2087.0
tp5645
a(g231
F2087.0
F2487.0
tp5646
atp5647
a(L85L
g219
(lp5648
(g71
I0
F51.0
tp5649
a(g143
F51.0
F1184.0
tp5650
a(g117
F1481.0
F1495.0
tp5651
a(g243
F1500.0
F1511.0
tp5652
atp5653
a(L87L
g210
(lp5654
(g181
F153.0
F668.0
tp5655
a(g87
F668.0
F1091.0
tp5656
a(g81
F1511.0
F2284.0
tp5657
atp5658
a(L90L
g210
(lp5659
(g4
I0
F23.0
tp5660
a(g237
F68.0
F465.0
tp5661
a(g51
F465.0
F488.0
tp5662
a(g161
F488.0
F1161.0
tp5663
a(g119
F1481.0
F1488.0
tp5664
a(g16
F1488.0
F2106.0
tp5665
a(g30
F2106.0
F2649.0
tp5666
atp5667
a(L97L
g210
(lp5668
(g115
F23.0
F659.0
tp5669
a(g43
F659.0
F1253.0
tp5670
a(g121
F1488.0
F2247.0
tp5671
a(g149
F2247.0
F2592.0
tp5672
a(g199
F2731.0
F2737.0
tp5673
atp5674
a(L99L
g219
(lp5675
(g141
I0
F49.0
tp5676
a(g225
F49.0
F99.0
tp5677
a(g63
F99.0
F1050.0
tp5678
a(g131
F1387.0
F1401.0
tp5679
a(g216
F1401.0
F1415.0
tp5680
a(g28
F1415.0
F1429.0
tp5681
atp5682
a(L100L
g210
(lp5683
(g95
F23.0
F447.0
tp5684
a(g6
F447.0
F736.0
tp5685
a(g205
F1494.0
F2017.0
tp5686
a(g229
F2017.0
F2023.0
tp5687
a(g175
F2023.0
F2650.0
tp5688
atp5689
atp5690
a(F3564.0
F4.89
(lp5691
(L1L
g219
(lp5692
(g257
F48.0
F707.0
tp5693
a(g12
F1350.0
F1362.0
tp5694
a(g14
F1362.0
F1377.0
tp5695
a(g207
F1390.0
F2074.0
tp5696
atp5697
a(L3L
g849
(lp5698
(g119
F1553.0
F1596.0
tp5699
a(g229
F1596.0
F1635.0
tp5700
a(g241
F2217.0
F2255.0
tp5701
a(g79
F2255.0
F2296.0
tp5702
atp5703
a(L11L
g219
(lp5704
(g249
I0
F51.0
tp5705
a(g191
F51.0
F100.0
tp5706
a(g75
F100.0
F150.0
tp5707
atp5708
a(L14L
g219
(lp5709
(g61
I0
F46.0
tp5710
a(g125
F46.0
F94.0
tp5711
a(g127
F94.0
F142.0
tp5712
a(g8
F142.0
F1343.0
tp5713
a(g243
F2217.0
F2228.0
tp5714
a(g133
F2228.0
F3558.0
tp5715
atp5716
a(L25L
g1837
(lp5717
(g221
I0
F0.0
tp5718
atp5719
a(L26L
g219
(lp5720
(g53
I0
F48.0
tp5721
a(g55
F150.0
F942.0
tp5722
a(g251
F1558.0
F2543.0
tp5723
atp5724
a(L40L
g210
(lp5725
(g237
F45.0
F442.0
tp5726
a(g99
F1567.0
F2086.0
tp5727
a(g195
F2086.0
F2092.0
tp5728
a(g259
F2092.0
F2747.0
tp5729
atp5730
a(L44L
g210
(lp5731
(g179
I0
F23.0
tp5732
a(g107
F23.0
F694.0
tp5733
a(g97
F1546.0
F1553.0
tp5734
a(g239
F1553.0
F1559.0
tp5735
a(g145
F1559.0
F1565.0
tp5736
a(g147
F1565.0
F1572.0
tp5737
a(g65
F2210.0
F2217.0
tp5738
a(g187
F2296.0
F2833.0
tp5739
a(g39
F2833.0
F3211.0
tp5740
atp5741
a(L45L
g219
(lp5742
(g137
I0
F50.0
tp5743
a(g155
F50.0
F1309.0
tp5744
a(g20
F1309.0
F2210.0
tp5745
a(g111
F2210.0
F3545.0
tp5746
atp5747
a(L52L
g210
(lp5748
(g49
I0
F22.0
tp5749
a(g214
F1553.0
F1558.0
tp5750
a(g165
F1560.0
F2283.0
tp5751
a(g67
F2283.0
F2704.0
tp5752
atp5753
a(L53L
g210
(lp5754
(g159
I0
F22.0
tp5755
a(g139
F22.0
F45.0
tp5756
a(g212
F45.0
F67.0
tp5757
a(g73
F67.0
F89.0
tp5758
a(g171
F89.0
F914.0
tp5759
a(g265
F2229.0
F2846.0
tp5760
a(g83
F3508.0
F3515.0
tp5761
atp5762
a(L61L
g33
(lp5763
(g91
F3564.0
F3564.0
tp5764
atp5765
a(L62L
g210
(lp5766
(g193
F100.0
F794.0
tp5767
a(g163
F1553.0
F1560.0
tp5768
a(g183
F1560.0
F1566.0
tp5769
a(g109
F1566.0
F1572.0
tp5770
a(g185
F1572.0
F1938.0
tp5771
a(g151
F1938.0
F2494.0
tp5772
a(g45
F3545.0
F3551.0
tp5773
a(g199
F3558.0
F3564.0
tp5774
atp5775
a(L64L
g849
(lp5776
(g129
I0
F147.0
tp5777
a(g37
F2217.0
F2262.0
tp5778
a(g26
F2262.0
F2305.0
tp5779
atp5780
a(L66L
g210
(lp5781
(g35
I0
F23.0
tp5782
a(g77
F23.0
F670.0
tp5783
a(g263
F670.0
F1350.0
tp5784
a(g173
F2217.0
F2223.0
tp5785
a(g24
F2223.0
F2228.0
tp5786
a(g197
F2228.0
F2984.0
tp5787
atp5788
a(L72L
g219
(lp5789
(g169
I0
F50.0
tp5790
a(g103
F94.0
F1006.0
tp5791
atp5792
a(L78L
g210
(lp5793
(g203
F46.0
F592.0
tp5794
a(g57
F1572.0
F2159.0
tp5795
a(g231
F2255.0
F2655.0
tp5796
atp5797
a(L85L
g219
(lp5798
(g235
I0
F48.0
tp5799
a(g71
F48.0
F99.0
tp5800
a(g143
F99.0
F1232.0
tp5801
a(g117
F1553.0
F1567.0
tp5802
a(g245
F2305.0
F3508.0
tp5803
atp5804
a(L87L
g210
(lp5805
(g181
F51.0
F566.0
tp5806
a(g87
F566.0
F989.0
tp5807
a(g10
F2217.0
F2223.0
tp5808
a(g22
F2223.0
F2229.0
tp5809
a(g81
F2229.0
F3002.0
tp5810
atp5811
a(L90L
g210
(lp5812
(g4
I0
F23.0
tp5813
a(g51
F23.0
F46.0
tp5814
a(g161
F89.0
F762.0
tp5815
a(g16
F1377.0
F1995.0
tp5816
a(g30
F1995.0
F2538.0
tp5817
atp5818
a(L97L
g210
(lp5819
(g115
F23.0
F659.0
tp5820
a(g255
F659.0
F952.0
tp5821
a(g43
F952.0
F1546.0
tp5822
a(g121
F1596.0
F2355.0
tp5823
a(g149
F2355.0
F2700.0
tp5824
atp5825
a(L99L
g219
(lp5826
(g141
I0
F49.0
tp5827
a(g225
F49.0
F99.0
tp5828
a(g63
F99.0
F1050.0
tp5829
a(g131
F1362.0
F1376.0
tp5830
a(g216
F1376.0
F1390.0
tp5831
a(g28
F1390.0
F1404.0
tp5832
atp5833
a(L100L
g210
(lp5834
(g95
F50.0
F474.0
tp5835
a(g6
F474.0
F763.0
tp5836
a(g205
F1566.0
F2089.0
tp5837
a(g175
F2223.0
F2850.0
tp5838
atp5839
atp5840
a.