(lp0
(F15.0
F6.3
(lp1
(L1L
Vapac-sin#m3.2xlarge
p2
(lp3
(VID00004
p4
I0
F4.0
tp5
a(VID00013
p6
F4.0
F7.0
tp7
a(VID00014
p8
F10.0
F10.0
tp9
a(VID00018
p10
F10.0
F13.0
tp11
atp12
a(L6L
Vapac-sin#m1.medium
p13
(lp14
(S'exit'
p15
F15.0
F15.0
tp16
atp17
a(L7L
g2
(lp18
(VID00001
p19
I0
F4.0
tp20
a(VID00006
p21
F4.0
F7.0
tp22
a(VID00005
p23
F7.0
F10.0
tp24
a(VID00019
p25
F10.0
F13.0
tp26
atp27
a(L9L
g2
(lp28
(VID00002
p29
I0
F4.0
tp30
a(VID00009
p31
F4.0
F7.0
tp32
a(VID00011
p33
F7.0
F10.0
tp34
a(VID00015
p35
F10.0
F10.0
tp36
a(VID00020
p37
F10.0
F13.0
tp38
atp39
a(L10L
g2
(lp40
(S'entry'
p41
I0
F0.0
tp42
atp43
a(L11L
g2
(lp44
(VID00003
p45
I0
F4.0
tp46
a(VID00007
p47
F4.0
F7.0
tp48
a(VID00012
p49
F7.0
F10.0
tp50
a(VID00016
p51
F10.0
F13.0
tp52
atp53
a(L12L
g2
(lp54
(VID00000
p55
I0
F4.0
tp56
a(VID00008
p57
F4.0
F7.0
tp58
a(VID00010
p59
F7.0
F10.0
tp60
a(VID00017
p61
F10.0
F13.0
tp62
a(VID00022
p63
F13.0
F14.0
tp64
a(VID00023
p65
F14.0
F15.0
tp66
atp67
a(L16L
Vapac-sin#m1.xlarge
p68
(lp69
(VID00024
p70
F15.0
F15.0
tp71
atp72
a(L21L
g2
(lp73
(VID00021
p74
F13.0
F13.0
tp75
atp76
atp77
a(F21.0
F5.04
(lp78
(L7L
g2
(lp79
(g19
I0
F4.0
tp80
a(g23
F4.0
F7.0
tp81
a(g6
F7.0
F10.0
tp82
a(g59
F10.0
F13.0
tp83
a(g51
F13.0
F16.0
tp84
atp85
a(L9L
g2
(lp86
(g4
I0
F4.0
tp87
a(g21
F4.0
F7.0
tp88
a(g47
F7.0
F10.0
tp89
a(g31
F10.0
F13.0
tp90
a(g8
F13.0
F13.0
tp91
a(g37
F13.0
F16.0
tp92
a(g25
F16.0
F19.0
tp93
atp94
a(L10L
g2
(lp95
(g41
I0
F0.0
tp96
atp97
a(L11L
g2
(lp98
(g45
I0
F4.0
tp99
a(g49
F4.0
F7.0
tp100
a(g33
F7.0
F10.0
tp101
atp102
a(L12L
g2
(lp103
(g55
I0
F4.0
tp104
a(g29
F4.0
F8.0
tp105
a(g57
F8.0
F11.0
tp106
a(g61
F13.0
F16.0
tp107
a(g10
F16.0
F19.0
tp108
a(g63
F19.0
F20.0
tp109
a(g65
F20.0
F21.0
tp110
atp111
a(L16L
g2
(lp112
(g70
F21.0
F21.0
tp113
atp114
a(L18L
Vapac-sin#m1.large
p115
(lp116
(g15
F21.0
F21.0
tp117
atp118
a(L20L
g2
(lp119
(g74
F19.0
F19.0
tp120
atp121
a(L24L
g2
(lp122
(g35
F13.0
F13.0
tp123
atp124
atp125
a(F22.0
F4.41
(lp126
(L1L
g2
(lp127
(g8
F14.0
F14.0
tp128
atp129
a(L3L
Vapac-sin#m3.xlarge
p130
(lp131
(g29
I0
F8.0
tp132
a(g6
F8.0
F14.0
tp133
atp134
a(L6L
g115
(lp135
(g15
F22.0
F22.0
tp136
atp137
a(L7L
g2
(lp138
(g19
I0
F4.0
tp139
a(g23
F4.0
F7.0
tp140
a(g49
F7.0
F10.0
tp141
a(g59
F10.0
F13.0
tp142
a(g51
F14.0
F17.0
tp143
atp144
a(L9L
g2
(lp145
(g4
I0
F4.0
tp146
a(g21
F4.0
F7.0
tp147
a(g31
F8.0
F11.0
tp148
a(g33
F11.0
F14.0
tp149
a(g37
F14.0
F17.0
tp150
a(g25
F17.0
F20.0
tp151
atp152
a(L12L
g2
(lp153
(g55
I0
F4.0
tp154
a(g45
F4.0
F8.0
tp155
a(g47
F8.0
F11.0
tp156
a(g57
F11.0
F14.0
tp157
a(g61
F14.0
F17.0
tp158
a(g10
F17.0
F20.0
tp159
a(g63
F20.0
F21.0
tp160
a(g65
F21.0
F22.0
tp161
atp162
a(L16L
g2
(lp163
(g70
F22.0
F22.0
tp164
atp165
a(L20L
g2
(lp166
(g41
I0
F0.0
tp167
atp168
a(L21L
g2
(lp169
(g74
F20.0
F20.0
tp170
atp171
a(L24L
g2
(lp172
(g35
F14.0
F14.0
tp173
atp174
atp175
a(F25.0
F3.78
(lp176
(L7L
g2
(lp177
(g19
I0
F4.0
tp178
a(g23
F4.0
F7.0
tp179
a(g49
F7.0
F10.0
tp180
a(g6
F10.0
F13.0
tp181
a(g59
F13.0
F16.0
tp182
a(g25
F17.0
F20.0
tp183
a(g70
F25.0
F25.0
tp184
a(g15
F25.0
F25.0
tp185
atp186
a(L9L
g2
(lp187
(g4
I0
F4.0
tp188
a(g21
F4.0
F7.0
tp189
a(g29
F7.0
F11.0
tp190
a(g31
F11.0
F14.0
tp191
a(g33
F14.0
F17.0
tp192
a(g8
F17.0
F17.0
tp193
a(g37
F17.0
F20.0
tp194
a(g61
F20.0
F23.0
tp195
atp196
a(L10L
g2
(lp197
(g41
I0
F0.0
tp198
atp199
a(L12L
g2
(lp200
(g55
I0
F4.0
tp201
a(g45
F4.0
F8.0
tp202
a(g47
F8.0
F11.0
tp203
a(g57
F11.0
F14.0
tp204
a(g51
F17.0
F20.0
tp205
a(g10
F20.0
F23.0
tp206
a(g63
F23.0
F24.0
tp207
a(g65
F24.0
F25.0
tp208
atp209
a(L20L
g2
(lp210
(g35
F17.0
F17.0
tp211
atp212
a(L21L
g2
(lp213
(g74
F23.0
F23.0
tp214
atp215
atp216
a(F28.0
F3.15
(lp217
(L1L
g130
(lp218
(g8
F20.0
F20.0
tp219
atp220
a(L6L
g130
(lp221
(g15
F28.0
F28.0
tp222
atp223
a(L7L
g130
(lp224
(g4
I0
F8.0
tp225
a(g49
F8.0
F15.0
tp226
a(g51
F20.0
F26.0
tp227
atp228
a(L9L
g2
(lp229
(g19
I0
F4.0
tp230
a(g23
F4.0
F7.0
tp231
a(g29
F7.0
F11.0
tp232
a(g31
F11.0
F14.0
tp233
a(g59
F14.0
F17.0
tp234
a(g33
F17.0
F20.0
tp235
a(g37
F20.0
F23.0
tp236
a(g25
F23.0
F26.0
tp237
atp238
a(L12L
g2
(lp239
(g55
I0
F4.0
tp240
a(g21
F4.0
F7.0
tp241
a(g45
F7.0
F11.0
tp242
a(g47
F11.0
F14.0
tp243
a(g57
F14.0
F17.0
tp244
a(g6
F17.0
F20.0
tp245
a(g61
F20.0
F23.0
tp246
a(g10
F23.0
F26.0
tp247
a(g63
F26.0
F27.0
tp248
a(g65
F27.0
F28.0
tp249
atp250
a(L16L
g68
(lp251
(g70
F28.0
F28.0
tp252
atp253
a(L21L
g2
(lp254
(g74
F26.0
F26.0
tp255
atp256
a(L22L
g115
(lp257
(g41
I0
F0.0
tp258
atp259
a(L24L
g2
(lp260
(g35
F20.0
F20.0
tp261
atp262
atp263
a(F35.0
F2.83
(lp264
(L6L
Vapac-sin#m1.small
p265
(lp266
(g15
F35.0
F35.0
tp267
atp268
a(L7L
g130
(lp269
(g4
I0
F8.0
tp270
a(g49
F8.0
F15.0
tp271
a(g6
F18.0
F24.0
tp272
a(g25
F24.0
F31.0
tp273
atp274
a(L9L
g130
(lp275
(g29
I0
F8.0
tp276
a(g31
F8.0
F14.0
tp277
a(g33
F18.0
F24.0
tp278
a(g37
F24.0
F31.0
tp279
atp280
a(L12L
g2
(lp281
(g19
I0
F4.0
tp282
a(g55
F4.0
F8.0
tp283
a(g21
F8.0
F11.0
tp284
a(g23
F11.0
F14.0
tp285
a(g45
F14.0
F18.0
tp286
a(g47
F18.0
F21.0
tp287
a(g57
F21.0
F24.0
tp288
a(g61
F24.0
F27.0
tp289
a(g51
F27.0
F30.0
tp290
a(g10
F30.0
F33.0
tp291
a(g63
F33.0
F34.0
tp292
a(g65
F34.0
F35.0
tp293
atp294
a(L13L
Vapac-sin#m3.large
p295
(lp296
(g59
F8.0
F21.0
tp297
atp298
a(L16L
g68
(lp299
(g70
F35.0
F35.0
tp300
atp301
a(L20L
g2
(lp302
(g35
F24.0
F24.0
tp303
atp304
a(L21L
g2
(lp305
(g74
F33.0
F33.0
tp306
atp307
a(L22L
g115
(lp308
(g41
I0
F0.0
tp309
atp310
a(L25L
g2
(lp311
(g8
F24.0
F24.0
tp312
atp313
atp314
a(F37.0
F2.52
(lp315
(L4L
g2
(lp316
(g8
F26.0
F26.0
tp317
atp318
a(L6L
g265
(lp319
(g15
F37.0
F37.0
tp320
atp321
a(L7L
g130
(lp322
(g4
I0
F8.0
tp323
a(g49
F8.0
F15.0
tp324
a(g6
F18.0
F24.0
tp325
a(g25
F26.0
F33.0
tp326
atp327
a(L9L
g130
(lp328
(g29
I0
F8.0
tp329
a(g31
F8.0
F14.0
tp330
a(g59
F14.0
F20.0
tp331
a(g33
F20.0
F26.0
tp332
a(g37
F26.0
F33.0
tp333
atp334
a(L12L
g2
(lp335
(g19
I0
F4.0
tp336
a(g55
F4.0
F8.0
tp337
a(g21
F8.0
F11.0
tp338
a(g23
F11.0
F14.0
tp339
a(g45
F14.0
F18.0
tp340
a(g47
F18.0
F21.0
tp341
a(g57
F21.0
F24.0
tp342
a(g61
F26.0
F29.0
tp343
a(g51
F29.0
F32.0
tp344
a(g10
F32.0
F35.0
tp345
a(g63
F35.0
F36.0
tp346
a(g65
F36.0
F37.0
tp347
atp348
a(L16L
g68
(lp349
(g70
F37.0
F37.0
tp350
atp351
a(L20L
g2
(lp352
(g35
F26.0
F26.0
tp353
atp354
a(L21L
g2
(lp355
(g74
F35.0
F35.0
tp356
atp357
a(L22L
g115
(lp358
(g41
I0
F0.0
tp359
atp360
atp361
a(F45.0
F2.2
(lp362
(L6L
g115
(lp363
(g15
F45.0
F45.0
tp364
atp365
a(L7L
g295
(lp366
(g4
I0
F17.0
tp367
a(g59
F17.0
F30.0
tp368
a(g25
F30.0
F43.0
tp369
atp370
a(L9L
g295
(lp371
(g29
I0
F16.0
tp372
a(g31
F16.0
F29.0
tp373
a(g37
F30.0
F43.0
tp374
atp375
a(L11L
g295
(lp376
(g45
I0
F17.0
tp377
a(g6
F17.0
F30.0
tp378
atp379
a(L12L
g2
(lp380
(g19
I0
F4.0
tp381
a(g55
F4.0
F8.0
tp382
a(g21
F8.0
F11.0
tp383
a(g23
F11.0
F14.0
tp384
a(g47
F17.0
F20.0
tp385
a(g57
F20.0
F23.0
tp386
a(g49
F23.0
F26.0
tp387
a(g33
F26.0
F29.0
tp388
a(g61
F30.0
F33.0
tp389
a(g51
F33.0
F36.0
tp390
a(g10
F36.0
F39.0
tp391
a(g63
F43.0
F44.0
tp392
a(g65
F44.0
F45.0
tp393
atp394
a(L16L
g2
(lp395
(g70
F45.0
F45.0
tp396
atp397
a(L17L
g2
(lp398
(g8
F30.0
F30.0
tp399
atp400
a(L20L
g2
(lp401
(g35
F30.0
F30.0
tp402
atp403
a(L21L
g2
(lp404
(g74
F43.0
F43.0
tp405
atp406
a(L22L
g2
(lp407
(g41
I0
F0.0
tp408
atp409
atp410
a(F54.0
F1.89
(lp411
(L7L
g130
(lp412
(g19
I0
F9.0
tp413
a(g23
F9.0
F16.0
tp414
a(g49
F16.0
F23.0
tp415
a(g6
F23.0
F29.0
tp416
a(g59
F29.0
F35.0
tp417
a(g25
F36.0
F43.0
tp418
a(g70
F54.0
F54.0
tp419
a(g15
F54.0
F54.0
tp420
atp421
a(L9L
g130
(lp422
(g4
I0
F8.0
tp423
a(g21
F9.0
F16.0
tp424
a(g29
F16.0
F24.0
tp425
a(g31
F24.0
F30.0
tp426
a(g33
F30.0
F36.0
tp427
a(g8
F36.0
F36.0
tp428
a(g37
F36.0
F43.0
tp429
a(g61
F43.0
F50.0
tp430
atp431
a(L10L
g68
(lp432
(g41
I0
F0.0
tp433
atp434
a(L12L
g130
(lp435
(g55
I0
F8.0
tp436
a(g45
F8.0
F16.0
tp437
a(g47
F16.0
F23.0
tp438
a(g57
F24.0
F31.0
tp439
a(g51
F36.0
F42.0
tp440
a(g10
F42.0
F49.0
tp441
a(g63
F50.0
F52.0
tp442
a(g65
F52.0
F54.0
tp443
atp444
a(L20L
g2
(lp445
(g35
F36.0
F36.0
tp446
atp447
a(L21L
g2
(lp448
(g74
F50.0
F50.0
tp449
atp450
atp451
a(F60.0
F1.57
(lp452
(L5L
g2
(lp453
(g8
F43.0
F43.0
tp454
a(g35
F43.0
F43.0
tp455
atp456
a(L7L
g295
(lp457
(g41
I0
F0.0
tp458
a(g19
I0
F17.0
tp459
a(g57
F17.0
F30.0
tp460
a(g59
F30.0
F43.0
tp461
a(g25
F43.0
F56.0
tp462
atp463
a(L9L
g295
(lp464
(g4
I0
F17.0
tp465
a(g21
F17.0
F30.0
tp466
a(g23
F30.0
F43.0
tp467
a(g61
F43.0
F56.0
tp468
atp469
a(L11L
g295
(lp470
(g45
I0
F17.0
tp471
a(g47
F17.0
F30.0
tp472
a(g37
F43.0
F56.0
tp473
atp474
a(L12L
g130
(lp475
(g55
I0
F8.0
tp476
a(g29
F8.0
F16.0
tp477
a(g31
F17.0
F23.0
tp478
a(g49
F23.0
F30.0
tp479
a(g6
F30.0
F36.0
tp480
a(g33
F36.0
F42.0
tp481
a(g51
F43.0
F49.0
tp482
a(g10
F49.0
F56.0
tp483
a(g63
F56.0
F58.0
tp484
a(g65
F58.0
F60.0
tp485
atp486
a(L15L
g295
(lp487
(g15
F60.0
F60.0
tp488
atp489
a(L16L
g68
(lp490
(g70
F60.0
F60.0
tp491
atp492
a(L21L
g2
(lp493
(g74
F56.0
F56.0
tp494
atp495
atp496
a(F76.0
F1.42
(lp497
(L2L
Vapac-sin#m3.medium
p498
(lp499
(g21
F17.0
F45.0
tp500
atp501
a(L6L
g13
(lp502
(g15
F76.0
F76.0
tp503
atp504
a(L7L
g295
(lp505
(g4
I0
F17.0
tp506
a(g49
F17.0
F30.0
tp507
a(g6
F32.0
F45.0
tp508
a(g25
F52.0
F65.0
tp509
atp510
a(L9L
g295
(lp511
(g29
I0
F16.0
tp512
a(g59
F16.0
F29.0
tp513
a(g33
F32.0
F45.0
tp514
a(g37
F52.0
F65.0
tp515
atp516
a(L12L
g130
(lp517
(g19
I0
F9.0
tp518
a(g55
F9.0
F17.0
tp519
a(g23
F17.0
F24.0
tp520
a(g45
F24.0
F32.0
tp521
a(g47
F32.0
F39.0
tp522
a(g31
F39.0
F45.0
tp523
a(g57
F45.0
F52.0
tp524
a(g61
F52.0
F59.0
tp525
a(g51
F59.0
F65.0
tp526
a(g10
F65.0
F72.0
tp527
a(g63
F72.0
F74.0
tp528
a(g65
F74.0
F76.0
tp529
atp530
a(L16L
g68
(lp531
(g70
F76.0
F76.0
tp532
atp533
a(L20L
g2
(lp534
(g35
F52.0
F52.0
tp535
atp536
a(L21L
g2
(lp537
(g74
F72.0
F72.0
tp538
atp539
a(L24L
g2
(lp540
(g41
I0
F0.0
tp541
atp542
a(L25L
g2
(lp543
(g8
F52.0
F52.0
tp544
atp545
atp546
a(F79.0
F1.26
(lp547
(L6L
g13
(lp548
(g15
F79.0
F79.0
tp549
atp550
a(L7L
g295
(lp551
(g4
I0
F17.0
tp552
a(g49
F17.0
F30.0
tp553
a(g6
F39.0
F52.0
tp554
a(g25
F55.0
F68.0
tp555
atp556
a(L9L
g295
(lp557
(g29
I0
F16.0
tp558
a(g31
F16.0
F29.0
tp559
a(g59
F29.0
F42.0
tp560
a(g33
F42.0
F55.0
tp561
a(g37
F55.0
F68.0
tp562
atp563
a(L12L
g130
(lp564
(g19
I0
F9.0
tp565
a(g55
F9.0
F17.0
tp566
a(g21
F17.0
F24.0
tp567
a(g23
F24.0
F31.0
tp568
a(g45
F31.0
F39.0
tp569
a(g47
F39.0
F46.0
tp570
a(g57
F46.0
F53.0
tp571
a(g61
F55.0
F62.0
tp572
a(g51
F62.0
F68.0
tp573
a(g10
F68.0
F75.0
tp574
a(g63
F75.0
F77.0
tp575
a(g65
F77.0
F79.0
tp576
atp577
a(L16L
g68
(lp578
(g70
F79.0
F79.0
tp579
atp580
a(L20L
g2
(lp581
(g35
F55.0
F55.0
tp582
atp583
a(L21L
g2
(lp584
(g74
F75.0
F75.0
tp585
atp586
a(L24L
g2
(lp587
(g41
I0
F0.0
tp588
atp589
a(L25L
g2
(lp590
(g8
F55.0
F55.0
tp591
atp592
atp593
a(F99.0
F1.1
(lp594
(L3L
g498
(lp595
(g29
I0
F36.0
tp596
a(g6
F36.0
F64.0
tp597
atp598
a(L6L
g130
(lp599
(g15
F99.0
F99.0
tp600
atp601
a(L7L
g295
(lp602
(g19
I0
F17.0
tp603
a(g23
F17.0
F30.0
tp604
a(g49
F30.0
F43.0
tp605
a(g59
F43.0
F56.0
tp606
a(g51
F64.0
F77.0
tp607
atp608
a(L9L
g295
(lp609
(g4
I0
F17.0
tp610
a(g21
F17.0
F30.0
tp611
a(g31
F36.0
F49.0
tp612
a(g33
F49.0
F62.0
tp613
a(g37
F64.0
F77.0
tp614
a(g25
F77.0
F90.0
tp615
atp616
a(L12L
g295
(lp617
(g55
I0
F16.0
tp618
a(g45
F16.0
F33.0
tp619
a(g47
F33.0
F46.0
tp620
a(g57
F46.0
F59.0
tp621
a(g61
F64.0
F77.0
tp622
a(g10
F77.0
F90.0
tp623
a(g63
F90.0
F94.0
tp624
a(g65
F94.0
F99.0
tp625
atp626
a(L16L
g2
(lp627
(g70
F99.0
F99.0
tp628
atp629
a(L20L
g2
(lp630
(g74
F90.0
F90.0
tp631
atp632
a(L24L
g2
(lp633
(g35
F64.0
F64.0
tp634
atp635
a(L25L
g2
(lp636
(g8
F64.0
F64.0
tp637
atp638
a(L26L
g295
(lp639
(g41
I0
F0.0
tp640
atp641
atp642
a(F107.0
F0.94
(lp643
(L5L
g295
(lp644
(g15
F107.0
F107.0
tp645
atp646
a(L7L
g295
(lp647
(g19
I0
F17.0
tp648
a(g23
F17.0
F30.0
tp649
a(g49
F30.0
F43.0
tp650
a(g6
F43.0
F56.0
tp651
a(g59
F56.0
F69.0
tp652
a(g51
F72.0
F85.0
tp653
atp654
a(L9L
g295
(lp655
(g4
I0
F17.0
tp656
a(g21
F17.0
F30.0
tp657
a(g29
F30.0
F46.0
tp658
a(g31
F46.0
F59.0
tp659
a(g33
F59.0
F72.0
tp660
a(g37
F72.0
F85.0
tp661
a(g25
F85.0
F98.0
tp662
atp663
a(L12L
g295
(lp664
(g55
I0
F16.0
tp665
a(g45
F16.0
F33.0
tp666
a(g47
F33.0
F46.0
tp667
a(g57
F46.0
F59.0
tp668
a(g61
F72.0
F85.0
tp669
a(g10
F85.0
F98.0
tp670
a(g63
F98.0
F102.0
tp671
a(g65
F102.0
F107.0
tp672
atp673
a(L16L
g68
(lp674
(g70
F107.0
F107.0
tp675
atp676
a(L20L
g2
(lp677
(g74
F98.0
F98.0
tp678
atp679
a(L24L
g2
(lp680
(g35
F72.0
F72.0
tp681
atp682
a(L25L
g2
(lp683
(g8
F72.0
F72.0
tp684
atp685
a(L26L
g295
(lp686
(g41
I0
F0.0
tp687
atp688
atp689
a(F123.0
F0.79
(lp690
(L1L
g130
(lp691
(g8
F86.0
F86.0
tp692
atp693
a(L6L
g498
(lp694
(g15
F123.0
F123.0
tp695
atp696
a(L7L
g498
(lp697
(g4
I0
F37.0
tp698
a(g49
F37.0
F65.0
tp699
a(g51
F86.0
F114.0
tp700
atp701
a(L9L
g295
(lp702
(g19
I0
F17.0
tp703
a(g23
F17.0
F30.0
tp704
a(g29
F30.0
F46.0
tp705
a(g31
F46.0
F59.0
tp706
a(g59
F59.0
F72.0
tp707
a(g33
F72.0
F85.0
tp708
a(g37
F86.0
F99.0
tp709
a(g25
F99.0
F112.0
tp710
atp711
a(L12L
g295
(lp712
(g55
I0
F16.0
tp713
a(g21
F17.0
F30.0
tp714
a(g45
F30.0
F47.0
tp715
a(g47
F47.0
F60.0
tp716
a(g57
F60.0
F73.0
tp717
a(g6
F73.0
F86.0
tp718
a(g61
F86.0
F99.0
tp719
a(g10
F99.0
F112.0
tp720
a(g63
F114.0
F118.0
tp721
a(g65
F118.0
F123.0
tp722
atp723
a(L16L
g68
(lp724
(g70
F123.0
F123.0
tp725
atp726
a(L20L
g2
(lp727
(g74
F114.0
F114.0
tp728
atp729
a(L24L
g2
(lp730
(g35
F86.0
F86.0
tp731
atp732
a(L25L
g2
(lp733
(g41
I0
F0.0
tp734
atp735
atp736
a(F163.0
F0.63
(lp737
(L6L
g13
(lp738
(g15
F163.0
F163.0
tp739
atp740
a(L7L
g498
(lp741
(g4
I0
F37.0
tp742
a(g49
F37.0
F65.0
tp743
a(g6
F76.0
F104.0
tp744
a(g25
F115.0
F144.0
tp745
atp746
a(L9L
g498
(lp747
(g41
I0
F0.0
tp748
a(g29
I0
F36.0
tp749
a(g59
F36.0
F64.0
tp750
a(g33
F76.0
F104.0
tp751
a(g37
F115.0
F144.0
tp752
atp753
a(L12L
g295
(lp754
(g19
I0
F17.0
tp755
a(g55
F17.0
F33.0
tp756
a(g21
F33.0
F46.0
tp757
a(g23
F46.0
F59.0
tp758
a(g45
F59.0
F76.0
tp759
a(g47
F76.0
F89.0
tp760
a(g31
F89.0
F102.0
tp761
a(g57
F102.0
F115.0
tp762
a(g61
F115.0
F128.0
tp763
a(g51
F128.0
F141.0
tp764
a(g10
F141.0
F154.0
tp765
a(g63
F154.0
F158.0
tp766
a(g65
F158.0
F163.0
tp767
atp768
a(L16L
g68
(lp769
(g70
F163.0
F163.0
tp770
atp771
a(L20L
g2
(lp772
(g35
F115.0
F115.0
tp773
atp774
a(L21L
g2
(lp775
(g74
F154.0
F154.0
tp776
atp777
a(L25L
g2
(lp778
(g8
F115.0
F115.0
tp779
atp780
atp781
a(F224.0
F0.55
(lp782
(L3L
g68
(lp783
(g41
I0
F0.0
tp784
atp785
a(L7L
g498
(lp786
(g19
I0
F37.0
tp787
a(g23
F37.0
F65.0
tp788
a(g49
F65.0
F93.0
tp789
a(g6
F93.0
F121.0
tp790
a(g59
F121.0
F149.0
tp791
a(g25
F149.0
F178.0
tp792
atp793
a(L9L
g498
(lp794
(g4
I0
F37.0
tp795
a(g29
F37.0
F73.0
tp796
a(g31
F73.0
F101.0
tp797
a(g33
F101.0
F129.0
tp798
a(g37
F149.0
F178.0
tp799
a(g61
F178.0
F206.0
tp800
atp801
a(L12L
g498
(lp802
(g55
I0
F36.0
tp803
a(g45
F36.0
F72.0
tp804
a(g47
F72.0
F101.0
tp805
a(g57
F101.0
F130.0
tp806
a(g51
F149.0
F177.0
tp807
a(g10
F177.0
F206.0
tp808
a(g63
F206.0
F214.0
tp809
a(g65
F214.0
F224.0
tp810
atp811
a(L13L
g265
(lp812
(g21
F37.0
F122.0
tp813
atp814
a(L15L
g295
(lp815
(g15
F224.0
F224.0
tp816
atp817
a(L16L
g68
(lp818
(g70
F224.0
F224.0
tp819
atp820
a(L20L
g2
(lp821
(g35
F149.0
F149.0
tp822
atp823
a(L21L
g2
(lp824
(g74
F206.0
F206.0
tp825
atp826
a(L25L
g2
(lp827
(g8
F149.0
F149.0
tp828
atp829
atp830
a(F232.0
F0.47
(lp831
(L7L
g498
(lp832
(g19
I0
F37.0
tp833
a(g23
F37.0
F65.0
tp834
a(g49
F65.0
F93.0
tp835
a(g6
F93.0
F121.0
tp836
a(g59
F121.0
F149.0
tp837
a(g25
F157.0
F186.0
tp838
atp839
a(L9L
g498
(lp840
(g4
I0
F37.0
tp841
a(g21
F37.0
F65.0
tp842
a(g29
F65.0
F101.0
tp843
a(g31
F101.0
F129.0
tp844
a(g33
F129.0
F157.0
tp845
a(g37
F157.0
F186.0
tp846
a(g61
F186.0
F214.0
tp847
atp848
a(L12L
g498
(lp849
(g55
I0
F36.0
tp850
a(g45
F36.0
F72.0
tp851
a(g47
F72.0
F101.0
tp852
a(g57
F101.0
F130.0
tp853
a(g51
F157.0
F185.0
tp854
a(g10
F185.0
F214.0
tp855
a(g63
F214.0
F222.0
tp856
a(g65
F222.0
F232.0
tp857
atp858
a(L14L
g68
(lp859
(g41
I0
F0.0
tp860
atp861
a(L16L
g68
(lp862
(g70
F232.0
F232.0
tp863
atp864
a(L17L
g265
(lp865
(g15
F232.0
F232.0
tp866
atp867
a(L20L
g2
(lp868
(g35
F157.0
F157.0
tp869
atp870
a(L21L
g2
(lp871
(g74
F214.0
F214.0
tp872
atp873
a(L25L
g2
(lp874
(g8
F157.0
F157.0
tp875
atp876
atp877
a(F296.0
F0.4
(lp878
(L6L
g295
(lp879
(g15
F296.0
F296.0
tp880
atp881
a(L7L
g265
(lp882
(g4
I0
F110.0
tp883
a(g49
F110.0
F195.0
tp884
a(g51
F195.0
F278.0
tp885
atp886
a(L9L
g498
(lp887
(g19
I0
F37.0
tp888
a(g23
F37.0
F65.0
tp889
a(g29
F65.0
F101.0
tp890
a(g31
F101.0
F129.0
tp891
a(g59
F129.0
F157.0
tp892
a(g33
F157.0
F185.0
tp893
a(g37
F195.0
F224.0
tp894
a(g25
F224.0
F253.0
tp895
atp896
a(L12L
g498
(lp897
(g55
I0
F36.0
tp898
a(g21
F37.0
F65.0
tp899
a(g45
F65.0
F101.0
tp900
a(g47
F101.0
F130.0
tp901
a(g57
F130.0
F159.0
tp902
a(g6
F159.0
F187.0
tp903
a(g61
F195.0
F223.0
tp904
a(g10
F223.0
F252.0
tp905
a(g63
F278.0
F286.0
tp906
a(g65
F286.0
F296.0
tp907
atp908
a(L16L
g68
(lp909
(g70
F296.0
F296.0
tp910
atp911
a(L21L
g2
(lp912
(g74
F278.0
F278.0
tp913
atp914
a(L23L
g295
(lp915
(g41
I0
F0.0
tp916
atp917
a(L24L
g2
(lp918
(g35
F195.0
F195.0
tp919
atp920
a(L25L
g2
(lp921
(g8
F195.0
F195.0
tp922
atp923
atp924
a(F383.0
F0.32
(lp925
(L6L
g13
(lp926
(g15
F383.0
F383.0
tp927
atp928
a(L7L
g265
(lp929
(g4
I0
F110.0
tp930
a(g49
F110.0
F195.0
tp931
a(g6
F195.0
F278.0
tp932
a(g25
F278.0
F365.0
tp933
atp934
a(L8L
g2
(lp935
(g41
I0
F0.0
tp936
atp937
a(L9L
g265
(lp938
(g29
I0
F107.0
tp939
a(g59
F107.0
F191.0
tp940
a(g33
F191.0
F275.0
tp941
a(g37
F278.0
F364.0
tp942
atp943
a(L12L
g498
(lp944
(g19
I0
F37.0
tp945
a(g55
F37.0
F73.0
tp946
a(g21
F73.0
F101.0
tp947
a(g23
F101.0
F129.0
tp948
a(g45
F129.0
F165.0
tp949
a(g47
F165.0
F194.0
tp950
a(g31
F194.0
F222.0
tp951
a(g57
F222.0
F251.0
tp952
a(g61
F278.0
F306.0
tp953
a(g51
F306.0
F334.0
tp954
a(g10
F334.0
F363.0
tp955
a(g63
F365.0
F373.0
tp956
a(g65
F373.0
F383.0
tp957
atp958
a(L16L
g68
(lp959
(g70
F383.0
F383.0
tp960
atp961
a(L20L
g2
(lp962
(g35
F278.0
F278.0
tp963
atp964
a(L21L
g2
(lp965
(g74
F365.0
F365.0
tp966
atp967
a(L25L
g2
(lp968
(g8
F278.0
F278.0
tp969
atp970
atp971
a(F697.0
F0.24
(lp972
(L6L
g265
(lp973
(g15
F697.0
F697.0
tp974
atp975
a(L7L
g265
(lp976
(g19
I0
F111.0
tp977
a(g23
F111.0
F196.0
tp978
a(g49
F196.0
F281.0
tp979
a(g6
F281.0
F364.0
tp980
a(g59
F364.0
F448.0
tp981
a(g25
F471.0
F558.0
tp982
atp983
a(L9L
g265
(lp984
(g4
I0
F110.0
tp985
a(g21
F111.0
F196.0
tp986
a(g29
F196.0
F303.0
tp987
a(g31
F303.0
F387.0
tp988
a(g33
F387.0
F471.0
tp989
a(g37
F471.0
F557.0
tp990
a(g61
F557.0
F642.0
tp991
atp992
a(L12L
g265
(lp993
(g55
I0
F107.0
tp994
a(g45
F107.0
F216.0
tp995
a(g47
F216.0
F303.0
tp996
a(g57
F303.0
F389.0
tp997
a(g51
F471.0
F554.0
tp998
a(g10
F554.0
F641.0
tp999
a(g63
F642.0
F666.0
tp1000
a(g65
F666.0
F697.0
tp1001
atp1002
a(L16L
g68
(lp1003
(g70
F697.0
F697.0
tp1004
atp1005
a(L20L
g2
(lp1006
(g35
F471.0
F471.0
tp1007
atp1008
a(L21L
g2
(lp1009
(g74
F642.0
F642.0
tp1010
atp1011
a(L25L
g2
(lp1012
(g8
F471.0
F471.0
tp1013
atp1014
a(L26L
g295
(lp1015
(g41
I0
F0.0
tp1016
atp1017
atp1018
a.