(lp0
(F1429.0
F4.57
(lp1
(L5L
Vapac-sin#m3.2xlarge
p2
(lp3
(VID00007
p4
I0
F0.0
tp5
a(VID00006
p6
I0
F0.0
tp7
a(VID00001
p8
I0
F0.0
tp9
a(VID00016
p10
I0
F0.0
tp11
atp12
a(L6L
Vapac-sin#m3.xlarge
p13
(lp14
(VID00003
p15
I0
F1.0
tp16
a(VID00039
p17
F1.0
F2.0
tp18
a(VID00048
p19
F2.0
F17.0
tp20
a(VID00017
p21
F17.0
F794.0
tp22
a(VID00031
p23
F794.0
F795.0
tp24
atp25
a(L7L
g2
(lp26
(VID00032
p27
I0
F0.0
tp28
atp29
a(L10L
Vapac-sin#m3.large
p30
(lp31
(S'entry'
p32
I0
F0.0
tp33
atp34
a(L11L
g2
(lp35
(VID00040
p36
I0
F0.0
tp37
atp38
a(L14L
Vapac-sin#m1.small
p39
(lp40
(VID00044
p41
I0
F8.0
tp42
a(VID00056
p43
F709.0
F758.0
tp44
a(VID00038
p45
F758.0
F772.0
tp46
a(VID00023
p47
F1025.0
F1065.0
tp48
a(VID00025
p49
F1153.0
F1417.0
tp50
atp51
a(L15L
g2
(lp52
(VID00008
p53
I0
F0.0
tp54
a(VID00029
p55
I0
F0.0
tp56
atp57
a(L16L
g2
(lp58
(VID00002
p59
I0
F0.0
tp60
a(VID00030
p61
I0
F0.0
tp62
a(VID00034
p63
I0
F0.0
tp64
atp65
a(L20L
g39
(lp66
(VID00037
p67
I0
F14.0
tp68
a(VID00011
p69
F14.0
F27.0
tp70
a(VID00014
p71
F27.0
F37.0
tp72
a(VID00015
p73
F37.0
F49.0
tp74
a(VID00018
p75
F49.0
F364.0
tp76
a(VID00019
p77
F364.0
F722.0
tp78
a(VID00026
p79
F1025.0
F1074.0
tp80
a(VID00033
p81
F1074.0
F1086.0
tp82
atp83
a(L22L
g2
(lp84
(VID00047
p85
I0
F557.0
tp86
a(VID00053
p87
F709.0
F711.0
tp88
atp89
a(L24L
g2
(lp90
(VID00004
p91
I0
F0.0
tp92
a(VID00010
p93
I0
F0.0
tp94
atp95
a(L25L
g2
(lp96
(VID00020
p97
I0
F932.0
tp98
a(VID00021
p99
F932.0
F1025.0
tp100
a(VID00024
p101
F1025.0
F1428.0
tp102
a(VID00057
p103
F1428.0
F1429.0
tp104
atp105
a(L31L
g2
(lp106
(VID00036
p107
I0
F1.0
tp108
a(VID00005
p109
F1.0
F1.0
tp110
a(VID00049
p111
F1.0
F11.0
tp112
a(VID00050
p113
F11.0
F646.0
tp114
a(VID00051
p115
F646.0
F709.0
tp116
a(VID00055
p117
F709.0
F719.0
tp118
a(VID00054
p119
F719.0
F1153.0
tp120
a(VID00022
p121
F1153.0
F1153.0
tp122
a(VID00027
p123
F1428.0
F1429.0
tp124
atp125
a(L37L
g2
(lp126
(VID00013
p127
I0
F0.0
tp128
atp129
a(L38L
g2
(lp130
(VID00012
p131
I0
F0.0
tp132
atp133
a(L39L
g2
(lp134
(VID00043
p135
I0
F0.0
tp136
a(VID00035
p137
I0
F0.0
tp138
atp139
a(L41L
g2
(lp140
(VID00042
p141
I0
F0.0
tp142
a(VID00009
p143
I0
F0.0
tp144
atp145
a(L44L
Vapac-sin#m3.medium
p146
(lp147
(VID00028
p148
F1086.0
F1086.0
tp149
atp150
a(L49L
Vapac-sin#m1.medium
p151
(lp152
(S'exit'
p153
F1429.0
F1429.0
tp154
atp155
a(L50L
g2
(lp156
(VID00046
p157
I0
F0.0
tp158
a(VID00045
p159
I0
F0.0
tp160
atp161
a(L54L
g2
(lp162
(VID00041
p163
I0
F0.0
tp164
atp165
a(L57L
g2
(lp166
(VID00052
p167
F709.0
F709.0
tp168
a(VID00000
p169
F709.0
F709.0
tp170
atp171
atp172
a(F1443.0
F3.94
(lp173
(L0L
g2
(lp174
(g6
I0
F0.0
tp175
a(g93
I0
F0.0
tp176
a(g23
I0
F0.0
tp177
atp178
a(L1L
g2
(lp179
(g41
I0
F0.0
tp180
atp181
a(L5L
g2
(lp182
(g53
I0
F0.0
tp183
a(g55
I0
F0.0
tp184
a(g137
I0
F0.0
tp185
atp186
a(L6L
g39
(lp187
(g141
I0
F6.0
tp188
a(g107
F6.0
F20.0
tp189
a(g15
F20.0
F34.0
tp190
a(g45
F34.0
F48.0
tp191
a(g75
F48.0
F363.0
tp192
a(g77
F363.0
F721.0
tp193
atp194
a(L7L
g13
(lp195
(g148
F1103.0
F1103.0
tp196
atp197
a(L13L
g146
(lp198
(g169
F1144.0
F1144.0
tp199
atp200
a(L14L
g39
(lp201
(g19
I0
F195.0
tp202
a(g87
F709.0
F750.0
tp203
a(g117
F750.0
F1014.0
tp204
a(g47
F1039.0
F1079.0
tp205
a(g61
F1079.0
F1090.0
tp206
a(g36
F1090.0
F1103.0
tp207
atp208
a(L20L
g2
(lp209
(g131
I0
F0.0
tp210
atp211
a(L22L
g2
(lp212
(g85
I0
F557.0
tp213
a(g21
F557.0
F946.0
tp214
a(g99
F946.0
F1039.0
tp215
atp216
a(L25L
g2
(lp217
(g109
I0
F0.0
tp218
a(g97
I0
F932.0
tp219
a(g43
F932.0
F934.0
tp220
a(g101
F1039.0
F1442.0
tp221
a(g103
F1442.0
F1443.0
tp222
atp223
a(L29L
g2
(lp224
(g91
I0
F0.0
tp225
atp226
a(L31L
g2
(lp227
(g67
I0
F1.0
tp228
a(g17
F1.0
F1.0
tp229
a(g111
F1.0
F11.0
tp230
a(g113
F11.0
F646.0
tp231
a(g115
F646.0
F709.0
tp232
a(g119
F709.0
F1143.0
tp233
a(g127
F1143.0
F1143.0
tp234
a(g69
F1143.0
F1144.0
tp235
a(g71
F1144.0
F1144.0
tp236
a(g49
F1144.0
F1154.0
tp237
a(g79
F1154.0
F1156.0
tp238
a(g123
F1442.0
F1443.0
tp239
atp240
a(L36L
g30
(lp241
(g153
F1443.0
F1443.0
tp242
atp243
a(L41L
g2
(lp244
(g143
I0
F0.0
tp245
atp246
a(L42L
g13
(lp247
(g32
I0
F0.0
tp248
a(g63
I0
F0.0
tp249
atp250
a(L46L
g2
(lp251
(g27
I0
F0.0
tp252
a(g163
I0
F0.0
tp253
atp254
a(L49L
g2
(lp255
(g121
F1039.0
F1039.0
tp256
atp257
a(L50L
g2
(lp258
(g167
F709.0
F709.0
tp259
atp260
a(L53L
g2
(lp261
(g8
I0
F0.0
tp262
a(g159
I0
F0.0
tp263
atp264
a(L55L
g2
(lp265
(g157
I0
F0.0
tp266
a(g4
I0
F0.0
tp267
a(g81
I0
F0.0
tp268
atp269
a(L56L
g2
(lp270
(g135
I0
F0.0
tp271
atp272
a(L58L
g2
(lp273
(g59
I0
F0.0
tp274
atp275
a(L59L
g2
(lp276
(g10
I0
F0.0
tp277
a(g73
I0
F0.0
tp278
atp279
atp280
a(F1690.0
F3.47
(lp281
(L3L
g2
(lp282
(g32
I0
F0.0
tp283
a(g17
I0
F0.0
tp284
a(g41
I0
F0.0
tp285
a(g131
I0
F0.0
tp286
a(g55
I0
F0.0
tp287
atp288
a(L4L
g2
(lp289
(g10
I0
F0.0
tp290
atp291
a(L38L
g2
(lp292
(g73
I0
F0.0
tp293
atp294
a(L6L
g39
(lp295
(g27
I0
F12.0
tp296
a(g157
F12.0
F24.0
tp297
a(g15
F24.0
F38.0
tp298
a(g43
F1255.0
F1304.0
tp299
a(g45
F1304.0
F1318.0
tp300
a(g121
F1318.0
F1329.0
tp301
atp302
a(L39L
g13
(lp303
(g135
I0
F1.0
tp304
a(g21
F1.0
F778.0
tp305
a(g75
F778.0
F802.0
tp306
a(g99
F932.0
F1118.0
tp307
atp308
a(L10L
g2
(lp309
(g109
I0
F0.0
tp310
atp311
a(L12L
g2
(lp312
(g93
I0
F0.0
tp313
a(g63
I0
F0.0
tp314
atp315
a(L14L
g39
(lp316
(g19
I0
F195.0
tp317
a(g47
F1118.0
F1158.0
tp318
a(g49
F1329.0
F1593.0
tp319
a(g36
F1593.0
F1606.0
tp320
atp321
a(L15L
g2
(lp322
(g143
I0
F0.0
tp323
a(g81
I0
F0.0
tp324
atp325
a(L16L
g2
(lp326
(g127
I0
F0.0
tp327
a(g61
I0
F0.0
tp328
atp329
a(L50L
g2
(lp330
(g23
I0
F0.0
tp331
atp332
a(L35L
g39
(lp333
(g107
I0
F14.0
tp334
a(g111
F14.0
F275.0
tp335
a(g163
F275.0
F285.0
tp336
a(g77
F285.0
F643.0
tp337
atp338
a(L20L
g39
(lp339
(g67
I0
F14.0
tp340
a(g159
F14.0
F25.0
tp341
a(g87
F1255.0
F1296.0
tp342
a(g117
F1296.0
F1560.0
tp343
a(g71
F1560.0
F1570.0
tp344
a(g169
F1570.0
F1571.0
tp345
a(g79
F1571.0
F1620.0
tp346
atp347
a(L22L
g2
(lp348
(g4
I0
F0.0
tp349
a(g6
I0
F0.0
tp350
atp351
a(L56L
g2
(lp352
(g8
I0
F0.0
tp353
a(g137
I0
F0.0
tp354
atp355
a(L25L
g2
(lp356
(g59
I0
F0.0
tp357
a(g97
I0
F932.0
tp358
a(g167
F1255.0
F1255.0
tp359
a(g69
F1255.0
F1256.0
tp360
a(g101
F1256.0
F1659.0
tp361
a(g103
F1689.0
F1690.0
tp362
atp363
a(L26L
g146
(lp364
(g153
F1690.0
F1690.0
tp365
atp366
a(L29L
g39
(lp367
(g148
F1606.0
F1606.0
tp368
atp369
a(L30L
g2
(lp370
(g91
I0
F0.0
tp371
a(g53
I0
F0.0
tp372
atp373
a(L31L
g2
(lp374
(g141
I0
F0.0
tp375
a(g113
I0
F635.0
tp376
a(g85
F635.0
F1192.0
tp377
a(g115
F1192.0
F1255.0
tp378
a(g119
F1255.0
F1689.0
tp379
a(g123
F1689.0
F1690.0
tp380
atp381
atp382
a(F1818.0
F2.84
(lp383
(L33L
g2
(lp384
(g127
I0
F0.0
tp385
a(g137
I0
F0.0
tp386
atp387
a(L2L
g2
(lp388
(g167
F1263.0
F1263.0
tp389
a(g23
F1263.0
F1263.0
tp390
atp391
a(L35L
g39
(lp392
(g67
I0
F14.0
tp393
a(g159
F14.0
F25.0
tp394
a(g111
F25.0
F286.0
tp395
a(g45
F286.0
F300.0
tp396
a(g69
F300.0
F313.0
tp397
a(g71
F313.0
F323.0
tp398
a(g75
F323.0
F638.0
tp399
a(g77
F638.0
F996.0
tp400
a(g47
F1414.0
F1454.0
tp401
atp402
a(L6L
g39
(lp403
(g27
I0
F12.0
tp404
a(g135
F12.0
F21.0
tp405
a(g157
F21.0
F33.0
tp406
a(g43
F1263.0
F1312.0
tp407
a(g81
F1312.0
F1324.0
tp408
a(g63
F1324.0
F1330.0
tp409
a(g153
F1818.0
F1818.0
tp410
atp411
a(L40L
g2
(lp412
(g55
I0
F0.0
tp413
atp414
a(L41L
g2
(lp415
(g121
F1414.0
F1414.0
tp416
atp417
a(L57L
g146
(lp418
(g169
F1321.0
F1321.0
tp419
atp420
a(L44L
g2
(lp421
(g32
I0
F0.0
tp422
a(g109
I0
F0.0
tp423
a(g4
I0
F0.0
tp424
atp425
a(L14L
g39
(lp426
(g15
I0
F14.0
tp427
a(g49
F1414.0
F1678.0
tp428
atp429
a(L47L
g2
(lp430
(g8
I0
F0.0
tp431
atp432
a(L49L
g2
(lp433
(g6
I0
F0.0
tp434
a(g41
I0
F0.0
tp435
a(g61
I0
F0.0
tp436
atp437
a(L50L
g2
(lp438
(g59
I0
F0.0
tp439
atp440
a(L3L
g2
(lp441
(g93
I0
F0.0
tp442
atp443
a(L20L
g39
(lp444
(g117
F1263.0
F1527.0
tp445
a(g79
F1527.0
F1576.0
tp446
a(g148
F1576.0
F1576.0
tp447
a(g103
F1699.0
F1715.0
tp448
atp449
a(L21L
g2
(lp450
(g10
I0
F0.0
tp451
atp452
a(L55L
g2
(lp453
(g143
I0
F0.0
tp454
a(g17
I0
F0.0
tp455
a(g163
I0
F0.0
tp456
a(g131
I0
F0.0
tp457
atp458
a(L56L
g2
(lp459
(g53
I0
F0.0
tp460
atp461
a(L25L
g2
(lp462
(g97
I0
F932.0
tp463
a(g21
F932.0
F1321.0
tp464
a(g73
F1321.0
F1321.0
tp465
a(g99
F1321.0
F1414.0
tp466
a(g101
F1414.0
F1817.0
tp467
atp468
a(L59L
g2
(lp469
(g91
I0
F0.0
tp470
atp471
a(L52L
g2
(lp472
(g36
I0
F0.0
tp473
atp474
a(L31L
g2
(lp475
(g141
I0
F0.0
tp476
a(g107
I0
F1.0
tp477
a(g19
F1.0
F8.0
tp478
a(g113
F8.0
F643.0
tp479
a(g85
F643.0
F1200.0
tp480
a(g115
F1200.0
F1263.0
tp481
a(g87
F1263.0
F1265.0
tp482
a(g119
F1265.0
F1699.0
tp483
a(g123
F1817.0
F1818.0
tp484
atp485
atp486
a(F2360.0
F2.6
(lp487
(L3L
g146
(lp488
(g32
I0
F0.0
tp489
atp490
a(L4L
g2
(lp491
(g167
F1255.0
F1255.0
tp492
atp493
a(L38L
g2
(lp494
(g131
I0
F0.0
tp495
atp496
a(L6L
g39
(lp497
(g27
I0
F12.0
tp498
a(g15
F12.0
F26.0
tp499
a(g53
F26.0
F35.0
tp500
a(g45
F35.0
F49.0
tp501
atp502
a(L10L
g2
(lp503
(g109
I0
F0.0
tp504
a(g73
I0
F0.0
tp505
atp506
a(L23L
g151
(lp507
(g169
F1689.0
F1689.0
tp508
atp509
a(L12L
g2
(lp510
(g121
F1956.0
F1956.0
tp511
a(g63
F1956.0
F1956.0
tp512
atp513
a(L13L
g2
(lp514
(g135
I0
F0.0
tp515
a(g159
I0
F0.0
tp516
atp517
a(L14L
g39
(lp518
(g47
F1956.0
F1996.0
tp519
a(g49
F1996.0
F2260.0
tp520
a(g36
F2260.0
F2273.0
tp521
atp522
a(L15L
g2
(lp523
(g59
I0
F0.0
tp524
a(g10
I0
F0.0
tp525
atp526
a(L50L
g2
(lp527
(g91
I0
F0.0
tp528
a(g163
I0
F0.0
tp529
a(g55
I0
F0.0
tp530
a(g23
I0
F0.0
tp531
a(g81
I0
F0.0
tp532
atp533
a(L35L
g39
(lp534
(g107
I0
F14.0
tp535
a(g111
F14.0
F275.0
tp536
a(g75
F275.0
F590.0
tp537
a(g77
F590.0
F948.0
tp538
atp539
a(L20L
g39
(lp540
(g67
I0
F14.0
tp541
a(g19
F14.0
F209.0
tp542
a(g87
F1255.0
F1296.0
tp543
a(g79
F1956.0
F2005.0
tp544
atp545
a(L22L
g30
(lp546
(g157
I0
F2.0
tp547
a(g4
F2.0
F3.0
tp548
a(g21
F3.0
F1557.0
tp549
atp550
a(L55L
g2
(lp551
(g143
I0
F0.0
tp552
atp553
a(L56L
g2
(lp554
(g8
I0
F0.0
tp555
a(g137
I0
F0.0
tp556
atp557
a(L25L
g13
(lp558
(g141
I0
F0.0
tp559
a(g97
I0
F1863.0
tp560
a(g103
F2273.0
F2274.0
tp561
atp562
a(L26L
g30
(lp563
(g153
F2360.0
F2360.0
tp564
atp565
a(L27L
g39
(lp566
(g17
I0
F9.0
tp567
a(g41
F9.0
F17.0
tp568
a(g117
F1255.0
F1519.0
tp569
a(g43
F1519.0
F1568.0
tp570
a(g93
F1568.0
F1578.0
tp571
a(g69
F1578.0
F1591.0
tp572
a(g61
F1591.0
F1602.0
tp573
atp574
a(L29L
g2
(lp575
(g148
F2273.0
F2273.0
tp576
atp577
a(L31L
g2
(lp578
(g6
I0
F0.0
tp579
a(g113
I0
F635.0
tp580
a(g85
F635.0
F1192.0
tp581
a(g115
F1192.0
F1255.0
tp582
a(g119
F1255.0
F1689.0
tp583
a(g127
F1689.0
F1689.0
tp584
a(g71
F1689.0
F1689.0
tp585
a(g99
F1863.0
F1956.0
tp586
a(g101
F1956.0
F2359.0
tp587
a(g123
F2359.0
F2360.0
tp588
atp589
atp590
a(F2575.0
F2.21
(lp591
(L0L
g2
(lp592
(g93
I0
F0.0
tp593
a(g73
I0
F0.0
tp594
atp595
a(L3L
Vapac-sin#m1.large
p596
(lp597
(g32
I0
F0.0
tp598
atp599
a(L4L
g2
(lp600
(g127
I0
F0.0
tp601
a(g81
I0
F0.0
tp602
atp603
a(L6L
g39
(lp604
(g27
I0
F12.0
tp605
a(g109
F12.0
F22.0
tp606
a(g15
F22.0
F36.0
tp607
a(g117
F1255.0
F1519.0
tp608
a(g43
F1519.0
F1568.0
tp609
a(g77
F1568.0
F1926.0
tp610
atp611
a(L10L
g2
(lp612
(g163
I0
F0.0
tp613
atp614
a(L12L
g2
(lp615
(g121
F2171.0
F2171.0
tp616
a(g36
F2171.0
F2171.0
tp617
atp618
a(L14L
g39
(lp619
(g159
I0
F11.0
tp620
a(g111
F11.0
F272.0
tp621
a(g19
F272.0
F467.0
tp622
a(g49
F2171.0
F2435.0
tp623
atp624
a(L16L
g2
(lp625
(g53
I0
F0.0
tp626
atp627
a(L18L
g2
(lp628
(g157
I0
F0.0
tp629
a(g55
I0
F0.0
tp630
atp631
a(L20L
g39
(lp632
(g67
I0
F14.0
tp633
a(g41
F14.0
F22.0
tp634
a(g87
F1255.0
F1296.0
tp635
a(g169
F2078.0
F2079.0
tp636
a(g79
F2171.0
F2220.0
tp637
atp638
a(L23L
g2
(lp639
(g135
I0
F0.0
tp640
atp641
a(L25L
g13
(lp642
(g4
I0
F1.0
tp643
a(g97
F1.0
F1864.0
tp644
a(g45
F1864.0
F1865.0
tp645
a(g69
F1865.0
F1866.0
tp646
a(g47
F2171.0
F2174.0
tp647
a(g103
F2174.0
F2175.0
tp648
atp649
a(L26L
g151
(lp650
(g153
F2575.0
F2575.0
tp651
atp652
a(L27L
g2
(lp653
(g61
I0
F0.0
tp654
atp655
a(L31L
g2
(lp656
(g6
I0
F0.0
tp657
a(g113
I0
F635.0
tp658
a(g85
F635.0
F1192.0
tp659
a(g115
F1192.0
F1255.0
tp660
a(g119
F1255.0
F1689.0
tp661
a(g21
F1689.0
F2078.0
tp662
a(g71
F2078.0
F2078.0
tp663
a(g99
F2078.0
F2171.0
tp664
a(g101
F2171.0
F2574.0
tp665
a(g123
F2574.0
F2575.0
tp666
atp667
a(L32L
g2
(lp668
(g17
I0
F0.0
tp669
atp670
a(L33L
g2
(lp671
(g63
I0
F0.0
tp672
atp673
a(L34L
g2
(lp674
(g167
F1255.0
F1255.0
tp675
a(g131
F1255.0
F1255.0
tp676
atp677
a(L35L
g39
(lp678
(g107
I0
F14.0
tp679
a(g143
F14.0
F24.0
tp680
a(g75
F24.0
F339.0
tp681
a(g23
F339.0
F349.0
tp682
atp683
a(L38L
g2
(lp684
(g141
I0
F0.0
tp685
atp686
a(L47L
g2
(lp687
(g59
I0
F0.0
tp688
a(g10
I0
F0.0
tp689
atp690
a(L49L
g2
(lp691
(g148
F2171.0
F2171.0
tp692
atp693
a(L51L
g2
(lp694
(g91
I0
F0.0
tp695
atp696
a(L56L
g2
(lp697
(g8
I0
F0.0
tp698
a(g137
I0
F0.0
tp699
atp700
atp701
a(F3378.0
F1.89
(lp702
(L3L
g2
(lp703
(g32
I0
F0.0
tp704
a(g17
I0
F0.0
tp705
a(g41
I0
F0.0
tp706
a(g131
I0
F0.0
tp707
a(g55
I0
F0.0
tp708
atp709
a(L4L
g2
(lp710
(g10
I0
F0.0
tp711
atp712
a(L38L
g2
(lp713
(g73
I0
F0.0
tp714
atp715
a(L6L
g39
(lp716
(g27
I0
F12.0
tp717
a(g15
F12.0
F26.0
tp718
a(g43
F2510.0
F2559.0
tp719
a(g45
F2559.0
F2573.0
tp720
a(g121
F2573.0
F2584.0
tp721
atp722
a(L39L
g30
(lp723
(g135
I0
F1.0
tp724
a(g21
F1.0
F1555.0
tp725
a(g75
F1555.0
F1603.0
tp726
a(g99
F1864.0
F2235.0
tp727
atp728
a(L10L
g2
(lp729
(g109
I0
F0.0
tp730
atp731
a(L12L
g2
(lp732
(g93
I0
F0.0
tp733
a(g63
I0
F0.0
tp734
atp735
a(L14L
g39
(lp736
(g19
I0
F195.0
tp737
a(g47
F2235.0
F2275.0
tp738
a(g49
F2584.0
F2848.0
tp739
a(g36
F2848.0
F2861.0
tp740
atp741
a(L15L
g2
(lp742
(g143
I0
F0.0
tp743
a(g81
I0
F0.0
tp744
atp745
a(L16L
g2
(lp746
(g127
I0
F0.0
tp747
a(g61
I0
F0.0
tp748
atp749
a(L50L
g2
(lp750
(g23
I0
F0.0
tp751
atp752
a(L35L
g39
(lp753
(g107
I0
F14.0
tp754
a(g111
F14.0
F275.0
tp755
a(g163
F275.0
F285.0
tp756
a(g77
F285.0
F643.0
tp757
atp758
a(L20L
g39
(lp759
(g67
I0
F14.0
tp760
a(g159
F14.0
F25.0
tp761
a(g87
F2510.0
F2551.0
tp762
a(g117
F2551.0
F2815.0
tp763
a(g71
F2815.0
F2825.0
tp764
a(g169
F2825.0
F2826.0
tp765
a(g79
F2826.0
F2875.0
tp766
atp767
a(L22L
g2
(lp768
(g4
I0
F0.0
tp769
a(g6
I0
F0.0
tp770
atp771
a(L23L
g2
(lp772
(g157
I0
F0.0
tp773
atp774
a(L56L
g2
(lp775
(g137
I0
F0.0
tp776
atp777
a(L25L
g13
(lp778
(g59
I0
F1.0
tp779
a(g97
F1.0
F1864.0
tp780
a(g167
F2510.0
F2511.0
tp781
a(g69
F2511.0
F2512.0
tp782
a(g101
F2512.0
F3317.0
tp783
a(g103
F3377.0
F3378.0
tp784
atp785
a(L26L
g146
(lp786
(g153
F3378.0
F3378.0
tp787
atp788
a(L29L
g30
(lp789
(g148
F2861.0
F2861.0
tp790
atp791
a(L30L
g2
(lp792
(g91
I0
F0.0
tp793
a(g8
I0
F0.0
tp794
a(g53
I0
F0.0
tp795
atp796
a(L31L
g13
(lp797
(g141
I0
F0.0
tp798
a(g113
I0
F1271.0
tp799
a(g85
F1271.0
F2384.0
tp800
a(g115
F2384.0
F2510.0
tp801
a(g119
F2510.0
F3377.0
tp802
a(g123
F3377.0
F3378.0
tp803
atp804
atp805
a.