(lp0
(F1357.0
F1.97
(lp1
(L0L
Vapac-sin#m3.medium
p2
(lp3
(VID00000
p4
F26.0
F26.0
tp5
atp6
a(L2L
Vapac-sin#m3.2xlarge
p7
(lp8
(VID00006
p9
I0
F0.0
tp10
a(VID00012
p11
I0
F0.0
tp12
atp13
a(L3L
g7
(lp14
(VID00005
p15
I0
F0.0
tp16
a(VID00014
p17
I0
F0.0
tp18
atp19
a(L6L
g7
(lp20
(VID00021
p21
I0
F754.0
tp22
a(VID00022
p23
F754.0
F905.0
tp24
a(VID00025
p25
F905.0
F1356.0
tp26
a(VID00028
p27
F1356.0
F1357.0
tp28
atp29
a(L8L
g7
(lp30
(S'entry'
p31
I0
F0.0
tp32
a(VID00009
p33
I0
F0.0
tp34
atp35
a(L9L
Vapac-sin#m1.small
p36
(lp37
(VID00001
p38
I0
F13.0
tp39
a(VID00002
p40
F13.0
F26.0
tp41
a(VID00020
p42
F26.0
F382.0
tp43
a(VID00023
p44
F905.0
F917.0
tp45
a(VID00027
p46
F917.0
F945.0
tp47
atp48
a(L10L
g7
(lp49
(VID00017
p50
I0
F0.0
tp51
atp52
a(L13L
g7
(lp53
(VID00007
p54
I0
F0.0
tp55
atp56
a(L19L
g7
(lp57
(VID00008
p58
I0
F0.0
tp59
atp60
a(L20L
g7
(lp61
(VID00004
p62
I0
F0.0
tp63
atp64
a(L22L
Vapac-sin#m3.xlarge
p65
(lp66
(VID00013
p67
I0
F1.0
tp68
a(VID00018
p69
F1.0
F605.0
tp70
a(VID00019
p71
F605.0
F634.0
tp72
a(VID00024
p73
F905.0
F909.0
tp74
a(VID00026
p75
F917.0
F937.0
tp76
atp77
a(L24L
Vapac-sin#m1.large
p78
(lp79
(S'exit'
p80
F1357.0
F1357.0
tp81
atp82
a(L29L
g7
(lp83
(VID00003
p84
I0
F0.0
tp85
a(VID00010
p86
I0
F0.0
tp87
a(VID00011
p88
I0
F0.0
tp89
a(VID00016
p90
I0
F0.0
tp91
a(VID00015
p92
I0
F0.0
tp93
atp94
atp95
a(F1659.0
F1.42
(lp96
(L0L
Vapac-sin#m3.large
p97
(lp98
(g4
F754.0
F754.0
tp99
atp100
a(L2L
g7
(lp101
(g9
I0
F0.0
tp102
a(g11
I0
F0.0
tp103
atp104
a(L3L
g7
(lp105
(g15
I0
F0.0
tp106
atp107
a(L6L
g7
(lp108
(g21
I0
F754.0
tp109
a(g17
F754.0
F754.0
tp110
a(g69
F754.0
F1056.0
tp111
a(g23
F1056.0
F1207.0
tp112
a(g25
F1207.0
F1658.0
tp113
a(g27
F1658.0
F1659.0
tp114
atp115
a(L8L
g7
(lp116
(g31
I0
F0.0
tp117
atp118
a(L9L
g36
(lp119
(g38
I0
F13.0
tp120
a(g40
F13.0
F26.0
tp121
a(g42
F26.0
F382.0
tp122
a(g44
F1207.0
F1219.0
tp123
a(g46
F1219.0
F1247.0
tp124
atp125
a(L10L
g7
(lp126
(g50
I0
F0.0
tp127
atp128
a(L13L
g7
(lp129
(g54
I0
F0.0
tp130
a(g33
I0
F0.0
tp131
atp132
a(L19L
g7
(lp133
(g58
I0
F0.0
tp134
atp135
a(L20L
g7
(lp136
(g62
I0
F0.0
tp137
atp138
a(L22L
g36
(lp139
(g67
I0
F14.0
tp140
a(g71
F14.0
F394.0
tp141
a(g73
F1207.0
F1255.0
tp142
a(g75
F1255.0
F1519.0
tp143
atp144
a(L24L
g78
(lp145
(g80
F1659.0
F1659.0
tp146
atp147
a(L29L
g7
(lp148
(g84
I0
F0.0
tp149
a(g86
I0
F0.0
tp150
a(g88
I0
F0.0
tp151
a(g90
I0
F0.0
tp152
a(g92
I0
F0.0
tp153
atp154
atp155
a(F2712.0
F1.02
(lp156
(L2L
g7
(lp157
(g11
I0
F0.0
tp158
atp159
a(L3L
g7
(lp160
(g15
I0
F0.0
tp161
a(g17
I0
F0.0
tp162
atp163
a(L6L
g65
(lp164
(g21
I0
F1507.0
tp165
a(g23
F1507.0
F1809.0
tp166
a(g25
F1809.0
F2711.0
tp167
a(g27
F2711.0
F2712.0
tp168
atp169
a(L9L
g36
(lp170
(g38
I0
F13.0
tp171
a(g40
F13.0
F26.0
tp172
a(g42
F26.0
F382.0
tp173
a(g44
F1809.0
F1821.0
tp174
a(g46
F1821.0
F1849.0
tp175
atp176
a(L10L
g7
(lp177
(g50
I0
F0.0
tp178
atp179
a(L13L
g7
(lp180
(g54
I0
F0.0
tp181
atp182
a(L14L
g2
(lp183
(g31
I0
F0.0
tp184
atp185
a(L19L
g7
(lp186
(g58
I0
F0.0
tp187
atp188
a(L22L
g97
(lp189
(g9
I0
F1.0
tp190
a(g67
F1.0
F3.0
tp191
a(g69
F3.0
F1210.0
tp192
a(g71
F1210.0
F1268.0
tp193
a(g73
F1809.0
F1816.0
tp194
a(g75
F1821.0
F1862.0
tp195
atp196
a(L23L
Vapac-sin#m1.xlarge
p197
(lp198
(g4
F26.0
F26.0
tp199
atp200
a(L24L
g78
(lp201
(g80
F2712.0
F2712.0
tp202
atp203
a(L26L
g7
(lp204
(g62
I0
F0.0
tp205
a(g33
I0
F0.0
tp206
atp207
a(L29L
g7
(lp208
(g84
I0
F0.0
tp209
a(g86
I0
F0.0
tp210
a(g88
I0
F0.0
tp211
a(g90
I0
F0.0
tp212
a(g92
I0
F0.0
tp213
atp214
atp215
a(F3316.0
F0.79
(lp216
(L2L
g7
(lp217
(g9
I0
F0.0
tp218
a(g11
I0
F0.0
tp219
atp220
a(L3L
g7
(lp221
(g15
I0
F0.0
tp222
a(g17
I0
F0.0
tp223
atp224
a(L6L
g65
(lp225
(g21
I0
F1507.0
tp226
a(g69
F1507.0
F2111.0
tp227
a(g23
F2111.0
F2413.0
tp228
a(g25
F2413.0
F3315.0
tp229
a(g27
F3315.0
F3316.0
tp230
atp231
a(L8L
g7
(lp232
(g31
I0
F0.0
tp233
a(g33
I0
F0.0
tp234
atp235
a(L9L
g36
(lp236
(g38
I0
F13.0
tp237
a(g40
F13.0
F26.0
tp238
a(g42
F26.0
F382.0
tp239
a(g44
F2413.0
F2425.0
tp240
a(g46
F2425.0
F2453.0
tp241
atp242
a(L10L
g7
(lp243
(g50
I0
F0.0
tp244
atp245
a(L13L
g7
(lp246
(g54
I0
F0.0
tp247
atp248
a(L19L
g7
(lp249
(g58
I0
F0.0
tp250
atp251
a(L21L
g2
(lp252
(g4
F26.0
F26.0
tp253
atp254
a(L22L
g36
(lp255
(g62
I0
F7.0
tp256
a(g67
F7.0
F21.0
tp257
a(g71
F21.0
F401.0
tp258
a(g73
F2413.0
F2461.0
tp259
a(g75
F2461.0
F2725.0
tp260
atp261
a(L24L
g78
(lp262
(g80
F3316.0
F3316.0
tp263
atp264
a(L29L
g7
(lp265
(g84
I0
F0.0
tp266
a(g86
I0
F0.0
tp267
a(g88
I0
F0.0
tp268
a(g90
I0
F0.0
tp269
a(g92
I0
F0.0
tp270
atp271
atp272
a.