(lp1
(F14511
F21.440000000000001
(lp2
(I1
Vapac-sin#m3.xlarge
p3
(lp4
(Vautodock60
p5
F111.01539242788454
F1218.7077001201922
tp6
a(Vautodock8
p7
F1218.7077001201924
F2326.4000078125
tp8
a(Vautodock50
p9
F2326.4000078125
F3434.0923155048076
tp10
atp11
a(I8
Vapac-sin#m1.medium
p12
(lp13
(S'exit'
p14
F14511.01779627404
F14511.01779627404
tp15
atp16
a(I9
Vapac-sin#m3.large
p17
(lp18
(Vautodock79
p19
F111.01539242788476
F2326.4000078125
tp20
atp21
a(I11
g3
(lp22
(Vautodock89
p23
F111.01539242788454
F1218.7077001201922
tp24
a(Vautodock98
p25
F1218.7077001201924
F2326.4000078125
tp26
a(Vautodock55
p27
F2326.4000078125
F3434.0923155048076
tp28
atp29
a(I13
g17
(lp30
(Vautodock93
p31
F111.01539242788476
F2326.4000078125
tp32
a(Vautodock58
p33
F2326.4000078125
F4541.7846231971153
tp34
a(Vautodock49
p35
F4541.7846231971153
F6757.1692385817305
tp36
atp37
a(I15
g17
(lp38
(S'entry'
p39
F0
F0.15384615384615385
tp40
a(Vautodock1
p41
F111.01539242788476
F2326.4000078125
tp42
a(Vautodock83
p43
F2326.4000078125
F4541.7846231971153
tp44
a(Vautodock86
p45
F4541.7846231971153
F6757.1692385817305
tp46
atp47
a(I17
Vapac-sin#m3.medium
p48
(lp49
(Vautodock95
p50
F111.01539242788476
F4911.0153924278848
tp51
a(Vautodock44
p52
F4911.0153924278857
F9711.0153924278857
tp53
a(Vautodock30
p54
F9711.0153924278857
F14511.015392427886
tp55
atp56
a(I21
g3
(lp57
(Vautodock67
p58
F111.01539242788454
F1218.7077001201922
tp59
a(Vautodock10
p60
F1218.7077001201924
F2326.4000078125
tp61
a(Vautodock33
p62
F2326.4000078125
F3434.0923155048076
tp63
atp64
a(I30
g48
(lp65
(Vautodock81
p66
F111.01539242788476
F4911.0153924278848
tp67
a(Vautodock99
p68
F4911.0153924278857
F9711.0153924278857
tp69
a(Vautodock27
p70
F9711.0153924278857
F14511.015392427886
tp71
atp72
a(I34
g48
(lp73
(Vautodock2
p74
F111.01539242788476
F4911.0153924278848
tp75
a(Vautodock91
p76
F4911.0153924278857
F9711.0153924278857
tp77
a(Vautodock29
p78
F9711.0153924278857
F14511.015392427886
tp79
atp80
a(I39
g17
(lp81
(Vautodock70
p82
F111.01539242788476
F2326.4000078125
tp83
a(Vautodock78
p84
F2326.4000078125
F4541.7846231971153
tp85
a(Vautodock31
p86
F4541.7846231971153
F6757.1692385817305
tp87
atp88
a(I41
g3
(lp89
(Vautodock68
p90
F111.01539242788454
F1218.7077001201922
tp91
a(Vautodock84
p92
F1218.7077001201924
F2326.4000078125
tp93
a(Vautodock37
p94
F2326.4000078125
F3434.0923155048076
tp95
atp96
a(I42
g17
(lp97
(Vautodock61
p98
F111.01539242788476
F2326.4000078125
tp99
a(Vautodock38
p100
F2326.4000078125
F4541.7846231971153
tp101
a(Vautodock23
p102
F4541.7846231971153
F6757.1692385817305
tp103
atp104
a(I44
g17
(lp105
(Vautodock9
p106
F111.01539242788476
F2326.4000078125
tp107
atp108
a(I48
g48
(lp109
(Vautodock75
p110
F111.01539242788476
F4911.0153924278848
tp111
a(Vautodock13
p112
F4911.0153924278857
F9711.0153924278857
tp113
a(Vautodock92
p114
F9711.0153924278857
F14511.015392427886
tp115
atp116
a(I49
g48
(lp117
(Vautodock4
p118
F111.01539242788476
F4911.0153924278848
tp119
a(Vautodock82
p120
F4911.0153924278857
F9711.0153924278857
tp121
a(Vautodock94
p122
F9711.0153924278857
F14511.015392427886
tp123
atp124
a(I53
g3
(lp125
(Vautodock52
p126
F111.01539242788454
F1218.7077001201922
tp127
a(Vautodock45
p128
F1218.7077001201924
F2326.4000078125
tp129
a(Vautodock24
p130
F2326.4000078125
F3434.0923155048076
tp131
atp132
a(I55
g17
(lp133
(Vautodock12
p134
F111.01539242788476
F2326.4000078125
tp135
a(Vautodock21
p136
F2326.4000078125
F4541.7846231971153
tp137
a(Vautodock26
p138
F4541.7846231971153
F6757.1692385817305
tp139
atp140
a(I56
Vapac-sin#m3.2xlarge
p141
(lp142
(Vautodock7
p143
F110.98308473557688
F664.82923858173069
tp144
a(Vautodock6
p145
F664.82923858173081
F1218.6753924278846
tp146
a(Vautodock14
p147
F1218.6753924278846
F1772.5215462740384
tp148
a(Vautodock59
p149
F1772.5215462740384
F2326.3677001201922
tp150
a(Vautodock39
p151
F2326.3677001201922
F2880.2138539663461
tp152
a(Vautodock25
p153
F2880.2138539663461
F3434.0600078124999
tp154
atp155
a(I57
g141
(lp156
(Vprepare
p157
F0.1538461538461533
F37.076923076923073
tp158
a(Vautodock63
p159
F110.98308473557688
F664.82923858173069
tp160
a(Vautodock77
p161
F664.82923858173081
F1218.6753924278846
tp162
a(Vautodock80
p163
F1218.6753924278846
F1772.5215462740384
tp164
a(Vautodock17
p165
F1772.5215462740384
F2326.3677001201922
tp166
a(Vautodock54
p167
F2326.3677001201922
F2880.2138539663461
tp168
a(Vautodock32
p169
F2880.2138539663461
F3434.0600078124999
tp170
atp171
a(I58
g48
(lp172
(Vautodock87
p173
F111.01539242788476
F4911.0153924278848
tp174
a(Vautodock53
p175
F4911.0153924278857
F9711.0153924278857
tp176
a(Vautodock46
p177
F9711.0153924278857
F14511.015392427886
tp178
atp179
a(I63
g3
(lp180
(Vautodock62
p181
F111.01539242788454
F1218.7077001201922
tp182
a(Vautodock72
p183
F1218.7077001201924
F2326.4000078125
tp184
a(Vautodock97
p185
F2326.4000078125
F3434.0923155048076
tp186
atp187
a(I74
g17
(lp188
(Vautodock88
p189
F111.01539242788476
F2326.4000078125
tp190
atp191
a(I78
g48
(lp192
(Vautodock3
p193
F111.01539242788476
F4911.0153924278848
tp194
a(Vautodock15
p195
F4911.0153924278857
F9711.0153924278857
tp196
a(Vautodock100
p197
F9711.0153924278857
F14511.015392427886
tp198
atp199
a(I81
g141
(lp200
(Vautogrid
p201
F37.076930889423068
F110.92308473557691
tp202
a(Vautodock69
p203
F110.92308473557694
F664.76923858173075
tp204
a(Vautodock19
p205
F664.76923858173086
F1218.6153924278847
tp206
a(Vautodock43
p207
F1218.6153924278847
F1772.4615462740385
tp208
a(Vautodock35
p209
F1772.4615462740385
F2326.3077001201923
tp210
a(Vautodock36
p211
F2326.3077001201923
F2880.1538539663461
tp212
a(Vautodock22
p213
F2880.1538539663461
F3434.0000078124999
tp214
atp215
a(I82
g3
(lp216
(Vautodock65
p217
F111.01539242788454
F1218.7077001201922
tp218
a(Vautodock73
p219
F1218.7077001201924
F2326.4000078125
tp220
a(Vautodock28
p221
F2326.4000078125
F3434.0923155048076
tp222
atp223
a(I86
g17
(lp224
(Vautodock11
p225
F111.01539242788476
F2326.4000078125
tp226
a(Vautodock57
p227
F2326.4000078125
F4541.7846231971153
tp228
a(Vautodock40
p229
F4541.7846231971153
F6757.1692385817305
tp230
atp231
a(I87
g3
(lp232
(Vautodock18
p233
F111.01539242788454
F1218.7077001201922
tp234
a(Vautodock41
p235
F1218.7077001201924
F2326.4000078125
tp236
a(Vautodock34
p237
F2326.4000078125
F3434.0923155048076
tp238
atp239
a(I88
g17
(lp240
(Vautodock96
p241
F111.01539242788476
F2326.4000078125
tp242
a(Vautodock42
p243
F2326.4000078125
F4541.7846231971153
tp244
a(Vautodock47
p245
F4541.7846231971153
F6757.1692385817305
tp246
atp247
a(I89
g17
(lp248
(Vautodock76
p249
F111.01539242788476
F2326.4000078125
tp250
atp251
a(I93
g17
(lp252
(Vautodock5
p253
F111.01539242788476
F2326.4000078125
tp254
a(Vautodock16
p255
F2326.4000078125
F4541.7846231971153
tp256
a(Vautodock20
p257
F4541.7846231971153
F6757.1692385817305
tp258
atp259
a(I96
g48
(lp260
(Vautodock74
p261
F111.01539242788476
F4911.0153924278848
tp262
a(Vautodock51
p263
F4911.0153924278857
F9711.0153924278857
tp264
a(Vautodock56
p265
F9711.0153924278857
F14511.015392427886
tp266
atp267
a(I101
g17
(lp268
(Vautodock71
p269
F111.01539242788476
F2326.4000078125
tp270
a(Vautodock85
p271
F2326.4000078125
F4541.7846231971153
tp272
a(Vautodock48
p273
F4541.7846231971153
F6757.1692385817305
tp274
atp275
a(I102
g48
(lp276
(Vautodock64
p277
F111.01539242788476
F4911.0153924278848
tp278
a(Vautodock66
p279
F4911.0153924278857
F9711.0153924278857
tp280
a(Vautodock90
p281
F9711.0153924278857
F14511.015392427886
tp282
atp283
atp284
a.