(lp1
(F17806
F6.6100000000000003
(lp2
(I0
Vapac-sin#m3.2xlarge
p3
(lp4
(S'entry'
p5
F0
F0.038461538461538464
tp6
a(Vpre
p7
F0.038461538461538325
F9.2692307692307683
tp8
a(Vscan9
p9
F9.2692307692307168
F1670.8076923076922
tp10
a(Vscan5
p11
F1670.8076923076919
F3332.3461538461534
tp12
atp13
a(I8
Vapac-sin#m3.xlarge
p14
(lp15
(Vscan8
p16
F9.2704326923076223
F3332.3473557692305
tp17
a(Vscan4
p18
F3332.3473557692305
F6655.4242788461534
tp19
atp20
a(I12
Vapac-sin#m3.large
p21
(lp22
(Vscan2
p23
F9.2704326923076223
F6655.4242788461534
tp24
a(Vscan1
p25
F6655.4242788461543
F13301.578125
tp26
a(Vpost
p27
F13301.578125
F13375.424278846154
tp28
a(Vmotif
p29
F13375.424278846152
F17806.193509615383
tp30
a(S'exit'
p31
F17806.193509615383
F17806.193509615383
tp32
atp33
a(I5
g3
(lp34
(Vscan6
p35
F9.2700120192307622
F1670.8084735576922
tp36
a(Vscan10
p37
F1670.8084735576922
F3332.3469350961536
tp38
atp39
a(I9
g3
(lp40
(Vscan7
p41
F9.2700120192307622
F1670.8084735576922
tp42
a(Vscan3
p43
F1670.8084735576922
F3332.3469350961536
tp44
atp45
atp46
a(F12952
F6.7699999999999996
(lp47
(I0
g3
(lp48
(g5
F0
F0.038461538461538464
tp49
a(g7
F0.038461538461538325
F9.2692307692307683
tp50
a(g9
F9.2692307692307168
F1670.8076923076922
tp51
a(g11
F1670.8076923076919
F3332.3461538461534
tp52
atp53
a(I2
g14
(lp54
(g16
F9.2704326923076223
F3332.3473557692305
tp55
atp56
a(I3
Vapac-sin#m3.medium
p57
(lp58
(g29
F3351.6887499999993
F12951.688749999999
tp59
a(g31
F12951.688749999999
F12951.688749999999
tp60
atp61
a(I5
g3
(lp62
(g35
F9.2700120192307622
F1670.8084735576922
tp63
a(g37
F1670.8084735576922
F3332.3469350961536
tp64
atp65
a(I8
g14
(lp66
(g18
F9.2704326923076223
F3332.3473557692305
tp67
atp68
a(I9
g3
(lp69
(g41
F9.2700120192307622
F1670.8084735576922
tp70
a(g43
F1670.8084735576922
F3332.3469350961536
tp71
atp72
a(I12
g3
(lp73
(g23
F9.2700120192307622
F1670.8084735576922
tp74
a(g25
F1670.8084735576922
F3332.3469350961536
tp75
a(g27
F3332.3533653846152
F3350.8149038461538
tp76
atp77
atp78
a(F5567
F6.9299999999999997
(lp79
(I0
g14
(lp80
(g5
F0
F0.076923076923076927
tp81
a(g11
F9.4688942307693651
F3332.5458173076922
tp82
atp83
a(I2
g14
(lp84
(g16
F9.4688942307693651
F3332.5458173076922
tp85
atp86
a(I3
g14
(lp87
(g29
F3351.887211538462
F5567.2718269230772
tp88
a(g31
F5567.2718269230772
F5567.2718269230772
tp89
atp90
a(I5
g3
(lp91
(g7
F0.23692307692307679
F9.4676923076923067
tp92
a(g35
F9.4676923076922321
F1671.0061538461537
tp93
a(g37
F1671.0061538461537
F3332.5446153846151
tp94
atp95
a(I8
g14
(lp96
(g18
F9.4688942307693651
F3332.5458173076922
tp97
atp98
a(I9
g3
(lp99
(g41
F9.4684735576922776
F1671.0069350961537
tp100
a(g43
F1671.0069350961535
F3332.5453966346149
tp101
atp102
a(I12
g3
(lp103
(g23
F9.4684735576922776
F1671.0069350961537
tp104
a(g25
F1671.0069350961535
F3332.5453966346149
tp105
a(g27
F3332.551826923077
F3351.0133653846156
tp106
atp107
a(I14
g14
(lp108
(g9
F9.4688942307693651
F3332.5458173076922
tp109
atp110
atp111
a(F4459
F7.5599999999999996
(lp112
(I0
g3
(lp113
(g5
F0
F0.038461538461538464
tp114
a(g7
F0.038461538461538325
F9.2692307692307683
tp115
a(g9
F9.2692307692307168
F1670.8076923076922
tp116
a(g11
F1670.8076923076919
F3332.3461538461534
tp117
atp118
a(I2
g14
(lp119
(g16
F9.2704326923076223
F3332.3473557692305
tp120
atp121
a(I5
g3
(lp122
(g35
F9.2700120192307622
F1670.8084735576922
tp123
a(g37
F1670.8084735576922
F3332.3469350961536
tp124
atp125
a(I8
g14
(lp126
(g18
F9.2704326923076223
F3332.3473557692305
tp127
atp128
a(I9
g3
(lp129
(g41
F9.2700120192307622
F1670.8084735576922
tp130
a(g43
F1670.8084735576922
F3332.3469350961536
tp131
atp132
a(I12
g3
(lp133
(g23
F9.2700120192307622
F1670.8084735576922
tp134
a(g25
F1670.8084735576922
F3332.3469350961536
tp135
a(g27
F3332.3533653846152
F3350.8149038461538
tp136
a(g29
F3350.8149038461534
F4458.507211538461
tp137
a(g31
F4458.507211538461
F4458.507211538461
tp138
atp139
atp140
a.