(lp1
(F3317
F1.03
(lp2
(I2
Vapac-sin#m1.small
p3
(lp4
(VID00006
p5
F0.081269721006735907
F8.7532697210067365
tp6
a(VID00012
p7
F8.7532697210067365
F17.328469721006737
tp8
a(VID00017
p9
F17.328469721006734
F26.022869721006735
tp10
a(VID00014
p11
F26.022869721006735
F32.760469721006736
tp12
atp13
a(I5
g3
(lp14
(VID00005
p15
F0.081269721006735907
F6.4220697210067357
tp16
a(VID00002
p17
F6.4220697210067357
F19.156469721006737
tp18
a(VID00015
p19
F19.156469721006737
F26.945269721006738
tp20
a(VID00024
p21
F2413.2723692307691
F2461.1955692307693
tp22
atp23
a(I7
Vapac-sin#m1.large
p24
(lp25
(S'exit'
p26
F3317.0450129610499
F3317.0450129610499
tp27
atp28
a(I13
g3
(lp29
(VID00003
p30
F0.081269721006735907
F11.063669721006736
tp31
a(VID00019
p32
F11.063669721006761
F391.19806972100679
tp33
a(VID00026
p34
F2425.7328488806311
F2689.7328488806311
tp35
a(VID00027
p36
F2689.7328488806311
F2717.4272488806309
tp37
atp38
a(I14
Vapac-sin#m3.xlarge
p39
(lp40
(S'entry'
p41
F0
F0.076923076923076927
tp42
a(VID00021
p43
F0.076923076923094413
F1507.2029538461538
tp44
a(VID00000
p45
F1507.2029538461538
F1507.2652923076923
tp46
a(VID00018
p47
F1507.2652923076923
F2110.9746461538462
tp48
a(VID00022
p49
F2110.9746461538462
F2413.2723692307691
tp50
a(VID00025
p51
F2413.2723692307691
F3315.6911384615382
tp52
a(VID00028
p53
F3315.6911384615382
F3317.0321846153843
tp54
atp55
a(I15
g3
(lp56
(VID00004
p57
F0.081269721006735907
F6.5940697210067363
tp58
a(VID00007
p59
F6.594069721006738
F19.274869721006738
tp60
a(VID00020
p61
F19.274869721006723
F375.03246972100675
tp62
atp63
a(I17
g3
(lp64
(VID00001
p65
F0.081269721006735907
F12.837269721006736
tp66
a(VID00009
p67
F12.837269721006736
F25.263669721006735
tp68
a(VID00008
p69
F25.263669721006732
F34.021269721006732
tp70
a(VID00013
p71
F34.021269721006732
F47.63166972100673
tp72
a(VID00010
p73
F47.63166972100673
F57.342869721006728
tp74
a(VID00011
p75
F57.342869721006728
F65.298069721006726
tp76
a(VID00016
p77
F65.298069721006726
F73.675669721006727
tp78
a(VID00023
p79
F2413.2723692307691
F2425.7083692307692
tp80
atp81
atp82
a(F2713
F1.3400000000000001
(lp83
(I2
g3
(lp84
(g5
F0.081269721006735907
F8.7532697210067365
tp85
a(g7
F8.7532697210067365
F17.328469721006737
tp86
a(g75
F17.328469721006741
F25.283669721006738
tp87
a(g9
F25.283669721006738
F33.97806972100674
tp88
a(g11
F33.97806972100674
F40.715669721006741
tp89
atp90
a(I5
g3
(lp91
(g15
F0.081269721006735907
F6.4220697210067357
tp92
a(g17
F6.4220697210067357
F19.156469721006737
tp93
a(g19
F19.156469721006737
F26.945269721006738
tp94
a(g21
F1809.5630153846155
F1857.4862153846154
tp95
atp96
a(I7
g24
(lp97
(g26
F2713.3356591148963
F2713.3356591148963
tp98
atp99
a(I13
g3
(lp100
(g30
F0.081269721006735907
F11.063669721006736
tp101
a(g32
F11.063669721006761
F391.19806972100679
tp102
a(g34
F1822.023495034477
F2086.023495034477
tp103
a(g36
F2086.023495034477
F2113.7178950344769
tp104
atp105
a(I14
g39
(lp106
(g41
F0
F0.076923076923076927
tp107
a(g43
F0.076923076923094413
F1507.2029538461538
tp108
a(g45
F1507.2029538461538
F1507.2652923076923
tp109
a(g49
F1507.2652923076926
F1809.5630153846155
tp110
a(g51
F1809.5630153846155
F2711.9817846153846
tp111
a(g53
F2711.9817846153846
F2713.3228307692307
tp112
atp113
a(I15
g3
(lp114
(g57
F0.081269721006735907
F6.5940697210067363
tp115
a(g59
F6.594069721006738
F19.274869721006738
tp116
a(g61
F19.274869721006723
F375.03246972100675
tp117
atp118
a(I17
g3
(lp119
(g65
F0.081269721006735907
F12.837269721006736
tp120
a(g67
F12.837269721006736
F25.263669721006735
tp121
a(g69
F25.263669721006732
F34.021269721006732
tp122
a(g71
F34.021269721006732
F47.63166972100673
tp123
a(g73
F47.63166972100673
F57.342869721006728
tp124
a(g77
F57.342869721006721
F65.720469721006722
tp125
a(g79
F1809.5630153846155
F1821.9990153846154
tp126
atp127
a(I20
Vapac-sin#m3.large
p128
(lp129
(g47
F0.083871013934867733
F1207.5025787062425
tp130
atp131
atp132
a(F1658
F1.6599999999999999
(lp133
(I2
g3
(lp134
(g5
F0.042808182545197582
F8.7148081825451982
tp135
a(g7
F8.7148081825452
F17.290008182545201
tp136
a(g9
F17.290008182545201
F25.984408182545202
tp137
a(g11
F25.984408182545202
F32.722008182545203
tp138
atp139
a(I5
g3
(lp140
(g15
F0.042808182545197582
F6.3836081825451974
tp141
a(g17
F6.3836081825451956
F19.118008182545196
tp142
a(g19
F19.118008182545196
F26.906808182545198
tp143
a(g21
F1206.6050153846154
F1254.5282153846154
tp144
atp145
a(I7
g24
(lp146
(g26
F1658.4977514225886
F1658.4977514225886
tp147
atp148
a(I13
g3
(lp149
(g30
F0.042808182545197582
F11.025208182545198
tp150
a(g45
F73.639419028492455
F74.449819028492456
tp151
a(g32
F74.44981902849247
F454.5842190284925
tp152
a(g34
F1219.065495034477
F1483.065495034477
tp153
a(g36
F1483.065495034477
F1510.759895034477
tp154
atp155
a(I14
Vapac-sin#m3.2xlarge
p156
(lp157
(g41
F0
F0.038461538461538464
tp158
a(g43
F0.038461538461547207
F753.60147692307692
tp159
a(g47
F753.60147692307703
F1055.4561538461539
tp160
a(g49
F1055.4561538461539
F1206.6050153846154
tp161
a(g51
F1206.6050153846154
F1657.8144
tp162
a(g53
F1657.8144
F1658.484923076923
tp163
atp164
a(I15
g3
(lp165
(g57
F0.042808182545197582
F6.5556081825451979
tp166
a(g59
F6.5556081825451979
F19.236408182545198
tp167
a(g61
F19.236408182545176
F374.9940081825452
tp168
atp169
a(I17
g3
(lp170
(g65
F0.042808182545197582
F12.798808182545198
tp171
a(g67
F12.798808182545196
F25.225208182545195
tp172
a(g69
F25.225208182545199
F33.982808182545199
tp173
a(g71
F33.982808182545199
F47.593208182545197
tp174
a(g73
F47.593208182545197
F57.304408182545195
tp175
a(g75
F57.304408182545195
F65.259608182545193
tp176
a(g77
F65.259608182545193
F73.637208182545194
tp177
a(g79
F1206.6050153846154
F1219.0410153846153
tp178
atp179
atp180
a(F1357
F2.29
(lp181
(I2
g3
(lp182
(g5
F0.042808182545197582
F8.7148081825451982
tp183
a(g7
F8.7148081825452
F17.290008182545201
tp184
a(g75
F17.290008182545201
F25.245208182545198
tp185
a(g9
F25.245208182545198
F33.9396081825452
tp186
a(g11
F33.9396081825452
F40.677208182545201
tp187
atp188
a(I5
g3
(lp189
(g15
F0.042808182545197582
F6.3836081825451974
tp190
a(g17
F6.3836081825451956
F19.118008182545196
tp191
a(g19
F19.118008182545196
F26.906808182545198
tp192
a(g21
F904.78150769230774
F952.70470769230769
tp193
atp194
a(I7
g24
(lp195
(g26
F1356.674243730281
F1356.674243730281
tp196
atp197
a(I13
g3
(lp198
(g30
F0.042808182545197582
F11.025208182545198
tp199
a(g32
F11.025208182545214
F391.15960818254524
tp200
a(g34
F917.24198734216952
F1181.2419873421695
tp201
a(g36
F1181.2419873421695
F1208.9363873421696
tp202
atp203
a(I14
g156
(lp204
(g41
F0
F0.038461538461538464
tp205
a(g43
F0.038461538461547207
F753.60147692307692
tp206
a(g45
F753.60147692307692
F753.63264615384617
tp207
a(g49
F753.63264615384628
F904.78150769230774
tp208
a(g51
F904.78150769230774
F1355.9908923076923
tp209
a(g53
F1355.9908923076923
F1356.6614153846153
tp210
atp211
a(I15
g3
(lp212
(g57
F0.042808182545197582
F6.5556081825451979
tp213
a(g59
F6.5556081825451979
F19.236408182545198
tp214
a(g61
F19.236408182545176
F374.9940081825452
tp215
atp216
a(I17
g3
(lp217
(g65
F0.042808182545197582
F12.798808182545198
tp218
a(g67
F12.798808182545196
F25.225208182545195
tp219
a(g69
F25.225208182545199
F33.982808182545199
tp220
a(g71
F33.982808182545199
F47.593208182545197
tp221
a(g73
F47.593208182545197
F57.304408182545195
tp222
a(g77
F57.304408182545188
F65.682008182545189
tp223
a(g79
F904.78150769230774
F917.21750769230778
tp224
atp225
a(I19
g39
(lp226
(g47
F0.04540947547320684
F603.75476332162702
tp227
atp228
atp229
a.