(lp0
(F1718.0
F6.3
(lp1
(L8L
Vapac-sin#m3.2xlarge
p2
(lp3
(VID00004
p4
F33.0
F36.0
tp5
a(VID00002
p6
F36.0
F39.0
tp7
a(VID00007
p8
F39.0
F40.0
tp9
a(VID00016
p10
F40.0
F911.0
tp11
atp12
a(L9L
g2
(lp13
(VID00005
p14
F33.0
F37.0
tp15
a(VID00013
p16
F37.0
F38.0
tp17
a(VID00020
p18
F41.0
F1291.0
tp19
atp20
a(L2L
g2
(lp21
(S'entry'
p22
I0
F0.0
tp23
a(VID00000
p24
I0
F32.0
tp25
a(VID00001
p26
F32.0
F34.0
tp27
a(VID00006
p28
F34.0
F35.0
tp29
a(VID00009
p30
F36.0
F37.0
tp31
a(VID00012
p32
F40.0
F42.0
tp33
a(VID00017
p34
F42.0
F1026.0
tp35
a(VID00021
p36
F1291.0
F1296.0
tp37
a(VID00022
p38
F1296.0
F1296.0
tp39
a(VID00023
p40
F1296.0
F1719.0
tp41
a(S'exit'
p42
F1719.0
F1719.0
tp43
atp44
a(L11L
g2
(lp45
(VID00011
p46
F35.0
F36.0
tp47
a(VID00014
p48
F37.0
F38.0
tp49
a(VID00018
p50
F38.0
F784.0
tp51
atp52
a(L10L
g2
(lp53
(VID00003
p54
F33.0
F36.0
tp55
a(VID00008
p56
F36.0
F37.0
tp57
a(VID00010
p58
F37.0
F39.0
tp59
a(VID00015
p60
F39.0
F41.0
tp61
a(VID00019
p62
F41.0
F1156.0
tp63
atp64
atp65
a(F1958.0
F5.67
(lp66
(L8L
g2
(lp67
(g4
F33.0
F36.0
tp68
a(g6
F36.0
F39.0
tp69
a(g8
F39.0
F40.0
tp70
a(g32
F40.0
F42.0
tp71
a(g10
F42.0
F913.0
tp72
atp73
a(L9L
g2
(lp74
(g14
F33.0
F37.0
tp75
a(g60
F39.0
F41.0
tp76
a(g18
F41.0
F1291.0
tp77
atp78
a(L2L
g2
(lp79
(g22
I0
F0.0
tp80
a(g24
I0
F32.0
tp81
a(g26
F32.0
F34.0
tp82
a(g28
F34.0
F35.0
tp83
a(g30
F36.0
F37.0
tp84
a(g58
F37.0
F39.0
tp85
a(g34
F42.0
F1026.0
tp86
a(g36
F1530.0
F1535.0
tp87
a(g38
F1535.0
F1535.0
tp88
a(g40
F1535.0
F1958.0
tp89
a(g42
F1958.0
F1958.0
tp90
atp91
a(L10L
g2
(lp92
(g54
F33.0
F36.0
tp93
a(g56
F36.0
F37.0
tp94
a(g16
F37.0
F38.0
tp95
a(g46
F38.0
F39.0
tp96
a(g48
F39.0
F40.0
tp97
a(g62
F40.0
F1155.0
tp98
atp99
a(L1L
Vapac-sin#m3.xlarge
p100
(lp101
(g50
F38.0
F1530.0
tp102
atp103
atp104
a(F2082.0
F5.04
(lp105
(L8L
g2
(lp106
(g28
F34.0
F35.0
tp107
a(g46
F35.0
F36.0
tp108
a(g10
F36.0
F907.0
tp109
a(g50
F907.0
F1653.0
tp110
atp111
a(L9L
g2
(lp112
(g4
F33.0
F36.0
tp113
a(g14
F36.0
F40.0
tp114
a(g30
F40.0
F41.0
tp115
a(g58
F41.0
F43.0
tp116
a(g48
F43.0
F44.0
tp117
a(g60
F44.0
F46.0
tp118
a(g18
F46.0
F1296.0
tp119
atp120
a(L2L
g2
(lp121
(g22
I0
F0.0
tp122
a(g24
I0
F32.0
tp123
a(g26
F32.0
F34.0
tp124
a(g8
F39.0
F40.0
tp125
a(g34
F42.0
F1026.0
tp126
a(g36
F1653.0
F1658.0
tp127
a(g38
F1658.0
F1658.0
tp128
a(g40
F1658.0
F2081.0
tp129
atp130
a(L10L
g2
(lp131
(g54
F33.0
F36.0
tp132
a(g6
F36.0
F39.0
tp133
a(g56
F39.0
F40.0
tp134
a(g32
F40.0
F42.0
tp135
a(g16
F42.0
F43.0
tp136
a(g62
F44.0
F1159.0
tp137
atp138
a(L5L
Vapac-sin#m3.medium
p139
(lp140
(g42
F2081.0
F2081.0
tp141
atp142
atp143
a(F2207.0
F4.41
(lp144
(L9L
g2
(lp145
(g46
F35.0
F36.0
tp146
a(g60
F51.0
F53.0
tp147
a(g18
F53.0
F1303.0
tp148
atp149
a(L2L
g2
(lp150
(g22
I0
F0.0
tp151
a(g24
I0
F32.0
tp152
a(g26
F32.0
F34.0
tp153
a(g28
F34.0
F35.0
tp154
a(g4
F35.0
F38.0
tp155
a(g14
F38.0
F42.0
tp156
a(g6
F42.0
F45.0
tp157
a(g8
F45.0
F46.0
tp158
a(g34
F48.0
F1032.0
tp159
a(g50
F1032.0
F1778.0
tp160
a(g36
F1778.0
F1783.0
tp161
a(g38
F1783.0
F1783.0
tp162
a(g40
F1783.0
F2206.0
tp163
a(g42
F2206.0
F2206.0
tp164
atp165
a(L10L
g2
(lp166
(g54
F33.0
F36.0
tp167
a(g30
F38.0
F39.0
tp168
a(g56
F39.0
F40.0
tp169
a(g32
F46.0
F48.0
tp170
a(g16
F48.0
F49.0
tp171
a(g58
F49.0
F51.0
tp172
a(g48
F51.0
F52.0
tp173
a(g62
F52.0
F1167.0
tp174
atp175
a(L15L
g100
(lp176
(g10
F36.0
F1778.0
tp177
atp178
atp179
a(F2327.0
F3.78
(lp180
(L9L
g2
(lp181
(g4
F33.0
F36.0
tp182
a(g14
F36.0
F40.0
tp183
a(g30
F40.0
F41.0
tp184
a(g46
F41.0
F42.0
tp185
a(g48
F42.0
F43.0
tp186
a(g60
F43.0
F45.0
tp187
a(g18
F45.0
F1295.0
tp188
atp189
a(L2L
g2
(lp190
(g22
I0
F0.0
tp191
a(g24
I0
F32.0
tp192
a(g26
F32.0
F34.0
tp193
a(g28
F34.0
F35.0
tp194
a(g6
F35.0
F38.0
tp195
a(g8
F38.0
F39.0
tp196
a(g32
F39.0
F41.0
tp197
a(g58
F41.0
F43.0
tp198
a(g10
F43.0
F914.0
tp199
a(g34
F914.0
F1898.0
tp200
a(g36
F1899.0
F1904.0
tp201
a(g38
F1904.0
F1904.0
tp202
a(g40
F1904.0
F2327.0
tp203
a(g42
F2327.0
F2327.0
tp204
atp205
a(L10L
g2
(lp206
(g54
F33.0
F36.0
tp207
a(g56
F36.0
F37.0
tp208
a(g16
F37.0
F38.0
tp209
a(g50
F38.0
F784.0
tp210
a(g62
F784.0
F1899.0
tp211
atp212
atp213
a(F2564.0
F3.15
(lp214
(L8L
g100
(lp215
(g4
F33.0
F39.0
tp216
a(g30
F39.0
F41.0
tp217
a(g58
F41.0
F44.0
tp218
a(g46
F44.0
F47.0
tp219
a(g10
F47.0
F1789.0
tp220
atp221
a(L9L
g2
(lp222
(g26
F33.0
F35.0
tp223
a(g28
F35.0
F36.0
tp224
a(g14
F36.0
F40.0
tp225
a(g54
F40.0
F43.0
tp226
a(g56
F43.0
F44.0
tp227
a(g16
F44.0
F45.0
tp228
a(g48
F45.0
F46.0
tp229
a(g60
F46.0
F48.0
tp230
a(g18
F48.0
F1298.0
tp231
a(g50
F1298.0
F2044.0
tp232
atp233
a(L2L
g2
(lp234
(g22
I0
F0.0
tp235
a(g24
I0
F32.0
tp236
a(g6
F32.0
F35.0
tp237
a(g8
F35.0
F36.0
tp238
a(g32
F36.0
F38.0
tp239
a(g34
F38.0
F1022.0
tp240
a(g62
F1022.0
F2137.0
tp241
a(g36
F2137.0
F2142.0
tp242
a(g38
F2142.0
F2142.0
tp243
a(g40
F2142.0
F2565.0
tp244
a(g42
F2565.0
F2565.0
tp245
atp246
atp247
a(F3065.0
F2.52
(lp248
(L9L
g100
(lp249
(g4
F33.0
F39.0
tp250
a(g54
F39.0
F44.0
tp251
a(g30
F44.0
F46.0
tp252
a(g56
F46.0
F48.0
tp253
a(g60
F56.0
F59.0
tp254
a(g18
F59.0
F2559.0
tp255
atp256
a(L2L
g2
(lp257
(g22
I0
F0.0
tp258
a(g24
I0
F32.0
tp259
a(g26
F32.0
F34.0
tp260
a(g28
F34.0
F35.0
tp261
a(g46
F35.0
F36.0
tp262
a(g10
F36.0
F907.0
tp263
a(g34
F907.0
F1891.0
tp264
a(g50
F1891.0
F2637.0
tp265
a(g36
F2637.0
F2642.0
tp266
a(g38
F2642.0
F2642.0
tp267
a(g40
F2642.0
F3065.0
tp268
atp269
a(L10L
g100
(lp270
(g14
F33.0
F40.0
tp271
a(g6
F40.0
F45.0
tp272
a(g8
F45.0
F47.0
tp273
a(g32
F47.0
F51.0
tp274
a(g16
F51.0
F53.0
tp275
a(g58
F53.0
F56.0
tp276
a(g48
F56.0
F59.0
tp277
a(g62
F59.0
F2289.0
tp278
atp279
a(L6L
Vapac-sin#m1.xlarge
p280
(lp281
(g42
F3065.0
F3065.0
tp282
atp283
atp284
a(F3456.0
F2.28
(lp285
(L9L
g100
(lp286
(g4
F33.0
F39.0
tp287
a(g14
F39.0
F46.0
tp288
a(g6
F46.0
F51.0
tp289
a(g8
F51.0
F53.0
tp290
a(g46
F53.0
F56.0
tp291
a(g48
F65.0
F68.0
tp292
a(g60
F105.0
F108.0
tp293
a(g18
F108.0
F2608.0
tp294
atp295
a(L2L
g2
(lp296
(g22
I0
F0.0
tp297
a(g24
I0
F32.0
tp298
a(g26
F32.0
F34.0
tp299
a(g54
F34.0
F37.0
tp300
a(g56
F37.0
F38.0
tp301
a(g32
F54.0
F56.0
tp302
a(g10
F56.0
F927.0
tp303
a(g34
F927.0
F1911.0
tp304
a(g62
F1911.0
F3026.0
tp305
a(g36
F3028.0
F3033.0
tp306
a(g38
F3033.0
F3033.0
tp307
a(g40
F3033.0
F3456.0
tp308
atp309
a(L3L
Vapac-sin#m1.small
p310
(lp311
(g30
F40.0
F64.0
tp312
a(g58
F64.0
F104.0
tp313
atp314
a(L10L
Vapac-sin#m3.large
p315
(lp316
(g28
F35.0
F38.0
tp317
a(g16
F38.0
F43.0
tp318
a(g50
F43.0
F3028.0
tp319
a(g42
F3456.0
F3456.0
tp320
atp321
atp322
a(F3459.0
F2.2
(lp323
(L9L
g100
(lp324
(g4
F33.0
F39.0
tp325
a(g14
F39.0
F46.0
tp326
a(g6
F46.0
F51.0
tp327
a(g8
F51.0
F53.0
tp328
a(g30
F53.0
F55.0
tp329
a(g58
F55.0
F58.0
tp330
a(g46
F58.0
F61.0
tp331
a(g48
F61.0
F64.0
tp332
a(g60
F64.0
F67.0
tp333
a(g18
F67.0
F2567.0
tp334
atp335
a(L2L
g2
(lp336
(g22
I0
F0.0
tp337
a(g24
I0
F32.0
tp338
a(g26
F32.0
F34.0
tp339
a(g54
F34.0
F37.0
tp340
a(g56
F37.0
F38.0
tp341
a(g32
F54.0
F56.0
tp342
a(g10
F61.0
F932.0
tp343
a(g34
F932.0
F1916.0
tp344
a(g62
F1916.0
F3031.0
tp345
a(g36
F3031.0
F3036.0
tp346
a(g38
F3036.0
F3036.0
tp347
a(g40
F3036.0
F3459.0
tp348
atp349
a(L10L
g315
(lp350
(g28
F35.0
F38.0
tp351
a(g16
F38.0
F43.0
tp352
a(g50
F43.0
F3028.0
tp353
atp354
a(L6L
g2
(lp355
(g42
F3459.0
F3459.0
tp356
atp357
atp358
a.