(lp0
(F2379.0
F10.71
(lp1
(L2L
Vapac-sin#m3.2xlarge
p2
(lp3
(S'entry'
p4
I0
F0.0
tp5
a(VID00001
p6
I0
F9.0
tp7
a(VID00007
p8
F9.0
F12.0
tp9
a(VID00006
p10
F16.0
F17.0
tp11
a(VID00005
p12
F17.0
F19.0
tp13
a(VID00003
p14
F19.0
F22.0
tp15
a(VID00009
p16
F22.0
F25.0
tp17
a(VID00008
p18
F25.0
F28.0
tp19
a(VID00012
p20
F28.0
F28.0
tp21
a(VID00032
p22
F29.0
F1432.0
tp23
a(VID00042
p24
F1472.0
F1476.0
tp25
a(VID00044
p26
F1869.0
F1877.0
tp27
a(VID00045
p28
F1877.0
F1877.0
tp29
a(VID00046
p30
F1877.0
F2380.0
tp31
a(S'exit'
p32
F2380.0
F2380.0
tp33
atp34
a(L8L
g2
(lp35
(VID00004
p36
F16.0
F19.0
tp37
a(VID00013
p38
F22.0
F22.0
tp39
a(VID00023
p40
F22.0
F23.0
tp41
a(VID00021
p42
F23.0
F24.0
tp43
a(VID00017
p44
F24.0
F25.0
tp45
a(VID00025
p46
F25.0
F26.0
tp47
a(VID00028
p48
F29.0
F30.0
tp49
a(VID00033
p50
F30.0
F1411.0
tp51
atp52
a(L9L
g2
(lp53
(VID00000
p54
F2.0
F16.0
tp55
a(VID00022
p56
F28.0
F29.0
tp57
a(VID00026
p58
F29.0
F30.0
tp59
a(VID00036
p60
F30.0
F1344.0
tp61
atp62
a(L10L
g2
(lp63
(VID00010
p64
F10.0
F13.0
tp65
a(VID00020
p66
F13.0
F14.0
tp67
a(VID00034
p68
F21.0
F1169.0
tp69
atp70
a(L13L
Vapac-sin#m3.xlarge
p71
(lp72
(VID00016
p73
F17.0
F18.0
tp74
a(VID00027
p75
F25.0
F27.0
tp76
a(VID00037
p77
F27.0
F1689.0
tp78
atp79
a(L14L
g71
(lp80
(VID00029
p81
F26.0
F27.0
tp82
a(VID00039
p83
F27.0
F1456.0
tp84
atp85
a(L15L
g2
(lp86
(VID00011
p87
F9.0
F11.0
tp88
a(VID00030
p89
F14.0
F16.0
tp90
a(VID00040
p91
F16.0
F1864.0
tp92
a(VID00043
p93
F1864.0
F1869.0
tp94
atp95
a(L16L
g71
(lp96
(VID00015
p97
F19.0
F20.0
tp98
a(VID00019
p99
F25.0
F26.0
tp100
a(VID00041
p101
F31.0
F1844.0
tp102
atp103
a(L17L
g2
(lp104
(VID00002
p105
F16.0
F18.0
tp106
a(VID00018
p107
F28.0
F29.0
tp108
a(VID00031
p109
F29.0
F31.0
tp110
a(VID00038
p111
F31.0
F1194.0
tp112
atp113
a(L29L
g2
(lp114
(VID00014
p115
F19.0
F20.0
tp116
a(VID00024
p117
F20.0
F21.0
tp118
a(VID00035
p119
F26.0
F1472.0
tp120
atp121
atp122
a(F2390.0
F10.08
(lp123
(L2L
g2
(lp124
(g4
I0
F0.0
tp125
a(g6
I0
F9.0
tp126
a(g16
F9.0
F12.0
tp127
a(g22
F27.0
F1430.0
tp128
a(g24
F1877.0
F1881.0
tp129
a(g26
F1881.0
F1889.0
tp130
a(g28
F1889.0
F1889.0
tp131
a(g30
F1889.0
F2392.0
tp132
a(g32
F2392.0
F2392.0
tp133
atp134
a(L8L
g2
(lp135
(g40
F19.0
F20.0
tp136
a(g107
F22.0
F23.0
tp137
a(g48
F23.0
F24.0
tp138
a(g50
F24.0
F1405.0
tp139
atp140
a(L9L
g2
(lp141
(g54
F2.0
F16.0
tp142
a(g105
F16.0
F18.0
tp143
a(g64
F18.0
F21.0
tp144
a(g60
F29.0
F1343.0
tp145
atp146
a(L10L
g2
(lp147
(g99
F12.0
F13.0
tp148
a(g81
F13.0
F14.0
tp149
a(g83
F14.0
F729.0
tp150
a(g68
F729.0
F1877.0
tp151
atp152
a(L13L
g71
(lp153
(g36
F17.0
F23.0
tp154
a(g56
F25.0
F27.0
tp155
a(g73
F27.0
F28.0
tp156
a(g44
F28.0
F29.0
tp157
a(g75
F29.0
F31.0
tp158
a(g77
F31.0
F1693.0
tp159
atp160
a(L15L
g2
(lp161
(g66
F21.0
F22.0
tp162
a(g89
F22.0
F24.0
tp163
a(g91
F24.0
F1872.0
tp164
a(g93
F1872.0
F1877.0
tp165
atp166
a(L16L
g71
(lp167
(g10
F17.0
F20.0
tp168
a(g12
F20.0
F24.0
tp169
a(g20
F24.0
F25.0
tp170
a(g87
F25.0
F28.0
tp171
a(g42
F28.0
F29.0
tp172
a(g115
F29.0
F30.0
tp173
a(g117
F30.0
F32.0
tp174
a(g97
F32.0
F33.0
tp175
a(g101
F36.0
F1849.0
tp176
atp177
a(L17L
g2
(lp178
(g38
F19.0
F19.0
tp179
a(g58
F28.0
F29.0
tp180
a(g46
F33.0
F34.0
tp181
a(g109
F34.0
F36.0
tp182
a(g111
F36.0
F1199.0
tp183
atp184
a(L29L
g2
(lp185
(g8
F9.0
F12.0
tp186
a(g14
F16.0
F19.0
tp187
a(g18
F19.0
F22.0
tp188
a(g119
F34.0
F1480.0
tp189
atp190
atp191
a(F2508.0
F9.45
(lp192
(L2L
g2
(lp193
(g4
I0
F0.0
tp194
a(g6
I0
F9.0
tp195
a(g10
F16.0
F17.0
tp196
a(g36
F17.0
F20.0
tp197
a(g22
F28.0
F1431.0
tp198
a(g24
F1993.0
F1997.0
tp199
a(g26
F1997.0
F2005.0
tp200
a(g28
F2005.0
F2005.0
tp201
a(g30
F2005.0
F2508.0
tp202
a(g32
F2508.0
F2508.0
tp203
atp204
a(L8L
g2
(lp205
(g54
F2.0
F16.0
tp206
a(g105
F16.0
F18.0
tp207
a(g42
F18.0
F19.0
tp208
a(g115
F20.0
F21.0
tp209
a(g109
F21.0
F23.0
tp210
a(g50
F29.0
F1410.0
tp211
atp212
a(L9L
g2
(lp213
(g12
F16.0
F18.0
tp214
a(g14
F18.0
F21.0
tp215
a(g16
F21.0
F24.0
tp216
a(g18
F24.0
F27.0
tp217
a(g56
F27.0
F28.0
tp218
a(g38
F28.0
F28.0
tp219
a(g40
F28.0
F29.0
tp220
a(g73
F29.0
F29.0
tp221
a(g58
F29.0
F30.0
tp222
a(g60
F30.0
F1344.0
tp223
atp224
a(L10L
g2
(lp225
(g20
F18.0
F18.0
tp226
a(g64
F18.0
F21.0
tp227
a(g66
F21.0
F22.0
tp228
a(g117
F22.0
F23.0
tp229
a(g97
F23.0
F24.0
tp230
a(g107
F27.0
F28.0
tp231
a(g81
F28.0
F29.0
tp232
a(g83
F29.0
F744.0
tp233
a(g111
F744.0
F1907.0
tp234
atp235
a(L11L
g2
(lp236
(g8
F9.0
F12.0
tp237
a(g119
F26.0
F1472.0
tp238
atp239
a(L13L
g2
(lp240
(g44
F12.0
F13.0
tp241
a(g77
F14.0
F845.0
tp242
a(g68
F845.0
F1993.0
tp243
atp244
a(L15L
g2
(lp245
(g87
F9.0
F11.0
tp246
a(g75
F13.0
F14.0
tp247
a(g99
F24.0
F25.0
tp248
a(g48
F28.0
F29.0
tp249
a(g91
F29.0
F1877.0
tp250
a(g93
F1907.0
F1912.0
tp251
atp252
a(L16L
g71
(lp253
(g46
F24.0
F26.0
tp254
a(g89
F26.0
F29.0
tp255
a(g101
F29.0
F1842.0
tp256
atp257
atp258
a(F2582.0
F8.82
(lp259
(L2L
g2
(lp260
(g4
I0
F0.0
tp261
a(g6
I0
F9.0
tp262
a(g8
F9.0
F12.0
tp263
a(g10
F16.0
F17.0
tp264
a(g12
F17.0
F19.0
tp265
a(g22
F20.0
F1423.0
tp266
a(g24
F2069.0
F2073.0
tp267
a(g26
F2073.0
F2081.0
tp268
a(g28
F2081.0
F2081.0
tp269
a(g30
F2081.0
F2584.0
tp270
a(g32
F2584.0
F2584.0
tp271
atp272
a(L8L
g2
(lp273
(g18
F9.0
F12.0
tp274
a(g73
F17.0
F17.0
tp275
a(g58
F17.0
F18.0
tp276
a(g115
F19.0
F20.0
tp277
a(g97
F20.0
F21.0
tp278
a(g46
F21.0
F22.0
tp279
a(g107
F22.0
F23.0
tp280
a(g99
F23.0
F24.0
tp281
a(g89
F24.0
F26.0
tp282
a(g48
F26.0
F27.0
tp283
a(g50
F27.0
F1408.0
tp284
atp285
a(L9L
g2
(lp286
(g54
F2.0
F16.0
tp287
a(g36
F16.0
F19.0
tp288
a(g20
F19.0
F19.0
tp289
a(g56
F19.0
F20.0
tp290
a(g60
F20.0
F1334.0
tp291
a(g81
F1334.0
F1335.0
tp292
a(g83
F1335.0
F2050.0
tp293
atp294
a(L10L
g2
(lp295
(g16
F9.0
F12.0
tp296
a(g44
F12.0
F13.0
tp297
a(g101
F14.0
F921.0
tp298
a(g68
F921.0
F2069.0
tp299
atp300
a(L11L
g2
(lp301
(g105
F16.0
F18.0
tp302
a(g38
F19.0
F19.0
tp303
a(g75
F19.0
F20.0
tp304
a(g119
F22.0
F1468.0
tp305
atp306
a(L15L
g2
(lp307
(g87
F9.0
F11.0
tp308
a(g42
F11.0
F12.0
tp309
a(g109
F12.0
F14.0
tp310
a(g91
F26.0
F1874.0
tp311
a(g93
F2050.0
F2055.0
tp312
atp313
a(L17L
g2
(lp314
(g14
F16.0
F19.0
tp315
a(g40
F19.0
F20.0
tp316
a(g64
F20.0
F23.0
tp317
a(g66
F23.0
F24.0
tp318
a(g77
F24.0
F855.0
tp319
a(g117
F855.0
F856.0
tp320
a(g111
F856.0
F2019.0
tp321
atp322
atp323
a(F2829.0
F8.19
(lp324
(L2L
g2
(lp325
(g10
F14.0
F15.0
tp326
a(g18
F15.0
F18.0
tp327
a(g22
F19.0
F1422.0
tp328
a(g77
F1422.0
F2253.0
tp329
a(g24
F2315.0
F2319.0
tp330
a(g26
F2319.0
F2327.0
tp331
a(g28
F2327.0
F2327.0
tp332
a(g30
F2327.0
F2830.0
tp333
a(g32
F2830.0
F2830.0
tp334
atp335
a(L38L
g71
(lp336
(g68
F19.0
F2315.0
tp337
atp338
a(L8L
g2
(lp339
(g4
I0
F0.0
tp340
a(g54
I0
F14.0
tp341
a(g12
F14.0
F16.0
tp342
a(g105
F16.0
F18.0
tp343
a(g75
F18.0
F19.0
tp344
a(g107
F19.0
F20.0
tp345
a(g101
F23.0
F930.0
tp346
a(g50
F930.0
F2311.0
tp347
atp348
a(L9L
g2
(lp349
(g8
F11.0
F14.0
tp350
a(g14
F14.0
F17.0
tp351
a(g20
F18.0
F18.0
tp352
a(g56
F18.0
F19.0
tp353
a(g38
F19.0
F19.0
tp354
a(g40
F19.0
F20.0
tp355
a(g42
F20.0
F21.0
tp356
a(g73
F21.0
F21.0
tp357
a(g58
F21.0
F22.0
tp358
a(g60
F22.0
F1336.0
tp359
a(g81
F1336.0
F1337.0
tp360
a(g83
F1337.0
F2052.0
tp361
atp362
a(L10L
g2
(lp363
(g64
F12.0
F15.0
tp364
a(g66
F15.0
F16.0
tp365
a(g46
F18.0
F19.0
tp366
a(g99
F19.0
F20.0
tp367
a(g111
F24.0
F1187.0
tp368
atp369
a(L11L
g2
(lp370
(g36
F14.0
F17.0
tp371
a(g115
F17.0
F18.0
tp372
a(g117
F18.0
F19.0
tp373
a(g119
F19.0
F1465.0
tp374
atp375
a(L15L
g2
(lp376
(g6
F2.0
F11.0
tp377
a(g16
F11.0
F14.0
tp378
a(g87
F14.0
F16.0
tp379
a(g44
F16.0
F17.0
tp380
a(g97
F17.0
F18.0
tp381
a(g89
F18.0
F20.0
tp382
a(g109
F21.0
F23.0
tp383
a(g48
F23.0
F24.0
tp384
a(g91
F24.0
F1872.0
tp385
a(g93
F2253.0
F2258.0
tp386
atp387
atp388
a(F2839.0
F7.56
(lp389
(L2L
g2
(lp390
(g4
I0
F0.0
tp391
a(g6
I0
F9.0
tp392
a(g18
F9.0
F12.0
tp393
a(g56
F24.0
F25.0
tp394
a(g22
F25.0
F1428.0
tp395
a(g75
F1428.0
F1429.0
tp396
a(g77
F1429.0
F2260.0
tp397
a(g24
F2325.0
F2329.0
tp398
a(g26
F2329.0
F2337.0
tp399
a(g28
F2337.0
F2337.0
tp400
a(g30
F2337.0
F2840.0
tp401
a(g32
F2840.0
F2840.0
tp402
atp403
a(L8L
g2
(lp404
(g107
F12.0
F13.0
tp405
a(g99
F27.0
F28.0
tp406
a(g109
F28.0
F30.0
tp407
a(g101
F30.0
F937.0
tp408
a(g50
F937.0
F2318.0
tp409
atp410
a(L9L
g2
(lp411
(g36
F16.0
F19.0
tp412
a(g20
F24.0
F24.0
tp413
a(g38
F24.0
F24.0
tp414
a(g40
F24.0
F25.0
tp415
a(g87
F25.0
F27.0
tp416
a(g42
F27.0
F28.0
tp417
a(g73
F28.0
F28.0
tp418
a(g60
F29.0
F1343.0
tp419
a(g81
F1343.0
F1344.0
tp420
a(g83
F1344.0
F2059.0
tp421
atp422
a(L10L
g2
(lp423
(g64
F10.0
F13.0
tp424
a(g48
F13.0
F14.0
tp425
a(g111
F14.0
F1177.0
tp426
a(g68
F1177.0
F2325.0
tp427
atp428
a(L11L
g2
(lp429
(g8
F9.0
F12.0
tp430
a(g10
F16.0
F17.0
tp431
a(g12
F17.0
F19.0
tp432
a(g14
F19.0
F22.0
tp433
a(g105
F22.0
F24.0
tp434
a(g16
F24.0
F27.0
tp435
a(g66
F27.0
F28.0
tp436
a(g115
F28.0
F29.0
tp437
a(g117
F29.0
F30.0
tp438
a(g97
F30.0
F31.0
tp439
a(g46
F31.0
F32.0
tp440
a(g119
F32.0
F1478.0
tp441
atp442
a(L15L
g2
(lp443
(g54
F2.0
F16.0
tp444
a(g58
F28.0
F29.0
tp445
a(g44
F29.0
F30.0
tp446
a(g89
F30.0
F32.0
tp447
a(g91
F32.0
F1880.0
tp448
a(g93
F2260.0
F2265.0
tp449
atp450
atp451
a(F3072.0
F6.93
(lp452
(L2L
g2
(lp453
(g4
I0
F0.0
tp454
a(g6
I0
F9.0
tp455
a(g18
F9.0
F12.0
tp456
a(g22
F41.0
F1444.0
tp457
a(g77
F1444.0
F2275.0
tp458
a(g24
F2558.0
F2562.0
tp459
a(g26
F2562.0
F2570.0
tp460
a(g28
F2570.0
F2570.0
tp461
a(g30
F2570.0
F3073.0
tp462
a(g32
F3073.0
F3073.0
tp463
atp464
a(L8L
g2
(lp465
(g107
F12.0
F13.0
tp466
a(g48
F13.0
F14.0
tp467
a(g111
F14.0
F1177.0
tp468
a(g50
F1177.0
F2558.0
tp469
atp470
a(L9L
g2
(lp471
(g56
F40.0
F41.0
tp472
a(g38
F41.0
F41.0
tp473
a(g40
F41.0
F42.0
tp474
a(g42
F45.0
F46.0
tp475
a(g58
F46.0
F47.0
tp476
a(g60
F47.0
F1361.0
tp477
a(g81
F1361.0
F1362.0
tp478
a(g83
F1362.0
F2077.0
tp479
atp480
a(L10L
g71
(lp481
(g54
F3.0
F30.0
tp482
a(g12
F30.0
F34.0
tp483
a(g64
F34.0
F41.0
tp484
a(g66
F41.0
F42.0
tp485
a(g87
F42.0
F45.0
tp486
a(g73
F45.0
F46.0
tp487
a(g44
F46.0
F47.0
tp488
a(g46
F47.0
F49.0
tp489
a(g99
F49.0
F50.0
tp490
a(g68
F50.0
F2346.0
tp491
atp492
a(L11L
g2
(lp493
(g8
F9.0
F12.0
tp494
a(g10
F31.0
F32.0
tp495
a(g36
F32.0
F35.0
tp496
a(g14
F35.0
F38.0
tp497
a(g105
F38.0
F40.0
tp498
a(g20
F40.0
F40.0
tp499
a(g75
F47.0
F48.0
tp500
a(g115
F48.0
F49.0
tp501
a(g117
F49.0
F50.0
tp502
a(g119
F50.0
F1496.0
tp503
a(g101
F1496.0
F2403.0
tp504
atp505
a(L15L
g2
(lp506
(g16
F9.0
F12.0
tp507
a(g97
F34.0
F35.0
tp508
a(g89
F42.0
F44.0
tp509
a(g109
F46.0
F48.0
tp510
a(g91
F48.0
F1896.0
tp511
a(g93
F2403.0
F2408.0
tp512
atp513
atp514
a(F3296.0
F6.38
(lp515
(L2L
g2
(lp516
(g6
F2.0
F11.0
tp517
a(g10
F14.0
F15.0
tp518
a(g56
F18.0
F19.0
tp519
a(g22
F19.0
F1422.0
tp520
a(g60
F1422.0
F2736.0
tp521
a(g24
F2781.0
F2785.0
tp522
a(g26
F2785.0
F2793.0
tp523
a(g28
F2793.0
F2793.0
tp524
a(g30
F2793.0
F3296.0
tp525
a(g32
F3296.0
F3296.0
tp526
atp527
a(L8L
g71
(lp528
(g50
F19.0
F2781.0
tp529
atp530
a(L10L
g2
(lp531
(g14
F14.0
F17.0
tp532
a(g16
F17.0
F20.0
tp533
a(g66
F22.0
F23.0
tp534
a(g44
F23.0
F24.0
tp535
a(g99
F24.0
F25.0
tp536
a(g81
F25.0
F26.0
tp537
a(g111
F157.0
F1320.0
tp538
a(g68
F1320.0
F2468.0
tp539
atp540
a(L11L
g2
(lp541
(g8
F11.0
F14.0
tp542
a(g18
F14.0
F17.0
tp543
a(g20
F18.0
F18.0
tp544
a(g40
F18.0
F19.0
tp545
a(g64
F19.0
F22.0
tp546
a(g87
F22.0
F24.0
tp547
a(g75
F24.0
F25.0
tp548
a(g97
F25.0
F26.0
tp549
a(g119
F105.0
F1551.0
tp550
a(g101
F1551.0
F2458.0
tp551
atp552
a(L14L
g71
(lp553
(g105
F15.0
F18.0
tp554
a(g58
F101.0
F103.0
tp555
a(g46
F103.0
F105.0
tp556
a(g83
F105.0
F1534.0
tp557
atp558
a(L15L
g2
(lp559
(g4
I0
F0.0
tp560
a(g54
I0
F14.0
tp561
a(g12
F14.0
F16.0
tp562
a(g38
F17.0
F17.0
tp563
a(g42
F24.0
F25.0
tp564
a(g77
F25.0
F856.0
tp565
a(g117
F856.0
F857.0
tp566
a(g89
F857.0
F859.0
tp567
a(g109
F859.0
F861.0
tp568
a(g91
F861.0
F2709.0
tp569
a(g93
F2709.0
F2714.0
tp570
atp571
a(L16L
Vapac-sin#m1.small
p572
(lp573
(g36
F15.0
F88.0
tp574
a(g73
F88.0
F101.0
tp575
a(g115
F101.0
F116.0
tp576
a(g107
F116.0
F137.0
tp577
a(g48
F137.0
F157.0
tp578
atp579
atp580
a(F3392.0
F6.22
(lp581
(L2L
g2
(lp582
(g6
F2.0
F11.0
tp583
a(g105
F14.0
F16.0
tp584
a(g56
F16.0
F17.0
tp585
a(g22
F17.0
F1420.0
tp586
a(g58
F1420.0
F1421.0
tp587
a(g60
F1421.0
F2735.0
tp588
a(g24
F2872.0
F2876.0
tp589
a(g26
F2881.0
F2889.0
tp590
a(g28
F2889.0
F2889.0
tp591
a(g30
F2889.0
F3392.0
tp592
a(g32
F3392.0
F3392.0
tp593
atp594
a(L7L
g572
(lp595
(g14
F16.0
F105.0
tp596
atp597
a(L8L
g71
(lp598
(g40
F106.0
F108.0
tp599
a(g66
F108.0
F109.0
tp600
a(g44
F109.0
F110.0
tp601
a(g50
F110.0
F2872.0
tp602
atp603
a(L10L
g2
(lp604
(g16
F11.0
F14.0
tp605
a(g20
F16.0
F16.0
tp606
a(g99
F16.0
F17.0
tp607
a(g81
F17.0
F18.0
tp608
a(g111
F158.0
F1321.0
tp609
a(g68
F1321.0
F2469.0
tp610
atp611
a(L11L
g2
(lp612
(g8
F11.0
F14.0
tp613
a(g10
F14.0
F15.0
tp614
a(g18
F15.0
F18.0
tp615
a(g64
F18.0
F21.0
tp616
a(g87
F21.0
F23.0
tp617
a(g75
F110.0
F111.0
tp618
a(g119
F143.0
F1589.0
tp619
a(g101
F1589.0
F2496.0
tp620
atp621
a(L44L
g572
(lp622
(g46
F118.0
F143.0
tp623
atp624
a(L14L
Vapac-sin#m3.large
p625
(lp626
(g73
F15.0
F17.0
tp627
a(g83
F18.0
F2876.0
tp628
atp629
a(L15L
g2
(lp630
(g4
I0
F0.0
tp631
a(g54
I0
F14.0
tp632
a(g12
F14.0
F16.0
tp633
a(g38
F106.0
F106.0
tp634
a(g42
F106.0
F107.0
tp635
a(g77
F111.0
F942.0
tp636
a(g117
F942.0
F943.0
tp637
a(g89
F943.0
F945.0
tp638
a(g109
F945.0
F947.0
tp639
a(g91
F947.0
F2795.0
tp640
a(g93
F2876.0
F2881.0
tp641
atp642
a(L16L
g572
(lp643
(g36
F15.0
F88.0
tp644
a(g115
F88.0
F103.0
tp645
a(g97
F103.0
F117.0
tp646
a(g107
F117.0
F138.0
tp647
a(g48
F138.0
F158.0
tp648
atp649
atp650
a(F3395.0
F6.14
(lp651
(L2L
g2
(lp652
(g6
F2.0
F11.0
tp653
a(g10
F14.0
F15.0
tp654
a(g56
F17.0
F18.0
tp655
a(g22
F18.0
F1421.0
tp656
a(g60
F1421.0
F2735.0
tp657
a(g24
F2787.0
F2791.0
tp658
a(g26
F2885.0
F2893.0
tp659
a(g28
F2893.0
F2893.0
tp660
a(g30
F2893.0
F3396.0
tp661
a(g32
F3396.0
F3396.0
tp662
atp663
a(L8L
g71
(lp664
(g14
F15.0
F22.0
tp665
a(g40
F22.0
F24.0
tp666
a(g44
F24.0
F25.0
tp667
a(g50
F25.0
F2787.0
tp668
atp669
a(L10L
g2
(lp670
(g8
F11.0
F14.0
tp671
a(g16
F14.0
F17.0
tp672
a(g20
F17.0
F17.0
tp673
a(g66
F19.0
F20.0
tp674
a(g99
F20.0
F21.0
tp675
a(g81
F21.0
F22.0
tp676
a(g111
F203.0
F1366.0
tp677
a(g68
F1366.0
F2514.0
tp678
atp679
a(L11L
g2
(lp680
(g105
F14.0
F16.0
tp681
a(g64
F16.0
F19.0
tp682
a(g75
F25.0
F26.0
tp683
a(g119
F188.0
F1634.0
tp684
a(g101
F1634.0
F2541.0
tp685
atp686
a(L44L
g572
(lp687
(g18
F13.0
F82.0
tp688
a(g46
F163.0
F188.0
tp689
atp690
a(L14L
g625
(lp691
(g73
F15.0
F17.0
tp692
a(g58
F17.0
F21.0
tp693
a(g83
F22.0
F2880.0
tp694
atp695
a(L15L
g2
(lp696
(g4
I0
F0.0
tp697
a(g54
I0
F14.0
tp698
a(g12
F14.0
F16.0
tp699
a(g38
F22.0
F22.0
tp700
a(g42
F134.0
F135.0
tp701
a(g77
F135.0
F966.0
tp702
a(g117
F966.0
F967.0
tp703
a(g89
F967.0
F969.0
tp704
a(g109
F969.0
F971.0
tp705
a(g91
F971.0
F2819.0
tp706
a(g93
F2880.0
F2885.0
tp707
atp708
a(L16L
g572
(lp709
(g36
F15.0
F88.0
tp710
a(g87
F88.0
F133.0
tp711
a(g115
F133.0
F148.0
tp712
a(g97
F148.0
F162.0
tp713
a(g107
F162.0
F183.0
tp714
a(g48
F183.0
F203.0
tp715
atp716
atp717
a(F3401.0
F6.06
(lp718
(L2L
g2
(lp719
(g6
F2.0
F11.0
tp720
a(g10
F14.0
F15.0
tp721
a(g56
F20.0
F21.0
tp722
a(g22
F21.0
F1424.0
tp723
a(g60
F1424.0
F2738.0
tp724
a(g24
F2782.0
F2786.0
tp725
a(g26
F2891.0
F2899.0
tp726
a(g28
F2899.0
F2899.0
tp727
a(g30
F2899.0
F3402.0
tp728
a(g32
F3402.0
F3402.0
tp729
atp730
a(L8L
g71
(lp731
(g40
F17.0
F19.0
tp732
a(g44
F19.0
F20.0
tp733
a(g50
F20.0
F2782.0
tp734
atp735
a(L10L
g2
(lp736
(g8
F11.0
F14.0
tp737
a(g14
F14.0
F17.0
tp738
a(g16
F17.0
F20.0
tp739
a(g20
F20.0
F20.0
tp740
a(g66
F22.0
F23.0
tp741
a(g97
F23.0
F24.0
tp742
a(g99
F24.0
F25.0
tp743
a(g81
F25.0
F26.0
tp744
a(g111
F144.0
F1307.0
tp745
a(g68
F1307.0
F2455.0
tp746
atp747
a(L11L
g2
(lp748
(g105
F14.0
F16.0
tp749
a(g18
F16.0
F19.0
tp750
a(g64
F19.0
F22.0
tp751
a(g87
F22.0
F24.0
tp752
a(g75
F24.0
F25.0
tp753
a(g119
F28.0
F1474.0
tp754
a(g101
F1474.0
F2381.0
tp755
atp756
a(L14L
g625
(lp757
(g73
F15.0
F17.0
tp758
a(g58
F17.0
F21.0
tp759
a(g46
F24.0
F28.0
tp760
a(g83
F28.0
F2886.0
tp761
atp762
a(L15L
g2
(lp763
(g4
I0
F0.0
tp764
a(g54
I0
F14.0
tp765
a(g12
F14.0
F16.0
tp766
a(g38
F17.0
F17.0
tp767
a(g42
F24.0
F25.0
tp768
a(g77
F25.0
F856.0
tp769
a(g117
F856.0
F857.0
tp770
a(g89
F857.0
F859.0
tp771
a(g109
F859.0
F861.0
tp772
a(g91
F861.0
F2709.0
tp773
a(g93
F2886.0
F2891.0
tp774
atp775
a(L16L
g572
(lp776
(g36
F15.0
F88.0
tp777
a(g115
F88.0
F103.0
tp778
a(g107
F103.0
F124.0
tp779
a(g48
F124.0
F144.0
tp780
atp781
atp782
a(F3435.0
F5.98
(lp783
(L2L
g2
(lp784
(g6
F2.0
F11.0
tp785
a(g56
F20.0
F21.0
tp786
a(g22
F21.0
F1424.0
tp787
a(g60
F1424.0
F2738.0
tp788
a(g24
F2921.0
F2925.0
tp789
a(g26
F2925.0
F2933.0
tp790
a(g28
F2933.0
F2933.0
tp791
a(g30
F2933.0
F3436.0
tp792
a(g32
F3436.0
F3436.0
tp793
atp794
a(L8L
g71
(lp795
(g8
F12.0
F19.0
tp796
a(g107
F19.0
F21.0
tp797
a(g48
F21.0
F23.0
tp798
a(g50
F23.0
F2785.0
tp799
atp800
a(L10L
g2
(lp801
(g14
F14.0
F17.0
tp802
a(g16
F17.0
F20.0
tp803
a(g20
F20.0
F20.0
tp804
a(g44
F20.0
F21.0
tp805
a(g81
F25.0
F26.0
tp806
a(g111
F26.0
F1189.0
tp807
a(g68
F1189.0
F2337.0
tp808
atp809
a(L11L
g71
(lp810
(g105
F15.0
F18.0
tp811
a(g40
F19.0
F21.0
tp812
a(g66
F22.0
F23.0
tp813
a(g75
F23.0
F25.0
tp814
a(g119
F28.0
F2921.0
tp815
atp816
a(L14L
g625
(lp817
(g10
F15.0
F20.0
tp818
a(g46
F24.0
F28.0
tp819
a(g83
F28.0
F2886.0
tp820
atp821
a(L15L
g2
(lp822
(g4
I0
F0.0
tp823
a(g54
I0
F14.0
tp824
a(g12
F14.0
F16.0
tp825
a(g18
F16.0
F19.0
tp826
a(g38
F19.0
F19.0
tp827
a(g64
F19.0
F22.0
tp828
a(g87
F22.0
F24.0
tp829
a(g42
F24.0
F25.0
tp830
a(g58
F25.0
F26.0
tp831
a(g77
F26.0
F857.0
tp832
a(g117
F857.0
F858.0
tp833
a(g89
F858.0
F860.0
tp834
a(g109
F860.0
F862.0
tp835
a(g91
F862.0
F2710.0
tp836
a(g93
F2886.0
F2891.0
tp837
atp838
a(L16L
g71
(lp839
(g36
F15.0
F21.0
tp840
a(g73
F21.0
F22.0
tp841
a(g115
F22.0
F23.0
tp842
a(g97
F23.0
F24.0
tp843
a(g99
F24.0
F25.0
tp844
a(g101
F862.0
F2675.0
tp845
atp846
atp847
a.