(lp0
(F592.0
F29.15
(lp1
(L0L
Vapac-sin#m3.xlarge
p2
(lp3
(VID00074
p4
F223.0
F584.0
tp5
atp6
a(L1L
Vapac-sin#m1.medium
p7
(lp8
(VID00069
p9
F193.0
F215.0
tp10
atp11
a(L8L
Vapac-sin#m3.large
p12
(lp13
(VID00009
p14
I0
F22.0
tp15
a(VID00063
p16
F335.0
F342.0
tp17
atp18
a(L9L
Vapac-sin#m3.2xlarge
p19
(lp20
(VID00044
p21
F12.0
F141.0
tp22
a(VID00034
p23
F170.0
F276.0
tp24
a(VID00085
p25
F369.0
F562.0
tp26
atp27
a(L16L
g19
(lp28
(VID00037
p29
F153.0
F315.0
tp30
atp31
a(L19L
g2
(lp32
(VID00001
p33
I0
F11.0
tp34
a(VID00081
p35
F223.0
F550.0
tp36
atp37
a(L23L
g19
(lp38
(VID00043
p39
F6.0
F174.0
tp40
a(VID00058
p41
F221.0
F222.0
tp42
atp43
a(L26L
g19
(lp44
(VID00020
p45
I0
F6.0
tp46
a(VID00027
p47
F6.0
F112.0
tp48
a(VID00039
p49
F112.0
F318.0
tp50
a(VID00094
p51
F318.0
F454.0
tp52
atp53
a(L27L
g19
(lp54
(VID00035
p55
F23.0
F127.0
tp56
a(VID00046
p57
F219.0
F221.0
tp58
a(VID00080
p59
F243.0
F329.0
tp60
a(VID00090
p61
F385.0
F542.0
tp62
atp63
a(L37L
g19
(lp64
(VID00007
p65
I0
F6.0
tp66
a(VID00026
p67
F6.0
F143.0
tp68
a(VID00031
p69
F143.0
F219.0
tp70
a(VID00053
p71
F221.0
F222.0
tp72
a(VID00076
p73
F235.0
F382.0
tp74
a(VID00065
p75
F382.0
F384.0
tp76
a(VID00066
p77
F384.0
F385.0
tp78
a(VID00086
p79
F385.0
F574.0
tp80
atp81
a(L40L
g19
(lp82
(VID00077
p83
F222.0
F353.0
tp84
a(VID00097
p85
F584.0
F586.0
tp86
atp87
a(L42L
g2
(lp88
(VID00010
p89
I0
F12.0
tp90
a(VID00033
p91
F12.0
F195.0
tp92
a(VID00083
p93
F263.0
F522.0
tp94
atp95
a(L43L
Vapac-sin#m1.large
p96
(lp97
(S'entry'
p98
I0
F0.0
tp99
a(VID00055
p100
F221.0
F231.0
tp101
atp102
a(L44L
g19
(lp103
(VID00004
p104
I0
F6.0
tp105
a(VID00042
p106
F11.0
F181.0
tp107
atp108
a(L47L
g19
(lp109
(VID00082
p110
F222.0
F336.0
tp111
a(VID00091
p112
F341.0
F436.0
tp113
a(VID00096
p114
F436.0
F590.0
tp115
a(VID00099
p116
F590.0
F592.0
tp117
atp118
a(L48L
g2
(lp119
(VID00005
p120
I0
F11.0
tp121
a(VID00000
p122
F11.0
F22.0
tp123
a(VID00002
p124
F22.0
F33.0
tp125
atp126
a(L51L
g19
(lp127
(VID00003
p128
I0
F6.0
tp129
a(VID00032
p130
F22.0
F153.0
tp131
a(VID00036
p132
F153.0
F321.0
tp133
a(VID00047
p134
F333.0
F335.0
tp135
a(VID00088
p136
F336.0
F436.0
tp137
a(VID00098
p138
F590.0
F592.0
tp139
atp140
a(L53L
g2
(lp141
(VID00021
p142
I0
F12.0
tp143
a(VID00012
p144
F12.0
F23.0
tp145
a(VID00040
p146
F48.0
F259.0
tp147
a(VID00092
p148
F380.0
F590.0
tp149
atp150
a(L57L
g19
(lp151
(VID00023
p152
F22.0
F167.0
tp153
a(VID00050
p154
F221.0
F223.0
tp155
a(VID00078
p156
F258.0
F412.0
tp157
a(VID00089
p158
F412.0
F546.0
tp159
atp160
a(L58L
g7
(lp161
(VID00056
p162
F221.0
F243.0
tp163
a(VID00072
p164
F243.0
F264.0
tp165
a(VID00070
p166
F264.0
F285.0
tp167
atp168
a(L60L
Vapac-sin#m1.small
p169
(lp170
(VID00059
p171
F221.0
F263.0
tp172
a(VID00068
p173
F335.0
F380.0
tp174
atp175
a(L63L
g19
(lp176
(VID00016
p177
I0
F6.0
tp178
a(VID00041
p179
F96.0
F235.0
tp180
a(VID00084
p181
F347.0
F501.0
tp182
atp183
a(L65L
g12
(lp184
(VID00067
p185
F335.0
F341.0
tp186
a(VID00060
p187
F341.0
F347.0
tp188
a(VID00062
p189
F347.0
F352.0
tp190
atp191
a(L66L
Vapac-sin#m3.medium
p192
(lp193
(VID00008
p194
I0
F48.0
tp195
a(VID00018
p196
F48.0
F96.0
tp197
a(VID00048
p198
F181.0
F193.0
tp199
atp200
a(L68L
g169
(lp201
(VID00054
p202
F221.0
F258.0
tp203
a(VID00061
p204
F335.0
F369.0
tp205
atp206
a(L72L
g19
(lp207
(VID00025
p208
F33.0
F207.0
tp209
a(VID00073
p210
F227.0
F366.0
tp211
atp212
a(L74L
g19
(lp213
(VID00028
p214
F11.0
F84.0
tp215
a(VID00064
p216
F335.0
F336.0
tp217
atp218
a(L81L
g192
(lp219
(VID00017
p220
I0
F48.0
tp221
atp222
a(L82L
g19
(lp223
(VID00075
p224
F224.0
F414.0
tp225
atp226
a(L88L
g169
(lp227
(VID00014
p228
I0
F153.0
tp229
atp230
a(L91L
g192
(lp231
(VID00052
p232
F221.0
F235.0
tp233
atp234
a(L92L
g2
(lp235
(VID00029
p236
F11.0
F155.0
tp237
a(VID00051
p238
F221.0
F224.0
tp239
a(VID00049
p240
F224.0
F227.0
tp241
a(S'exit'
p242
F592.0
F592.0
tp243
atp244
a(L93L
g2
(lp245
(VID00079
p246
F231.0
F414.0
tp247
atp248
a(L95L
g169
(lp249
(VID00013
p250
I0
F144.0
tp251
atp252
a(L96L
g19
(lp253
(VID00030
p254
F6.0
F155.0
tp255
a(VID00057
p256
F221.0
F223.0
tp257
a(VID00038
p258
F223.0
F333.0
tp259
a(VID00087
p260
F342.0
F481.0
tp261
a(VID00071
p262
F481.0
F483.0
tp263
a(VID00095
p264
F483.0
F562.0
tp265
atp266
a(L98L
g2
(lp267
(VID00006
p268
I0
F11.0
tp269
a(VID00024
p270
F11.0
F209.0
tp271
atp272
a(L99L
g19
(lp273
(VID00022
p274
I0
F6.0
tp275
a(VID00045
p276
F6.0
F165.0
tp277
a(VID00011
p278
F165.0
F170.0
tp279
a(VID00015
p280
F170.0
F176.0
tp281
atp282
a(L100L
g2
(lp283
(VID00019
p284
I0
F11.0
tp285
a(VID00093
p286
F215.0
F524.0
tp287
atp288
atp289
a(F921.0
F26.96
(lp290
(L0L
g2
(lp291
(g4
F309.0
F670.0
tp292
atp293
a(L1L
g7
(lp294
(g9
F421.0
F443.0
tp295
atp296
a(L2L
g19
(lp297
(g236
F11.0
F83.0
tp298
atp299
a(L8L
g96
(lp300
(g14
I0
F36.0
tp301
a(g250
F36.0
F72.0
tp302
a(g16
F428.0
F439.0
tp303
atp304
a(L9L
g19
(lp305
(g21
F12.0
F141.0
tp306
a(g23
F170.0
F276.0
tp307
a(g25
F462.0
F655.0
tp308
atp309
a(L16L
g19
(lp310
(g29
F153.0
F315.0
tp311
atp312
a(L19L
g2
(lp313
(g33
I0
F11.0
tp314
a(g35
F307.0
F634.0
tp315
atp316
a(L26L
g2
(lp317
(g49
F6.0
F419.0
tp318
a(g51
F463.0
F735.0
tp319
atp320
a(L27L
g2
(lp321
(g57
F302.0
F305.0
tp322
a(g171
F305.0
F308.0
tp323
a(g59
F327.0
F500.0
tp324
a(g61
F500.0
F814.0
tp325
atp326
a(L36L
g2
(lp327
(g39
F73.0
F409.0
tp328
atp329
a(L37L
g19
(lp330
(g65
I0
F6.0
tp331
a(g122
F6.0
F11.0
tp332
a(g67
F11.0
F148.0
tp333
a(g69
F148.0
F224.0
tp334
a(g71
F305.0
F306.0
tp335
a(g73
F319.0
F466.0
tp336
a(g75
F466.0
F468.0
tp337
a(g77
F468.0
F469.0
tp338
a(g79
F486.0
F675.0
tp339
atp340
a(L40L
g2
(lp341
(g214
F72.0
F218.0
tp342
a(g55
F218.0
F426.0
tp343
a(g83
F426.0
F687.0
tp344
a(g85
F687.0
F690.0
tp345
atp346
a(L42L
g2
(lp347
(g91
F23.0
F206.0
tp348
a(g93
F308.0
F567.0
tp349
atp350
a(L43L
g96
(lp351
(g98
I0
F0.0
tp352
a(g124
I0
F37.0
tp353
a(g100
F305.0
F315.0
tp354
atp355
a(L44L
g19
(lp356
(g106
F229.0
F399.0
tp357
atp358
a(L47L
g19
(lp359
(g110
F339.0
F453.0
tp360
a(g112
F453.0
F548.0
tp361
a(g114
F548.0
F702.0
tp362
a(g116
F752.0
F754.0
tp363
atp364
a(L48L
g7
(lp365
(g120
I0
F72.0
tp366
atp367
a(L51L
g19
(lp368
(g128
I0
F6.0
tp369
a(g130
F36.0
F167.0
tp370
a(g132
F167.0
F335.0
tp371
a(g134
F426.0
F428.0
tp372
a(g136
F429.0
F529.0
tp373
a(g138
F919.0
F921.0
tp374
atp375
a(L53L
g2
(lp376
(g142
I0
F12.0
tp377
a(g144
F12.0
F23.0
tp378
a(g146
F48.0
F259.0
tp379
a(g148
F473.0
F683.0
tp380
atp381
a(L57L
g2
(lp382
(g152
F11.0
F302.0
tp383
a(g154
F305.0
F309.0
tp384
a(g156
F342.0
F650.0
tp385
a(g158
F650.0
F919.0
tp386
atp387
a(L58L
g7
(lp388
(g162
F305.0
F327.0
tp389
a(g164
F421.0
F442.0
tp390
a(g166
F442.0
F463.0
tp391
atp392
a(L60L
g169
(lp393
(g173
F428.0
F473.0
tp394
atp395
a(L63L
g19
(lp396
(g177
I0
F6.0
tp397
a(g179
F96.0
F235.0
tp398
a(g181
F469.0
F623.0
tp399
atp400
a(L65L
g7
(lp401
(g45
I0
F73.0
tp402
a(g185
F428.0
F449.0
tp403
a(g187
F449.0
F469.0
tp404
a(g189
F469.0
F486.0
tp405
atp406
a(L66L
g192
(lp407
(g194
I0
F48.0
tp408
a(g196
F48.0
F96.0
tp409
a(g198
F409.0
F421.0
tp410
atp411
a(L67L
g12
(lp412
(g89
I0
F23.0
tp413
atp414
a(L68L
g169
(lp415
(g202
F305.0
F342.0
tp416
a(g204
F428.0
F462.0
tp417
atp418
a(L71L
g169
(lp419
(g41
F305.0
F339.0
tp420
atp421
a(L72L
g19
(lp422
(g208
F37.0
F211.0
tp423
a(g210
F311.0
F450.0
tp424
atp425
a(L74L
g19
(lp426
(g216
F428.0
F429.0
tp427
atp428
a(L81L
g192
(lp429
(g220
I0
F48.0
tp430
atp431
a(L82L
g19
(lp432
(g224
F308.0
F498.0
tp433
atp434
a(L88L
g169
(lp435
(g228
I0
F153.0
tp436
atp437
a(L91L
g192
(lp438
(g232
F305.0
F319.0
tp439
atp440
a(L92L
g2
(lp441
(g238
F305.0
F308.0
tp442
a(g240
F308.0
F311.0
tp443
a(g242
F921.0
F921.0
tp444
atp445
a(L93L
g2
(lp446
(g246
F315.0
F498.0
tp447
atp448
a(L96L
g19
(lp449
(g104
I0
F6.0
tp450
a(g254
F6.0
F155.0
tp451
a(g256
F305.0
F307.0
tp452
a(g258
F307.0
F417.0
tp453
a(g260
F439.0
F578.0
tp454
a(g262
F578.0
F580.0
tp455
a(g264
F580.0
F659.0
tp456
atp457
a(L98L
g2
(lp458
(g268
I0
F11.0
tp459
a(g270
F11.0
F209.0
tp460
atp461
a(L99L
g19
(lp462
(g274
I0
F6.0
tp463
a(g276
F6.0
F165.0
tp464
a(g278
F165.0
F170.0
tp465
a(g280
F170.0
F176.0
tp466
atp467
a(L100L
g2
(lp468
(g47
F6.0
F218.0
tp469
a(g284
F218.0
F229.0
tp470
a(g286
F443.0
F752.0
tp471
atp472
atp473
a(F1053.0
F25.71
(lp474
(L0L
g2
(lp475
(g4
F441.0
F802.0
tp476
atp477
a(L1L
g7
(lp478
(g9
F341.0
F363.0
tp479
atp480
a(L8L
g12
(lp481
(g14
I0
F22.0
tp482
a(g16
F638.0
F645.0
tp483
atp484
a(L9L
g19
(lp485
(g21
F12.0
F141.0
tp486
a(g23
F340.0
F446.0
tp487
a(g25
F672.0
F865.0
tp488
atp489
a(L16L
g19
(lp490
(g29
F153.0
F315.0
tp491
atp492
a(L19L
g2
(lp493
(g33
I0
F11.0
tp494
a(g35
F439.0
F766.0
tp495
atp496
a(L23L
g19
(lp497
(g39
F11.0
F179.0
tp498
a(g41
F437.0
F438.0
tp499
atp500
a(L26L
g2
(lp501
(g45
I0
F11.0
tp502
a(g47
F11.0
F223.0
tp503
a(g49
F223.0
F636.0
tp504
a(g51
F636.0
F908.0
tp505
atp506
a(L27L
g2
(lp507
(g55
F23.0
F231.0
tp508
a(g57
F434.0
F437.0
tp509
a(g59
F459.0
F632.0
tp510
a(g61
F641.0
F955.0
tp511
atp512
a(L33L
Vapac-sin#m1.xlarge
p513
(lp514
(g100
F437.0
F442.0
tp515
atp516
a(L37L
g19
(lp517
(g65
I0
F6.0
tp518
a(g67
F6.0
F143.0
tp519
a(g69
F143.0
F219.0
tp520
a(g71
F437.0
F438.0
tp521
a(g73
F451.0
F598.0
tp522
a(g75
F638.0
F640.0
tp523
a(g79
F696.0
F885.0
tp524
atp525
a(L40L
g2
(lp526
(g83
F438.0
F699.0
tp527
a(g85
F802.0
F805.0
tp528
atp529
a(L42L
g2
(lp530
(g89
I0
F12.0
tp531
a(g91
F12.0
F195.0
tp532
a(g93
F479.0
F738.0
tp533
atp534
a(L43L
g96
(lp535
(g98
I0
F0.0
tp536
atp537
a(L44L
g19
(lp538
(g104
I0
F6.0
tp539
a(g106
F11.0
F181.0
tp540
atp541
a(L47L
g19
(lp542
(g110
F438.0
F552.0
tp543
a(g112
F659.0
F754.0
tp544
a(g114
F754.0
F908.0
tp545
a(g116
F908.0
F910.0
tp546
atp547
a(L48L
g7
(lp548
(g120
I0
F72.0
tp549
a(g122
F72.0
F143.0
tp550
a(g124
F143.0
F216.0
tp551
atp552
a(L51L
g19
(lp553
(g128
I0
F6.0
tp554
a(g130
F22.0
F153.0
tp555
a(g132
F153.0
F321.0
tp556
a(g134
F636.0
F638.0
tp557
a(g136
F639.0
F739.0
tp558
a(g138
F1051.0
F1053.0
tp559
atp560
a(L53L
g2
(lp561
(g142
I0
F12.0
tp562
a(g144
F12.0
F23.0
tp563
a(g146
F48.0
F259.0
tp564
a(g148
F683.0
F893.0
tp565
atp566
a(L57L
g2
(lp567
(g152
F143.0
F434.0
tp568
a(g154
F437.0
F441.0
tp569
a(g156
F474.0
F782.0
tp570
a(g158
F782.0
F1051.0
tp571
atp572
a(L58L
g7
(lp573
(g162
F437.0
F459.0
tp574
a(g164
F459.0
F480.0
tp575
a(g166
F480.0
F501.0
tp576
atp577
a(L60L
g169
(lp578
(g171
F437.0
F479.0
tp579
a(g173
F638.0
F683.0
tp580
atp581
a(L63L
g19
(lp582
(g177
I0
F6.0
tp583
a(g179
F96.0
F235.0
tp584
a(g181
F679.0
F833.0
tp585
atp586
a(L65L
g7
(lp587
(g185
F638.0
F659.0
tp588
a(g187
F659.0
F679.0
tp589
a(g189
F679.0
F696.0
tp590
atp591
a(L66L
g192
(lp592
(g194
I0
F48.0
tp593
a(g196
F48.0
F96.0
tp594
a(g198
F329.0
F341.0
tp595
atp596
a(L68L
g169
(lp597
(g202
F437.0
F474.0
tp598
a(g204
F638.0
F672.0
tp599
atp600
a(L72L
g19
(lp601
(g208
F216.0
F390.0
tp602
a(g210
F443.0
F582.0
tp603
atp604
a(L74L
g19
(lp605
(g214
F72.0
F145.0
tp606
atp607
a(L81L
g192
(lp608
(g220
I0
F48.0
tp609
atp610
a(L82L
g19
(lp611
(g224
F440.0
F630.0
tp612
atp613
a(L88L
g169
(lp614
(g228
I0
F153.0
tp615
atp616
a(L91L
g192
(lp617
(g232
F437.0
F451.0
tp618
atp619
a(L92L
g2
(lp620
(g236
F11.0
F155.0
tp621
a(g238
F437.0
F440.0
tp622
a(g240
F440.0
F443.0
tp623
a(g242
F1053.0
F1053.0
tp624
atp625
a(L93L
g513
(lp626
(g246
F442.0
F739.0
tp627
atp628
a(L95L
g169
(lp629
(g250
I0
F144.0
tp630
atp631
a(L96L
g19
(lp632
(g254
F6.0
F155.0
tp633
a(g256
F437.0
F439.0
tp634
a(g258
F439.0
F549.0
tp635
a(g216
F638.0
F639.0
tp636
a(g260
F645.0
F784.0
tp637
a(g262
F784.0
F786.0
tp638
a(g264
F786.0
F865.0
tp639
atp640
a(L98L
g2
(lp641
(g268
I0
F11.0
tp642
a(g270
F11.0
F209.0
tp643
a(g77
F638.0
F641.0
tp644
atp645
a(L99L
g2
(lp646
(g274
I0
F11.0
tp647
a(g276
F11.0
F329.0
tp648
a(g278
F329.0
F340.0
tp649
a(g280
F340.0
F351.0
tp650
atp651
a(L100L
g2
(lp652
(g284
I0
F11.0
tp653
a(g286
F363.0
F672.0
tp654
atp655
atp656
a(F1115.0
F19.32
(lp657
(L0L
g2
(lp658
(g4
F309.0
F670.0
tp659
atp660
a(L1L
g7
(lp661
(g9
F629.0
F651.0
tp662
atp663
a(L8L
g96
(lp664
(g14
I0
F36.0
tp665
a(g250
F36.0
F72.0
tp666
a(g16
F736.0
F747.0
tp667
atp668
a(L9L
g19
(lp669
(g21
F12.0
F141.0
tp670
a(g23
F340.0
F446.0
tp671
a(g25
F770.0
F963.0
tp672
atp673
a(L19L
g2
(lp674
(g33
I0
F11.0
tp675
a(g35
F307.0
F634.0
tp676
atp677
a(L26L
g2
(lp678
(g47
F6.0
F218.0
tp679
a(g240
F305.0
F308.0
tp680
a(g49
F308.0
F721.0
tp681
a(g51
F721.0
F993.0
tp682
atp683
a(L27L
g2
(lp684
(g57
F302.0
F305.0
tp685
a(g171
F305.0
F308.0
tp686
a(g59
F327.0
F500.0
tp687
a(g61
F739.0
F1053.0
tp688
atp689
a(L36L
g2
(lp690
(g39
F73.0
F409.0
tp691
atp692
a(L37L
g19
(lp693
(g65
I0
F6.0
tp694
a(g122
F6.0
F11.0
tp695
a(g67
F11.0
F148.0
tp696
a(g69
F148.0
F224.0
tp697
a(g71
F305.0
F306.0
tp698
a(g73
F319.0
F466.0
tp699
a(g29
F466.0
F628.0
tp700
a(g75
F736.0
F738.0
tp701
a(g79
F794.0
F983.0
tp702
atp703
a(L40L
g2
(lp704
(g214
F72.0
F218.0
tp705
a(g55
F218.0
F426.0
tp706
a(g83
F426.0
F687.0
tp707
atp708
a(L42L
g2
(lp709
(g91
F23.0
F206.0
tp710
a(g93
F308.0
F567.0
tp711
a(g85
F1112.0
F1115.0
tp712
atp713
a(L43L
g96
(lp714
(g98
I0
F0.0
tp715
a(g124
I0
F37.0
tp716
a(g100
F305.0
F315.0
tp717
atp718
a(L47L
g19
(lp719
(g110
F339.0
F453.0
tp720
a(g112
F757.0
F852.0
tp721
a(g114
F852.0
F1006.0
tp722
a(g116
F1006.0
F1008.0
tp723
atp724
a(L48L
g7
(lp725
(g120
I0
F72.0
tp726
a(g228
F72.0
F148.0
tp727
atp728
a(L51L
g19
(lp729
(g128
I0
F6.0
tp730
a(g130
F36.0
F167.0
tp731
a(g132
F167.0
F335.0
tp732
a(g136
F737.0
F837.0
tp733
a(g138
F1053.0
F1055.0
tp734
atp735
a(L53L
g2
(lp736
(g142
I0
F12.0
tp737
a(g144
F12.0
F23.0
tp738
a(g146
F48.0
F259.0
tp739
a(g148
F781.0
F991.0
tp740
atp741
a(L57L
g2
(lp742
(g152
F11.0
F302.0
tp743
a(g154
F305.0
F309.0
tp744
a(g156
F342.0
F650.0
tp745
a(g158
F738.0
F1007.0
tp746
atp747
a(L58L
g7
(lp748
(g162
F305.0
F327.0
tp749
a(g196
F327.0
F398.0
tp750
a(g164
F629.0
F650.0
tp751
a(g166
F650.0
F671.0
tp752
atp753
a(L60L
g169
(lp754
(g173
F736.0
F781.0
tp755
atp756
a(L63L
g19
(lp757
(g177
I0
F6.0
tp758
a(g179
F398.0
F537.0
tp759
a(g181
F777.0
F931.0
tp760
atp761
a(L65L
g7
(lp762
(g45
I0
F73.0
tp763
a(g185
F736.0
F757.0
tp764
a(g187
F757.0
F777.0
tp765
a(g189
F777.0
F794.0
tp766
atp767
a(L66L
g192
(lp768
(g194
I0
F48.0
tp769
a(g198
F617.0
F629.0
tp770
atp771
a(L67L
g12
(lp772
(g89
I0
F23.0
tp773
atp774
a(L68L
g169
(lp775
(g202
F305.0
F342.0
tp776
a(g204
F736.0
F770.0
tp777
atp778
a(L71L
g169
(lp779
(g41
F305.0
F339.0
tp780
atp781
a(L72L
g19
(lp782
(g208
F37.0
F211.0
tp783
a(g210
F308.0
F447.0
tp784
a(g106
F447.0
F617.0
tp785
atp786
a(L81L
g192
(lp787
(g220
I0
F48.0
tp788
a(g134
F721.0
F736.0
tp789
atp790
a(L91L
g192
(lp791
(g232
F305.0
F319.0
tp792
a(g246
F319.0
F1112.0
tp793
atp794
a(L92L
g2
(lp795
(g236
F11.0
F155.0
tp796
a(g238
F305.0
F308.0
tp797
a(g242
F1115.0
F1115.0
tp798
atp799
a(L96L
g19
(lp800
(g104
I0
F6.0
tp801
a(g254
F6.0
F155.0
tp802
a(g256
F305.0
F307.0
tp803
a(g258
F351.0
F461.0
tp804
a(g216
F736.0
F737.0
tp805
a(g260
F747.0
F886.0
tp806
a(g262
F886.0
F888.0
tp807
a(g264
F888.0
F967.0
tp808
atp809
a(L98L
g2
(lp810
(g268
I0
F11.0
tp811
a(g270
F11.0
F209.0
tp812
a(g224
F308.0
F688.0
tp813
a(g77
F736.0
F739.0
tp814
atp815
a(L99L
g2
(lp816
(g274
I0
F11.0
tp817
a(g276
F11.0
F329.0
tp818
a(g278
F329.0
F340.0
tp819
a(g280
F340.0
F351.0
tp820
atp821
a(L100L
g2
(lp822
(g284
I0
F11.0
tp823
a(g286
F651.0
F960.0
tp824
atp825
atp826
a(F2097.0
F14.63
(lp827
(L0L
g2
(lp828
(g39
F11.0
F347.0
tp829
a(g67
F347.0
F620.0
tp830
a(g132
F620.0
F956.0
tp831
a(g171
F956.0
F959.0
tp832
a(g154
F959.0
F963.0
tp833
a(g4
F963.0
F1324.0
tp834
a(g61
F1324.0
F1638.0
tp835
atp836
a(L1L
g513
(lp837
(g73
F836.0
F1313.0
tp838
atp839
a(L4L
g96
(lp840
(g69
F293.0
F787.0
tp841
atp842
a(L12L
g192
(lp843
(g124
I0
F49.0
tp844
atp845
a(L14L
g513
(lp846
(g146
F72.0
F414.0
tp847
atp848
a(L16L
g192
(lp849
(g144
I0
F48.0
tp850
a(g202
F794.0
F806.0
tp851
a(g85
F2083.0
F2097.0
tp852
atp853
a(L19L
g12
(lp854
(g104
I0
F23.0
tp855
a(g208
F49.0
F743.0
tp856
a(g156
F806.0
F1422.0
tp857
atp858
a(L21L
g19
(lp859
(g65
I0
F6.0
tp860
a(g35
F808.0
F972.0
tp861
atp862
a(L24L
g12
(lp863
(g47
F23.0
F447.0
tp864
a(g250
F447.0
F469.0
tp865
a(g204
F1110.0
F1115.0
tp866
atp867
a(L26L
g2
(lp868
(g45
I0
F11.0
tp869
a(g49
F303.0
F716.0
tp870
a(g51
F1334.0
F1606.0
tp871
atp872
a(L30L
g96
(lp873
(g112
F1151.0
F1766.0
tp874
atp875
a(L35L
g7
(lp876
(g220
I0
F72.0
tp877
atp878
a(L36L
g19
(lp879
(g110
F795.0
F909.0
tp880
a(g162
F909.0
F911.0
tp881
a(g198
F1100.0
F1101.0
tp882
atp883
a(L37L
g96
(lp884
(g268
I0
F36.0
tp885
a(g179
F143.0
F1043.0
tp886
atp887
a(L39L
g169
(lp888
(g238
F794.0
F837.0
tp889
atp890
a(L47L
g169
(lp891
(g122
I0
F142.0
tp892
a(g116
F1832.0
F1871.0
tp893
atp894
a(L48L
g12
(lp895
(g128
I0
F23.0
tp896
a(g14
F23.0
F45.0
tp897
a(g71
F794.0
F800.0
tp898
a(g83
F800.0
F1323.0
tp899
a(g75
F1323.0
F1329.0
tp900
atp901
a(L51L
g2
(lp902
(g21
F153.0
F410.0
tp903
a(g130
F410.0
F672.0
tp904
a(g23
F672.0
F883.0
tp905
a(g134
F1107.0
F1110.0
tp906
a(g173
F1110.0
F1113.0
tp907
a(g136
F1113.0
F1313.0
tp908
a(g114
F1313.0
F1620.0
tp909
atp910
a(L53L
g12
(lp911
(g91
F151.0
F517.0
tp912
a(g57
F787.0
F794.0
tp913
atp914
a(L54L
g2
(lp915
(g55
F48.0
F256.0
tp916
a(g216
F1110.0
F1113.0
tp917
a(g79
F1145.0
F1523.0
tp918
a(g286
F1523.0
F1832.0
tp919
atp920
a(L56L
g96
(lp921
(g210
F807.0
F1710.0
tp922
atp923
a(L58L
g192
(lp924
(g214
F6.0
F640.0
tp925
a(g164
F1101.0
F1115.0
tp926
atp927
a(L64L
g169
(lp928
(g274
I0
F148.0
tp929
a(g194
F148.0
F293.0
tp930
a(g228
F293.0
F446.0
tp931
a(g189
F1110.0
F1145.0
tp932
atp933
a(L66L
g169
(lp934
(g196
I0
F143.0
tp935
a(g284
F143.0
F290.0
tp936
a(g185
F1110.0
F1151.0
tp937
atp938
a(L67L
g12
(lp939
(g278
I0
F21.0
tp940
a(g25
F1115.0
F1888.0
tp941
atp942
a(L68L
g192
(lp943
(g9
F1101.0
F1116.0
tp944
atp945
a(L71L
g192
(lp946
(g240
F794.0
F807.0
tp947
atp948
a(L74L
g12
(lp949
(g276
F148.0
F784.0
tp950
a(g187
F1110.0
F1116.0
tp951
a(g181
F1116.0
F1733.0
tp952
a(g138
F2071.0
F2078.0
tp953
atp954
a(L75L
g7
(lp955
(g246
F796.0
F1985.0
tp956
atp957
a(L82L
g169
(lp958
(g232
F794.0
F836.0
tp959
a(g280
F836.0
F985.0
tp960
atp961
a(L86L
g169
(lp962
(g142
I0
F153.0
tp963
a(g177
F153.0
F303.0
tp964
atp965
a(L89L
g169
(lp966
(g89
I0
F151.0
tp967
a(g77
F1110.0
F1147.0
tp968
atp969
a(L92L
g19
(lp970
(g41
F794.0
F795.0
tp971
a(g224
F837.0
F1027.0
tp972
a(g242
F2097.0
F2097.0
tp973
atp974
a(L95L
g192
(lp975
(g236
F36.0
F662.0
tp976
a(g256
F794.0
F808.0
tp977
atp978
a(L96L
g19
(lp979
(g98
I0
F0.0
tp980
a(g120
I0
F6.0
tp981
a(g254
F6.0
F155.0
tp982
a(g152
F155.0
F300.0
tp983
a(g100
F794.0
F796.0
tp984
a(g59
F911.0
F997.0
tp985
a(g258
F997.0
F1107.0
tp986
a(g16
F1110.0
F1112.0
tp987
a(g260
F1112.0
F1251.0
tp988
a(g262
F1251.0
F1253.0
tp989
a(g264
F1253.0
F1332.0
tp990
a(g166
F1332.0
F1334.0
tp991
atp992
a(L98L
g192
(lp993
(g93
F959.0
F2083.0
tp994
atp995
a(L99L
g12
(lp996
(g33
I0
F23.0
tp997
a(g270
F23.0
F420.0
tp998
a(g106
F420.0
F1100.0
tp999
a(g148
F1113.0
F1534.0
tp1000
a(g158
F1534.0
F2071.0
tp1001
atp1002
a(L100L
g12
(lp1003
(g29
F446.0
F1093.0
tp1004
atp1005
atp1006
a(F3091.0
F13.36
(lp1007
(L0L
g12
(lp1008
(g39
F73.0
F744.0
tp1009
a(g57
F1310.0
F1317.0
tp1010
a(g4
F1407.0
F2130.0
tp1011
a(g187
F2157.0
F2163.0
tp1012
a(g189
F2163.0
F2168.0
tp1013
atp1014
a(L3L
g2
(lp1015
(g270
F49.0
F247.0
tp1016
a(g156
F1354.0
F1662.0
tp1017
atp1018
a(L7L
g7
(lp1019
(g278
I0
F69.0
tp1020
atp1021
a(L8L
g12
(lp1022
(g171
F1317.0
F1323.0
tp1023
a(g216
F2157.0
F2163.0
tp1024
a(g75
F2163.0
F2169.0
tp1025
atp1026
a(L12L
g12
(lp1027
(g23
F69.0
F492.0
tp1028
a(g260
F2160.0
F2715.0
tp1029
atp1030
a(L17L
g513
(lp1031
(g47
F50.0
F394.0
tp1032
atp1033
a(L19L
g2
(lp1034
(g122
I0
F11.0
tp1035
a(g208
F11.0
F358.0
tp1036
a(g35
F1320.0
F1647.0
tp1037
atp1038
a(L20L
g7
(lp1039
(g240
F1317.0
F1337.0
tp1040
atp1041
a(L25L
g513
(lp1042
(g98
I0
F0.0
tp1043
atp1044
a(L26L
g2
(lp1045
(g236
F6.0
F150.0
tp1046
a(g128
F150.0
F161.0
tp1047
a(g132
F308.0
F644.0
tp1048
a(g49
F1325.0
F1738.0
tp1049
a(g77
F2157.0
F2160.0
tp1050
a(g79
F2168.0
F2546.0
tp1051
a(g51
F2546.0
F2818.0
tp1052
atp1053
a(L27L
g2
(lp1054
(g93
F1323.0
F1582.0
tp1055
a(g85
F2130.0
F2133.0
tp1056
atp1057
a(L28L
g169
(lp1058
(g238
F1317.0
F1360.0
tp1059
a(g154
F1360.0
F1407.0
tp1060
a(g228
F1407.0
F1560.0
tp1061
atp1062
a(L36L
g2
(lp1063
(g110
F1322.0
F1549.0
tp1064
a(g210
F1549.0
F1827.0
tp1065
a(g29
F1827.0
F2151.0
tp1066
a(g16
F2157.0
F2160.0
tp1067
a(g114
F2160.0
F2467.0
tp1068
a(g264
F2467.0
F2625.0
tp1069
atp1070
a(L37L
g192
(lp1071
(g120
I0
F48.0
tp1072
a(g89
F48.0
F98.0
tp1073
a(g179
F145.0
F1346.0
tp1074
atp1075
a(L42L
g192
(lp1076
(g104
I0
F50.0
tp1077
a(g14
F50.0
F99.0
tp1078
a(g136
F2163.0
F3031.0
tp1079
atp1080
a(L48L
g2
(lp1081
(g124
I0
F11.0
tp1082
a(g69
F145.0
F297.0
tp1083
a(g250
F297.0
F308.0
tp1084
a(g83
F1335.0
F1596.0
tp1085
a(g25
F2191.0
F2578.0
tp1086
atp1087
a(L51L
g513
(lp1088
(g21
F51.0
F469.0
tp1089
a(g130
F469.0
F894.0
tp1090
a(g134
F2151.0
F2157.0
tp1091
atp1092
a(L53L
g192
(lp1093
(g142
I0
F51.0
tp1094
a(g152
F51.0
F1310.0
tp1095
a(g148
F2168.0
F3080.0
tp1096
atp1097
a(L55L
g96
(lp1098
(g144
I0
F36.0
tp1099
a(g220
F36.0
F72.0
tp1100
a(g280
F72.0
F109.0
tp1101
a(g196
F109.0
F145.0
tp1102
atp1103
a(L57L
g12
(lp1104
(g91
F98.0
F464.0
tp1105
a(g41
F1317.0
F1322.0
tp1106
a(g146
F1322.0
F1743.0
tp1107
a(g286
F1743.0
F2361.0
tp1108
atp1109
a(L65L
g7
(lp1110
(g45
I0
F73.0
tp1111
a(g71
F1317.0
F1335.0
tp1112
a(g198
F1671.0
F1689.0
tp1113
atp1114
a(L66L
g192
(lp1115
(g185
F2157.0
F2171.0
tp1116
a(g116
F2818.0
F2831.0
tp1117
atp1118
a(L67L
g12
(lp1119
(g67
F161.0
F707.0
tp1120
atp1121
a(L71L
g96
(lp1122
(g65
I0
F38.0
tp1123
a(g55
F38.0
F714.0
tp1124
a(g138
F3080.0
F3091.0
tp1125
atp1126
a(L73L
g169
(lp1127
(g202
F1317.0
F1354.0
tp1128
a(g9
F1689.0
F1733.0
tp1129
atp1130
a(L74L
g12
(lp1131
(g254
F38.0
F632.0
tp1132
a(g181
F2163.0
F2780.0
tp1133
atp1134
a(L75L
g192
(lp1135
(g33
I0
F49.0
tp1136
a(g246
F1319.0
F2112.0
tp1137
atp1138
a(L79L
g169
(lp1139
(g194
I0
F145.0
tp1140
atp1141
a(L82L
g169
(lp1142
(g232
F1317.0
F1359.0
tp1143
a(g164
F1689.0
F1732.0
tp1144
atp1145
a(L83L
g169
(lp1146
(g162
F1317.0
F1361.0
tp1147
a(g204
F2157.0
F2191.0
tp1148
a(g166
F2191.0
F2233.0
tp1149
atp1150
a(L91L
g96
(lp1151
(g214
F48.0
F523.0
tp1152
a(g59
F1361.0
F1922.0
tp1153
a(g173
F2157.0
F2168.0
tp1154
a(g112
F2171.0
F2786.0
tp1155
atp1156
a(L94L
g2
(lp1157
(g276
F11.0
F329.0
tp1158
a(g224
F1360.0
F1740.0
tp1159
atp1160
a(L95L
g169
(lp1161
(g242
F3091.0
F3091.0
tp1162
atp1163
a(L96L
g19
(lp1164
(g100
F1317.0
F1319.0
tp1165
a(g177
F1319.0
F1325.0
tp1166
a(g258
F1325.0
F1435.0
tp1167
a(g262
F1689.0
F1691.0
tp1168
atp1169
a(L99L
g19
(lp1170
(g268
I0
F6.0
tp1171
a(g73
F1359.0
F1506.0
tp1172
a(g158
F2169.0
F2303.0
tp1173
atp1174
a(L100L
g2
(lp1175
(g274
I0
F11.0
tp1176
a(g256
F1317.0
F1320.0
tp1177
a(g284
F1320.0
F1331.0
tp1178
a(g106
F1331.0
F1671.0
tp1179
a(g61
F2160.0
F2474.0
tp1180
atp1181
atp1182
a(F3500.0
F7.91
(lp1183
(L0L
g12
(lp1184
(g39
F73.0
F744.0
tp1185
a(g57
F1310.0
F1317.0
tp1186
a(g4
F1407.0
F2130.0
tp1187
a(g187
F2177.0
F2183.0
tp1188
a(g189
F2183.0
F2188.0
tp1189
atp1190
a(L3L
g12
(lp1191
(g270
F49.0
F446.0
tp1192
a(g156
F1354.0
F1970.0
tp1193
atp1194
a(L7L
g169
(lp1195
(g278
I0
F139.0
tp1196
atp1197
a(L8L
g169
(lp1198
(g171
F1317.0
F1359.0
tp1199
a(g216
F2177.0
F2215.0
tp1200
a(g75
F2215.0
F2256.0
tp1201
atp1202
a(L12L
g192
(lp1203
(g23
F139.0
F1055.0
tp1204
a(g260
F2180.0
F3383.0
tp1205
atp1206
a(L17L
g192
(lp1207
(g47
F50.0
F968.0
tp1208
atp1209
a(L19L
g96
(lp1210
(g122
I0
F35.0
tp1211
a(g208
F35.0
F1163.0
tp1212
a(g35
F1323.0
F2387.0
tp1213
atp1214
a(L20L
g192
(lp1215
(g240
F1317.0
F1330.0
tp1216
atp1217
a(L25L
g513
(lp1218
(g98
I0
F0.0
tp1219
atp1220
a(L26L
g12
(lp1221
(g236
F22.0
F311.0
tp1222
a(g128
F311.0
F334.0
tp1223
a(g132
F334.0
F1007.0
tp1224
a(g49
F1346.0
F2171.0
tp1225
a(g77
F2177.0
F2183.0
tp1226
a(g79
F2188.0
F2944.0
tp1227
a(g51
F2944.0
F3487.0
tp1228
atp1229
a(L27L
g7
(lp1230
(g93
F1359.0
F3045.0
tp1231
a(g85
F3046.0
F3067.0
tp1232
atp1233
a(L28L
g169
(lp1234
(g238
F1317.0
F1360.0
tp1235
a(g154
F1360.0
F1407.0
tp1236
a(g228
F1407.0
F1560.0
tp1237
atp1238
a(L36L
g2
(lp1239
(g110
F1322.0
F1549.0
tp1240
a(g210
F1549.0
F1827.0
tp1241
a(g29
F1827.0
F2151.0
tp1242
a(g16
F2177.0
F2180.0
tp1243
a(g114
F2180.0
F2487.0
tp1244
a(g264
F2487.0
F2645.0
tp1245
atp1246
a(L37L
g192
(lp1247
(g120
I0
F48.0
tp1248
a(g89
F48.0
F98.0
tp1249
a(g179
F580.0
F1781.0
tp1250
atp1251
a(L42L
g192
(lp1252
(g104
I0
F50.0
tp1253
a(g14
F50.0
F99.0
tp1254
a(g136
F2215.0
F3083.0
tp1255
atp1256
a(L48L
g2
(lp1257
(g124
I0
F11.0
tp1258
a(g69
F145.0
F297.0
tp1259
a(g250
F297.0
F308.0
tp1260
a(g83
F1335.0
F1596.0
tp1261
a(g25
F2211.0
F2598.0
tp1262
atp1263
a(L51L
g513
(lp1264
(g21
F51.0
F469.0
tp1265
a(g130
F469.0
F894.0
tp1266
a(g134
F2171.0
F2177.0
tp1267
atp1268
a(L53L
g192
(lp1269
(g142
I0
F51.0
tp1270
a(g152
F51.0
F1310.0
tp1271
a(g148
F2188.0
F3100.0
tp1272
atp1273
a(L55L
g169
(lp1274
(g144
I0
F143.0
tp1275
a(g220
F143.0
F288.0
tp1276
a(g280
F288.0
F437.0
tp1277
a(g196
F437.0
F580.0
tp1278
atp1279
a(L57L
g12
(lp1280
(g91
F98.0
F464.0
tp1281
a(g41
F1317.0
F1322.0
tp1282
a(g146
F1322.0
F1743.0
tp1283
a(g286
F2088.0
F2706.0
tp1284
atp1285
a(L65L
g7
(lp1286
(g45
I0
F73.0
tp1287
a(g71
F1317.0
F1335.0
tp1288
a(g198
F2026.0
F2044.0
tp1289
atp1290
a(L66L
g192
(lp1291
(g185
F2177.0
F2191.0
tp1292
a(g116
F3487.0
F3500.0
tp1293
atp1294
a(L67L
g12
(lp1295
(g67
F334.0
F880.0
tp1296
atp1297
a(L71L
g192
(lp1298
(g65
I0
F51.0
tp1299
a(g55
F143.0
F1044.0
tp1300
a(g138
F3383.0
F3398.0
tp1301
atp1302
a(L73L
g169
(lp1303
(g202
F1317.0
F1354.0
tp1304
a(g9
F2044.0
F2088.0
tp1305
atp1306
a(L74L
g12
(lp1307
(g254
F51.0
F645.0
tp1308
a(g181
F2183.0
F2800.0
tp1309
atp1310
a(L75L
g192
(lp1311
(g33
I0
F49.0
tp1312
a(g246
F1323.0
F2116.0
tp1313
atp1314
a(L79L
g169
(lp1315
(g194
I0
F145.0
tp1316
atp1317
a(L82L
g169
(lp1318
(g232
F1317.0
F1359.0
tp1319
a(g164
F2044.0
F2087.0
tp1320
atp1321
a(L83L
g169
(lp1322
(g162
F1317.0
F1361.0
tp1323
a(g204
F2177.0
F2211.0
tp1324
a(g166
F2211.0
F2253.0
tp1325
atp1326
a(L91L
g96
(lp1327
(g214
F48.0
F523.0
tp1328
a(g59
F1361.0
F1922.0
tp1329
a(g173
F2177.0
F2188.0
tp1330
a(g112
F2191.0
F2806.0
tp1331
atp1332
a(L94L
g192
(lp1333
(g276
F23.0
F1401.0
tp1334
a(g224
F1401.0
F3046.0
tp1335
atp1336
a(L95L
g96
(lp1337
(g242
F3500.0
F3500.0
tp1338
atp1339
a(L96L
g12
(lp1340
(g100
F1317.0
F1323.0
tp1341
a(g177
F1323.0
F1346.0
tp1342
a(g258
F1346.0
F1785.0
tp1343
a(g262
F2044.0
F2050.0
tp1344
atp1345
a(L99L
g12
(lp1346
(g268
I0
F22.0
tp1347
a(g73
F1359.0
F1946.0
tp1348
a(g158
F2256.0
F2793.0
tp1349
atp1350
a(L100L
g12
(lp1351
(g274
I0
F23.0
tp1352
a(g256
F1317.0
F1323.0
tp1353
a(g284
F1323.0
F1346.0
tp1354
a(g106
F1346.0
F2026.0
tp1355
a(g61
F2183.0
F2810.0
tp1356
atp1357
atp1358
a.