(lp0
(F436.0
F15.91
(lp1
(L51L
Vapac-sin#m3.large
p2
(lp3
(VID00026
p4
F220.0
F226.0
tp5
a(VID00030
p6
F226.0
F232.0
tp7
a(VID00031
p8
F232.0
F238.0
tp9
atp10
a(L37L
g2
(lp11
(VID00004
p12
I0
F22.0
tp13
a(VID00033
p14
F220.0
F227.0
tp15
atp16
a(L7L
Vapac-sin#m3.2xlarge
p17
(lp18
(VID00016
p19
F22.0
F194.0
tp20
a(VID00028
p21
F220.0
F222.0
tp22
atp23
a(L9L
g17
(lp24
(VID00019
p25
F5.0
F172.0
tp26
a(VID00042
p27
F232.0
F422.0
tp28
atp29
a(L42L
g17
(lp30
(VID00001
p31
I0
F6.0
tp32
a(VID00014
p33
F12.0
F100.0
tp34
a(VID00015
p35
F100.0
F192.0
tp36
a(VID00024
p37
F218.0
F220.0
tp38
a(VID00036
p39
F220.0
F222.0
tp40
a(VID00034
p41
F222.0
F224.0
tp42
a(VID00040
p43
F224.0
F420.0
tp44
atp45
a(L14L
g17
(lp46
(VID00003
p47
I0
F6.0
tp48
a(VID00002
p49
F6.0
F12.0
tp50
a(VID00012
p51
F12.0
F128.0
tp52
a(VID00045
p53
F227.0
F348.0
tp54
atp55
a(L16L
g17
(lp56
(VID00011
p57
I0
F6.0
tp58
a(VID00039
p59
F222.0
F374.0
tp60
atp61
a(L17L
g17
(lp62
(S'entry'
p63
I0
F0.0
tp64
a(VID00018
p65
F6.0
F210.0
tp66
a(VID00048
p67
F222.0
F369.0
tp68
atp69
a(L50L
g17
(lp70
(VID00005
p71
I0
F6.0
tp72
a(VID00017
p73
F6.0
F218.0
tp74
a(VID00047
p75
F234.0
F351.0
tp76
a(VID00038
p77
F351.0
F434.0
tp78
atp79
a(L19L
g17
(lp80
(VID00021
p81
F6.0
F81.0
tp82
a(VID00023
p83
F81.0
F213.0
tp84
a(VID00037
p85
F222.0
F434.0
tp86
a(VID00049
p87
F434.0
F436.0
tp88
atp89
a(L20L
g17
(lp90
(VID00007
p91
I0
F5.0
tp92
a(VID00013
p93
F6.0
F155.0
tp94
a(VID00027
p95
F220.0
F222.0
tp96
a(VID00041
p97
F224.0
F369.0
tp98
atp99
a(L23L
Vapac-sin#m3.medium
p100
(lp101
(VID00008
p102
I0
F49.0
tp103
a(VID00035
p104
F220.0
F234.0
tp105
atp106
a(L24L
Vapac-sin#m3.xlarge
p107
(lp108
(S'exit'
p109
F436.0
F436.0
tp110
atp111
a(L26L
g17
(lp112
(VID00006
p113
I0
F6.0
tp114
a(VID00010
p115
F6.0
F12.0
tp116
a(VID00022
p117
F12.0
F157.0
tp118
a(VID00025
p119
F220.0
F222.0
tp120
a(VID00046
p121
F224.0
F341.0
tp122
atp123
a(L10L
g17
(lp124
(VID00000
p125
I0
F6.0
tp126
a(VID00032
p127
F220.0
F222.0
tp128
a(VID00029
p129
F222.0
F224.0
tp130
a(VID00043
p131
F238.0
F384.0
tp132
atp133
a(L5L
g17
(lp134
(VID00009
p135
I0
F6.0
tp136
a(VID00020
p137
F49.0
F201.0
tp138
a(VID00044
p139
F222.0
F420.0
tp140
atp141
atp142
a(F755.0
F15.28
(lp143
(L51L
g2
(lp144
(g4
F356.0
F362.0
tp145
a(g6
F362.0
F368.0
tp146
a(g8
F368.0
F374.0
tp147
atp148
a(L37L
g2
(lp149
(g12
I0
F22.0
tp150
a(g14
F356.0
F363.0
tp151
atp152
a(L7L
g17
(lp153
(g19
F22.0
F194.0
tp154
a(g21
F356.0
F358.0
tp155
atp156
a(L9L
g17
(lp157
(g25
F5.0
F172.0
tp158
a(g27
F368.0
F558.0
tp159
atp160
a(L42L
g17
(lp161
(g31
I0
F6.0
tp162
a(g33
F12.0
F100.0
tp163
a(g35
F100.0
F192.0
tp164
a(g37
F354.0
F356.0
tp165
a(g39
F356.0
F358.0
tp166
a(g41
F358.0
F360.0
tp167
a(g43
F360.0
F556.0
tp168
atp169
a(L14L
g17
(lp170
(g47
I0
F6.0
tp171
a(g49
F6.0
F12.0
tp172
a(g51
F12.0
F128.0
tp173
a(g53
F363.0
F484.0
tp174
atp175
a(L16L
g17
(lp176
(g57
I0
F6.0
tp177
a(g59
F358.0
F510.0
tp178
atp179
a(L17L
g17
(lp180
(g63
I0
F0.0
tp181
a(g65
F6.0
F210.0
tp182
a(g67
F358.0
F505.0
tp183
atp184
a(L50L
g17
(lp185
(g71
I0
F6.0
tp186
a(g73
F6.0
F218.0
tp187
a(g75
F370.0
F487.0
tp188
a(g77
F487.0
F570.0
tp189
atp190
a(L19L
g17
(lp191
(g81
F12.0
F87.0
tp192
a(g83
F87.0
F219.0
tp193
a(g85
F358.0
F570.0
tp194
a(g87
F753.0
F755.0
tp195
atp196
a(L20L
g17
(lp197
(g91
I0
F5.0
tp198
a(g93
F6.0
F155.0
tp199
a(g95
F356.0
F358.0
tp200
a(g97
F360.0
F505.0
tp201
atp202
a(L23L
g100
(lp203
(g102
I0
F49.0
tp204
a(g104
F356.0
F370.0
tp205
atp206
a(L24L
g107
(lp207
(g109
F755.0
F755.0
tp208
atp209
a(L26L
g17
(lp210
(g113
I0
F6.0
tp211
a(g115
F6.0
F12.0
tp212
a(g117
F12.0
F157.0
tp213
a(g119
F356.0
F358.0
tp214
a(g121
F360.0
F477.0
tp215
atp216
a(L10L
g17
(lp217
(g125
I0
F6.0
tp218
a(g127
F356.0
F358.0
tp219
a(g129
F358.0
F360.0
tp220
a(g131
F374.0
F520.0
tp221
atp222
a(L5L
g107
(lp223
(g135
I0
F12.0
tp224
a(g137
F49.0
F354.0
tp225
a(g139
F358.0
F753.0
tp226
atp227
atp228
a(F867.0
F12.77
(lp229
(L51L
g2
(lp230
(g4
F369.0
F375.0
tp231
a(g6
F375.0
F381.0
tp232
a(g8
F381.0
F387.0
tp233
atp234
a(L37L
g2
(lp235
(g12
I0
F22.0
tp236
a(g14
F369.0
F376.0
tp237
atp238
a(L38L
Vapac-sin#m1.xlarge
p239
(lp240
(g59
F371.0
F865.0
tp241
atp242
a(L7L
g107
(lp243
(g19
F22.0
F367.0
tp244
a(g21
F369.0
F372.0
tp245
atp246
a(L9L
g107
(lp247
(g25
F5.0
F339.0
tp248
a(g27
F381.0
F760.0
tp249
atp250
a(L42L
g17
(lp251
(g31
I0
F6.0
tp252
a(g33
F12.0
F100.0
tp253
a(g35
F100.0
F192.0
tp254
a(g37
F367.0
F369.0
tp255
a(g39
F369.0
F371.0
tp256
a(g41
F371.0
F373.0
tp257
a(g43
F373.0
F569.0
tp258
atp259
a(L14L
g17
(lp260
(g47
I0
F6.0
tp261
a(g49
F6.0
F12.0
tp262
a(g51
F12.0
F128.0
tp263
a(g53
F376.0
F497.0
tp264
atp265
a(L17L
g17
(lp266
(g63
I0
F0.0
tp267
a(g57
I0
F6.0
tp268
a(g65
F11.0
F215.0
tp269
a(g67
F371.0
F518.0
tp270
atp271
a(L50L
g17
(lp272
(g71
I0
F6.0
tp273
a(g73
F6.0
F218.0
tp274
a(g75
F383.0
F500.0
tp275
a(g77
F500.0
F583.0
tp276
atp277
a(L19L
g17
(lp278
(g81
F12.0
F87.0
tp279
a(g83
F87.0
F219.0
tp280
a(g85
F372.0
F584.0
tp281
a(g87
F865.0
F867.0
tp282
atp283
a(L20L
g17
(lp284
(g91
I0
F5.0
tp285
a(g93
F6.0
F155.0
tp286
a(g95
F369.0
F371.0
tp287
a(g129
F371.0
F373.0
tp288
a(g97
F373.0
F518.0
tp289
atp290
a(L23L
g100
(lp291
(g102
I0
F49.0
tp292
a(g104
F369.0
F383.0
tp293
atp294
a(L24L
g107
(lp295
(g109
F867.0
F867.0
tp296
atp297
a(L26L
g107
(lp298
(g113
I0
F11.0
tp299
a(g115
F11.0
F22.0
tp300
a(g117
F22.0
F311.0
tp301
a(g119
F369.0
F372.0
tp302
a(g121
F373.0
F608.0
tp303
atp304
a(L10L
g17
(lp305
(g125
I0
F6.0
tp306
a(g127
F369.0
F371.0
tp307
a(g131
F387.0
F533.0
tp308
atp309
a(L5L
g107
(lp310
(g135
I0
F12.0
tp311
a(g137
F49.0
F354.0
tp312
a(g139
F371.0
F766.0
tp313
atp314
atp315
a(F1084.0
F11.53
(lp316
(L51L
g2
(lp317
(g4
F440.0
F446.0
tp318
a(g6
F446.0
F452.0
tp319
a(g8
F452.0
F458.0
tp320
atp321
a(L34L
g239
(lp322
(g33
F37.0
F322.0
tp323
atp324
a(L37L
g100
(lp325
(g12
I0
F49.0
tp326
a(g39
F440.0
F453.0
tp327
a(g14
F453.0
F468.0
tp328
atp329
a(L7L
g107
(lp330
(g19
F49.0
F394.0
tp331
a(g21
F440.0
F443.0
tp332
atp333
a(L9L
g17
(lp334
(g25
F5.0
F172.0
tp335
a(g27
F452.0
F642.0
tp336
atp337
a(L42L
g239
(lp338
(g31
I0
F18.0
tp339
a(g35
F19.0
F319.0
tp340
a(g37
F435.0
F440.0
tp341
a(g41
F440.0
F445.0
tp342
a(g43
F445.0
F1082.0
tp343
atp344
a(L14L
g239
(lp345
(g47
I0
F19.0
tp346
a(g49
F19.0
F37.0
tp347
a(g51
F48.0
F426.0
tp348
a(g53
F468.0
F861.0
tp349
atp350
a(L16L
g17
(lp351
(g59
F573.0
F725.0
tp352
atp353
a(L17L
g17
(lp354
(g63
I0
F0.0
tp355
a(g57
I0
F6.0
tp356
a(g65
F11.0
F215.0
tp357
a(g67
F453.0
F600.0
tp358
atp359
a(L50L
g107
(lp360
(g71
I0
F11.0
tp361
a(g73
F11.0
F435.0
tp362
a(g77
F446.0
F613.0
tp363
atp364
a(L19L
g17
(lp365
(g81
F12.0
F87.0
tp366
a(g83
F87.0
F219.0
tp367
a(g85
F443.0
F655.0
tp368
a(g131
F655.0
F801.0
tp369
a(g87
F1082.0
F1084.0
tp370
atp371
a(L20L
g17
(lp372
(g91
I0
F5.0
tp373
a(g93
F18.0
F167.0
tp374
a(g75
F454.0
F571.0
tp375
a(g95
F571.0
F573.0
tp376
a(g97
F573.0
F718.0
tp377
atp378
a(L23L
g100
(lp379
(g102
I0
F49.0
tp380
a(g104
F440.0
F454.0
tp381
atp382
a(L24L
g2
(lp383
(g109
F1084.0
F1084.0
tp384
atp385
a(L26L
g107
(lp386
(g113
I0
F11.0
tp387
a(g115
F11.0
F22.0
tp388
a(g117
F22.0
F311.0
tp389
a(g119
F440.0
F443.0
tp390
a(g121
F445.0
F680.0
tp391
atp392
a(L10L
g100
(lp393
(g125
I0
F48.0
tp394
a(g127
F440.0
F454.0
tp395
a(g129
F454.0
F468.0
tp396
atp397
a(L5L
g107
(lp398
(g135
I0
F12.0
tp399
a(g137
F49.0
F354.0
tp400
a(g139
F454.0
F849.0
tp401
atp402
atp403
a(F1252.0
F8.53
(lp404
(L51L
g100
(lp405
(g4
F608.0
F621.0
tp406
a(g6
F621.0
F634.0
tp407
a(g8
F634.0
F647.0
tp408
atp409
a(L37L
g100
(lp410
(g12
I0
F49.0
tp411
a(g39
F608.0
F621.0
tp412
a(g14
F621.0
F636.0
tp413
atp414
a(L7L
g107
(lp415
(g19
F49.0
F394.0
tp416
a(g21
F608.0
F611.0
tp417
atp418
a(L9L
g107
(lp419
(g25
F17.0
F351.0
tp420
a(g27
F634.0
F1013.0
tp421
atp422
a(L42L
g239
(lp423
(g31
I0
F18.0
tp424
a(g33
F18.0
F303.0
tp425
a(g35
F303.0
F603.0
tp426
a(g37
F603.0
F608.0
tp427
a(g41
F608.0
F613.0
tp428
a(g43
F613.0
F1250.0
tp429
atp430
a(L14L
g17
(lp431
(g47
I0
F6.0
tp432
a(g49
F6.0
F12.0
tp433
a(g51
F48.0
F164.0
tp434
a(g53
F636.0
F757.0
tp435
atp436
a(L16L
g2
(lp437
(g57
I0
F22.0
tp438
a(g59
F618.0
F1226.0
tp439
atp440
a(L17L
g107
(lp441
(g63
I0
F0.0
tp442
a(g65
F11.0
F419.0
tp443
a(g67
F621.0
F915.0
tp444
atp445
a(L50L
g107
(lp446
(g71
I0
F11.0
tp447
a(g73
F11.0
F435.0
tp448
a(g75
F613.0
F848.0
tp449
a(g77
F848.0
F1015.0
tp450
atp451
a(L19L
g17
(lp452
(g81
F12.0
F87.0
tp453
a(g83
F87.0
F219.0
tp454
a(g85
F611.0
F823.0
tp455
a(g131
F823.0
F969.0
tp456
a(g87
F1250.0
F1252.0
tp457
atp458
a(L20L
g239
(lp459
(g91
I0
F17.0
tp460
a(g93
F18.0
F501.0
tp461
a(g104
F608.0
F613.0
tp462
a(g95
F613.0
F618.0
tp463
a(g97
F636.0
F1108.0
tp464
atp465
a(L41L
Vapac-sin#m1.medium
p466
(lp467
(g109
F1252.0
F1252.0
tp468
atp469
a(L23L
g100
(lp470
(g102
I0
F49.0
tp471
atp472
a(L26L
g107
(lp473
(g113
I0
F11.0
tp474
a(g115
F11.0
F22.0
tp475
a(g117
F22.0
F311.0
tp476
a(g119
F608.0
F611.0
tp477
a(g121
F613.0
F848.0
tp478
atp479
a(L10L
g100
(lp480
(g125
I0
F48.0
tp481
a(g127
F608.0
F622.0
tp482
a(g129
F622.0
F636.0
tp483
atp484
a(L5L
g107
(lp485
(g135
I0
F12.0
tp486
a(g137
F49.0
F354.0
tp487
a(g139
F622.0
F1017.0
tp488
atp489
atp490
a(F1964.0
F7.25
(lp491
(L51L
g2
(lp492
(g4
F1009.0
F1015.0
tp493
a(g6
F1015.0
F1021.0
tp494
a(g8
F1021.0
F1027.0
tp495
atp496
a(L37L
g466
(lp497
(g12
I0
F73.0
tp498
a(g95
F1009.0
F1029.0
tp499
a(g14
F1029.0
F1052.0
tp500
atp501
a(L7L
g107
(lp502
(g19
F73.0
F418.0
tp503
a(g21
F1009.0
F1012.0
tp504
atp505
a(L9L
g107
(lp506
(g25
F35.0
F369.0
tp507
a(g27
F1021.0
F1400.0
tp508
atp509
a(L42L
g2
(lp510
(g31
I0
F22.0
tp511
a(g33
F22.0
F373.0
tp512
a(g35
F373.0
F742.0
tp513
a(g37
F1002.0
F1009.0
tp514
a(g39
F1009.0
F1015.0
tp515
a(g41
F1015.0
F1021.0
tp516
a(g43
F1021.0
F1805.0
tp517
atp518
a(L14L
g17
(lp519
(g47
I0
F6.0
tp520
a(g49
F6.0
F12.0
tp521
a(g51
F12.0
F128.0
tp522
a(g53
F1052.0
F1173.0
tp523
atp524
a(L16L
g2
(lp525
(g59
F1029.0
F1637.0
tp526
atp527
a(L17L
g2
(lp528
(g63
I0
F0.0
tp529
a(g57
I0
F22.0
tp530
a(g65
F22.0
F838.0
tp531
a(g67
F1015.0
F1603.0
tp532
atp533
a(L50L
g2
(lp534
(g71
I0
F22.0
tp535
a(g73
F22.0
F870.0
tp536
a(g75
F1023.0
F1492.0
tp537
a(g77
F1492.0
F1826.0
tp538
atp539
a(L19L
g2
(lp540
(g81
F12.0
F313.0
tp541
a(g83
F313.0
F843.0
tp542
a(g85
F1015.0
F1861.0
tp543
a(g87
F1958.0
F1964.0
tp544
atp545
a(L20L
Vapac-sin#m1.large
p546
(lp547
(g91
I0
F35.0
tp548
a(g93
F35.0
F1002.0
tp549
a(g97
F1013.0
F1958.0
tp550
atp551
a(L23L
g100
(lp552
(g102
I0
F49.0
tp553
a(g104
F1009.0
F1023.0
tp554
atp555
a(L24L
g466
(lp556
(g109
F1964.0
F1964.0
tp557
atp558
a(L26L
g2
(lp559
(g113
I0
F22.0
tp560
a(g115
F22.0
F45.0
tp561
a(g117
F45.0
F624.0
tp562
a(g119
F1009.0
F1015.0
tp563
a(g121
F1021.0
F1491.0
tp564
atp565
a(L10L
g17
(lp566
(g125
I0
F6.0
tp567
a(g127
F1009.0
F1011.0
tp568
a(g129
F1011.0
F1013.0
tp569
a(g131
F1027.0
F1173.0
tp570
atp571
a(L5L
g107
(lp572
(g135
I0
F12.0
tp573
a(g137
F49.0
F354.0
tp574
a(g139
F1011.0
F1406.0
tp575
atp576
atp577
a(F1973.0
F5.05
(lp578
(L51L
g546
(lp579
(g4
F1009.0
F1019.0
tp580
a(g6
F1019.0
F1029.0
tp581
a(g8
F1029.0
F1039.0
tp582
atp583
a(L37L
g466
(lp584
(g12
I0
F73.0
tp585
a(g95
F1009.0
F1029.0
tp586
a(g14
F1029.0
F1052.0
tp587
atp588
a(L7L
g107
(lp589
(g19
F73.0
F418.0
tp590
a(g21
F1009.0
F1012.0
tp591
atp592
a(L9L
g2
(lp593
(g25
F35.0
F703.0
tp594
a(g27
F1029.0
F1788.0
tp595
atp596
a(L42L
g2
(lp597
(g31
I0
F22.0
tp598
a(g33
F45.0
F396.0
tp599
a(g35
F396.0
F765.0
tp600
a(g37
F1002.0
F1009.0
tp601
a(g39
F1009.0
F1015.0
tp602
a(g41
F1015.0
F1021.0
tp603
a(g43
F1021.0
F1805.0
tp604
atp605
a(L14L
g2
(lp606
(g47
I0
F23.0
tp607
a(g49
F23.0
F45.0
tp608
a(g51
F45.0
F510.0
tp609
a(g53
F1052.0
F1536.0
tp610
atp611
a(L16L
g2
(lp612
(g59
F1029.0
F1637.0
tp613
atp614
a(L17L
g2
(lp615
(g63
I0
F0.0
tp616
a(g57
I0
F22.0
tp617
a(g65
F22.0
F838.0
tp618
a(g67
F1015.0
F1603.0
tp619
atp620
a(L50L
g2
(lp621
(g71
I0
F22.0
tp622
a(g73
F22.0
F870.0
tp623
a(g75
F1023.0
F1492.0
tp624
a(g77
F1492.0
F1826.0
tp625
atp626
a(L19L
g2
(lp627
(g81
F12.0
F313.0
tp628
a(g83
F313.0
F843.0
tp629
a(g85
F1015.0
F1861.0
tp630
a(g87
F1967.0
F1973.0
tp631
atp632
a(L20L
g546
(lp633
(g91
I0
F35.0
tp634
a(g93
F35.0
F1002.0
tp635
a(g97
F1022.0
F1967.0
tp636
atp637
a(L23L
g100
(lp638
(g102
I0
F49.0
tp639
a(g104
F1009.0
F1023.0
tp640
atp641
a(L24L
g466
(lp642
(g109
F1973.0
F1973.0
tp643
atp644
a(L26L
g2
(lp645
(g113
I0
F22.0
tp646
a(g115
F22.0
F45.0
tp647
a(g117
F45.0
F624.0
tp648
a(g119
F1009.0
F1015.0
tp649
a(g121
F1021.0
F1491.0
tp650
atp651
a(L10L
g2
(lp652
(g125
I0
F22.0
tp653
a(g127
F1009.0
F1015.0
tp654
a(g129
F1015.0
F1022.0
tp655
a(g131
F1039.0
F1624.0
tp656
atp657
a(L5L
g107
(lp658
(g135
I0
F12.0
tp659
a(g137
F49.0
F354.0
tp660
a(g139
F1015.0
F1410.0
tp661
atp662
atp663
a(F2767.0
F3.55
(lp664
(L0L
Vapac-sin#m1.small
p665
(lp666
(g12
I0
F146.0
tp667
a(g119
F1403.0
F1444.0
tp668
atp669
a(L1L
g100
(lp670
(g31
I0
F48.0
tp671
a(g135
F48.0
F98.0
tp672
a(g93
F98.0
F1387.0
tp673
a(g97
F1417.0
F2677.0
tp674
atp675
a(L35L
g466
(lp676
(g81
F98.0
F1076.0
tp677
a(g77
F1415.0
F2500.0
tp678
atp679
a(L36L
g2
(lp680
(g127
F1403.0
F1409.0
tp681
a(g4
F1409.0
F1415.0
tp682
a(g6
F1415.0
F1421.0
tp683
a(g131
F1421.0
F2006.0
tp684
a(g53
F2006.0
F2490.0
tp685
atp686
a(L37L
g466
(lp687
(g14
F1403.0
F1426.0
tp688
atp689
a(L6L
g2
(lp690
(g91
I0
F21.0
tp691
a(g51
F22.0
F487.0
tp692
a(g65
F487.0
F1303.0
tp693
a(g67
F1409.0
F1997.0
tp694
a(g27
F1997.0
F2756.0
tp695
atp696
a(L7L
g2
(lp697
(g125
I0
F22.0
tp698
a(g137
F97.0
F706.0
tp699
a(g19
F706.0
F1396.0
tp700
a(g39
F1403.0
F1409.0
tp701
a(g21
F1409.0
F1415.0
tp702
atp703
a(L42L
g2
(lp704
(g35
F149.0
F518.0
tp705
a(g37
F1396.0
F1403.0
tp706
a(g8
F1403.0
F1409.0
tp707
a(g43
F1415.0
F2199.0
tp708
atp709
a(L11L
g546
(lp710
(g109
F2767.0
F2767.0
tp711
atp712
a(L13L
g100
(lp713
(g71
I0
F48.0
tp714
a(g102
F48.0
F97.0
tp715
a(g33
F97.0
F857.0
tp716
a(g129
F1403.0
F1417.0
tp717
atp718
a(L14L
g239
(lp719
(g63
I0
F0.0
tp720
atp721
a(L50L
g2
(lp722
(g113
I0
F22.0
tp723
a(g49
F22.0
F44.0
tp724
a(g73
F48.0
F896.0
tp725
a(g75
F1406.0
F1875.0
tp726
atp727
a(L19L
g2
(lp728
(g83
F98.0
F628.0
tp729
a(g25
F628.0
F1296.0
tp730
a(g85
F1444.0
F2290.0
tp731
a(g87
F2761.0
F2767.0
tp732
atp733
a(L23L
g665
(lp734
(g95
F1403.0
F1443.0
tp735
atp736
a(L24L
g665
(lp737
(g47
I0
F149.0
tp738
atp739
a(L25L
g100
(lp740
(g115
I0
F49.0
tp741
a(g57
F49.0
F98.0
tp742
a(g59
F1443.0
F2761.0
tp743
atp744
a(L26L
g107
(lp745
(g117
F49.0
F338.0
tp746
a(g104
F1403.0
F1406.0
tp747
a(g139
F1409.0
F1804.0
tp748
a(g41
F1804.0
F1807.0
tp749
a(g121
F1807.0
F2042.0
tp750
atp751
atp752
a.