(lp0
(F411.0
F8.82
(lp1
(L0L
Vapac-sin#m3.2xlarge
p2
(lp3
(VID00000
p4
I0
F5.0
tp5
a(VID00011
p6
F11.0
F176.0
tp7
a(VID00027
p8
F217.0
F374.0
tp9
atp10
a(L6L
g2
(lp11
(VID00009
p12
F11.0
F194.0
tp13
a(VID00015
p14
F215.0
F217.0
tp15
a(VID00022
p16
F217.0
F410.0
tp17
atp18
a(L9L
g2
(lp19
(VID00010
p20
F16.0
F176.0
tp21
a(VID00016
p22
F215.0
F217.0
tp23
a(VID00028
p24
F217.0
F329.0
tp25
atp26
a(L10L
Vapac-sin#m3.xlarge
p27
(lp28
(S'entry'
p29
I0
F0.0
tp30
atp31
a(L11L
g2
(lp32
(VID00001
p33
I0
F6.0
tp34
a(VID00008
p35
F6.0
F114.0
tp36
a(VID00018
p37
F215.0
F217.0
tp38
atp39
a(L17L
g2
(lp40
(VID00005
p41
I0
F5.0
tp42
a(VID00004
p43
F5.0
F11.0
tp44
a(VID00003
p45
F11.0
F16.0
tp46
a(VID00013
p47
F16.0
F122.0
tp48
a(VID00014
p49
F213.0
F215.0
tp50
a(VID00023
p51
F217.0
F406.0
tp52
a(VID00029
p53
F410.0
F411.0
tp54
atp55
a(L19L
g2
(lp56
(S'exit'
p57
F411.0
F411.0
tp58
atp59
a(L24L
g2
(lp60
(VID00006
p61
I0
F6.0
tp62
a(VID00002
p63
F6.0
F11.0
tp64
a(VID00012
p65
F11.0
F113.0
tp66
a(VID00020
p67
F215.0
F217.0
tp68
a(VID00017
p69
F217.0
F219.0
tp70
a(VID00024
p71
F219.0
F348.0
tp72
atp73
a(L26L
g2
(lp74
(VID00007
p75
F5.0
F213.0
tp76
a(VID00021
p77
F215.0
F217.0
tp78
a(VID00025
p79
F217.0
F296.0
tp80
a(VID00019
p81
F296.0
F298.0
tp82
a(VID00026
p83
F298.0
F392.0
tp84
atp85
atp86
a(F659.0
F8.19
(lp87
(L0L
g27
(lp88
(g4
I0
F11.0
tp89
a(g6
F11.0
F340.0
tp90
a(g8
F344.0
F658.0
tp91
atp92
a(L6L
g2
(lp93
(g43
I0
F6.0
tp94
a(g33
F6.0
F12.0
tp95
a(g12
F12.0
F195.0
tp96
a(g14
F342.0
F344.0
tp97
a(g16
F344.0
F537.0
tp98
atp99
a(L8L
Vapac-sin#m1.xlarge
p100
(lp101
(g29
I0
F0.0
tp102
atp103
a(L9L
g2
(lp104
(g20
F5.0
F165.0
tp105
a(g22
F342.0
F344.0
tp106
a(g24
F344.0
F456.0
tp107
atp108
a(L11L
g2
(lp109
(g41
I0
F5.0
tp110
a(g35
F12.0
F120.0
tp111
a(g37
F342.0
F344.0
tp112
atp113
a(L17L
g2
(lp114
(g45
I0
F5.0
tp115
a(g47
F6.0
F112.0
tp116
a(g49
F340.0
F342.0
tp117
a(g51
F344.0
F533.0
tp118
a(g53
F658.0
F659.0
tp119
atp120
a(L19L
g2
(lp121
(g57
F659.0
F659.0
tp122
atp123
a(L24L
g2
(lp124
(g61
I0
F6.0
tp125
a(g63
F6.0
F11.0
tp126
a(g65
F11.0
F113.0
tp127
a(g67
F342.0
F344.0
tp128
a(g69
F344.0
F346.0
tp129
a(g71
F346.0
F475.0
tp130
atp131
a(L26L
g2
(lp132
(g75
F11.0
F219.0
tp133
a(g77
F342.0
F344.0
tp134
a(g79
F344.0
F423.0
tp135
a(g81
F423.0
F425.0
tp136
a(g83
F425.0
F519.0
tp137
atp138
atp139
a(F845.0
F5.98
(lp140
(L0L
g27
(lp141
(g4
I0
F11.0
tp142
a(g6
F11.0
F340.0
tp143
a(g8
F457.0
F771.0
tp144
atp145
a(L6L
g27
(lp146
(g43
I0
F11.0
tp147
a(g33
F11.0
F22.0
tp148
a(g12
F22.0
F388.0
tp149
a(g14
F455.0
F459.0
tp150
a(g16
F459.0
F844.0
tp151
atp152
a(L8L
g27
(lp153
(g29
I0
F0.0
tp154
atp155
a(L9L
g27
(lp156
(g20
F5.0
F325.0
tp157
a(g22
F455.0
F458.0
tp158
a(g24
F458.0
F683.0
tp159
atp160
a(L11L
Vapac-sin#m3.large
p161
(lp162
(g41
I0
F22.0
tp163
a(g35
F22.0
F453.0
tp164
a(g37
F455.0
F461.0
tp165
atp166
a(L17L
g2
(lp167
(g45
I0
F5.0
tp168
a(g47
F6.0
F112.0
tp169
a(g51
F458.0
F647.0
tp170
a(g53
F844.0
F845.0
tp171
atp172
a(L19L
g2
(lp173
(g57
F845.0
F845.0
tp174
atp175
a(L24L
g2
(lp176
(g61
I0
F6.0
tp177
a(g63
F6.0
F11.0
tp178
a(g65
F22.0
F124.0
tp179
a(g67
F455.0
F457.0
tp180
a(g69
F457.0
F459.0
tp181
a(g71
F459.0
F588.0
tp182
atp183
a(L26L
g2
(lp184
(g75
F11.0
F219.0
tp185
a(g49
F453.0
F455.0
tp186
a(g77
F455.0
F457.0
tp187
a(g79
F461.0
F540.0
tp188
a(g81
F540.0
F542.0
tp189
a(g83
F542.0
F636.0
tp190
atp191
atp192
a(F887.0
F4.1
(lp193
(L0L
g27
(lp194
(g4
I0
F11.0
tp195
a(g6
F11.0
F340.0
tp196
a(g8
F461.0
F775.0
tp197
atp198
a(L6L
g27
(lp199
(g43
I0
F11.0
tp200
a(g33
F11.0
F22.0
tp201
a(g12
F36.0
F402.0
tp202
a(g14
F456.0
F460.0
tp203
a(g16
F460.0
F845.0
tp204
atp205
a(L8L
g27
(lp206
(g29
I0
F0.0
tp207
atp208
a(L9L
g27
(lp209
(g20
F11.0
F331.0
tp210
a(g22
F456.0
F459.0
tp211
a(g24
F459.0
F684.0
tp212
atp213
a(L11L
g161
(lp214
(g41
I0
F22.0
tp215
a(g35
F22.0
F453.0
tp216
a(g37
F456.0
F462.0
tp217
atp218
a(L17L
g27
(lp219
(g45
I0
F11.0
tp220
a(g47
F18.0
F230.0
tp221
a(g49
F453.0
F456.0
tp222
a(g51
F459.0
F836.0
tp223
a(g53
F884.0
F887.0
tp224
atp225
a(L19L
g161
(lp226
(g57
F887.0
F887.0
tp227
atp228
a(L24L
g100
(lp229
(g61
I0
F18.0
tp230
a(g63
F18.0
F36.0
tp231
a(g65
F36.0
F368.0
tp232
a(g67
F456.0
F461.0
tp233
a(g69
F461.0
F466.0
tp234
a(g71
F466.0
F884.0
tp235
atp236
a(L26L
g27
(lp237
(g75
F11.0
F426.0
tp238
a(g77
F456.0
F459.0
tp239
a(g79
F462.0
F619.0
tp240
a(g81
F619.0
F622.0
tp241
a(g83
F622.0
F810.0
tp242
atp243
atp244
a(F1550.0
F3.79
(lp245
(L0L
g27
(lp246
(g4
I0
F11.0
tp247
a(g6
F11.0
F340.0
tp248
a(g8
F849.0
F1163.0
tp249
atp250
a(L6L
g27
(lp251
(g43
I0
F11.0
tp252
a(g33
F11.0
F22.0
tp253
a(g12
F36.0
F402.0
tp254
a(g14
F844.0
F848.0
tp255
a(g16
F848.0
F1233.0
tp256
atp257
a(L8L
g27
(lp258
(g29
I0
F0.0
tp259
atp260
a(L9L
g27
(lp261
(g20
F11.0
F331.0
tp262
a(g22
F844.0
F847.0
tp263
a(g24
F850.0
F1075.0
tp264
atp265
a(L11L
g161
(lp266
(g41
I0
F22.0
tp267
a(g35
F22.0
F453.0
tp268
a(g37
F844.0
F850.0
tp269
atp270
a(L17L
g27
(lp271
(g45
I0
F11.0
tp272
a(g47
F18.0
F230.0
tp273
a(g49
F841.0
F844.0
tp274
a(g51
F847.0
F1224.0
tp275
a(g53
F1547.0
F1550.0
tp276
atp277
a(L19L
g161
(lp278
(g57
F1550.0
F1550.0
tp279
atp280
a(L24L
g100
(lp281
(g61
I0
F18.0
tp282
a(g63
F18.0
F36.0
tp283
a(g65
F36.0
F368.0
tp284
a(g67
F844.0
F849.0
tp285
a(g69
F849.0
F854.0
tp286
a(g71
F854.0
F1272.0
tp287
atp288
a(L26L
g161
(lp289
(g75
F11.0
F841.0
tp290
a(g77
F844.0
F850.0
tp291
a(g79
F850.0
F1165.0
tp292
a(g81
F1165.0
F1171.0
tp293
a(g83
F1171.0
F1547.0
tp294
atp295
atp296
a(F1625.0
F3.16
(lp297
(L0L
g27
(lp298
(g4
I0
F11.0
tp299
a(g6
F22.0
F351.0
tp300
a(g8
F849.0
F1163.0
tp301
atp302
a(L6L
g161
(lp303
(g43
I0
F22.0
tp304
a(g33
F22.0
F44.0
tp305
a(g12
F44.0
F776.0
tp306
a(g14
F844.0
F851.0
tp307
a(g16
F851.0
F1622.0
tp308
atp309
a(L8L
g27
(lp310
(g29
I0
F0.0
tp311
atp312
a(L9L
g161
(lp313
(g20
F11.0
F650.0
tp314
a(g22
F844.0
F851.0
tp315
a(g24
F851.0
F1300.0
tp316
atp317
a(L11L
g161
(lp318
(g41
I0
F22.0
tp319
a(g35
F44.0
F475.0
tp320
a(g37
F844.0
F850.0
tp321
atp322
a(L17L
g27
(lp323
(g45
I0
F11.0
tp324
a(g47
F18.0
F230.0
tp325
a(g49
F841.0
F844.0
tp326
a(g51
F851.0
F1228.0
tp327
a(g53
F1622.0
F1625.0
tp328
atp329
a(L19L
g161
(lp330
(g57
F1625.0
F1625.0
tp331
atp332
a(L24L
g100
(lp333
(g61
I0
F18.0
tp334
a(g63
F18.0
F36.0
tp335
a(g65
F36.0
F368.0
tp336
a(g67
F844.0
F849.0
tp337
a(g69
F849.0
F854.0
tp338
a(g71
F854.0
F1272.0
tp339
atp340
a(L26L
g161
(lp341
(g75
F11.0
F841.0
tp342
a(g77
F844.0
F850.0
tp343
a(g79
F850.0
F1165.0
tp344
a(g81
F1165.0
F1171.0
tp345
a(g83
F1171.0
F1547.0
tp346
atp347
atp348
a(F2639.0
F2.84
(lp349
(L0L
g27
(lp350
(g4
I0
F11.0
tp351
a(g6
F11.0
F340.0
tp352
a(g8
F1003.0
F1317.0
tp353
atp354
a(L6L
g27
(lp355
(g43
I0
F11.0
tp356
a(g33
F11.0
F22.0
tp357
a(g12
F96.0
F462.0
tp358
a(g14
F989.0
F993.0
tp359
a(g16
F993.0
F1378.0
tp360
atp361
a(L8L
g27
(lp362
(g29
I0
F0.0
tp363
atp364
a(L9L
g27
(lp365
(g20
F47.0
F367.0
tp366
a(g22
F989.0
F992.0
tp367
a(g24
F995.0
F1220.0
tp368
atp369
a(L11L
g161
(lp370
(g41
I0
F22.0
tp371
a(g35
F22.0
F453.0
tp372
a(g37
F989.0
F995.0
tp373
atp374
a(L17L
Vapac-sin#m3.medium
p375
(lp376
(g45
I0
F47.0
tp377
a(g47
F49.0
F967.0
tp378
a(g51
F992.0
F2626.0
tp379
a(g53
F2626.0
F2639.0
tp380
atp381
a(L19L
g27
(lp382
(g57
F2639.0
F2639.0
tp383
atp384
a(L24L
g375
(lp385
(g61
I0
F49.0
tp386
a(g63
F49.0
F96.0
tp387
a(g65
F96.0
F982.0
tp388
a(g67
F989.0
F1003.0
tp389
a(g69
F1003.0
F1016.0
tp390
a(g71
F1016.0
F2132.0
tp391
atp392
a(L26L
g161
(lp393
(g75
F11.0
F841.0
tp394
a(g49
F982.0
F989.0
tp395
a(g77
F989.0
F995.0
tp396
a(g79
F995.0
F1310.0
tp397
a(g81
F1310.0
F1316.0
tp398
a(g83
F1316.0
F1692.0
tp399
atp400
atp401
a(F3118.0
F1.73
(lp402
(L0L
g375
(lp403
(g6
F22.0
F1449.0
tp404
a(g8
F1478.0
F2839.0
tp405
atp406
a(L6L
g161
(lp407
(g43
I0
F22.0
tp408
a(g12
F144.0
F876.0
tp409
a(g65
F876.0
F1285.0
tp410
a(g14
F1464.0
F1471.0
tp411
a(g16
F1471.0
F2242.0
tp412
atp413
a(L8L
g27
(lp414
(g29
I0
F0.0
tp415
atp416
a(L9L
g161
(lp417
(g20
F47.0
F686.0
tp418
a(g22
F1464.0
F1471.0
tp419
a(g24
F1471.0
F1920.0
tp420
atp421
a(L11L
g161
(lp422
(g41
I0
F22.0
tp423
a(g35
F97.0
F528.0
tp424
a(g37
F1464.0
F1470.0
tp425
atp426
a(L17L
g375
(lp427
(g45
I0
F47.0
tp428
a(g47
F49.0
F967.0
tp429
a(g49
F1449.0
F1464.0
tp430
a(g51
F1471.0
F3105.0
tp431
a(g53
F3105.0
F3118.0
tp432
atp433
a(L19L
g27
(lp434
(g57
F3118.0
F3118.0
tp435
atp436
a(L24L
g375
(lp437
(g61
I0
F49.0
tp438
a(g33
F49.0
F97.0
tp439
a(g63
F97.0
F144.0
tp440
a(g67
F1464.0
F1478.0
tp441
a(g69
F1478.0
F1491.0
tp442
a(g71
F1491.0
F2607.0
tp443
atp444
a(L26L
g161
(lp445
(g4
I0
F22.0
tp446
a(g75
F22.0
F852.0
tp447
a(g77
F1464.0
F1470.0
tp448
a(g79
F1470.0
F1785.0
tp449
a(g81
F1785.0
F1791.0
tp450
a(g83
F1791.0
F2167.0
tp451
atp452
atp453
a.