(lp0
(F14.0
F11.34
(lp1
(L2L
Vapac-sin#m3.2xlarge
p2
(lp3
(S'entry'
p4
I0
F0.0
tp5
a(VID00004
p6
I0
F4.0
tp7
a(VID00006
p8
F4.0
F7.0
tp9
a(VID00014
p10
F7.0
F7.0
tp11
a(VID00015
p12
F7.0
F7.0
tp13
a(VID00020
p14
F7.0
F10.0
tp15
a(VID00021
p16
F10.0
F10.0
tp17
a(VID00022
p18
F10.0
F11.0
tp19
a(VID00023
p20
F11.0
F12.0
tp21
a(VID00024
p22
F12.0
F12.0
tp23
a(S'exit'
p24
F12.0
F12.0
tp25
atp26
a(L8L
g2
(lp27
(VID00001
p28
I0
F4.0
tp29
a(VID00005
p30
F4.0
F7.0
tp31
a(VID00017
p32
F7.0
F10.0
tp33
atp34
a(L9L
g2
(lp35
(VID00000
p36
I0
F4.0
tp37
a(VID00007
p38
F4.0
F7.0
tp39
a(VID00016
p40
F7.0
F10.0
tp41
atp42
a(L10L
g2
(lp43
(VID00003
p44
I0
F4.0
tp45
a(VID00009
p46
F4.0
F7.0
tp47
a(VID00018
p48
F7.0
F10.0
tp49
atp50
a(L11L
g2
(lp51
(VID00002
p52
I0
F4.0
tp53
a(VID00008
p54
F4.0
F7.0
tp55
a(VID00019
p56
F7.0
F10.0
tp57
atp58
a(L12L
g2
(lp59
(VID00012
p60
F4.0
F7.0
tp61
atp62
a(L13L
g2
(lp63
(VID00013
p64
F4.0
F7.0
tp65
atp66
a(L14L
g2
(lp67
(VID00010
p68
F4.0
F7.0
tp69
atp70
a(L15L
g2
(lp71
(VID00011
p72
F4.0
F7.0
tp73
atp74
atp75
a(F17.0
F8.82
(lp76
(L2L
g2
(lp77
(g4
I0
F0.0
tp78
a(g6
I0
F4.0
tp79
a(g8
F4.0
F7.0
tp80
a(g10
F10.0
F10.0
tp81
a(g12
F10.0
F10.0
tp82
a(g14
F10.0
F13.0
tp83
a(g16
F13.0
F13.0
tp84
a(g18
F13.0
F14.0
tp85
a(g20
F14.0
F15.0
tp86
a(g22
F15.0
F15.0
tp87
a(g24
F15.0
F15.0
tp88
atp89
a(L8L
g2
(lp90
(g28
I0
F4.0
tp91
a(g30
F4.0
F7.0
tp92
a(g32
F10.0
F13.0
tp93
atp94
a(L9L
g2
(lp95
(g36
I0
F4.0
tp96
a(g38
F4.0
F7.0
tp97
a(g40
F10.0
F13.0
tp98
atp99
a(L10L
g2
(lp100
(g44
I0
F4.0
tp101
a(g46
F4.0
F7.0
tp102
a(g48
F10.0
F13.0
tp103
atp104
a(L11L
g2
(lp105
(g52
I0
F4.0
tp106
a(g54
F4.0
F7.0
tp107
a(g64
F7.0
F10.0
tp108
a(g56
F10.0
F13.0
tp109
atp110
a(L12L
g2
(lp111
(g60
F4.0
F7.0
tp112
atp113
a(L15L
g2
(lp114
(g68
F4.0
F7.0
tp115
a(g72
F7.0
F10.0
tp116
atp117
atp118
a(F18.0
F6.3
(lp119
(L8L
g2
(lp120
(g28
I0
F4.0
tp121
a(g30
F4.0
F7.0
tp122
a(g68
F7.0
F10.0
tp123
a(g32
F10.0
F13.0
tp124
atp125
a(L9L
g2
(lp126
(g36
I0
F4.0
tp127
a(g46
F4.0
F7.0
tp128
a(g60
F7.0
F10.0
tp129
a(g40
F10.0
F13.0
tp130
atp131
a(L2L
g2
(lp132
(g4
I0
F0.0
tp133
a(g6
I0
F4.0
tp134
a(g8
F4.0
F7.0
tp135
a(g54
F7.0
F10.0
tp136
a(g10
F10.0
F10.0
tp137
a(g12
F10.0
F10.0
tp138
a(g14
F10.0
F13.0
tp139
a(g16
F13.0
F13.0
tp140
a(g18
F13.0
F14.0
tp141
a(g20
F14.0
F15.0
tp142
a(g24
F15.0
F15.0
tp143
atp144
a(L11L
g2
(lp145
(g52
I0
F4.0
tp146
a(g64
F4.0
F7.0
tp147
a(g72
F7.0
F10.0
tp148
a(g56
F10.0
F13.0
tp149
a(g22
F15.0
F15.0
tp150
atp151
a(L10L
g2
(lp152
(g44
I0
F4.0
tp153
a(g38
F4.0
F7.0
tp154
a(g48
F10.0
F13.0
tp155
atp156
atp157
a(F24.0
F5.04
(lp158
(L8L
g2
(lp159
(g28
I0
F4.0
tp160
a(g52
F4.0
F8.0
tp161
a(g72
F8.0
F11.0
tp162
atp163
a(L9L
g2
(lp164
(g36
I0
F4.0
tp165
a(g8
F4.0
F7.0
tp166
a(g30
F7.0
F10.0
tp167
a(g54
F10.0
F13.0
tp168
a(g48
F13.0
F16.0
tp169
atp170
a(L2L
g2
(lp171
(g4
I0
F0.0
tp172
a(g6
I0
F4.0
tp173
a(g60
F4.0
F7.0
tp174
a(g64
F7.0
F10.0
tp175
a(g68
F10.0
F13.0
tp176
a(g10
F13.0
F13.0
tp177
a(g12
F13.0
F13.0
tp178
a(g14
F13.0
F16.0
tp179
a(g32
F16.0
F19.0
tp180
a(g16
F19.0
F19.0
tp181
a(g18
F19.0
F20.0
tp182
a(g20
F20.0
F21.0
tp183
a(g22
F21.0
F21.0
tp184
a(g24
F21.0
F21.0
tp185
atp186
a(L10L
g2
(lp187
(g44
I0
F4.0
tp188
a(g38
F4.0
F7.0
tp189
a(g46
F8.0
F11.0
tp190
a(g40
F13.0
F16.0
tp191
a(g56
F16.0
F19.0
tp192
atp193
atp194
a(F25.0
F4.41
(lp195
(L8L
Vapac-sin#m3.xlarge
p196
(lp197
(g52
I0
F8.0
tp198
a(g72
F8.0
F14.0
tp199
a(g32
F14.0
F21.0
tp200
atp201
a(L9L
g2
(lp202
(g28
I0
F4.0
tp203
a(g8
F4.0
F7.0
tp204
a(g30
F7.0
F10.0
tp205
a(g54
F10.0
F13.0
tp206
a(g40
F14.0
F17.0
tp207
a(g48
F17.0
F20.0
tp208
atp209
a(L2L
g2
(lp210
(g4
I0
F0.0
tp211
a(g6
I0
F4.0
tp212
a(g60
F4.0
F7.0
tp213
a(g64
F8.0
F11.0
tp214
a(g68
F11.0
F14.0
tp215
a(g12
F14.0
F14.0
tp216
a(g14
F14.0
F17.0
tp217
a(g16
F21.0
F21.0
tp218
a(g18
F21.0
F22.0
tp219
a(g20
F22.0
F23.0
tp220
a(g22
F23.0
F23.0
tp221
a(g24
F23.0
F23.0
tp222
atp223
a(L10L
g2
(lp224
(g36
I0
F4.0
tp225
a(g44
F4.0
F8.0
tp226
a(g38
F8.0
F11.0
tp227
a(g46
F11.0
F14.0
tp228
a(g10
F14.0
F14.0
tp229
a(g56
F14.0
F17.0
tp230
atp231
atp232
a(F28.0
F3.78
(lp233
(L9L
g2
(lp234
(g28
I0
F4.0
tp235
a(g30
F4.0
F7.0
tp236
a(g52
F7.0
F11.0
tp237
a(g54
F11.0
F14.0
tp238
a(g48
F17.0
F20.0
tp239
atp240
a(L2L
g2
(lp241
(g4
I0
F0.0
tp242
a(g6
I0
F4.0
tp243
a(g8
F4.0
F7.0
tp244
a(g60
F7.0
F10.0
tp245
a(g64
F10.0
F13.0
tp246
a(g72
F13.0
F16.0
tp247
a(g12
F17.0
F17.0
tp248
a(g14
F17.0
F20.0
tp249
a(g32
F20.0
F23.0
tp250
a(g16
F23.0
F23.0
tp251
a(g18
F23.0
F24.0
tp252
a(g20
F24.0
F25.0
tp253
a(g22
F25.0
F25.0
tp254
a(g24
F25.0
F25.0
tp255
atp256
a(L10L
g2
(lp257
(g36
I0
F4.0
tp258
a(g44
F4.0
F8.0
tp259
a(g38
F8.0
F11.0
tp260
a(g46
F11.0
F14.0
tp261
a(g68
F14.0
F17.0
tp262
a(g10
F17.0
F17.0
tp263
a(g40
F17.0
F20.0
tp264
a(g56
F20.0
F23.0
tp265
atp266
atp267
a(F32.0
F3.15
(lp268
(L8L
g196
(lp269
(g52
I0
F8.0
tp270
a(g60
F8.0
F15.0
tp271
a(g72
F15.0
F21.0
tp272
a(g32
F21.0
F28.0
tp273
atp274
a(L9L
g196
(lp275
(g36
I0
F8.0
tp276
a(g30
F8.0
F15.0
tp277
a(g46
F15.0
F21.0
tp278
a(g40
F21.0
F27.0
tp279
atp280
a(L2L
g2
(lp281
(g4
I0
F0.0
tp282
a(g6
I0
F4.0
tp283
a(g28
F4.0
F8.0
tp284
a(g8
F8.0
F11.0
tp285
a(g54
F11.0
F14.0
tp286
a(g64
F14.0
F17.0
tp287
a(g68
F17.0
F20.0
tp288
a(g10
F21.0
F21.0
tp289
a(g12
F21.0
F21.0
tp290
a(g48
F21.0
F24.0
tp291
a(g56
F24.0
F27.0
tp292
a(g16
F28.0
F28.0
tp293
a(g18
F28.0
F29.0
tp294
a(g20
F29.0
F30.0
tp295
a(g22
F30.0
F30.0
tp296
a(g24
F30.0
F30.0
tp297
atp298
a(L10L
g196
(lp299
(g44
I0
F8.0
tp300
a(g38
F8.0
F15.0
tp301
a(g14
F21.0
F28.0
tp302
atp303
atp304
a(F38.0
F2.83
(lp305
(L8L
Vapac-sin#m3.large
p306
(lp307
(g52
I0
F16.0
tp308
atp309
a(L9L
g196
(lp310
(g4
I0
F0.0
tp311
a(g36
I0
F8.0
tp312
a(g30
F8.0
F15.0
tp313
a(g54
F16.0
F23.0
tp314
a(g10
F23.0
F23.0
tp315
a(g40
F23.0
F29.0
tp316
atp317
a(L2L
g2
(lp318
(g6
I0
F4.0
tp319
a(g28
F4.0
F8.0
tp320
a(g8
F8.0
F11.0
tp321
a(g60
F11.0
F14.0
tp322
a(g64
F14.0
F17.0
tp323
a(g68
F17.0
F20.0
tp324
a(g72
F20.0
F23.0
tp325
a(g12
F23.0
F23.0
tp326
a(g14
F23.0
F26.0
tp327
a(g32
F26.0
F29.0
tp328
a(g48
F29.0
F32.0
tp329
a(g16
F32.0
F32.0
tp330
a(g18
F32.0
F33.0
tp331
a(g20
F33.0
F34.0
tp332
a(g22
F34.0
F34.0
tp333
a(g24
F34.0
F34.0
tp334
atp335
a(L10L
g196
(lp336
(g44
I0
F8.0
tp337
a(g38
F8.0
F15.0
tp338
a(g46
F16.0
F22.0
tp339
a(g56
F23.0
F30.0
tp340
atp341
atp342
a(F41.0
F2.52
(lp343
(L9L
g196
(lp344
(g36
I0
F8.0
tp345
a(g8
F8.0
F15.0
tp346
a(g30
F15.0
F22.0
tp347
a(g54
F22.0
F29.0
tp348
a(g40
F29.0
F35.0
tp349
atp350
a(L2L
g2
(lp351
(g4
I0
F0.0
tp352
a(g6
I0
F4.0
tp353
a(g28
F4.0
F8.0
tp354
a(g52
F8.0
F12.0
tp355
a(g46
F12.0
F15.0
tp356
a(g60
F15.0
F18.0
tp357
a(g64
F18.0
F21.0
tp358
a(g72
F21.0
F24.0
tp359
a(g10
F29.0
F29.0
tp360
a(g12
F29.0
F29.0
tp361
a(g14
F29.0
F32.0
tp362
a(g32
F32.0
F35.0
tp363
a(g48
F35.0
F38.0
tp364
a(g16
F38.0
F38.0
tp365
a(g18
F38.0
F39.0
tp366
a(g20
F39.0
F40.0
tp367
a(g22
F40.0
F40.0
tp368
a(g24
F40.0
F40.0
tp369
atp370
a(L10L
g196
(lp371
(g44
I0
F8.0
tp372
a(g38
F8.0
F15.0
tp373
a(g68
F15.0
F21.0
tp374
a(g56
F29.0
F36.0
tp375
atp376
atp377
a(F47.0
F2.2
(lp378
(L9L
g196
(lp379
(g36
I0
F8.0
tp380
a(g30
F8.0
F15.0
tp381
a(g38
F17.0
F24.0
tp382
a(g54
F24.0
F31.0
tp383
a(g40
F31.0
F37.0
tp384
atp385
a(L2L
g2
(lp386
(g4
I0
F0.0
tp387
a(g6
I0
F4.0
tp388
a(g28
F4.0
F8.0
tp389
a(g8
F8.0
F11.0
tp390
a(g52
F11.0
F15.0
tp391
a(g60
F15.0
F18.0
tp392
a(g64
F18.0
F21.0
tp393
a(g68
F21.0
F24.0
tp394
a(g72
F24.0
F27.0
tp395
a(g10
F31.0
F31.0
tp396
a(g12
F31.0
F31.0
tp397
a(g14
F31.0
F34.0
tp398
a(g32
F34.0
F37.0
tp399
a(g48
F37.0
F40.0
tp400
a(g16
F44.0
F44.0
tp401
a(g18
F44.0
F45.0
tp402
a(g20
F45.0
F46.0
tp403
a(g22
F46.0
F46.0
tp404
a(g24
F46.0
F46.0
tp405
atp406
a(L10L
g306
(lp407
(g44
I0
F17.0
tp408
a(g46
F17.0
F30.0
tp409
a(g56
F31.0
F44.0
tp410
atp411
atp412
a(F56.0
F1.89
(lp413
(L9L
g196
(lp414
(g28
I0
F9.0
tp415
a(g30
F9.0
F16.0
tp416
a(g52
F16.0
F24.0
tp417
a(g54
F24.0
F31.0
tp418
a(g48
F37.0
F44.0
tp419
atp420
a(L2L
g196
(lp421
(g4
I0
F0.0
tp422
a(g6
I0
F8.0
tp423
a(g8
F9.0
F16.0
tp424
a(g60
F16.0
F23.0
tp425
a(g64
F23.0
F29.0
tp426
a(g72
F29.0
F35.0
tp427
a(g12
F36.0
F37.0
tp428
a(g14
F37.0
F44.0
tp429
a(g32
F44.0
F51.0
tp430
a(g16
F51.0
F52.0
tp431
a(g18
F52.0
F54.0
tp432
a(g20
F54.0
F56.0
tp433
a(g22
F56.0
F56.0
tp434
a(g24
F56.0
F56.0
tp435
atp436
a(L10L
g196
(lp437
(g36
I0
F8.0
tp438
a(g44
F8.0
F16.0
tp439
a(g38
F16.0
F23.0
tp440
a(g46
F24.0
F30.0
tp441
a(g68
F30.0
F36.0
tp442
a(g10
F36.0
F36.0
tp443
a(g40
F37.0
F43.0
tp444
a(g56
F43.0
F50.0
tp445
atp446
atp447
a(F63.0
F1.57
(lp448
(L8L
g306
(lp449
(g52
I0
F16.0
tp450
a(g60
F17.0
F30.0
tp451
a(g72
F30.0
F43.0
tp452
a(g32
F44.0
F57.0
tp453
atp454
a(L9L
g306
(lp455
(g36
I0
F16.0
tp456
a(g30
F17.0
F30.0
tp457
a(g46
F30.0
F43.0
tp458
a(g40
F44.0
F57.0
tp459
atp460
a(L2L
g196
(lp461
(g4
I0
F0.0
tp462
a(g6
I0
F8.0
tp463
a(g28
F8.0
F17.0
tp464
a(g8
F17.0
F24.0
tp465
a(g54
F24.0
F31.0
tp466
a(g64
F31.0
F37.0
tp467
a(g68
F37.0
F43.0
tp468
a(g10
F43.0
F43.0
tp469
a(g12
F43.0
F44.0
tp470
a(g48
F44.0
F51.0
tp471
a(g56
F51.0
F58.0
tp472
a(g16
F58.0
F59.0
tp473
a(g18
F59.0
F61.0
tp474
a(g20
F61.0
F63.0
tp475
a(g22
F63.0
F63.0
tp476
a(g24
F63.0
F63.0
tp477
atp478
a(L10L
g306
(lp479
(g44
I0
F17.0
tp480
a(g38
F17.0
F30.0
tp481
a(g14
F44.0
F57.0
tp482
atp483
atp484
a(F76.0
F1.42
(lp485
(L9L
g306
(lp486
(g36
I0
F16.0
tp487
a(g30
F17.0
F30.0
tp488
a(g54
F36.0
F49.0
tp489
a(g10
F49.0
F50.0
tp490
a(g40
F51.0
F64.0
tp491
atp492
a(L2L
g196
(lp493
(g4
I0
F0.0
tp494
a(g6
I0
F8.0
tp495
a(g28
F8.0
F17.0
tp496
a(g8
F17.0
F24.0
tp497
a(g60
F24.0
F31.0
tp498
a(g64
F31.0
F37.0
tp499
a(g68
F37.0
F43.0
tp500
a(g72
F43.0
F49.0
tp501
a(g12
F50.0
F51.0
tp502
a(g14
F51.0
F58.0
tp503
a(g32
F58.0
F65.0
tp504
a(g48
F65.0
F72.0
tp505
a(g16
F72.0
F73.0
tp506
a(g18
F73.0
F75.0
tp507
a(g20
F75.0
F77.0
tp508
a(g22
F77.0
F77.0
tp509
a(g24
F77.0
F77.0
tp510
atp511
a(L11L
Vapac-sin#m3.medium
p512
(lp513
(g52
I0
F36.0
tp514
atp515
a(L10L
g306
(lp516
(g44
I0
F17.0
tp517
a(g38
F17.0
F30.0
tp518
a(g46
F36.0
F49.0
tp519
a(g56
F51.0
F64.0
tp520
atp521
atp522
a(F83.0
F1.26
(lp523
(L9L
g306
(lp524
(g36
I0
F16.0
tp525
a(g8
F17.0
F30.0
tp526
a(g30
F30.0
F43.0
tp527
a(g54
F43.0
F56.0
tp528
a(g40
F57.0
F70.0
tp529
atp530
a(L2L
g196
(lp531
(g4
I0
F0.0
tp532
a(g6
I0
F8.0
tp533
a(g28
F8.0
F17.0
tp534
a(g52
F17.0
F25.0
tp535
a(g46
F25.0
F31.0
tp536
a(g60
F31.0
F38.0
tp537
a(g64
F38.0
F44.0
tp538
a(g72
F44.0
F50.0
tp539
a(g10
F56.0
F56.0
tp540
a(g12
F56.0
F57.0
tp541
a(g14
F57.0
F64.0
tp542
a(g32
F64.0
F71.0
tp543
a(g48
F71.0
F78.0
tp544
a(g16
F78.0
F79.0
tp545
a(g18
F79.0
F81.0
tp546
a(g20
F81.0
F83.0
tp547
a(g22
F83.0
F83.0
tp548
a(g24
F83.0
F83.0
tp549
atp550
a(L10L
g306
(lp551
(g44
I0
F17.0
tp552
a(g38
F17.0
F30.0
tp553
a(g68
F30.0
F43.0
tp554
a(g56
F57.0
F70.0
tp555
atp556
atp557
a(F104.0
F1.1
(lp558
(L8L
g512
(lp559
(g52
I0
F36.0
tp560
a(g72
F36.0
F64.0
tp561
atp562
a(L9L
g306
(lp563
(g28
I0
F17.0
tp564
a(g30
F17.0
F30.0
tp565
a(g38
F33.0
F46.0
tp566
a(g54
F46.0
F59.0
tp567
a(g40
F67.0
F80.0
tp568
atp569
a(L2L
g306
(lp570
(g4
I0
F0.0
tp571
a(g6
I0
F17.0
tp572
a(g8
F17.0
F30.0
tp573
a(g60
F30.0
F43.0
tp574
a(g64
F43.0
F56.0
tp575
a(g12
F65.0
F67.0
tp576
a(g14
F67.0
F80.0
tp577
a(g32
F80.0
F93.0
tp578
a(g16
F93.0
F95.0
tp579
a(g18
F95.0
F99.0
tp580
a(g20
F99.0
F104.0
tp581
a(g22
F104.0
F105.0
tp582
a(g24
F105.0
F105.0
tp583
atp584
a(L10L
g306
(lp585
(g36
I0
F16.0
tp586
a(g44
F16.0
F33.0
tp587
a(g46
F36.0
F49.0
tp588
a(g68
F49.0
F62.0
tp589
a(g10
F64.0
F65.0
tp590
a(g48
F67.0
F80.0
tp591
a(g56
F80.0
F93.0
tp592
atp593
atp594
a(F112.0
F0.94
(lp595
(L9L
g306
(lp596
(g28
I0
F17.0
tp597
a(g30
F17.0
F30.0
tp598
a(g52
F30.0
F46.0
tp599
a(g54
F46.0
F59.0
tp600
a(g48
F75.0
F88.0
tp601
a(g16
F101.0
F103.0
tp602
atp603
a(L2L
g306
(lp604
(g4
I0
F0.0
tp605
a(g6
I0
F17.0
tp606
a(g8
F17.0
F30.0
tp607
a(g60
F30.0
F43.0
tp608
a(g64
F43.0
F56.0
tp609
a(g72
F56.0
F69.0
tp610
a(g12
F73.0
F75.0
tp611
a(g14
F75.0
F88.0
tp612
a(g32
F88.0
F101.0
tp613
a(g18
F103.0
F107.0
tp614
a(g20
F107.0
F112.0
tp615
a(g22
F112.0
F113.0
tp616
atp617
a(L10L
g306
(lp618
(g36
I0
F16.0
tp619
a(g44
F16.0
F33.0
tp620
a(g38
F33.0
F46.0
tp621
a(g46
F46.0
F59.0
tp622
a(g68
F59.0
F72.0
tp623
a(g10
F72.0
F73.0
tp624
a(g40
F75.0
F88.0
tp625
a(g56
F88.0
F101.0
tp626
atp627
a(L1L
Vapac-sin#m1.small
p628
(lp629
(g24
F113.0
F113.0
tp630
atp631
atp632
a(F134.0
F0.79
(lp633
(L8L
g512
(lp634
(g52
I0
F36.0
tp635
a(g60
F36.0
F64.0
tp636
a(g72
F64.0
F92.0
tp637
a(g32
F95.0
F123.0
tp638
atp639
a(L9L
g512
(lp640
(g36
I0
F36.0
tp641
a(g30
F36.0
F64.0
tp642
a(g46
F64.0
F92.0
tp643
a(g40
F95.0
F123.0
tp644
atp645
a(L2L
g306
(lp646
(g4
I0
F0.0
tp647
a(g6
I0
F17.0
tp648
a(g28
F17.0
F34.0
tp649
a(g8
F36.0
F49.0
tp650
a(g54
F49.0
F62.0
tp651
a(g64
F62.0
F75.0
tp652
a(g68
F75.0
F88.0
tp653
a(g10
F92.0
F93.0
tp654
a(g12
F93.0
F95.0
tp655
a(g48
F95.0
F108.0
tp656
a(g56
F108.0
F121.0
tp657
a(g16
F124.0
F126.0
tp658
a(g18
F126.0
F130.0
tp659
a(g20
F130.0
F135.0
tp660
a(g22
F135.0
F136.0
tp661
a(g24
F136.0
F136.0
tp662
atp663
a(L10L
g512
(lp664
(g44
I0
F36.0
tp665
a(g38
F36.0
F65.0
tp666
a(g14
F95.0
F124.0
tp667
atp668
atp669
a(F169.0
F0.63
(lp670
(L9L
g512
(lp671
(g36
I0
F36.0
tp672
a(g8
F36.0
F64.0
tp673
a(g30
F64.0
F92.0
tp674
a(g40
F118.0
F146.0
tp675
atp676
a(L10L
g512
(lp677
(g4
I0
F0.0
tp678
a(g44
I0
F36.0
tp679
a(g38
F36.0
F65.0
tp680
a(g46
F65.0
F93.0
tp681
a(g56
F118.0
F147.0
tp682
atp683
a(L18L
Vapac-sin#m1.large
p684
(lp685
(g24
F169.0
F169.0
tp686
atp687
a(L2L
g306
(lp688
(g6
I0
F17.0
tp689
a(g28
F17.0
F34.0
tp690
a(g52
F34.0
F50.0
tp691
a(g54
F50.0
F63.0
tp692
a(g60
F63.0
F76.0
tp693
a(g64
F76.0
F89.0
tp694
a(g68
F89.0
F102.0
tp695
a(g72
F102.0
F115.0
tp696
a(g10
F115.0
F116.0
tp697
a(g12
F116.0
F118.0
tp698
a(g14
F118.0
F131.0
tp699
a(g32
F131.0
F144.0
tp700
a(g48
F144.0
F157.0
tp701
a(g16
F157.0
F159.0
tp702
a(g18
F159.0
F163.0
tp703
a(g20
F163.0
F168.0
tp704
a(g22
F168.0
F169.0
tp705
atp706
atp707
a(F242.0
F0.55
(lp708
(L8L
g628
(lp709
(g72
F72.0
F156.0
tp710
atp711
a(L9L
g512
(lp712
(g28
I0
F37.0
tp713
a(g30
F37.0
F65.0
tp714
a(g52
F65.0
F101.0
tp715
a(g54
F101.0
F130.0
tp716
a(g48
F162.0
F191.0
tp717
atp718
a(L2L
g512
(lp719
(g4
I0
F0.0
tp720
a(g6
I0
F37.0
tp721
a(g8
F37.0
F65.0
tp722
a(g60
F65.0
F93.0
tp723
a(g64
F93.0
F121.0
tp724
a(g68
F121.0
F149.0
tp725
a(g10
F156.0
F158.0
tp726
a(g12
F158.0
F162.0
tp727
a(g14
F162.0
F191.0
tp728
a(g32
F191.0
F219.0
tp729
a(g16
F219.0
F223.0
tp730
a(g18
F223.0
F231.0
tp731
a(g20
F231.0
F241.0
tp732
a(g22
F241.0
F242.0
tp733
atp734
a(L10L
g512
(lp735
(g36
I0
F36.0
tp736
a(g44
F36.0
F72.0
tp737
a(g38
F72.0
F101.0
tp738
a(g46
F101.0
F129.0
tp739
a(g40
F162.0
F190.0
tp740
a(g56
F190.0
F219.0
tp741
atp742
a(L13L
g2
(lp743
(g24
F242.0
F242.0
tp744
atp745
atp746
a(F243.0
F0.47
(lp747
(L9L
g512
(lp748
(g28
I0
F37.0
tp749
a(g30
F37.0
F65.0
tp750
a(g52
F65.0
F101.0
tp751
a(g54
F101.0
F130.0
tp752
a(g48
F163.0
F192.0
tp753
atp754
a(L2L
g512
(lp755
(g4
I0
F0.0
tp756
a(g6
I0
F37.0
tp757
a(g8
F37.0
F65.0
tp758
a(g60
F65.0
F93.0
tp759
a(g64
F93.0
F121.0
tp760
a(g72
F121.0
F149.0
tp761
a(g12
F159.0
F163.0
tp762
a(g14
F163.0
F192.0
tp763
a(g32
F192.0
F220.0
tp764
a(g16
F220.0
F224.0
tp765
a(g18
F224.0
F232.0
tp766
a(g20
F232.0
F242.0
tp767
a(g22
F242.0
F243.0
tp768
a(g24
F243.0
F243.0
tp769
atp770
a(L10L
g512
(lp771
(g36
I0
F36.0
tp772
a(g44
F36.0
F72.0
tp773
a(g38
F72.0
F101.0
tp774
a(g46
F101.0
F129.0
tp775
a(g68
F129.0
F157.0
tp776
a(g10
F157.0
F159.0
tp777
a(g40
F163.0
F191.0
tp778
a(g56
F191.0
F220.0
tp779
atp780
atp781
a(F335.0
F0.4
(lp782
(L9L
g628
(lp783
(g36
I0
F107.0
tp784
a(g30
F107.0
F192.0
tp785
a(g40
F229.0
F312.0
tp786
atp787
a(L10L
g512
(lp788
(g4
I0
F0.0
tp789
a(g6
I0
F37.0
tp790
a(g44
F37.0
F73.0
tp791
a(g38
F73.0
F102.0
tp792
a(g52
F102.0
F138.0
tp793
a(g46
F138.0
F166.0
tp794
a(g54
F166.0
F195.0
tp795
a(g68
F195.0
F223.0
tp796
a(g10
F223.0
F225.0
tp797
a(g48
F229.0
F258.0
tp798
a(g56
F258.0
F287.0
tp799
atp800
a(L2L
g512
(lp801
(g28
I0
F37.0
tp802
a(g8
F107.0
F135.0
tp803
a(g60
F135.0
F163.0
tp804
a(g64
F163.0
F191.0
tp805
a(g72
F191.0
F219.0
tp806
a(g12
F225.0
F229.0
tp807
a(g14
F229.0
F258.0
tp808
a(g32
F258.0
F286.0
tp809
a(g16
F312.0
F316.0
tp810
a(g18
F316.0
F324.0
tp811
a(g20
F324.0
F334.0
tp812
a(g22
F334.0
F335.0
tp813
a(g24
F335.0
F335.0
tp814
atp815
atp816
a(F395.0
F0.32
(lp817
(L9L
g628
(lp818
(g36
I0
F107.0
tp819
a(g8
F107.0
F192.0
tp820
a(g30
F192.0
F277.0
tp821
a(g40
F285.0
F368.0
tp822
atp823
a(L2L
g512
(lp824
(g4
I0
F0.0
tp825
a(g6
I0
F37.0
tp826
a(g28
F37.0
F74.0
tp827
a(g52
F74.0
F110.0
tp828
a(g46
F110.0
F138.0
tp829
a(g54
F138.0
F167.0
tp830
a(g60
F167.0
F195.0
tp831
a(g64
F195.0
F223.0
tp832
a(g68
F223.0
F251.0
tp833
a(g72
F251.0
F279.0
tp834
a(g10
F279.0
F281.0
tp835
a(g12
F281.0
F285.0
tp836
a(g14
F285.0
F314.0
tp837
a(g32
F314.0
F342.0
tp838
a(g48
F342.0
F371.0
tp839
a(g16
F372.0
F376.0
tp840
a(g18
F376.0
F384.0
tp841
a(g20
F384.0
F394.0
tp842
a(g22
F394.0
F395.0
tp843
a(g24
F395.0
F395.0
tp844
atp845
a(L10L
g628
(lp846
(g44
I0
F109.0
tp847
a(g38
F109.0
F196.0
tp848
a(g56
F285.0
F372.0
tp849
atp850
atp851
a(F730.0
F0.24
(lp852
(L9L
g628
(lp853
(g28
F1.0
F112.0
tp854
a(g30
F112.0
F197.0
tp855
a(g52
F197.0
F304.0
tp856
a(g54
F304.0
F390.0
tp857
a(g48
F489.0
F576.0
tp858
atp859
a(L2L
g628
(lp860
(g4
I0
F1.0
tp861
a(g6
F1.0
F111.0
tp862
a(g8
F112.0
F197.0
tp863
a(g60
F197.0
F282.0
tp864
a(g64
F282.0
F365.0
tp865
a(g72
F365.0
F449.0
tp866
a(g12
F478.0
F489.0
tp867
a(g14
F489.0
F575.0
tp868
a(g32
F575.0
F660.0
tp869
a(g16
F660.0
F671.0
tp870
a(g18
F671.0
F695.0
tp871
a(g20
F695.0
F726.0
tp872
a(g22
F726.0
F730.0
tp873
a(g24
F730.0
F730.0
tp874
atp875
a(L10L
g628
(lp876
(g36
F1.0
F108.0
tp877
a(g44
F108.0
F217.0
tp878
a(g38
F217.0
F304.0
tp879
a(g46
F304.0
F388.0
tp880
a(g68
F388.0
F472.0
tp881
a(g10
F472.0
F478.0
tp882
a(g40
F489.0
F572.0
tp883
a(g56
F572.0
F659.0
tp884
atp885
atp886
a.