(lp0
(F1357.0
F2.13
(lp1
(L1L
Vapac-sin#m3.2xlarge
p2
(lp3
(S'entry'
p4
I0
F0.0
tp5
a(VID00021
p6
I0
F754.0
tp7
a(VID00000
p8
F754.0
F754.0
tp9
a(VID00022
p10
F754.0
F905.0
tp11
a(VID00025
p12
F905.0
F1356.0
tp13
a(VID00028
p14
F1356.0
F1357.0
tp15
atp16
a(L4L
Vapac-sin#m1.small
p17
(lp18
(VID00005
p19
I0
F6.0
tp20
a(VID00001
p21
F6.0
F19.0
tp22
a(VID00012
p23
F19.0
F28.0
tp24
a(VID00010
p25
F28.0
F38.0
tp26
a(VID00011
p27
F38.0
F46.0
tp28
a(VID00026
p29
F917.0
F1181.0
tp30
atp31
a(L12L
Vapac-sin#m3.xlarge
p32
(lp33
(VID00007
p34
I0
F1.0
tp35
a(VID00002
p36
F1.0
F2.0
tp37
a(VID00016
p38
F2.0
F3.0
tp39
a(VID00018
p40
F3.0
F607.0
tp41
a(VID00019
p42
F607.0
F636.0
tp43
atp44
a(L22L
g32
(lp45
(S'exit'
p46
F1357.0
F1357.0
tp47
atp48
a(L24L
g17
(lp49
(VID00009
p50
I0
F12.0
tp51
a(VID00020
p52
F12.0
F368.0
tp53
a(VID00014
p54
F368.0
F375.0
tp55
a(VID00015
p56
F375.0
F383.0
tp57
a(VID00023
p58
F905.0
F917.0
tp59
a(VID00024
p60
F917.0
F965.0
tp61
a(VID00027
p62
F965.0
F993.0
tp63
atp64
a(L28L
g17
(lp65
(VID00004
p66
I0
F7.0
tp67
a(VID00006
p68
F7.0
F16.0
tp69
a(VID00003
p70
F16.0
F27.0
tp71
a(VID00008
p72
F27.0
F36.0
tp73
a(VID00013
p74
F36.0
F50.0
tp75
a(VID00017
p76
F50.0
F59.0
tp77
atp78
atp79
a(F1658.0
F1.58
(lp80
(L1L
g2
(lp81
(g4
I0
F0.0
tp82
a(g6
I0
F754.0
tp83
a(g40
F754.0
F1056.0
tp84
a(g10
F1056.0
F1207.0
tp85
a(g12
F1207.0
F1658.0
tp86
a(g14
F1658.0
F1659.0
tp87
atp88
a(L4L
g17
(lp89
(g19
I0
F6.0
tp90
a(g21
F6.0
F19.0
tp91
a(g23
F19.0
F28.0
tp92
a(g25
F28.0
F38.0
tp93
a(g27
F38.0
F46.0
tp94
a(g29
F1219.0
F1483.0
tp95
atp96
a(L10L
g32
(lp97
(g46
F1659.0
F1659.0
tp98
atp99
a(L12L
g17
(lp100
(g34
I0
F13.0
tp101
a(g36
F13.0
F26.0
tp102
a(g38
F26.0
F34.0
tp103
a(g42
F34.0
F414.0
tp104
atp105
a(L24L
g17
(lp106
(g50
I0
F12.0
tp107
a(g52
F12.0
F368.0
tp108
a(g54
F368.0
F375.0
tp109
a(g56
F375.0
F383.0
tp110
a(g8
F383.0
F384.0
tp111
a(g58
F1207.0
F1219.0
tp112
a(g60
F1219.0
F1267.0
tp113
a(g62
F1267.0
F1295.0
tp114
atp115
a(L28L
g17
(lp116
(g66
I0
F7.0
tp117
a(g68
F7.0
F16.0
tp118
a(g70
F16.0
F27.0
tp119
a(g72
F27.0
F36.0
tp120
a(g74
F36.0
F50.0
tp121
a(g76
F50.0
F59.0
tp122
atp123
atp124
a(F2713.0
F1.18
(lp125
(L1L
g32
(lp126
(g4
I0
F0.0
tp127
a(g6
I0
F1507.0
tp128
a(g8
F1507.0
F1507.0
tp129
a(g10
F1507.0
F1809.0
tp130
a(g12
F1809.0
F2711.0
tp131
a(g14
F2711.0
F2712.0
tp132
atp133
a(L4L
g17
(lp134
(g19
I0
F6.0
tp135
a(g21
F6.0
F19.0
tp136
a(g23
F19.0
F28.0
tp137
a(g25
F28.0
F38.0
tp138
a(g27
F38.0
F46.0
tp139
a(g29
F1811.0
F2075.0
tp140
atp141
a(L12L
g17
(lp142
(g34
I0
F13.0
tp143
a(g36
F13.0
F26.0
tp144
a(g38
F26.0
F34.0
tp145
a(g56
F34.0
F42.0
tp146
a(g42
F42.0
F422.0
tp147
atp148
a(L23L
g32
(lp149
(g46
F2712.0
F2712.0
tp150
atp151
a(L24L
Vapac-sin#m3.large
p152
(lp153
(g50
I0
F2.0
tp154
a(g52
F2.0
F57.0
tp155
a(g40
F57.0
F1264.0
tp156
a(g58
F1809.0
F1811.0
tp157
a(g60
F1811.0
F1818.0
tp158
a(g62
F1818.0
F1822.0
tp159
atp160
a(L28L
g17
(lp161
(g66
I0
F7.0
tp162
a(g68
F7.0
F16.0
tp163
a(g70
F16.0
F27.0
tp164
a(g72
F27.0
F36.0
tp165
a(g74
F36.0
F50.0
tp166
a(g76
F50.0
F59.0
tp167
a(g54
F59.0
F66.0
tp168
atp169
atp170
a(F3317.0
F0.95
(lp171
(L1L
g32
(lp172
(g4
I0
F0.0
tp173
a(g6
I0
F1507.0
tp174
a(g40
F1507.0
F2111.0
tp175
a(g10
F2111.0
F2413.0
tp176
a(g12
F2413.0
F3315.0
tp177
a(g14
F3315.0
F3316.0
tp178
atp179
a(L4L
g17
(lp180
(g19
I0
F6.0
tp181
a(g21
F6.0
F19.0
tp182
a(g23
F19.0
F28.0
tp183
a(g25
F28.0
F38.0
tp184
a(g27
F38.0
F46.0
tp185
a(g29
F2425.0
F2689.0
tp186
atp187
a(L10L
g32
(lp188
(g46
F3316.0
F3316.0
tp189
atp190
a(L12L
g17
(lp191
(g34
I0
F13.0
tp192
a(g36
F13.0
F26.0
tp193
a(g38
F26.0
F34.0
tp194
a(g42
F34.0
F414.0
tp195
atp196
a(L24L
g17
(lp197
(g50
I0
F12.0
tp198
a(g52
F12.0
F368.0
tp199
a(g54
F368.0
F375.0
tp200
a(g56
F375.0
F383.0
tp201
a(g8
F383.0
F384.0
tp202
a(g58
F2413.0
F2425.0
tp203
a(g60
F2425.0
F2473.0
tp204
a(g62
F2473.0
F2501.0
tp205
atp206
a(L28L
g17
(lp207
(g66
I0
F7.0
tp208
a(g68
F7.0
F16.0
tp209
a(g70
F16.0
F27.0
tp210
a(g72
F27.0
F36.0
tp211
a(g74
F36.0
F50.0
tp212
a(g76
F50.0
F59.0
tp213
atp214
atp215
a.