(lp0
(F96.0
F7.56
(lp1
(L2L
Vapac-sin#m3.2xlarge
p2
(lp3
(VID00003
p4
F49.0
F61.0
tp5
a(VID00004
p6
F61.0
F61.0
tp7
a(VID00006
p8
F61.0
F61.0
tp9
a(VID00010
p10
F71.0
F71.0
tp11
a(VID00016
p12
F79.0
F93.0
tp13
a(VID00015
p14
F94.0
F94.0
tp15
a(VID00000
p16
F96.0
F96.0
tp17
atp18
a(L3L
g2
(lp19
(VID00005
p20
F49.0
F61.0
tp21
a(VID00009
p22
F61.0
F71.0
tp23
a(VID00008
p24
F71.0
F71.0
tp25
a(VID00020
p26
F79.0
F87.0
tp27
a(VID00028
p28
F87.0
F95.0
tp29
a(VID00029
p30
F95.0
F95.0
tp31
a(VID00001
p32
F96.0
F96.0
tp33
atp34
a(L6L
g2
(lp35
(VID00007
p36
F49.0
F60.0
tp37
a(VID00022
p38
F79.0
F89.0
tp39
a(VID00026
p40
F89.0
F96.0
tp41
atp42
a(L7L
g2
(lp43
(VID00017
p44
F93.0
F93.0
tp45
atp46
a(L9L
g2
(lp47
(VID00012
p48
F73.0
F73.0
tp49
atp50
a(L10L
g2
(lp51
(VID00011
p52
F54.0
F73.0
tp53
a(VID00014
p54
F79.0
F94.0
tp55
atp56
a(L15L
g2
(lp57
(S'entry'
p58
I0
F0.0
tp59
a(VID00002
p60
I0
F49.0
tp61
a(VID00013
p62
F49.0
F79.0
tp63
a(VID00024
p64
F79.0
F96.0
tp65
atp66
a(L18L
g2
(lp67
(VID00021
p68
F87.0
F87.0
tp69
atp70
a(L26L
g2
(lp71
(VID00023
p72
F89.0
F89.0
tp73
atp74
a(L27L
Vapac-sin#m1.medium
p75
(lp76
(S'exit'
p77
F96.0
F96.0
tp78
atp79
a(L28L
g2
(lp80
(VID00025
p81
F96.0
F96.0
tp82
a(VID00027
p83
F96.0
F96.0
tp84
atp85
a(L29L
g2
(lp86
(VID00018
p87
F79.0
F88.0
tp88
a(VID00019
p89
F88.0
F88.0
tp90
atp91
atp92
a(F97.0
F6.93
(lp93
(L1L
g2
(lp94
(g14
F94.0
F94.0
tp95
atp96
a(L2L
g2
(lp97
(g4
F49.0
F61.0
tp98
a(g6
F61.0
F61.0
tp99
a(g8
F61.0
F61.0
tp100
a(g10
F71.0
F71.0
tp101
a(g12
F79.0
F93.0
tp102
a(g89
F97.0
F97.0
tp103
a(g16
F97.0
F97.0
tp104
atp105
a(L3L
g2
(lp106
(g20
F49.0
F61.0
tp107
a(g22
F61.0
F71.0
tp108
a(g24
F71.0
F71.0
tp109
a(g26
F79.0
F87.0
tp110
a(g28
F87.0
F95.0
tp111
a(g30
F95.0
F95.0
tp112
a(g32
F97.0
F97.0
tp113
atp114
a(L6L
g2
(lp115
(g36
F49.0
F60.0
tp116
a(g38
F79.0
F89.0
tp117
a(g40
F89.0
F96.0
tp118
atp119
a(L7L
g2
(lp120
(g44
F93.0
F93.0
tp121
atp122
a(L9L
g2
(lp123
(g48
F73.0
F73.0
tp124
atp125
a(L10L
g2
(lp126
(g52
F54.0
F73.0
tp127
a(g54
F79.0
F94.0
tp128
atp129
a(L15L
g2
(lp130
(g58
I0
F0.0
tp131
a(g60
I0
F49.0
tp132
a(g62
F49.0
F79.0
tp133
a(g64
F79.0
F96.0
tp134
atp135
a(L18L
g2
(lp136
(g68
F87.0
F87.0
tp137
atp138
a(L26L
g2
(lp139
(g72
F89.0
F89.0
tp140
atp141
a(L27L
Vapac-sin#m1.xlarge
p142
(lp143
(g77
F97.0
F97.0
tp144
atp145
a(L28L
g2
(lp146
(g81
F96.0
F96.0
tp147
a(g83
F96.0
F96.0
tp148
atp149
a(L29L
Vapac-sin#m3.xlarge
p150
(lp151
(g87
F79.0
F97.0
tp152
atp153
atp154
a(F100.0
F6.3
(lp155
(L1L
g2
(lp156
(g14
F94.0
F94.0
tp157
atp158
a(L2L
g2
(lp159
(g4
F49.0
F61.0
tp160
a(g6
F61.0
F61.0
tp161
a(g8
F61.0
F61.0
tp162
a(g40
F79.0
F86.0
tp163
a(g10
F86.0
F86.0
tp164
a(g12
F86.0
F100.0
tp165
a(g89
F100.0
F100.0
tp166
a(g16
F100.0
F100.0
tp167
atp168
a(L3L
g2
(lp169
(g20
F49.0
F61.0
tp170
a(g22
F61.0
F71.0
tp171
a(g24
F71.0
F71.0
tp172
a(g26
F79.0
F87.0
tp173
a(g28
F87.0
F95.0
tp174
a(g30
F95.0
F95.0
tp175
a(g32
F100.0
F100.0
tp176
atp177
a(L6L
g150
(lp178
(g36
F49.0
F71.0
tp179
a(g38
F79.0
F98.0
tp180
atp181
a(L7L
g2
(lp182
(g44
F100.0
F100.0
tp183
atp184
a(L9L
g2
(lp185
(g48
F73.0
F73.0
tp186
atp187
a(L10L
g2
(lp188
(g52
F54.0
F73.0
tp189
a(g54
F79.0
F94.0
tp190
atp191
a(L15L
g2
(lp192
(g58
I0
F0.0
tp193
a(g60
I0
F49.0
tp194
a(g62
F49.0
F79.0
tp195
a(g64
F79.0
F96.0
tp196
atp197
a(L18L
g2
(lp198
(g68
F87.0
F87.0
tp199
atp200
a(L26L
g2
(lp201
(g72
F98.0
F98.0
tp202
atp203
a(L27L
g142
(lp204
(g77
F100.0
F100.0
tp205
atp206
a(L28L
g2
(lp207
(g81
F96.0
F96.0
tp208
a(g83
F96.0
F96.0
tp209
atp210
a(L29L
g150
(lp211
(g87
F79.0
F97.0
tp212
atp213
atp214
a(F102.0
F5.67
(lp215
(L1L
g142
(lp216
(g32
F102.0
F102.0
tp217
atp218
a(L2L
g2
(lp219
(g4
F49.0
F61.0
tp220
a(g36
F61.0
F72.0
tp221
a(g12
F79.0
F93.0
tp222
a(g87
F93.0
F102.0
tp223
a(g89
F102.0
F102.0
tp224
atp225
a(L3L
g2
(lp226
(g20
F49.0
F61.0
tp227
a(g22
F61.0
F71.0
tp228
a(g24
F72.0
F72.0
tp229
a(g26
F79.0
F87.0
tp230
a(g40
F87.0
F94.0
tp231
a(g28
F94.0
F102.0
tp232
a(g30
F102.0
F102.0
tp233
a(g16
F102.0
F102.0
tp234
atp235
a(L6L
g150
(lp236
(g38
F79.0
F98.0
tp237
atp238
a(L7L
g2
(lp239
(g72
F98.0
F98.0
tp240
atp241
a(L10L
g2
(lp242
(g52
F54.0
F73.0
tp243
a(g54
F79.0
F94.0
tp244
a(g14
F94.0
F94.0
tp245
atp246
a(L11L
g2
(lp247
(g81
F96.0
F96.0
tp248
a(g48
F96.0
F96.0
tp249
atp250
a(L12L
g150
(lp251
(g6
F61.0
F61.0
tp252
a(g8
F61.0
F61.0
tp253
atp254
a(L13L
g2
(lp255
(g68
F87.0
F87.0
tp256
a(g10
F87.0
F87.0
tp257
atp258
a(L15L
g2
(lp259
(g58
I0
F0.0
tp260
a(g60
I0
F49.0
tp261
a(g62
F49.0
F79.0
tp262
a(g64
F79.0
F96.0
tp263
atp264
a(L21L
g2
(lp265
(g44
F93.0
F93.0
tp266
atp267
a(L28L
g2
(lp268
(g83
F94.0
F94.0
tp269
atp270
a(L30L
g75
(lp271
(g77
F102.0
F102.0
tp272
atp273
atp274
a(F103.0
F5.04
(lp275
(L0L
g2
(lp276
(g32
F103.0
F103.0
tp277
atp278
a(L1L
g150
(lp279
(g6
F61.0
F61.0
tp280
atp281
a(L3L
g2
(lp282
(g4
F49.0
F61.0
tp283
a(g36
F61.0
F72.0
tp284
a(g38
F79.0
F89.0
tp285
a(g28
F89.0
F97.0
tp286
a(g30
F97.0
F97.0
tp287
atp288
a(L5L
g2
(lp289
(g44
F101.0
F101.0
tp290
atp291
a(L6L
g2
(lp292
(g68
F87.0
F87.0
tp293
a(g48
F87.0
F87.0
tp294
atp295
a(L7L
g2
(lp296
(g81
F96.0
F96.0
tp297
atp298
a(L10L
g2
(lp299
(g22
F49.0
F59.0
tp300
a(g52
F59.0
F78.0
tp301
a(g54
F79.0
F94.0
tp302
a(g87
F94.0
F103.0
tp303
a(g16
F103.0
F103.0
tp304
atp305
a(L11L
g2
(lp306
(g72
F89.0
F89.0
tp307
a(g10
F89.0
F89.0
tp308
atp309
a(L13L
g75
(lp310
(g77
F103.0
F103.0
tp311
atp312
a(L15L
g2
(lp313
(g58
I0
F0.0
tp314
a(g60
I0
F49.0
tp315
a(g62
F49.0
F79.0
tp316
a(g64
F79.0
F96.0
tp317
a(g40
F96.0
F103.0
tp318
a(g89
F103.0
F103.0
tp319
atp320
a(L17L
g2
(lp321
(g8
F61.0
F61.0
tp322
atp323
a(L22L
g2
(lp324
(g20
F49.0
F61.0
tp325
a(g26
F79.0
F87.0
tp326
a(g12
F87.0
F101.0
tp327
atp328
a(L25L
g2
(lp329
(g83
F103.0
F103.0
tp330
a(g14
F103.0
F103.0
tp331
atp332
a(L31L
g2
(lp333
(g24
F72.0
F72.0
tp334
atp335
atp336
a(F107.0
F4.41
(lp337
(L0L
g2
(lp338
(g68
F87.0
F87.0
tp339
atp340
a(L3L
g2
(lp341
(g4
F49.0
F61.0
tp342
a(g36
F61.0
F72.0
tp343
a(g22
F72.0
F82.0
tp344
a(g24
F82.0
F82.0
tp345
a(g38
F82.0
F92.0
tp346
a(g40
F92.0
F99.0
tp347
a(g28
F99.0
F107.0
tp348
a(g30
F107.0
F107.0
tp349
atp350
a(L5L
g150
(lp351
(g12
F79.0
F107.0
tp352
atp353
a(L6L
g2
(lp354
(g14
F95.0
F95.0
tp355
atp356
a(L10L
g2
(lp357
(g20
F49.0
F61.0
tp358
a(g8
F61.0
F61.0
tp359
a(g52
F61.0
F80.0
tp360
a(g54
F80.0
F95.0
tp361
a(g87
F95.0
F104.0
tp362
a(g89
F104.0
F104.0
tp363
atp364
a(L15L
g2
(lp365
(g58
I0
F0.0
tp366
a(g60
I0
F49.0
tp367
a(g62
F49.0
F79.0
tp368
a(g26
F79.0
F87.0
tp369
a(g64
F87.0
F104.0
tp370
a(g44
F107.0
F107.0
tp371
atp372
a(L16L
g142
(lp373
(g77
F107.0
F107.0
tp374
atp375
a(L17L
g2
(lp376
(g32
F107.0
F107.0
tp377
atp378
a(L20L
g150
(lp379
(g16
F107.0
F107.0
tp380
atp381
a(L21L
g150
(lp382
(g81
F104.0
F104.0
tp383
atp384
a(L22L
g2
(lp385
(g72
F92.0
F92.0
tp386
atp387
a(L23L
g150
(lp388
(g10
F82.0
F82.0
tp389
atp390
a(L26L
g2
(lp391
(g83
F99.0
F99.0
tp392
atp393
a(L28L
g150
(lp394
(g6
F61.0
F61.0
tp395
atp396
a(L31L
g2
(lp397
(g48
F80.0
F80.0
tp398
atp399
atp400
a(F110.0
F4.09
(lp401
(L3L
g2
(lp402
(g4
F49.0
F61.0
tp403
a(g36
F61.0
F72.0
tp404
a(g8
F72.0
F72.0
tp405
a(g22
F72.0
F82.0
tp406
a(g38
F82.0
F92.0
tp407
a(g40
F92.0
F99.0
tp408
a(g28
F99.0
F107.0
tp409
a(g30
F107.0
F107.0
tp410
a(g32
F110.0
F110.0
tp411
atp412
a(L7L
g150
(lp413
(g10
F82.0
F82.0
tp414
atp415
a(L10L
g2
(lp416
(g20
F49.0
F61.0
tp417
a(g52
F61.0
F80.0
tp418
a(g54
F80.0
F95.0
tp419
a(g87
F95.0
F104.0
tp420
a(g89
F104.0
F104.0
tp421
atp422
a(L11L
g2
(lp423
(g68
F109.0
F109.0
tp424
a(g48
F109.0
F109.0
tp425
atp426
a(L13L
g2
(lp427
(g24
F72.0
F72.0
tp428
atp429
a(L14L
Vapac-sin#m3.large
p430
(lp431
(g16
F110.0
F110.0
tp432
atp433
a(L15L
g2
(lp434
(g58
I0
F0.0
tp435
a(g60
I0
F49.0
tp436
a(g62
F49.0
F79.0
tp437
a(g64
F79.0
F96.0
tp438
a(g12
F96.0
F110.0
tp439
atp440
a(L17L
g430
(lp441
(g26
F79.0
F109.0
tp442
a(g83
F109.0
F110.0
tp443
atp444
a(L21L
g2
(lp445
(g44
F110.0
F110.0
tp446
atp447
a(L25L
g2
(lp448
(g72
F92.0
F92.0
tp449
atp450
a(L26L
g150
(lp451
(g6
F61.0
F61.0
tp452
atp453
a(L27L
g2
(lp454
(g77
F110.0
F110.0
tp455
atp456
a(L28L
g2
(lp457
(g81
F96.0
F96.0
tp458
a(g14
F96.0
F96.0
tp459
atp460
atp461
a(F114.0
F3.78
(lp462
(L0L
g2
(lp463
(g24
F72.0
F72.0
tp464
atp465
a(L1L
g2
(lp466
(g68
F87.0
F87.0
tp467
atp468
a(L2L
g150
(lp469
(g16
F114.0
F114.0
tp470
atp471
a(L3L
g2
(lp472
(g4
F49.0
F61.0
tp473
a(g36
F61.0
F72.0
tp474
a(g26
F79.0
F87.0
tp475
a(g38
F87.0
F97.0
tp476
a(g40
F97.0
F104.0
tp477
a(g28
F104.0
F112.0
tp478
a(g30
F112.0
F112.0
tp479
a(g32
F114.0
F114.0
tp480
atp481
a(L6L
g2
(lp482
(g48
F90.0
F90.0
tp483
atp484
a(L8L
g2
(lp485
(g6
F61.0
F61.0
tp486
a(g8
F61.0
F61.0
tp487
atp488
a(L10L
g2
(lp489
(g20
F49.0
F61.0
tp490
a(g22
F61.0
F71.0
tp491
a(g52
F71.0
F90.0
tp492
a(g54
F90.0
F105.0
tp493
a(g87
F105.0
F114.0
tp494
atp495
a(L15L
g2
(lp496
(g58
I0
F0.0
tp497
a(g60
I0
F49.0
tp498
a(g62
F49.0
F79.0
tp499
a(g64
F79.0
F96.0
tp500
a(g12
F96.0
F110.0
tp501
a(g14
F110.0
F110.0
tp502
atp503
a(L16L
g2
(lp504
(g83
F104.0
F104.0
tp505
atp506
a(L18L
g150
(lp507
(g81
F96.0
F96.0
tp508
atp509
a(L23L
g150
(lp510
(g10
F71.0
F71.0
tp511
atp512
a(L26L
g2
(lp513
(g72
F97.0
F97.0
tp514
atp515
a(L27L
g75
(lp516
(g77
F114.0
F114.0
tp517
atp518
a(L28L
g2
(lp519
(g44
F110.0
F110.0
tp520
atp521
a(L29L
g2
(lp522
(g89
F114.0
F114.0
tp523
atp524
atp525
a(F123.0
F3.46
(lp526
(L1L
g2
(lp527
(g32
F123.0
F123.0
tp528
atp529
a(L3L
g2
(lp530
(g4
F49.0
F61.0
tp531
a(g20
F61.0
F73.0
tp532
a(g22
F73.0
F83.0
tp533
a(g26
F83.0
F91.0
tp534
a(g38
F91.0
F101.0
tp535
a(g40
F101.0
F108.0
tp536
a(g10
F108.0
F108.0
tp537
a(g28
F108.0
F116.0
tp538
atp539
a(L6L
g150
(lp540
(g81
F96.0
F96.0
tp541
atp542
a(L8L
g2
(lp543
(g8
F73.0
F73.0
tp544
atp545
a(L9L
g2
(lp546
(g44
F110.0
F110.0
tp547
atp548
a(L10L
g150
(lp549
(g52
F56.0
F94.0
tp550
a(g54
F94.0
F123.0
tp551
atp552
a(L12L
g2
(lp553
(g6
F61.0
F61.0
tp554
atp555
a(L15L
g2
(lp556
(g58
I0
F0.0
tp557
a(g60
I0
F49.0
tp558
a(g62
F49.0
F79.0
tp559
a(g64
F79.0
F96.0
tp560
a(g12
F96.0
F110.0
tp561
a(g87
F110.0
F119.0
tp562
a(g89
F119.0
F119.0
tp563
a(g30
F119.0
F119.0
tp564
atp565
a(L18L
g2
(lp566
(g24
F94.0
F94.0
tp567
a(g48
F94.0
F94.0
tp568
atp569
a(L19L
g2
(lp570
(g14
F123.0
F123.0
tp571
atp572
a(L21L
g430
(lp573
(g16
F123.0
F123.0
tp574
atp575
a(L22L
g430
(lp576
(g36
F49.0
F94.0
tp577
a(g68
F94.0
F96.0
tp578
a(g72
F101.0
F103.0
tp579
a(g83
F108.0
F109.0
tp580
a(g77
F123.0
F123.0
tp581
atp582
atp583
a(F127.0
F3.15
(lp584
(L3L
g150
(lp585
(g4
F49.0
F73.0
tp586
a(g22
F73.0
F93.0
tp587
a(g26
F93.0
F108.0
tp588
a(g38
F108.0
F127.0
tp589
atp590
a(L5L
g2
(lp591
(g68
F108.0
F108.0
tp592
a(g83
F108.0
F108.0
tp593
atp594
a(L6L
g150
(lp595
(g6
F73.0
F73.0
tp596
atp597
a(L9L
Vapac-sin#m1.large
p598
(lp599
(g20
F49.0
F126.0
tp600
atp601
a(L10L
g150
(lp602
(g52
F56.0
F94.0
tp603
a(g54
F94.0
F123.0
tp604
a(g14
F123.0
F124.0
tp605
atp606
a(L13L
g2
(lp607
(g8
F126.0
F126.0
tp608
a(g89
F126.0
F126.0
tp609
atp610
a(L15L
g2
(lp611
(g58
I0
F0.0
tp612
a(g60
I0
F49.0
tp613
a(g62
F49.0
F79.0
tp614
a(g64
F79.0
F96.0
tp615
a(g40
F96.0
F103.0
tp616
a(g12
F103.0
F117.0
tp617
a(g44
F117.0
F117.0
tp618
a(g87
F117.0
F126.0
tp619
atp620
a(L16L
g2
(lp621
(g30
F127.0
F127.0
tp622
atp623
a(L17L
g430
(lp624
(g32
F127.0
F127.0
tp625
atp626
a(L18L
g2
(lp627
(g72
F127.0
F127.0
tp628
a(g48
F127.0
F127.0
tp629
atp630
a(L19L
g150
(lp631
(g81
F96.0
F96.0
tp632
atp633
a(L20L
g142
(lp634
(g16
F127.0
F127.0
tp635
atp636
a(L21L
g2
(lp637
(g24
F94.0
F94.0
tp638
a(g10
F94.0
F94.0
tp639
atp640
a(L23L
g150
(lp641
(g77
F127.0
F127.0
tp642
atp643
a(L28L
g430
(lp644
(g36
F49.0
F94.0
tp645
a(g28
F94.0
F127.0
tp646
atp647
atp648
a(F138.0
F2.83
(lp649
(L0L
g2
(lp650
(g89
F138.0
F138.0
tp651
atp652
a(L2L
g2
(lp653
(g16
F138.0
F138.0
tp654
atp655
a(L3L
g150
(lp656
(g4
F49.0
F73.0
tp657
a(g26
F79.0
F94.0
tp658
a(g68
F94.0
F95.0
tp659
a(g40
F95.0
F110.0
tp660
a(g28
F110.0
F126.0
tp661
atp662
a(L6L
g2
(lp663
(g44
F129.0
F129.0
tp664
a(g30
F129.0
F129.0
tp665
atp666
a(L11L
g2
(lp667
(g81
F96.0
F96.0
tp668
atp669
a(L15L
g2
(lp670
(g58
I0
F0.0
tp671
a(g60
I0
F49.0
tp672
a(g62
F49.0
F79.0
tp673
a(g64
F79.0
F96.0
tp674
a(g52
F96.0
F115.0
tp675
a(g48
F115.0
F115.0
tp676
a(g12
F115.0
F129.0
tp677
a(g87
F129.0
F138.0
tp678
atp679
a(L16L
g2
(lp680
(g6
F73.0
F73.0
tp681
atp682
a(L17L
g430
(lp683
(g54
F79.0
F137.0
tp684
a(g32
F138.0
F138.0
tp685
atp686
a(L19L
g2
(lp687
(g10
F136.0
F136.0
tp688
atp689
a(L20L
g430
(lp690
(g20
F49.0
F96.0
tp691
a(g22
F96.0
F136.0
tp692
atp693
a(L22L
g430
(lp694
(g36
F49.0
F94.0
tp695
a(g38
F94.0
F132.0
tp696
a(g77
F138.0
F138.0
tp697
atp698
a(L23L
g2
(lp699
(g72
F132.0
F132.0
tp700
a(g83
F132.0
F132.0
tp701
atp702
a(L25L
g150
(lp703
(g8
F96.0
F96.0
tp704
atp705
a(L28L
g2
(lp706
(g24
F94.0
F94.0
tp707
atp708
a(L31L
g2
(lp709
(g14
F137.0
F137.0
tp710
atp711
atp712
a(F146.0
F2.52
(lp713
(L3L
g150
(lp714
(g4
F49.0
F73.0
tp715
a(g36
F73.0
F95.0
tp716
a(g22
F95.0
F115.0
tp717
a(g40
F115.0
F130.0
tp718
a(g28
F130.0
F146.0
tp719
atp720
a(L4L
g430
(lp721
(g54
F79.0
F137.0
tp722
atp723
a(L6L
g2
(lp724
(g72
F134.0
F134.0
tp725
a(g10
F134.0
F134.0
tp726
atp727
a(L7L
g598
(lp728
(g16
F146.0
F146.0
tp729
atp730
a(L9L
g2
(lp731
(g83
F130.0
F130.0
tp732
a(g48
F130.0
F130.0
tp733
atp734
a(L10L
g2
(lp735
(g6
F73.0
F73.0
tp736
atp737
a(L11L
g2
(lp738
(g14
F137.0
F137.0
tp739
atp740
a(L12L
g2
(lp741
(g8
F96.0
F96.0
tp742
atp743
a(L13L
g2
(lp744
(g81
F104.0
F104.0
tp745
atp746
a(L14L
g430
(lp747
(g32
F146.0
F146.0
tp748
atp749
a(L15L
g2
(lp750
(g58
I0
F0.0
tp751
a(g60
I0
F49.0
tp752
a(g62
F49.0
F79.0
tp753
a(g26
F79.0
F87.0
tp754
a(g68
F87.0
F87.0
tp755
a(g64
F87.0
F104.0
tp756
a(g52
F104.0
F123.0
tp757
a(g12
F123.0
F137.0
tp758
a(g87
F137.0
F146.0
tp759
a(g30
F146.0
F146.0
tp760
atp761
a(L22L
g430
(lp762
(g20
F49.0
F96.0
tp763
a(g38
F96.0
F134.0
tp764
a(g44
F137.0
F139.0
tp765
a(g77
F146.0
F146.0
tp766
atp767
a(L23L
g2
(lp768
(g89
F146.0
F146.0
tp769
atp770
a(L29L
g2
(lp771
(g24
F95.0
F95.0
tp772
atp773
atp774
a(F155.0
F2.36
(lp775
(L3L
g150
(lp776
(g4
F49.0
F73.0
tp777
a(g36
F73.0
F95.0
tp778
a(g22
F95.0
F115.0
tp779
a(g40
F115.0
F130.0
tp780
a(g28
F130.0
F146.0
tp781
a(g77
F155.0
F155.0
tp782
atp783
a(L9L
g2
(lp784
(g83
F130.0
F130.0
tp785
atp786
a(L11L
g2
(lp787
(g14
F152.0
F152.0
tp788
atp789
a(L12L
g2
(lp790
(g8
F96.0
F96.0
tp791
atp792
a(L15L
g2
(lp793
(g58
I0
F0.0
tp794
a(g60
I0
F49.0
tp795
a(g62
F49.0
F79.0
tp796
a(g26
F79.0
F87.0
tp797
a(g68
F87.0
F87.0
tp798
a(g64
F87.0
F104.0
tp799
a(g81
F104.0
F104.0
tp800
a(g52
F104.0
F123.0
tp801
a(g12
F123.0
F137.0
tp802
a(g54
F137.0
F152.0
tp803
a(g30
F152.0
F152.0
tp804
a(g32
F155.0
F155.0
tp805
atp806
a(L19L
Vapac-sin#m3.medium
p807
(lp808
(g87
F79.0
F155.0
tp809
a(g16
F155.0
F155.0
tp810
atp811
a(L22L
g430
(lp812
(g20
F49.0
F96.0
tp813
a(g38
F96.0
F134.0
tp814
a(g44
F137.0
F139.0
tp815
atp816
a(L23L
g2
(lp817
(g89
F155.0
F155.0
tp818
atp819
a(L24L
g2
(lp820
(g72
F134.0
F134.0
tp821
a(g48
F134.0
F134.0
tp822
atp823
a(L27L
g150
(lp824
(g6
F73.0
F73.0
tp825
atp826
a(L29L
g2
(lp827
(g24
F95.0
F95.0
tp828
atp829
a(L30L
g2
(lp830
(g10
F115.0
F115.0
tp831
atp832
atp833
a(F161.0
F2.2
(lp834
(L1L
g142
(lp835
(g77
F161.0
F161.0
tp836
atp837
a(L3L
g150
(lp838
(g4
F49.0
F73.0
tp839
a(g36
F73.0
F95.0
tp840
a(g22
F95.0
F115.0
tp841
a(g40
F115.0
F130.0
tp842
a(g28
F130.0
F146.0
tp843
atp844
a(L5L
g142
(lp845
(g32
F161.0
F161.0
tp846
atp847
a(L6L
g2
(lp848
(g83
F130.0
F130.0
tp849
a(g10
F130.0
F130.0
tp850
atp851
a(L7L
g598
(lp852
(g16
F161.0
F161.0
tp853
atp854
a(L9L
g2
(lp855
(g48
F123.0
F123.0
tp856
atp857
a(L10L
g2
(lp858
(g6
F73.0
F73.0
tp859
atp860
a(L11L
g2
(lp861
(g14
F152.0
F152.0
tp862
atp863
a(L15L
g2
(lp864
(g58
I0
F0.0
tp865
a(g60
I0
F49.0
tp866
a(g62
F49.0
F79.0
tp867
a(g26
F79.0
F87.0
tp868
a(g68
F87.0
F87.0
tp869
a(g64
F87.0
F104.0
tp870
a(g52
F104.0
F123.0
tp871
a(g12
F123.0
F137.0
tp872
a(g54
F137.0
F152.0
tp873
a(g87
F152.0
F161.0
tp874
atp875
a(L17L
g2
(lp876
(g30
F146.0
F146.0
tp877
atp878
a(L18L
g150
(lp879
(g8
F96.0
F96.0
tp880
atp881
a(L19L
g2
(lp882
(g81
F104.0
F104.0
tp883
atp884
a(L22L
g430
(lp885
(g20
F49.0
F96.0
tp886
a(g38
F96.0
F134.0
tp887
atp888
a(L23L
g2
(lp889
(g89
F161.0
F161.0
tp890
atp891
a(L26L
g2
(lp892
(g44
F137.0
F137.0
tp893
atp894
a(L28L
g2
(lp895
(g72
F134.0
F134.0
tp896
atp897
a(L31L
g150
(lp898
(g24
F95.0
F95.0
tp899
atp900
atp901
a(F169.0
F2.05
(lp902
(L1L
g2
(lp903
(g10
F136.0
F136.0
tp904
atp905
a(L3L
g2
(lp906
(g14
F152.0
F152.0
tp907
atp908
a(L5L
g430
(lp909
(g36
F49.0
F94.0
tp910
a(g12
F94.0
F150.0
tp911
atp912
a(L6L
g2
(lp913
(g44
F150.0
F150.0
tp914
atp915
a(L8L
g150
(lp916
(g8
F96.0
F96.0
tp917
a(g24
F96.0
F96.0
tp918
atp919
a(L9L
g75
(lp920
(g16
F169.0
F169.0
tp921
atp922
a(L10L
g807
(lp923
(g40
F91.0
F155.0
tp924
atp925
a(L13L
g150
(lp926
(g81
F118.0
F118.0
tp927
atp928
a(L15L
g2
(lp929
(g58
I0
F0.0
tp930
a(g60
I0
F49.0
tp931
a(g4
F49.0
F61.0
tp932
a(g62
F61.0
F91.0
tp933
a(g38
F91.0
F101.0
tp934
a(g64
F101.0
F118.0
tp935
a(g52
F118.0
F137.0
tp936
a(g48
F137.0
F137.0
tp937
a(g54
F137.0
F152.0
tp938
a(g87
F152.0
F161.0
tp939
a(g89
F161.0
F161.0
tp940
a(g28
F161.0
F169.0
tp941
atp942
a(L17L
g2
(lp943
(g6
F61.0
F61.0
tp944
atp945
a(L19L
g430
(lp946
(g20
F49.0
F96.0
tp947
a(g22
F96.0
F136.0
tp948
a(g26
F136.0
F166.0
tp949
a(g77
F169.0
F169.0
tp950
atp951
a(L24L
g2
(lp952
(g72
F101.0
F101.0
tp953
atp954
a(L25L
g2
(lp955
(g30
F169.0
F169.0
tp956
atp957
a(L26L
g2
(lp958
(g83
F155.0
F155.0
tp959
atp960
a(L27L
g598
(lp961
(g32
F169.0
F169.0
tp962
atp963
a(L31L
g2
(lp964
(g68
F166.0
F166.0
tp965
atp966
atp967
a(F175.0
F1.89
(lp968
(L2L
g150
(lp969
(g8
F96.0
F96.0
tp970
atp971
a(L3L
g2
(lp972
(g72
F169.0
F169.0
tp973
a(g89
F169.0
F169.0
tp974
atp975
a(L6L
g150
(lp976
(g10
F71.0
F71.0
tp977
atp978
a(L7L
g2
(lp979
(g81
F118.0
F118.0
tp980
atp981
a(L9L
g2
(lp982
(g30
F175.0
F175.0
tp983
atp984
a(L10L
g150
(lp985
(g6
F61.0
F61.0
tp986
atp987
a(L11L
g2
(lp988
(g16
F175.0
F175.0
tp989
a(g32
F175.0
F175.0
tp990
atp991
a(L13L
g2
(lp992
(g68
F131.0
F131.0
tp993
atp994
a(L15L
g2
(lp995
(g58
I0
F0.0
tp996
a(g60
I0
F49.0
tp997
a(g4
F49.0
F61.0
tp998
a(g22
F61.0
F71.0
tp999
a(g62
F71.0
F101.0
tp1000
a(g64
F101.0
F118.0
tp1001
a(g40
F118.0
F125.0
tp1002
a(g83
F125.0
F125.0
tp1003
a(g52
F125.0
F144.0
tp1004
a(g12
F144.0
F158.0
tp1005
a(g87
F158.0
F167.0
tp1006
a(g28
F167.0
F175.0
tp1007
atp1008
a(L19L
g430
(lp1009
(g36
F49.0
F94.0
tp1010
a(g54
F101.0
F159.0
tp1011
atp1012
a(L20L
g430
(lp1013
(g20
F49.0
F96.0
tp1014
a(g26
F101.0
F131.0
tp1015
a(g38
F131.0
F169.0
tp1016
atp1017
a(L22L
g2
(lp1018
(g44
F158.0
F158.0
tp1019
atp1020
a(L24L
g2
(lp1021
(g24
F94.0
F94.0
tp1022
atp1023
a(L27L
Vapac-sin#m1.small
p1024
(lp1025
(g77
F175.0
F175.0
tp1026
atp1027
a(L29L
g2
(lp1028
(g48
F144.0
F144.0
tp1029
atp1030
a(L30L
g2
(lp1031
(g14
F159.0
F159.0
tp1032
atp1033
atp1034
a(F194.0
F1.73
(lp1035
(L1L
g2
(lp1036
(g8
F96.0
F96.0
tp1037
atp1038
a(L3L
g807
(lp1039
(g26
F102.0
F167.0
tp1040
atp1041
a(L5L
g2
(lp1042
(g32
F194.0
F194.0
tp1043
atp1044
a(L10L
g2
(lp1045
(g30
F194.0
F194.0
tp1046
atp1047
a(L13L
g2
(lp1048
(g10
F136.0
F136.0
tp1049
atp1050
a(L15L
g2
(lp1051
(g58
I0
F0.0
tp1052
a(g60
I0
F49.0
tp1053
a(g4
F49.0
F61.0
tp1054
a(g6
F61.0
F61.0
tp1055
a(g36
F61.0
F72.0
tp1056
a(g24
F72.0
F72.0
tp1057
a(g62
F72.0
F102.0
tp1058
a(g38
F102.0
F112.0
tp1059
a(g64
F112.0
F129.0
tp1060
a(g52
F129.0
F148.0
tp1061
a(g48
F148.0
F148.0
tp1062
a(g12
F148.0
F162.0
tp1063
a(g54
F162.0
F177.0
tp1064
a(g87
F177.0
F186.0
tp1065
a(g89
F186.0
F186.0
tp1066
a(g28
F186.0
F194.0
tp1067
atp1068
a(L16L
g75
(lp1069
(g16
F194.0
F194.0
tp1070
atp1071
a(L17L
g2
(lp1072
(g83
F166.0
F166.0
tp1073
atp1074
a(L18L
g150
(lp1075
(g77
F194.0
F194.0
tp1076
atp1077
a(L19L
g430
(lp1078
(g20
F49.0
F96.0
tp1079
a(g22
F96.0
F136.0
tp1080
a(g40
F136.0
F166.0
tp1081
a(g44
F166.0
F168.0
tp1082
atp1083
a(L20L
g2
(lp1084
(g81
F129.0
F129.0
tp1085
atp1086
a(L23L
g2
(lp1087
(g68
F167.0
F167.0
tp1088
atp1089
a(L24L
g2
(lp1090
(g72
F112.0
F112.0
tp1091
atp1092
a(L29L
g2
(lp1093
(g14
F177.0
F177.0
tp1094
atp1095
atp1096
a(F196.0
F1.57
(lp1097
(L3L
g2
(lp1098
(g14
F177.0
F177.0
tp1099
atp1100
a(L6L
g2
(lp1101
(g68
F166.0
F166.0
tp1102
a(g44
F166.0
F166.0
tp1103
atp1104
a(L8L
g150
(lp1105
(g8
F96.0
F96.0
tp1106
a(g24
F96.0
F96.0
tp1107
atp1108
a(L12L
g430
(lp1109
(g77
F196.0
F196.0
tp1110
atp1111
a(L13L
g150
(lp1112
(g81
F129.0
F129.0
tp1113
atp1114
a(L14L
g150
(lp1115
(g10
F136.0
F136.0
tp1116
atp1117
a(L15L
g2
(lp1118
(g58
I0
F0.0
tp1119
a(g60
I0
F49.0
tp1120
a(g4
F49.0
F61.0
tp1121
a(g36
F61.0
F72.0
tp1122
a(g62
F72.0
F102.0
tp1123
a(g38
F102.0
F112.0
tp1124
a(g72
F112.0
F112.0
tp1125
a(g64
F112.0
F129.0
tp1126
a(g52
F129.0
F148.0
tp1127
a(g48
F148.0
F148.0
tp1128
a(g12
F148.0
F162.0
tp1129
a(g54
F162.0
F177.0
tp1130
a(g87
F177.0
F186.0
tp1131
a(g89
F186.0
F186.0
tp1132
a(g28
F186.0
F194.0
tp1133
atp1134
a(L17L
g2
(lp1135
(g32
F196.0
F196.0
tp1136
atp1137
a(L19L
g430
(lp1138
(g20
F49.0
F96.0
tp1139
a(g22
F96.0
F136.0
tp1140
a(g26
F136.0
F166.0
tp1141
a(g40
F166.0
F196.0
tp1142
atp1143
a(L20L
g2
(lp1144
(g16
F196.0
F196.0
tp1145
atp1146
a(L23L
g150
(lp1147
(g6
F61.0
F61.0
tp1148
atp1149
a(L25L
g2
(lp1150
(g83
F196.0
F196.0
tp1151
a(g30
F196.0
F196.0
tp1152
atp1153
atp1154
a(F276.0
F1.42
(lp1155
(L3L
g807
(lp1156
(g22
F97.0
F183.0
tp1157
a(g72
F183.0
F187.0
tp1158
a(g40
F187.0
F251.0
tp1159
atp1160
a(L5L
g2
(lp1161
(g44
F276.0
F276.0
tp1162
a(g30
F276.0
F276.0
tp1163
atp1164
a(L6L
g2
(lp1165
(g89
F250.0
F250.0
tp1166
atp1167
a(L8L
g807
(lp1168
(g16
F276.0
F276.0
tp1169
atp1170
a(L9L
g2
(lp1171
(g68
F265.0
F265.0
tp1172
a(g81
F265.0
F265.0
tp1173
a(g48
F265.0
F265.0
tp1174
a(g14
F265.0
F265.0
tp1175
atp1176
a(L12L
g2
(lp1177
(g83
F251.0
F251.0
tp1178
atp1179
a(L15L
g150
(lp1180
(g58
I0
F0.0
tp1181
a(g60
I0
F97.0
tp1182
a(g62
F97.0
F157.0
tp1183
a(g38
F157.0
F176.0
tp1184
a(g64
F176.0
F210.0
tp1185
a(g52
F210.0
F248.0
tp1186
a(g12
F248.0
F276.0
tp1187
atp1188
a(L16L
g598
(lp1189
(g77
F276.0
F276.0
tp1190
atp1191
a(L18L
g142
(lp1192
(g32
F276.0
F276.0
tp1193
atp1194
a(L19L
g430
(lp1195
(g4
F97.0
F145.0
tp1196
a(g54
F157.0
F215.0
tp1197
a(g87
F215.0
F250.0
tp1198
atp1199
a(L20L
g807
(lp1200
(g20
F97.0
F200.0
tp1201
a(g26
F200.0
F265.0
tp1202
atp1203
a(L22L
g807
(lp1204
(g36
F97.0
F194.0
tp1205
a(g24
F194.0
F196.0
tp1206
a(g10
F196.0
F198.0
tp1207
a(g28
F198.0
F269.0
tp1208
atp1209
a(L25L
g2
(lp1210
(g6
F145.0
F145.0
tp1211
atp1212
a(L31L
g2
(lp1213
(g8
F200.0
F200.0
tp1214
atp1215
atp1216
a(F303.0
F1.26
(lp1217
(L3L
g807
(lp1218
(g4
F97.0
F201.0
tp1219
a(g40
F201.0
F265.0
tp1220
a(g48
F268.0
F272.0
tp1221
atp1222
a(L5L
g2
(lp1223
(g6
F201.0
F201.0
tp1224
a(g8
F201.0
F201.0
tp1225
atp1226
a(L8L
g2
(lp1227
(g72
F196.0
F196.0
tp1228
atp1229
a(L15L
g150
(lp1230
(g58
I0
F0.0
tp1231
a(g60
I0
F97.0
tp1232
a(g22
F97.0
F117.0
tp1233
a(g62
F117.0
F177.0
tp1234
a(g38
F177.0
F196.0
tp1235
a(g64
F196.0
F230.0
tp1236
a(g52
F230.0
F268.0
tp1237
a(g12
F268.0
F296.0
tp1238
a(g14
F296.0
F297.0
tp1239
atp1240
a(L16L
g2
(lp1241
(g44
F296.0
F296.0
tp1242
atp1243
a(L17L
g142
(lp1244
(g32
F303.0
F303.0
tp1245
atp1246
a(L19L
g430
(lp1247
(g36
F97.0
F142.0
tp1248
a(g54
F177.0
F235.0
tp1249
a(g87
F235.0
F270.0
tp1250
a(g28
F270.0
F303.0
tp1251
atp1252
a(L20L
g807
(lp1253
(g20
F97.0
F200.0
tp1254
a(g26
F200.0
F265.0
tp1255
a(g83
F265.0
F268.0
tp1256
a(g16
F303.0
F303.0
tp1257
a(g77
F303.0
F303.0
tp1258
atp1259
a(L21L
g2
(lp1260
(g81
F230.0
F230.0
tp1261
atp1262
a(L24L
g2
(lp1263
(g30
F303.0
F303.0
tp1264
atp1265
a(L26L
g2
(lp1266
(g24
F142.0
F142.0
tp1267
atp1268
a(L27L
g2
(lp1269
(g10
F117.0
F117.0
tp1270
atp1271
a(L29L
g2
(lp1272
(g89
F270.0
F270.0
tp1273
atp1274
a(L31L
g2
(lp1275
(g68
F265.0
F265.0
tp1276
atp1277
atp1278
a(F321.0
F1.1
(lp1279
(L3L
g807
(lp1280
(g22
F97.0
F183.0
tp1281
a(g40
F183.0
F247.0
tp1282
a(g28
F247.0
F318.0
tp1283
atp1284
a(L10L
g150
(lp1285
(g24
F194.0
F194.0
tp1286
atp1287
a(L11L
g807
(lp1288
(g16
F321.0
F321.0
tp1289
atp1290
a(L12L
g2
(lp1291
(g68
F291.0
F291.0
tp1292
atp1293
a(L15L
g150
(lp1294
(g58
I0
F0.0
tp1295
a(g60
I0
F97.0
tp1296
a(g4
F97.0
F121.0
tp1297
a(g62
F121.0
F181.0
tp1298
a(g38
F181.0
F200.0
tp1299
a(g64
F200.0
F234.0
tp1300
a(g81
F234.0
F234.0
tp1301
a(g10
F234.0
F234.0
tp1302
a(g52
F234.0
F272.0
tp1303
a(g48
F272.0
F273.0
tp1304
a(g12
F273.0
F301.0
tp1305
a(g44
F301.0
F302.0
tp1306
a(g87
F302.0
F320.0
tp1307
a(g89
F320.0
F321.0
tp1308
a(g32
F321.0
F321.0
tp1309
atp1310
a(L16L
g430
(lp1311
(g77
F321.0
F321.0
tp1312
atp1313
a(L19L
g807
(lp1314
(g36
F97.0
F194.0
tp1315
a(g54
F194.0
F321.0
tp1316
atp1317
a(L20L
g807
(lp1318
(g6
F121.0
F123.0
tp1319
a(g20
F123.0
F226.0
tp1320
a(g26
F226.0
F291.0
tp1321
a(g72
F291.0
F295.0
tp1322
atp1323
a(L22L
g2
(lp1324
(g8
F226.0
F226.0
tp1325
atp1326
a(L25L
g2
(lp1327
(g30
F318.0
F318.0
tp1328
atp1329
a(L26L
g2
(lp1330
(g83
F247.0
F247.0
tp1331
atp1332
a(L31L
g2
(lp1333
(g14
F321.0
F321.0
tp1334
atp1335
atp1336
a(F350.0
F0.95
(lp1337
(L2L
g142
(lp1338
(g77
F350.0
F350.0
tp1339
atp1340
a(L3L
g2
(lp1341
(g48
F288.0
F288.0
tp1342
atp1343
a(L4L
g2
(lp1344
(g24
F194.0
F194.0
tp1345
atp1346
a(L7L
g2
(lp1347
(g68
F266.0
F266.0
tp1348
atp1349
a(L9L
g142
(lp1350
(g32
F350.0
F350.0
tp1351
atp1352
a(L10L
g2
(lp1353
(g44
F316.0
F316.0
tp1354
atp1355
a(L15L
g150
(lp1356
(g58
I0
F0.0
tp1357
a(g60
I0
F97.0
tp1358
a(g4
F97.0
F121.0
tp1359
a(g6
F121.0
F121.0
tp1360
a(g22
F121.0
F141.0
tp1361
a(g62
F141.0
F201.0
tp1362
a(g64
F201.0
F235.0
tp1363
a(g40
F235.0
F250.0
tp1364
a(g52
F250.0
F288.0
tp1365
a(g12
F288.0
F316.0
tp1366
a(g87
F316.0
F334.0
tp1367
a(g28
F334.0
F350.0
tp1368
atp1369
a(L17L
g2
(lp1370
(g72
F349.0
F349.0
tp1371
a(g81
F349.0
F349.0
tp1372
atp1373
a(L18L
g150
(lp1374
(g10
F141.0
F141.0
tp1375
atp1376
a(L19L
g807
(lp1377
(g36
F97.0
F194.0
tp1378
a(g8
F200.0
F202.0
tp1379
a(g54
F202.0
F329.0
tp1380
atp1381
a(L20L
g807
(lp1382
(g20
F97.0
F200.0
tp1383
a(g26
F201.0
F266.0
tp1384
a(g38
F266.0
F349.0
tp1385
a(g16
F350.0
F350.0
tp1386
atp1387
a(L26L
g2
(lp1388
(g89
F334.0
F334.0
tp1389
atp1390
a(L27L
g2
(lp1391
(g30
F350.0
F350.0
tp1392
atp1393
a(L30L
g2
(lp1394
(g83
F250.0
F250.0
tp1395
atp1396
a(L31L
g2
(lp1397
(g14
F329.0
F329.0
tp1398
atp1399
atp1400
a(F387.0
F0.87
(lp1401
(L0L
g150
(lp1402
(g6
F121.0
F121.0
tp1403
atp1404
a(L2L
g2
(lp1405
(g72
F236.0
F236.0
tp1406
a(g10
F236.0
F236.0
tp1407
atp1408
a(L5L
g2
(lp1409
(g89
F361.0
F361.0
tp1410
atp1411
a(L6L
g1024
(lp1412
(g36
F97.0
F387.0
tp1413
atp1414
a(L13L
g150
(lp1415
(g8
F200.0
F200.0
tp1416
atp1417
a(L14L
g430
(lp1418
(g16
F387.0
F387.0
tp1419
atp1420
a(L15L
g150
(lp1421
(g58
I0
F0.0
tp1422
a(g60
I0
F97.0
tp1423
a(g4
F97.0
F121.0
tp1424
a(g22
F121.0
F141.0
tp1425
a(g62
F141.0
F201.0
tp1426
a(g26
F201.0
F216.0
tp1427
a(g68
F216.0
F217.0
tp1428
a(g38
F217.0
F236.0
tp1429
a(g64
F236.0
F270.0
tp1430
a(g40
F270.0
F285.0
tp1431
a(g83
F285.0
F286.0
tp1432
a(g12
F286.0
F314.0
tp1433
a(g54
F314.0
F343.0
tp1434
a(g87
F343.0
F361.0
tp1435
a(g28
F361.0
F377.0
tp1436
atp1437
a(L16L
g150
(lp1438
(g32
F387.0
F387.0
tp1439
atp1440
a(L19L
g2
(lp1441
(g48
F366.0
F366.0
tp1442
atp1443
a(L20L
g807
(lp1444
(g20
F97.0
F200.0
tp1445
a(g52
F200.0
F366.0
tp1446
a(g44
F366.0
F370.0
tp1447
a(g30
F377.0
F379.0
tp1448
atp1449
a(L23L
g150
(lp1450
(g81
F270.0
F270.0
tp1451
atp1452
a(L24L
g150
(lp1453
(g24
F387.0
F387.0
tp1454
atp1455
a(L28L
g598
(lp1456
(g77
F387.0
F387.0
tp1457
atp1458
a(L30L
g2
(lp1459
(g14
F343.0
F343.0
tp1460
atp1461
atp1462
a(F401.0
F0.79
(lp1463
(L0L
g150
(lp1464
(g6
F121.0
F121.0
tp1465
atp1466
a(L2L
g2
(lp1467
(g72
F258.0
F258.0
tp1468
a(g10
F258.0
F258.0
tp1469
atp1470
a(L5L
g2
(lp1471
(g89
F383.0
F383.0
tp1472
atp1473
a(L13L
g2
(lp1474
(g8
F200.0
F200.0
tp1475
atp1476
a(L14L
g430
(lp1477
(g16
F401.0
F401.0
tp1478
atp1479
a(L15L
g150
(lp1480
(g58
I0
F0.0
tp1481
a(g60
I0
F97.0
tp1482
a(g4
F97.0
F121.0
tp1483
a(g36
F121.0
F143.0
tp1484
a(g22
F143.0
F163.0
tp1485
a(g62
F163.0
F223.0
tp1486
a(g26
F223.0
F238.0
tp1487
a(g68
F238.0
F239.0
tp1488
a(g38
F239.0
F258.0
tp1489
a(g64
F258.0
F292.0
tp1490
a(g40
F292.0
F307.0
tp1491
a(g83
F307.0
F308.0
tp1492
a(g12
F308.0
F336.0
tp1493
a(g54
F336.0
F365.0
tp1494
a(g87
F365.0
F383.0
tp1495
a(g28
F383.0
F399.0
tp1496
atp1497
a(L16L
g150
(lp1498
(g32
F399.0
F399.0
tp1499
atp1500
a(L19L
g2
(lp1501
(g48
F366.0
F366.0
tp1502
atp1503
a(L20L
g807
(lp1504
(g20
F97.0
F200.0
tp1505
a(g52
F200.0
F366.0
tp1506
a(g44
F366.0
F370.0
tp1507
a(g30
F399.0
F401.0
tp1508
atp1509
a(L23L
g150
(lp1510
(g81
F292.0
F292.0
tp1511
atp1512
a(L24L
g150
(lp1513
(g24
F143.0
F143.0
tp1514
atp1515
a(L28L
g598
(lp1516
(g77
F401.0
F401.0
tp1517
atp1518
a(L30L
g2
(lp1519
(g14
F365.0
F365.0
tp1520
atp1521
atp1522
a(F567.0
F0.71
(lp1523
(L2L
g1024
(lp1524
(g40
F314.0
F506.0
tp1525
atp1526
a(L3L
g807
(lp1527
(g4
F195.0
F299.0
tp1528
a(g36
F299.0
F396.0
tp1529
a(g26
F396.0
F461.0
tp1530
a(g87
F461.0
F537.0
tp1531
atp1532
a(L4L
g2
(lp1533
(g83
F506.0
F506.0
tp1534
atp1535
a(L8L
g2
(lp1536
(g30
F567.0
F567.0
tp1537
atp1538
a(L10L
g2
(lp1539
(g89
F537.0
F537.0
tp1540
atp1541
a(L12L
g2
(lp1542
(g24
F396.0
F396.0
tp1543
atp1544
a(L15L
g430
(lp1545
(g58
I0
F0.0
tp1546
a(g60
I0
F195.0
tp1547
a(g62
F195.0
F314.0
tp1548
a(g38
F314.0
F352.0
tp1549
a(g64
F352.0
F420.0
tp1550
a(g12
F420.0
F476.0
tp1551
a(g54
F476.0
F534.0
tp1552
a(g28
F534.0
F567.0
tp1553
atp1554
a(L16L
g2
(lp1555
(g48
F554.0
F554.0
tp1556
atp1557
a(L17L
g150
(lp1558
(g10
F384.0
F384.0
tp1559
atp1560
a(L18L
g150
(lp1561
(g16
F567.0
F567.0
tp1562
atp1563
a(L19L
g2
(lp1564
(g14
F534.0
F534.0
tp1565
atp1566
a(L20L
g807
(lp1567
(g20
F195.0
F298.0
tp1568
a(g22
F298.0
F384.0
tp1569
a(g72
F384.0
F388.0
tp1570
a(g52
F388.0
F554.0
tp1571
a(g44
F554.0
F558.0
tp1572
atp1573
a(L24L
g1024
(lp1574
(g77
F567.0
F567.0
tp1575
atp1576
a(L26L
g2
(lp1577
(g68
F461.0
F461.0
tp1578
a(g81
F461.0
F461.0
tp1579
atp1580
a(L28L
g2
(lp1581
(g6
F299.0
F299.0
tp1582
a(g8
F299.0
F299.0
tp1583
atp1584
a(L31L
g430
(lp1585
(g32
F567.0
F567.0
tp1586
atp1587
atp1588
a(F586.0
F0.63
(lp1589
(L1L
g150
(lp1590
(g32
F586.0
F586.0
tp1591
atp1592
a(L3L
g807
(lp1593
(g4
F195.0
F299.0
tp1594
a(g36
F299.0
F396.0
tp1595
a(g26
F396.0
F461.0
tp1596
a(g40
F461.0
F525.0
tp1597
a(g89
F553.0
F557.0
tp1598
atp1599
a(L4L
g2
(lp1600
(g10
F235.0
F235.0
tp1601
atp1602
a(L10L
g2
(lp1603
(g30
F586.0
F586.0
tp1604
atp1605
a(L12L
g2
(lp1606
(g6
F299.0
F299.0
tp1607
atp1608
a(L13L
g2
(lp1609
(g24
F396.0
F396.0
tp1610
atp1611
a(L14L
g150
(lp1612
(g8
F298.0
F298.0
tp1613
atp1614
a(L15L
g430
(lp1615
(g58
I0
F0.0
tp1616
a(g60
I0
F195.0
tp1617
a(g22
F195.0
F235.0
tp1618
a(g62
F235.0
F354.0
tp1619
a(g38
F354.0
F392.0
tp1620
a(g64
F392.0
F460.0
tp1621
a(g54
F460.0
F518.0
tp1622
a(g87
F518.0
F553.0
tp1623
a(g28
F553.0
F586.0
tp1624
atp1625
a(L17L
g2
(lp1626
(g44
F586.0
F586.0
tp1627
atp1628
a(L19L
g2
(lp1629
(g72
F392.0
F392.0
tp1630
atp1631
a(L20L
g807
(lp1632
(g20
F195.0
F298.0
tp1633
a(g52
F298.0
F464.0
tp1634
a(g12
F464.0
F586.0
tp1635
atp1636
a(L21L
g598
(lp1637
(g16
F586.0
F586.0
tp1638
atp1639
a(L22L
g807
(lp1640
(g77
F586.0
F586.0
tp1641
atp1642
a(L25L
g2
(lp1643
(g68
F461.0
F461.0
tp1644
a(g81
F461.0
F461.0
tp1645
atp1646
a(L29L
g2
(lp1647
(g14
F518.0
F518.0
tp1648
atp1649
a(L31L
g2
(lp1650
(g83
F525.0
F525.0
tp1651
a(g48
F525.0
F525.0
tp1652
atp1653
atp1654
a(F680.0
F0.55
(lp1655
(L1L
g2
(lp1656
(g6
F243.0
F243.0
tp1657
atp1658
a(L3L
g1024
(lp1659
(g36
F195.0
F485.0
tp1660
a(g68
F485.0
F496.0
tp1661
atp1662
a(L10L
g2
(lp1663
(g30
F680.0
F680.0
tp1664
atp1665
a(L11L
g430
(lp1666
(g16
F680.0
F680.0
tp1667
atp1668
a(L12L
g150
(lp1669
(g24
F485.0
F485.0
tp1670
atp1671
a(L14L
g2
(lp1672
(g14
F612.0
F612.0
tp1673
atp1674
a(L15L
g430
(lp1675
(g58
I0
F0.0
tp1676
a(g60
I0
F195.0
tp1677
a(g4
F195.0
F243.0
tp1678
a(g62
F243.0
F362.0
tp1679
a(g26
F362.0
F392.0
tp1680
a(g38
F392.0
F430.0
tp1681
a(g64
F430.0
F498.0
tp1682
a(g12
F498.0
F554.0
tp1683
a(g54
F554.0
F612.0
tp1684
a(g87
F612.0
F647.0
tp1685
a(g28
F647.0
F680.0
tp1686
a(g32
F680.0
F680.0
tp1687
a(g77
F680.0
F680.0
tp1688
atp1689
a(L17L
g2
(lp1690
(g10
F386.0
F386.0
tp1691
atp1692
a(L20L
g807
(lp1693
(g20
F195.0
F298.0
tp1694
a(g8
F298.0
F300.0
tp1695
a(g22
F300.0
F386.0
tp1696
a(g40
F386.0
F450.0
tp1697
a(g52
F450.0
F616.0
tp1698
a(g89
F647.0
F651.0
tp1699
atp1700
a(L22L
g2
(lp1701
(g83
F450.0
F450.0
tp1702
atp1703
a(L23L
g2
(lp1704
(g72
F430.0
F430.0
tp1705
atp1706
a(L24L
g2
(lp1707
(g48
F616.0
F616.0
tp1708
atp1709
a(L25L
g2
(lp1710
(g44
F554.0
F554.0
tp1711
atp1712
a(L27L
g2
(lp1713
(g81
F498.0
F498.0
tp1714
atp1715
atp1716
a(F1031.0
F0.47
(lp1717
(L2L
g2
(lp1718
(g48
F910.0
F910.0
tp1719
atp1720
a(L3L
g807
(lp1721
(g4
F422.0
F526.0
tp1722
a(g36
F526.0
F623.0
tp1723
a(g26
F680.0
F745.0
tp1724
a(g54
F745.0
F872.0
tp1725
a(g87
F872.0
F948.0
tp1726
a(g28
F948.0
F1019.0
tp1727
atp1728
a(L4L
g2
(lp1729
(g83
F744.0
F744.0
tp1730
atp1731
a(L8L
g2
(lp1732
(g30
F1019.0
F1019.0
tp1733
atp1734
a(L9L
g2
(lp1735
(g77
F1031.0
F1031.0
tp1736
atp1737
a(L10L
g2
(lp1738
(g89
F948.0
F948.0
tp1739
atp1740
a(L11L
g598
(lp1741
(g32
F1031.0
F1031.0
tp1742
atp1743
a(L14L
g2
(lp1744
(g14
F872.0
F872.0
tp1745
atp1746
a(L15L
g807
(lp1747
(g58
I0
F0.0
tp1748
a(g60
I0
F422.0
tp1749
a(g62
F422.0
F680.0
tp1750
a(g38
F680.0
F763.0
tp1751
a(g64
F763.0
F909.0
tp1752
a(g12
F909.0
F1031.0
tp1753
atp1754
a(L16L
g150
(lp1755
(g81
F909.0
F909.0
tp1756
a(g10
F909.0
F909.0
tp1757
atp1758
a(L20L
g807
(lp1759
(g20
F422.0
F525.0
tp1760
a(g22
F525.0
F611.0
tp1761
a(g24
F623.0
F625.0
tp1762
a(g40
F680.0
F744.0
tp1763
a(g52
F744.0
F910.0
tp1764
atp1765
a(L21L
g2
(lp1766
(g44
F1031.0
F1031.0
tp1767
atp1768
a(L23L
g2
(lp1769
(g72
F763.0
F763.0
tp1770
atp1771
a(L24L
g2
(lp1772
(g68
F745.0
F745.0
tp1773
atp1774
a(L30L
g150
(lp1775
(g6
F526.0
F526.0
tp1776
a(g8
F526.0
F526.0
tp1777
atp1778
a(L31L
g598
(lp1779
(g16
F1031.0
F1031.0
tp1780
atp1781
atp1782
a(F1159.0
F0.4
(lp1783
(L0L
g2
(lp1784
(g48
F1124.0
F1124.0
tp1785
a(g44
F1124.0
F1124.0
tp1786
a(g14
F1124.0
F1124.0
tp1787
atp1788
a(L3L
g1024
(lp1789
(g4
F422.0
F734.0
tp1790
a(g36
F734.0
F1024.0
tp1791
atp1792
a(L5L
g2
(lp1793
(g6
F734.0
F734.0
tp1794
atp1795
a(L13L
g2
(lp1796
(g24
F1024.0
F1024.0
tp1797
atp1798
a(L15L
g807
(lp1799
(g58
I0
F0.0
tp1800
a(g60
I0
F422.0
tp1801
a(g62
F422.0
F680.0
tp1802
a(g38
F680.0
F763.0
tp1803
a(g12
F763.0
F885.0
tp1804
a(g54
F885.0
F1012.0
tp1805
a(g87
F1012.0
F1088.0
tp1806
a(g28
F1088.0
F1159.0
tp1807
atp1808
a(L17L
g150
(lp1809
(g8
F525.0
F525.0
tp1810
atp1811
a(L18L
g2
(lp1812
(g68
F745.0
F745.0
tp1813
atp1814
a(L19L
g2
(lp1815
(g32
F1159.0
F1159.0
tp1816
atp1817
a(L20L
g807
(lp1818
(g20
F422.0
F525.0
tp1819
a(g22
F525.0
F611.0
tp1820
a(g26
F680.0
F745.0
tp1821
a(g64
F745.0
F891.0
tp1822
a(g40
F891.0
F955.0
tp1823
a(g83
F955.0
F958.0
tp1824
a(g52
F958.0
F1124.0
tp1825
atp1826
a(L22L
g2
(lp1827
(g89
F1088.0
F1088.0
tp1828
atp1829
a(L25L
g807
(lp1830
(g16
F1159.0
F1159.0
tp1831
atp1832
a(L28L
g2
(lp1833
(g72
F763.0
F763.0
tp1834
atp1835
a(L30L
g2
(lp1836
(g30
F1159.0
F1159.0
tp1837
a(g77
F1159.0
F1159.0
tp1838
atp1839
a(L31L
g2
(lp1840
(g81
F891.0
F891.0
tp1841
a(g10
F891.0
F891.0
tp1842
atp1843
atp1844
a(F1565.0
F0.32
(lp1845
(L0L
g2
(lp1846
(g48
F1460.0
F1460.0
tp1847
atp1848
a(L3L
g1024
(lp1849
(g4
F422.0
F734.0
tp1850
a(g36
F734.0
F1024.0
tp1851
a(g40
F1024.0
F1216.0
tp1852
a(g44
F1341.0
F1353.0
tp1853
a(g28
F1353.0
F1565.0
tp1854
atp1855
a(L5L
g150
(lp1856
(g6
F734.0
F734.0
tp1857
a(g8
F734.0
F734.0
tp1858
a(g10
F734.0
F734.0
tp1859
atp1860
a(L7L
g142
(lp1861
(g32
F1565.0
F1565.0
tp1862
atp1863
a(L9L
g2
(lp1864
(g24
F1024.0
F1024.0
tp1865
a(g72
F1024.0
F1024.0
tp1866
atp1867
a(L10L
g2
(lp1868
(g30
F1565.0
F1565.0
tp1869
atp1870
a(L13L
g150
(lp1871
(g81
F995.0
F995.0
tp1872
atp1873
a(L15L
g807
(lp1874
(g58
I0
F0.0
tp1875
a(g60
I0
F422.0
tp1876
a(g22
F422.0
F508.0
tp1877
a(g62
F508.0
F766.0
tp1878
a(g38
F766.0
F849.0
tp1879
a(g64
F849.0
F995.0
tp1880
a(g83
F1216.0
F1219.0
tp1881
a(g12
F1219.0
F1341.0
tp1882
a(g54
F1341.0
F1468.0
tp1883
a(g87
F1468.0
F1544.0
tp1884
atp1885
a(L20L
g1024
(lp1886
(g20
F422.0
F730.0
tp1887
a(g26
F766.0
F962.0
tp1888
a(g52
F962.0
F1460.0
tp1889
a(g77
F1565.0
F1565.0
tp1890
atp1891
a(L21L
g2
(lp1892
(g68
F962.0
F962.0
tp1893
atp1894
a(L22L
g2
(lp1895
(g89
F1544.0
F1544.0
tp1896
atp1897
a(L29L
g2
(lp1898
(g14
F1468.0
F1468.0
tp1899
atp1900
a(L31L
g2
(lp1901
(g16
F1565.0
F1565.0
tp1902
atp1903
atp1904
a.