(lp0
(F1718.0
F6.3
(lp1
(L0L
Vapac-sin#m3.2xlarge
p2
(lp3
(VID00003
p4
F33.0
F36.0
tp5
a(VID00010
p6
F36.0
F38.0
tp7
a(VID00011
p8
F38.0
F39.0
tp9
a(VID00017
p10
F39.0
F1023.0
tp11
atp12
a(L1L
Vapac-sin#m3.medium
p13
(lp14
(VID00022
p15
F1295.0
F1295.0
tp16
atp17
a(L13L
g2
(lp18
(VID00001
p19
F33.0
F35.0
tp20
a(VID00006
p21
F35.0
F36.0
tp22
a(VID00008
p23
F36.0
F37.0
tp24
a(VID00016
p25
F39.0
F910.0
tp26
a(VID00023
p27
F1295.0
F1718.0
tp28
atp29
a(L16L
g2
(lp30
(VID00004
p31
F33.0
F36.0
tp32
a(VID00009
p33
F36.0
F37.0
tp34
a(VID00013
p35
F37.0
F38.0
tp36
a(VID00014
p37
F38.0
F39.0
tp38
a(VID00019
p39
F39.0
F1154.0
tp40
atp41
a(L17L
g2
(lp42
(S'entry'
p43
I0
F0.0
tp44
a(VID00000
p45
I0
F32.0
tp46
a(VID00005
p47
F32.0
F36.0
tp48
a(VID00007
p49
F36.0
F37.0
tp50
a(VID00012
p51
F37.0
F39.0
tp52
a(VID00020
p53
F40.0
F1290.0
tp54
a(VID00021
p55
F1290.0
F1295.0
tp56
atp57
a(L19L
g2
(lp58
(VID00002
p59
F33.0
F36.0
tp60
a(VID00015
p61
F38.0
F40.0
tp62
a(VID00018
p63
F40.0
F786.0
tp64
atp65
a(L21L
Vapac-sin#m1.small
p66
(lp67
(S'exit'
p68
F1718.0
F1718.0
tp69
atp70
atp71
a(F1958.0
F5.67
(lp72
(L0L
g2
(lp73
(g4
F33.0
F36.0
tp74
a(g8
F36.0
F37.0
tp75
a(g10
F42.0
F1026.0
tp76
atp77
a(L1L
g13
(lp78
(g15
F1535.0
F1535.0
tp79
atp80
a(L13L
g2
(lp81
(g19
F33.0
F35.0
tp82
a(g21
F35.0
F36.0
tp83
a(g23
F36.0
F37.0
tp84
a(g6
F37.0
F39.0
tp85
a(g25
F39.0
F910.0
tp86
a(g27
F1535.0
F1958.0
tp87
atp88
a(L16L
g2
(lp89
(g31
F33.0
F36.0
tp90
a(g33
F36.0
F37.0
tp91
a(g35
F37.0
F38.0
tp92
a(g37
F38.0
F39.0
tp93
a(g39
F39.0
F1154.0
tp94
atp95
a(L17L
g2
(lp96
(g43
I0
F0.0
tp97
a(g45
I0
F32.0
tp98
a(g47
F32.0
F36.0
tp99
a(g49
F39.0
F40.0
tp100
a(g51
F40.0
F42.0
tp101
a(g61
F42.0
F44.0
tp102
a(g53
F44.0
F1294.0
tp103
a(g55
F1530.0
F1535.0
tp104
atp105
a(L19L
Vapac-sin#m3.xlarge
p106
(lp107
(g59
F33.0
F38.0
tp108
a(g63
F38.0
F1530.0
tp109
atp110
a(L21L
g66
(lp111
(g68
F1958.0
F1958.0
tp112
atp113
atp114
a(F2081.0
F5.04
(lp115
(L1L
Vapac-sin#m1.large
p116
(lp117
(g15
F1658.0
F1658.0
tp118
atp119
a(L10L
g2
(lp120
(g25
F36.0
F907.0
tp121
a(g63
F907.0
F1653.0
tp122
atp123
a(L13L
g2
(lp124
(g43
I0
F0.0
tp125
a(g45
I0
F32.0
tp126
a(g19
F32.0
F34.0
tp127
a(g31
F34.0
F37.0
tp128
a(g4
F37.0
F40.0
tp129
a(g33
F40.0
F41.0
tp130
a(g23
F41.0
F42.0
tp131
a(g51
F43.0
F45.0
tp132
a(g35
F45.0
F46.0
tp133
a(g6
F46.0
F48.0
tp134
a(g10
F48.0
F1032.0
tp135
a(g27
F1658.0
F2081.0
tp136
atp137
a(L16L
g2
(lp138
(g21
F34.0
F35.0
tp139
a(g47
F35.0
F39.0
tp140
a(g59
F39.0
F42.0
tp141
a(g49
F42.0
F43.0
tp142
a(g37
F43.0
F44.0
tp143
a(g39
F44.0
F1159.0
tp144
atp145
a(L17L
g2
(lp146
(g8
F35.0
F36.0
tp147
a(g61
F48.0
F50.0
tp148
a(g53
F50.0
F1300.0
tp149
a(g55
F1653.0
F1658.0
tp150
atp151
a(L21L
g66
(lp152
(g68
F2081.0
F2081.0
tp153
atp154
atp155
a(F2206.0
F4.41
(lp156
(L5L
g106
(lp157
(g25
F36.0
F1778.0
tp158
atp159
a(L10L
Vapac-sin#m1.medium
p160
(lp161
(g15
F1783.0
F1783.0
tp162
atp163
a(L13L
g2
(lp164
(g43
I0
F0.0
tp165
a(g45
I0
F32.0
tp166
a(g19
F32.0
F34.0
tp167
a(g21
F34.0
F35.0
tp168
a(g4
F35.0
F38.0
tp169
a(g49
F43.0
F44.0
tp170
a(g51
F44.0
F46.0
tp171
a(g10
F46.0
F1030.0
tp172
a(g63
F1030.0
F1776.0
tp173
a(g27
F1783.0
F2206.0
tp174
atp175
a(L16L
g2
(lp176
(g31
F33.0
F36.0
tp177
a(g47
F36.0
F40.0
tp178
a(g59
F40.0
F43.0
tp179
a(g33
F43.0
F44.0
tp180
a(g23
F44.0
F45.0
tp181
a(g35
F45.0
F46.0
tp182
a(g6
F46.0
F48.0
tp183
a(g39
F48.0
F1163.0
tp184
atp185
a(L17L
g2
(lp186
(g8
F35.0
F36.0
tp187
a(g37
F44.0
F45.0
tp188
a(g61
F48.0
F50.0
tp189
a(g53
F50.0
F1300.0
tp190
a(g55
F1778.0
F1783.0
tp191
atp192
a(L21L
Vapac-sin#m3.large
p193
(lp194
(g68
F2206.0
F2206.0
tp195
atp196
atp197
a(F2327.0
F3.86
(lp198
(L0L
g2
(lp199
(g4
F33.0
F36.0
tp200
a(g59
F36.0
F39.0
tp201
a(g25
F39.0
F910.0
tp202
a(g10
F910.0
F1894.0
tp203
atp204
a(L10L
g2
(lp205
(g15
F1904.0
F1904.0
tp206
atp207
a(L13L
g2
(lp208
(g19
F33.0
F35.0
tp209
a(g21
F35.0
F36.0
tp210
a(g6
F36.0
F38.0
tp211
a(g63
F38.0
F784.0
tp212
a(g39
F784.0
F1899.0
tp213
a(g27
F1904.0
F2327.0
tp214
atp215
a(L16L
g66
(lp216
(g31
F35.0
F109.0
tp217
a(g49
F109.0
F137.0
tp218
a(g33
F137.0
F161.0
tp219
a(g51
F161.0
F208.0
tp220
a(g61
F208.0
F249.0
tp221
atp222
a(L17L
g2
(lp223
(g43
I0
F0.0
tp224
a(g45
I0
F32.0
tp225
a(g47
F32.0
F36.0
tp226
a(g23
F36.0
F37.0
tp227
a(g35
F37.0
F38.0
tp228
a(g8
F38.0
F39.0
tp229
a(g37
F162.0
F163.0
tp230
a(g53
F249.0
F1499.0
tp231
a(g55
F1899.0
F1904.0
tp232
atp233
a(L21L
g66
(lp234
(g68
F2327.0
F2327.0
tp235
atp236
atp237
a(F2329.0
F3.78
(lp238
(L16L
g2
(lp239
(g31
F33.0
F36.0
tp240
a(g59
F36.0
F39.0
tp241
a(g35
F39.0
F40.0
tp242
a(g63
F40.0
F786.0
tp243
a(g39
F786.0
F1901.0
tp244
atp245
a(L17L
g2
(lp246
(g43
I0
F0.0
tp247
a(g45
I0
F32.0
tp248
a(g21
F35.0
F36.0
tp249
a(g47
F36.0
F40.0
tp250
a(g49
F40.0
F41.0
tp251
a(g33
F41.0
F42.0
tp252
a(g37
F42.0
F43.0
tp253
a(g61
F45.0
F47.0
tp254
a(g53
F47.0
F1297.0
tp255
a(g55
F1901.0
F1906.0
tp256
atp257
a(L10L
g13
(lp258
(g15
F1906.0
F1906.0
tp259
atp260
a(L13L
g2
(lp261
(g19
F33.0
F35.0
tp262
a(g4
F35.0
F38.0
tp263
a(g23
F38.0
F39.0
tp264
a(g51
F41.0
F43.0
tp265
a(g6
F43.0
F45.0
tp266
a(g8
F45.0
F46.0
tp267
a(g25
F46.0
F917.0
tp268
a(g10
F917.0
F1901.0
tp269
a(g27
F1906.0
F2329.0
tp270
atp271
a(L21L
g13
(lp272
(g68
F2329.0
F2329.0
tp273
atp274
atp275
a(F2464.0
F3.23
(lp276
(L16L
g66
(lp277
(g31
F35.0
F109.0
tp278
a(g33
F109.0
F133.0
tp279
a(g37
F133.0
F171.0
tp280
atp281
a(L17L
g2
(lp282
(g43
I0
F0.0
tp283
a(g45
I0
F32.0
tp284
a(g47
F32.0
F36.0
tp285
a(g6
F36.0
F38.0
tp286
a(g61
F38.0
F40.0
tp287
a(g53
F40.0
F1290.0
tp288
a(g63
F1290.0
F2036.0
tp289
atp290
a(L4L
g160
(lp291
(g15
F2041.0
F2041.0
tp292
atp293
a(L13L
g2
(lp294
(g19
F33.0
F35.0
tp295
a(g21
F35.0
F36.0
tp296
a(g4
F36.0
F39.0
tp297
a(g59
F39.0
F42.0
tp298
a(g51
F46.0
F48.0
tp299
a(g8
F48.0
F49.0
tp300
a(g25
F49.0
F920.0
tp301
a(g39
F920.0
F2035.0
tp302
a(g55
F2036.0
F2041.0
tp303
a(g27
F2041.0
F2464.0
tp304
atp305
a(L0L
g106
(lp306
(g49
F43.0
F45.0
tp307
a(g23
F45.0
F47.0
tp308
a(g35
F47.0
F49.0
tp309
a(g10
F49.0
F2016.0
tp310
a(g68
F2464.0
F2464.0
tp311
atp312
atp313
a(F2699.0
F3.15
(lp314
(L16L
g106
(lp315
(g33
F36.0
F38.0
tp316
a(g37
F38.0
F41.0
tp317
a(g39
F41.0
F2271.0
tp318
atp319
a(L17L
g2
(lp320
(g43
I0
F0.0
tp321
a(g45
I0
F32.0
tp322
a(g31
F32.0
F35.0
tp323
a(g47
F35.0
F39.0
tp324
a(g59
F39.0
F42.0
tp325
a(g35
F44.0
F45.0
tp326
a(g6
F45.0
F47.0
tp327
a(g8
F47.0
F48.0
tp328
a(g61
F48.0
F50.0
tp329
a(g53
F50.0
F1300.0
tp330
a(g63
F1300.0
F2046.0
tp331
a(g55
F2271.0
F2276.0
tp332
atp333
a(L10L
g160
(lp334
(g15
F2276.0
F2276.0
tp335
atp336
a(L3L
g106
(lp337
(g68
F2699.0
F2699.0
tp338
atp339
a(L13L
g2
(lp340
(g19
F33.0
F35.0
tp341
a(g21
F35.0
F36.0
tp342
a(g4
F36.0
F39.0
tp343
a(g49
F42.0
F43.0
tp344
a(g23
F43.0
F44.0
tp345
a(g51
F44.0
F46.0
tp346
a(g25
F48.0
F919.0
tp347
a(g10
F919.0
F1903.0
tp348
a(g27
F2276.0
F2699.0
tp349
atp350
atp351
a(F3065.0
F2.6
(lp352
(L1L
g13
(lp353
(g15
F2642.0
F2642.0
tp354
atp355
a(L13L
g2
(lp356
(g43
I0
F0.0
tp357
a(g45
I0
F32.0
tp358
a(g19
F32.0
F34.0
tp359
a(g21
F34.0
F35.0
tp360
a(g8
F35.0
F36.0
tp361
a(g25
F36.0
F907.0
tp362
a(g10
F907.0
F1891.0
tp363
a(g63
F1891.0
F2637.0
tp364
a(g55
F2637.0
F2642.0
tp365
a(g27
F2642.0
F3065.0
tp366
atp367
a(L16L
g106
(lp368
(g31
F33.0
F39.0
tp369
a(g49
F39.0
F41.0
tp370
a(g33
F41.0
F43.0
tp371
a(g51
F43.0
F47.0
tp372
a(g35
F221.0
F223.0
tp373
a(g37
F223.0
F226.0
tp374
a(g39
F226.0
F2456.0
tp375
atp376
a(L17L
g106
(lp377
(g59
F33.0
F38.0
tp378
a(g6
F130.0
F133.0
tp379
a(g61
F133.0
F136.0
tp380
a(g53
F136.0
F2636.0
tp381
atp382
a(L21L
g193
(lp383
(g68
F3065.0
F3065.0
tp384
atp385
a(L23L
g66
(lp386
(g47
F34.0
F129.0
tp387
a(g4
F129.0
F194.0
tp388
a(g23
F194.0
F220.0
tp389
atp390
atp391
a(F3074.0
F2.52
(lp392
(L16L
g106
(lp393
(g31
F33.0
F39.0
tp394
a(g4
F39.0
F44.0
tp395
a(g23
F44.0
F46.0
tp396
a(g51
F46.0
F50.0
tp397
a(g35
F50.0
F52.0
tp398
a(g37
F52.0
F55.0
tp399
a(g39
F55.0
F2285.0
tp400
atp401
a(L17L
g106
(lp402
(g21
F35.0
F36.0
tp403
a(g6
F39.0
F42.0
tp404
a(g8
F42.0
F45.0
tp405
a(g61
F45.0
F48.0
tp406
a(g53
F48.0
F2548.0
tp407
atp408
a(L20L
g160
(lp409
(g15
F2651.0
F2651.0
tp410
atp411
a(L13L
g2
(lp412
(g43
I0
F0.0
tp413
a(g45
I0
F32.0
tp414
a(g19
F32.0
F34.0
tp415
a(g47
F34.0
F38.0
tp416
a(g59
F38.0
F41.0
tp417
a(g49
F41.0
F42.0
tp418
a(g33
F42.0
F43.0
tp419
a(g25
F45.0
F916.0
tp420
a(g10
F916.0
F1900.0
tp421
a(g63
F1900.0
F2646.0
tp422
a(g55
F2646.0
F2651.0
tp423
a(g27
F2651.0
F3074.0
tp424
atp425
a(L21L
g116
(lp426
(g68
F3074.0
F3074.0
tp427
atp428
atp429
a(F10152.0
F2.28
(lp430
(L16L
g66
(lp431
(g31
F35.0
F109.0
tp432
a(g47
F109.0
F204.0
tp433
a(g4
F204.0
F269.0
tp434
a(g33
F269.0
F293.0
tp435
a(g23
F293.0
F319.0
tp436
a(g35
F319.0
F351.0
tp437
a(g6
F351.0
F391.0
tp438
a(g37
F391.0
F429.0
tp439
atp440
a(L17L
g2
(lp441
(g43
I0
F0.0
tp442
a(g45
I0
F32.0
tp443
a(g19
F32.0
F34.0
tp444
a(g59
F34.0
F37.0
tp445
a(g51
F43.0
F45.0
tp446
a(g8
F45.0
F46.0
tp447
a(g25
F46.0
F917.0
tp448
a(g61
F917.0
F919.0
tp449
a(g53
F919.0
F2169.0
tp450
a(g63
F2169.0
F2915.0
tp451
atp452
a(L21L
g106
(lp453
(g68
F10152.0
F10152.0
tp454
atp455
a(L13L
g193
(lp456
(g21
F35.0
F38.0
tp457
a(g49
F38.0
F42.0
tp458
a(g10
F45.0
F3979.0
tp459
a(g39
F3979.0
F8438.0
tp460
a(g55
F8438.0
F8459.0
tp461
a(g27
F8459.0
F10152.0
tp462
atp463
a(L1L
g13
(lp464
(g15
F8459.0
F8459.0
tp465
atp466
atp467
a.