(lp0
(F2379.0
F10.87
(lp1
(L16L
Vapac-sin#m1.small
p2
(lp3
(VID00014
p4
F31.0
F46.0
tp5
a(VID00025
p6
F46.0
F71.0
tp7
a(VID00019
p8
F71.0
F90.0
tp9
atp10
a(L36L
Vapac-sin#m3.2xlarge
p11
(lp12
(VID00017
p13
F12.0
F13.0
tp14
a(VID00030
p15
F13.0
F15.0
tp16
a(VID00040
p17
F15.0
F1863.0
tp18
atp19
a(L37L
g11
(lp20
(VID00012
p21
F32.0
F32.0
tp22
atp23
a(L7L
g11
(lp24
(S'entry'
p25
I0
F0.0
tp26
a(VID00001
p27
I0
F9.0
tp28
a(VID00010
p29
F9.0
F12.0
tp30
a(VID00036
p31
F52.0
F1366.0
tp32
atp33
a(L39L
Vapac-sin#m3.xlarge
p34
(lp35
(VID00022
p36
F32.0
F34.0
tp37
a(VID00039
p38
F91.0
F1520.0
tp39
atp40
a(L44L
g2
(lp41
(VID00026
p42
F27.0
F52.0
tp43
a(VID00018
p44
F52.0
F73.0
tp45
a(VID00028
p46
F73.0
F93.0
tp47
atp48
a(L45L
g11
(lp49
(VID00021
p50
F34.0
F35.0
tp51
a(VID00035
p52
F71.0
F1517.0
tp53
a(VID00043
p54
F1863.0
F1868.0
tp55
a(VID00046
p56
F1876.0
F2379.0
tp57
atp58
a(L14L
g11
(lp59
(VID00005
p60
F26.0
F28.0
tp61
a(VID00003
p62
F28.0
F31.0
tp63
a(VID00027
p64
F31.0
F32.0
tp65
a(VID00034
p66
F48.0
F1196.0
tp67
atp68
a(L47L
g11
(lp69
(VID00016
p70
F27.0
F27.0
tp71
atp72
a(L48L
g34
(lp73
(VID00009
p74
F10.0
F15.0
tp75
a(VID00015
p76
F28.0
F29.0
tp77
a(VID00041
p78
F37.0
F1850.0
tp79
atp80
a(L18L
g2
(lp81
(S'exit'
p82
F2379.0
F2379.0
tp83
atp84
a(L20L
g11
(lp85
(VID00008
p86
F9.0
F12.0
tp87
a(VID00023
p88
F31.0
F32.0
tp89
a(VID00011
p90
F32.0
F34.0
tp91
a(VID00024
p92
F47.0
F48.0
tp93
a(VID00029
p94
F90.0
F91.0
tp95
a(VID00033
p96
F91.0
F1472.0
tp97
atp98
a(L22L
g11
(lp99
(VID00045
p100
F1876.0
F1876.0
tp101
atp102
a(L23L
g11
(lp103
(VID00013
p104
F31.0
F31.0
tp105
atp106
a(L33L
g11
(lp107
(VID00031
p108
F35.0
F37.0
tp109
a(VID00038
p110
F93.0
F1256.0
tp111
a(VID00042
p112
F1517.0
F1521.0
tp113
a(VID00044
p114
F1868.0
F1876.0
tp115
atp116
a(L28L
g34
(lp117
(VID00020
p118
F12.0
F13.0
tp119
a(VID00037
p120
F32.0
F1694.0
tp121
atp122
a(L30L
g11
(lp123
(VID00007
p124
F9.0
F12.0
tp125
a(VID00000
p126
F12.0
F26.0
tp127
a(VID00006
p128
F26.0
F27.0
tp129
a(VID00004
p130
F27.0
F30.0
tp131
a(VID00002
p132
F30.0
F32.0
tp133
a(VID00032
p134
F34.0
F1437.0
tp135
atp136
atp137
a(F2380.0
F10.71
(lp138
(L33L
g11
(lp139
(g86
F9.0
F12.0
tp140
a(g64
F14.0
F15.0
tp141
a(g110
F15.0
F1178.0
tp142
a(g82
F2380.0
F2380.0
tp143
atp144
a(L36L
g11
(lp145
(g29
F10.0
F13.0
tp146
a(g13
F13.0
F14.0
tp147
a(g46
F14.0
F15.0
tp148
a(g17
F16.0
F1864.0
tp149
atp150
a(L7L
g11
(lp151
(g25
I0
F0.0
tp152
a(g27
I0
F9.0
tp153
a(g130
F26.0
F29.0
tp154
a(g62
F29.0
F32.0
tp155
a(g31
F37.0
F1351.0
tp156
atp157
a(L41L
g34
(lp158
(g36
F30.0
F32.0
tp159
a(g120
F32.0
F1694.0
tp160
atp161
a(L44L
g11
(lp162
(g21
F30.0
F30.0
tp163
atp164
a(L45L
g11
(lp165
(g50
F36.0
F37.0
tp166
a(g4
F37.0
F38.0
tp167
a(g52
F40.0
F1486.0
tp168
a(g112
F1486.0
F1490.0
tp169
a(g114
F1869.0
F1877.0
tp170
a(g56
F1877.0
F2380.0
tp171
atp172
a(L14L
g11
(lp173
(g74
F9.0
F12.0
tp174
a(g118
F13.0
F14.0
tp175
a(g15
F14.0
F16.0
tp176
a(g66
F39.0
F1187.0
tp177
atp178
a(L18L
g34
(lp179
(g132
F27.0
F30.0
tp180
a(g104
F32.0
F33.0
tp181
a(g76
F33.0
F34.0
tp182
a(g94
F41.0
F42.0
tp183
a(g38
F42.0
F1471.0
tp184
atp185
a(L20L
g11
(lp186
(g88
F33.0
F34.0
tp187
a(g90
F34.0
F36.0
tp188
a(g42
F36.0
F37.0
tp189
a(g92
F38.0
F39.0
tp190
a(g6
F39.0
F40.0
tp191
a(g8
F40.0
F41.0
tp192
a(g96
F41.0
F1422.0
tp193
a(g100
F1877.0
F1877.0
tp194
atp195
a(L46L
g11
(lp196
(g70
F27.0
F27.0
tp197
atp198
a(L24L
g34
(lp199
(g44
F12.0
F14.0
tp200
a(g108
F37.0
F40.0
tp201
a(g78
F40.0
F1853.0
tp202
atp203
a(L30L
g11
(lp204
(g124
F9.0
F12.0
tp205
a(g126
F12.0
F26.0
tp206
a(g128
F26.0
F27.0
tp207
a(g60
F27.0
F29.0
tp208
a(g134
F32.0
F1435.0
tp209
a(g54
F1864.0
F1869.0
tp210
atp211
atp212
a(F2408.0
F10.08
(lp213
(L33L
g11
(lp214
(g86
F9.0
F12.0
tp215
a(g38
F14.0
F729.0
tp216
a(g110
F729.0
F1892.0
tp217
a(g82
F2408.0
F2408.0
tp218
atp219
a(L4L
g11
(lp220
(g104
F32.0
F32.0
tp221
atp222
a(L7L
g11
(lp223
(g25
I0
F0.0
tp224
a(g27
I0
F9.0
tp225
a(g130
F26.0
F29.0
tp226
a(g62
F29.0
F32.0
tp227
a(g31
F34.0
F1348.0
tp228
atp229
a(L45L
g11
(lp230
(g88
F32.0
F33.0
tp231
a(g42
F33.0
F34.0
tp232
a(g13
F34.0
F35.0
tp233
a(g64
F35.0
F36.0
tp234
a(g52
F36.0
F1482.0
tp235
a(g112
F1482.0
F1486.0
tp236
a(g114
F1897.0
F1905.0
tp237
a(g56
F1905.0
F2408.0
tp238
atp239
a(L14L
g11
(lp240
(g74
F9.0
F12.0
tp241
a(g29
F12.0
F15.0
tp242
a(g76
F29.0
F30.0
tp243
a(g44
F30.0
F31.0
tp244
a(g15
F32.0
F34.0
tp245
a(g66
F34.0
F1182.0
tp246
atp247
a(L18L
g34
(lp248
(g132
F27.0
F30.0
tp249
a(g21
F30.0
F31.0
tp250
a(g118
F31.0
F32.0
tp251
a(g70
F32.0
F33.0
tp252
a(g120
F36.0
F1698.0
tp253
atp254
a(L20L
g11
(lp255
(g90
F9.0
F11.0
tp256
a(g4
F29.0
F30.0
tp257
a(g92
F30.0
F31.0
tp258
a(g6
F31.0
F32.0
tp259
a(g96
F33.0
F1414.0
tp260
a(g100
F1905.0
F1905.0
tp261
atp262
a(L24L
g34
(lp263
(g36
F31.0
F33.0
tp264
a(g50
F33.0
F34.0
tp265
a(g108
F34.0
F37.0
tp266
a(g78
F37.0
F1850.0
tp267
atp268
a(L36L
g11
(lp269
(g8
F12.0
F13.0
tp270
a(g94
F13.0
F14.0
tp271
a(g46
F31.0
F32.0
tp272
a(g17
F34.0
F1882.0
tp273
atp274
a(L30L
g11
(lp275
(g124
F9.0
F12.0
tp276
a(g126
F12.0
F26.0
tp277
a(g128
F26.0
F27.0
tp278
a(g60
F27.0
F29.0
tp279
a(g134
F33.0
F1436.0
tp280
a(g54
F1892.0
F1897.0
tp281
atp282
atp283
a(F2561.0
F9.45
(lp284
(L33L
g11
(lp285
(g88
F17.0
F18.0
tp286
a(g29
F18.0
F21.0
tp287
a(g120
F23.0
F854.0
tp288
a(g110
F854.0
F2017.0
tp289
a(g82
F2561.0
F2561.0
tp290
atp291
a(L36L
g11
(lp292
(g25
I0
F0.0
tp293
a(g126
I0
F14.0
tp294
a(g86
F14.0
F17.0
tp295
a(g44
F17.0
F18.0
tp296
a(g46
F18.0
F19.0
tp297
a(g17
F24.0
F1872.0
tp298
atp299
a(L5L
g11
(lp300
(g21
F19.0
F19.0
tp301
atp302
a(L7L
g11
(lp303
(g27
F2.0
F11.0
tp304
a(g70
F15.0
F15.0
tp305
a(g42
F15.0
F16.0
tp306
a(g31
F16.0
F1330.0
tp307
a(g38
F1330.0
F2045.0
tp308
atp309
a(L45L
g11
(lp310
(g128
F14.0
F15.0
tp311
a(g130
F15.0
F18.0
tp312
a(g90
F18.0
F20.0
tp313
a(g50
F20.0
F21.0
tp314
a(g13
F21.0
F22.0
tp315
a(g4
F22.0
F23.0
tp316
a(g92
F23.0
F24.0
tp317
a(g6
F24.0
F25.0
tp318
a(g52
F25.0
F1471.0
tp319
a(g112
F1471.0
F1475.0
tp320
a(g114
F2050.0
F2058.0
tp321
a(g56
F2058.0
F2561.0
tp322
atp323
a(L14L
g11
(lp324
(g74
F11.0
F14.0
tp325
a(g8
F14.0
F15.0
tp326
a(g15
F22.0
F24.0
tp327
a(g66
F24.0
F1172.0
tp328
atp329
a(L20L
g11
(lp330
(g124
F11.0
F14.0
tp331
a(g62
F14.0
F17.0
tp332
a(g132
F17.0
F19.0
tp333
a(g36
F19.0
F20.0
tp334
a(g118
F21.0
F22.0
tp335
a(g64
F22.0
F23.0
tp336
a(g76
F23.0
F24.0
tp337
a(g94
F24.0
F25.0
tp338
a(g96
F25.0
F1406.0
tp339
a(g100
F2058.0
F2058.0
tp340
atp341
a(L21L
g11
(lp342
(g104
F17.0
F17.0
tp343
atp344
a(L24L
g34
(lp345
(g108
F21.0
F24.0
tp346
a(g78
F24.0
F1837.0
tp347
atp348
a(L30L
g11
(lp349
(g60
F14.0
F16.0
tp350
a(g134
F20.0
F1423.0
tp351
a(g54
F2045.0
F2050.0
tp352
atp353
atp354
a(F2584.0
F8.82
(lp355
(L33L
g11
(lp356
(g132
F26.0
F28.0
tp357
a(g29
F28.0
F31.0
tp358
a(g118
F31.0
F32.0
tp359
a(g120
F34.0
F865.0
tp360
a(g110
F865.0
F2028.0
tp361
a(g82
F2584.0
F2584.0
tp362
atp363
a(L36L
g11
(lp364
(g42
F33.0
F34.0
tp365
a(g4
F34.0
F35.0
tp366
a(g8
F35.0
F36.0
tp367
a(g15
F36.0
F38.0
tp368
a(g46
F38.0
F39.0
tp369
a(g17
F39.0
F1887.0
tp370
atp371
a(L7L
g11
(lp372
(g25
I0
F0.0
tp373
a(g27
I0
F9.0
tp374
a(g130
F26.0
F29.0
tp375
a(g62
F29.0
F32.0
tp376
a(g74
F32.0
F35.0
tp377
a(g31
F35.0
F1349.0
tp378
a(g94
F1349.0
F1350.0
tp379
a(g38
F1350.0
F2065.0
tp380
atp381
a(L45L
g11
(lp382
(g90
F9.0
F11.0
tp383
a(g13
F12.0
F13.0
tp384
a(g6
F37.0
F38.0
tp385
a(g52
F38.0
F1484.0
tp386
a(g112
F2069.0
F2073.0
tp387
a(g114
F2073.0
F2081.0
tp388
a(g56
F2081.0
F2584.0
tp389
atp390
a(L14L
g11
(lp391
(g50
F11.0
F12.0
tp392
a(g108
F12.0
F14.0
tp393
a(g78
F14.0
F921.0
tp394
a(g66
F921.0
F2069.0
tp395
atp396
a(L20L
g11
(lp397
(g88
F32.0
F33.0
tp398
a(g70
F33.0
F33.0
tp399
a(g64
F33.0
F34.0
tp400
a(g92
F35.0
F36.0
tp401
a(g76
F36.0
F37.0
tp402
a(g44
F37.0
F38.0
tp403
a(g96
F38.0
F1419.0
tp404
a(g100
F2081.0
F2081.0
tp405
atp406
a(L23L
g11
(lp407
(g104
F32.0
F32.0
tp408
atp409
a(L25L
g11
(lp410
(g21
F28.0
F28.0
tp411
atp412
a(L30L
g11
(lp413
(g124
F9.0
F12.0
tp414
a(g126
F12.0
F26.0
tp415
a(g128
F26.0
F27.0
tp416
a(g60
F27.0
F29.0
tp417
a(g86
F29.0
F32.0
tp418
a(g36
F32.0
F33.0
tp419
a(g134
F33.0
F1436.0
tp420
a(g54
F2065.0
F2070.0
tp421
atp422
atp423
a(F2830.0
F8.27
(lp424
(L33L
g11
(lp425
(g64
F15.0
F16.0
tp426
a(g92
F18.0
F19.0
tp427
a(g76
F19.0
F20.0
tp428
a(g78
F125.0
F1032.0
tp429
a(g110
F1032.0
F2195.0
tp430
atp431
a(L36L
g11
(lp432
(g25
I0
F0.0
tp433
a(g126
I0
F14.0
tp434
a(g62
F14.0
F17.0
tp435
a(g4
F17.0
F18.0
tp436
a(g6
F20.0
F21.0
tp437
a(g108
F123.0
F125.0
tp438
a(g46
F125.0
F126.0
tp439
a(g17
F182.0
F2030.0
tp440
atp441
a(L5L
g11
(lp442
(g70
F50.0
F50.0
tp443
atp444
a(L38L
g2
(lp445
(g128
F15.0
F49.0
tp446
a(g36
F49.0
F76.0
tp447
a(g90
F76.0
F121.0
tp448
a(g8
F121.0
F140.0
tp449
a(g15
F140.0
F182.0
tp450
atp451
a(L7L
g11
(lp452
(g27
F2.0
F11.0
tp453
a(g60
F14.0
F16.0
tp454
a(g74
F16.0
F19.0
tp455
a(g29
F19.0
F22.0
tp456
a(g31
F124.0
F1438.0
tp457
a(g120
F1438.0
F2269.0
tp458
atp459
a(L43L
g11
(lp460
(g21
F16.0
F16.0
tp461
atp462
a(L45L
g11
(lp463
(g132
F14.0
F16.0
tp464
a(g118
F22.0
F23.0
tp465
a(g52
F23.0
F1469.0
tp466
a(g94
F1469.0
F1470.0
tp467
a(g112
F2315.0
F2319.0
tp468
a(g114
F2319.0
F2327.0
tp469
a(g56
F2327.0
F2830.0
tp470
atp471
a(L14L
g34
(lp472
(g13
F14.0
F15.0
tp473
a(g66
F19.0
F2315.0
tp474
atp475
a(L18L
Vapac-sin#m1.medium
p476
(lp477
(g82
F2830.0
F2830.0
tp478
atp479
a(L20L
g11
(lp480
(g124
F11.0
F14.0
tp481
a(g86
F14.0
F17.0
tp482
a(g104
F17.0
F17.0
tp483
a(g88
F17.0
F18.0
tp484
a(g50
F122.0
F123.0
tp485
a(g42
F123.0
F124.0
tp486
a(g44
F124.0
F125.0
tp487
a(g96
F125.0
F1506.0
tp488
atp489
a(L22L
Vapac-sin#m1.xlarge
p490
(lp491
(g100
F2327.0
F2327.0
tp492
atp493
a(L30L
g11
(lp494
(g130
F14.0
F17.0
tp495
a(g134
F76.0
F1479.0
tp496
a(g38
F1479.0
F2194.0
tp497
a(g54
F2269.0
F2274.0
tp498
atp499
atp500
a(F3083.0
F7.72
(lp501
(L33L
g11
(lp502
(g94
F247.0
F248.0
tp503
a(g78
F248.0
F1155.0
tp504
a(g110
F1155.0
F2318.0
tp505
a(g112
F2568.0
F2572.0
tp506
a(g114
F2572.0
F2580.0
tp507
atp508
a(L34L
g11
(lp509
(g70
F15.0
F15.0
tp510
atp511
a(L36L
g11
(lp512
(g25
I0
F0.0
tp513
a(g126
I0
F14.0
tp514
a(g130
F14.0
F17.0
tp515
a(g86
F17.0
F20.0
tp516
a(g104
F106.0
F106.0
tp517
a(g4
F106.0
F107.0
tp518
a(g108
F107.0
F109.0
tp519
a(g46
F123.0
F124.0
tp520
a(g17
F289.0
F2137.0
tp521
atp522
a(L38L
g2
(lp523
(g62
F16.0
F105.0
tp524
a(g88
F106.0
F126.0
tp525
a(g29
F126.0
F215.0
tp526
a(g118
F215.0
F228.0
tp527
a(g8
F228.0
F247.0
tp528
a(g15
F247.0
F289.0
tp529
atp530
a(L7L
g11
(lp531
(g128
F14.0
F15.0
tp532
a(g36
F16.0
F17.0
tp533
a(g31
F17.0
F1331.0
tp534
a(g120
F1331.0
F2162.0
tp535
atp536
a(L45L
g11
(lp537
(g132
F14.0
F16.0
tp538
a(g21
F16.0
F16.0
tp539
a(g50
F16.0
F17.0
tp540
a(g13
F17.0
F18.0
tp541
a(g92
F107.0
F108.0
tp542
a(g52
F122.0
F1568.0
tp543
a(g54
F2318.0
F2323.0
tp544
a(g56
F2580.0
F3083.0
tp545
atp546
a(L14L
g2
(lp547
(g74
F12.0
F82.0
tp548
a(g64
F82.0
F106.0
tp549
a(g76
F106.0
F120.0
tp550
atp551
a(L18L
g476
(lp552
(g82
F3083.0
F3083.0
tp553
atp554
a(L20L
g11
(lp555
(g27
F2.0
F11.0
tp556
a(g124
F11.0
F14.0
tp557
a(g90
F14.0
F16.0
tp558
a(g42
F16.0
F17.0
tp559
a(g6
F121.0
F122.0
tp560
a(g44
F122.0
F123.0
tp561
a(g38
F248.0
F963.0
tp562
a(g96
F963.0
F2344.0
tp563
atp564
a(L22L
g490
(lp565
(g100
F2580.0
F2580.0
tp566
atp567
a(L30L
g11
(lp568
(g60
F14.0
F16.0
tp569
a(g134
F17.0
F1420.0
tp570
a(g66
F1420.0
F2568.0
tp571
atp572
atp573
a(F3338.0
F7.09
(lp574
(L33L
g2
(lp575
(g86
F13.0
F82.0
tp576
a(g64
F82.0
F106.0
tp577
a(g44
F106.0
F127.0
tp578
a(g94
F127.0
F146.0
tp579
a(g54
F2639.0
F2759.0
tp580
atp581
a(L36L
g11
(lp582
(g25
I0
F0.0
tp583
a(g126
I0
F14.0
tp584
a(g88
F22.0
F23.0
tp585
a(g29
F23.0
F26.0
tp586
a(g13
F26.0
F27.0
tp587
a(g6
F29.0
F30.0
tp588
a(g8
F30.0
F31.0
tp589
a(g108
F31.0
F33.0
tp590
a(g17
F70.0
F1918.0
tp591
atp592
a(L38L
g2
(lp593
(g15
F28.0
F70.0
tp594
a(g46
F127.0
F147.0
tp595
atp596
a(L7L
g11
(lp597
(g27
F2.0
F11.0
tp598
a(g130
F14.0
F17.0
tp599
a(g60
F17.0
F19.0
tp600
a(g62
F19.0
F22.0
tp601
a(g74
F22.0
F25.0
tp602
a(g31
F25.0
F1339.0
tp603
a(g120
F1339.0
F2170.0
tp604
atp605
a(L40L
g11
(lp606
(g104
F22.0
F22.0
tp607
atp608
a(L45L
g11
(lp609
(g132
F14.0
F16.0
tp610
a(g90
F16.0
F18.0
tp611
a(g50
F18.0
F19.0
tp612
a(g4
F19.0
F20.0
tp613
a(g52
F30.0
F1476.0
tp614
a(g110
F1476.0
F2639.0
tp615
a(g56
F2835.0
F3338.0
tp616
atp617
a(L14L
g11
(lp618
(g21
F16.0
F16.0
tp619
a(g118
F26.0
F27.0
tp620
a(g92
F27.0
F28.0
tp621
a(g76
F28.0
F29.0
tp622
a(g78
F33.0
F940.0
tp623
a(g66
F940.0
F2088.0
tp624
atp625
a(L18L
g34
(lp626
(g82
F3338.0
F3338.0
tp627
atp628
a(L20L
g11
(lp629
(g124
F11.0
F14.0
tp630
a(g128
F14.0
F15.0
tp631
a(g36
F16.0
F17.0
tp632
a(g70
F17.0
F17.0
tp633
a(g42
F17.0
F18.0
tp634
a(g38
F146.0
F861.0
tp635
a(g96
F861.0
F2242.0
tp636
a(g112
F2823.0
F2827.0
tp637
a(g114
F2827.0
F2835.0
tp638
atp639
a(L22L
g490
(lp640
(g100
F2835.0
F2835.0
tp641
atp642
a(L30L
g34
(lp643
(g134
F17.0
F2823.0
tp644
atp645
atp646
a(F3429.0
F7.01
(lp647
(L33L
g34
(lp648
(g88
F17.0
F19.0
tp649
a(g44
F27.0
F29.0
tp650
a(g8
F29.0
F30.0
tp651
a(g94
F30.0
F31.0
tp652
a(g108
F47.0
F50.0
tp653
a(g110
F50.0
F2376.0
tp654
a(g54
F2376.0
F2385.0
tp655
atp656
a(L2L
g490
(lp657
(g82
F3429.0
F3429.0
tp658
atp659
a(L36L
g11
(lp660
(g25
I0
F0.0
tp661
a(g126
I0
F14.0
tp662
a(g29
F14.0
F17.0
tp663
a(g70
F17.0
F17.0
tp664
a(g13
F19.0
F20.0
tp665
a(g6
F20.0
F21.0
tp666
a(g46
F29.0
F30.0
tp667
a(g17
F88.0
F1936.0
tp668
a(g114
F2918.0
F2926.0
tp669
atp670
a(L38L
g2
(lp671
(g118
F18.0
F31.0
tp672
a(g50
F31.0
F46.0
tp673
a(g15
F46.0
F88.0
tp674
atp675
a(L7L
g11
(lp676
(g27
F2.0
F11.0
tp677
a(g130
F14.0
F17.0
tp678
a(g31
F18.0
F1332.0
tp679
a(g120
F1332.0
F2163.0
tp680
atp681
a(L13L
g490
(lp682
(g100
F2926.0
F2926.0
tp683
atp684
a(L45L
g34
(lp685
(g124
F12.0
F19.0
tp686
a(g4
F19.0
F20.0
tp687
a(g52
F21.0
F2914.0
tp688
atp689
a(L14L
g11
(lp690
(g62
F14.0
F17.0
tp691
a(g74
F17.0
F20.0
tp692
a(g64
F20.0
F21.0
tp693
a(g92
F21.0
F22.0
tp694
a(g78
F50.0
F957.0
tp695
a(g66
F957.0
F2105.0
tp696
atp697
a(L15L
g11
(lp698
(g21
F22.0
F22.0
tp699
atp700
a(L20L
g11
(lp701
(g128
F14.0
F15.0
tp702
a(g90
F15.0
F17.0
tp703
a(g42
F17.0
F18.0
tp704
a(g76
F19.0
F20.0
tp705
a(g38
F31.0
F746.0
tp706
a(g96
F746.0
F2127.0
tp707
a(g112
F2914.0
F2918.0
tp708
a(g56
F2926.0
F3429.0
tp709
atp710
a(L25L
g11
(lp711
(g104
F17.0
F17.0
tp712
atp713
a(L30L
g34
(lp714
(g60
F15.0
F19.0
tp715
a(g132
F19.0
F22.0
tp716
a(g86
F22.0
F27.0
tp717
a(g36
F27.0
F29.0
tp718
a(g134
F29.0
F2835.0
tp719
atp720
atp721
a.