(lp0
(F505.0
F21.82
(lp1
(L2L
Vapac-sin#m3.2xlarge
p2
(lp3
(VID00044
p4
F6.0
F135.0
tp5
a(VID00040
p6
F135.0
F240.0
tp7
a(VID00066
p8
F309.0
F310.0
tp9
a(VID00093
p10
F310.0
F464.0
tp11
atp12
a(L9L
Vapac-sin#m3.xlarge
p13
(lp14
(VID00005
p15
I0
F11.0
tp16
a(VID00028
p17
F11.0
F157.0
tp18
a(VID00052
p19
F205.0
F208.0
tp20
a(VID00079
p21
F209.0
F392.0
tp22
atp23
a(L15L
g2
(lp24
(VID00026
p25
F6.0
F143.0
tp26
a(VID00059
p27
F205.0
F207.0
tp28
a(VID00083
p29
F207.0
F337.0
tp30
a(VID00060
p31
F337.0
F339.0
tp32
a(VID00087
p33
F339.0
F478.0
tp34
atp35
a(L21L
g2
(lp36
(VID00020
p37
I0
F6.0
tp38
a(VID00031
p39
F48.0
F124.0
tp40
a(VID00036
p41
F124.0
F292.0
tp42
a(VID00061
p43
F309.0
F310.0
tp44
a(VID00062
p45
F310.0
F311.0
tp46
a(VID00086
p47
F311.0
F500.0
tp48
atp49
a(L24L
g2
(lp50
(VID00001
p51
I0
F6.0
tp52
a(VID00010
p53
F6.0
F12.0
tp54
a(VID00016
p55
F12.0
F18.0
tp56
a(VID00039
p57
F18.0
F224.0
tp58
a(VID00090
p59
F310.0
F467.0
tp60
atp61
a(L40L
g2
(lp62
(VID00017
p63
I0
F6.0
tp64
a(VID00037
p65
F6.0
F168.0
tp66
a(VID00041
p67
F168.0
F307.0
tp68
a(VID00085
p69
F310.0
F503.0
tp70
atp71
a(L41L
g2
(lp72
(VID00023
p73
F47.0
F192.0
tp74
a(VID00054
p75
F205.0
F206.0
tp76
a(VID00073
p77
F230.0
F369.0
tp78
a(VID00088
p79
F389.0
F489.0
tp80
a(VID00099
p81
F491.0
F493.0
tp82
atp83
a(L42L
g13
(lp84
(S'entry'
p85
I0
F0.0
tp86
a(VID00029
p87
F12.0
F156.0
tp88
atp89
a(L46L
g2
(lp90
(VID00024
p91
F6.0
F105.0
tp92
a(VID00077
p93
F217.0
F348.0
tp94
atp95
a(L51L
g13
(lp96
(VID00012
p97
I0
F11.0
tp98
a(VID00051
p99
F205.0
F208.0
tp100
a(VID00076
p101
F208.0
F501.0
tp102
atp103
a(L54L
g2
(lp104
(VID00021
p105
I0
F6.0
tp106
a(VID00045
p107
F6.0
F165.0
tp108
a(VID00035
p109
F165.0
F269.0
tp110
a(VID00080
p111
F269.0
F355.0
tp112
a(VID00089
p113
F355.0
F489.0
tp114
a(VID00098
p115
F503.0
F505.0
tp116
atp117
a(L58L
Vapac-sin#m1.medium
p118
(lp119
(S'exit'
p120
F505.0
F505.0
tp121
atp122
a(L62L
Vapac-sin#m3.medium
p123
(lp124
(VID00000
p125
I0
F47.0
tp126
a(VID00013
p127
F47.0
F95.0
tp128
a(VID00058
p129
F205.0
F216.0
tp130
a(VID00056
p131
F216.0
F231.0
tp132
a(VID00063
p133
F309.0
F323.0
tp134
a(VID00072
p135
F323.0
F337.0
tp136
atp137
a(L73L
g123
(lp138
(VID00008
p139
I0
F48.0
tp140
a(VID00053
p141
F205.0
F217.0
tp142
a(VID00049
p143
F217.0
F230.0
tp144
a(VID00071
p145
F237.0
F251.0
tp146
atp147
a(L78L
g2
(lp148
(VID00030
p149
F6.0
F155.0
tp150
a(VID00078
p151
F206.0
F360.0
tp152
atp153
a(L79L
g2
(lp154
(VID00043
p155
F6.0
F174.0
tp156
a(VID00050
p157
F205.0
F207.0
tp158
a(VID00055
p159
F207.0
F209.0
tp160
a(VID00081
p161
F332.0
F496.0
tp162
a(VID00097
p163
F501.0
F503.0
tp164
atp165
a(L83L
g2
(lp166
(VID00022
p167
I0
F6.0
tp168
a(VID00027
p169
F6.0
F112.0
tp170
a(VID00033
p171
F112.0
F203.0
tp172
a(VID00082
p173
F216.0
F330.0
tp174
a(VID00057
p175
F330.0
F332.0
tp176
a(VID00068
p177
F332.0
F334.0
tp178
a(VID00065
p179
F334.0
F336.0
tp180
a(VID00096
p181
F337.0
F491.0
tp182
atp183
a(L84L
Vapac-sin#m1.small
p184
(lp185
(VID00018
p186
I0
F143.0
tp187
a(VID00048
p188
F200.0
F237.0
tp189
a(VID00069
p190
F237.0
F281.0
tp191
atp192
a(L85L
g2
(lp193
(VID00007
p194
I0
F6.0
tp195
a(VID00032
p196
F24.0
F155.0
tp197
a(VID00074
p198
F207.0
F388.0
tp199
a(VID00064
p200
F388.0
F389.0
tp201
a(VID00095
p202
F389.0
F468.0
tp203
atp204
a(L88L
g13
(lp205
(VID00011
p206
I0
F11.0
tp207
a(VID00034
p208
F11.0
F222.0
tp209
a(VID00067
p210
F309.0
F312.0
tp211
a(VID00091
p212
F312.0
F501.0
tp213
atp214
a(L94L
g2
(lp215
(VID00014
p216
I0
F6.0
tp217
a(VID00015
p218
F6.0
F12.0
tp219
a(VID00038
p220
F12.0
F122.0
tp221
a(VID00070
p222
F237.0
F239.0
tp223
a(VID00094
p224
F239.0
F375.0
tp225
atp226
a(L96L
g2
(lp227
(VID00004
p228
I0
F6.0
tp229
a(VID00006
p230
F6.0
F12.0
tp231
a(VID00002
p232
F12.0
F18.0
tp233
a(VID00009
p234
F18.0
F24.0
tp235
a(VID00019
p236
F24.0
F30.0
tp237
a(VID00042
p238
F30.0
F200.0
tp239
a(VID00047
p240
F307.0
F309.0
tp241
a(VID00084
p242
F339.0
F493.0
tp243
atp244
a(L99L
g2
(lp245
(VID00003
p246
I0
F6.0
tp247
a(VID00025
p248
F18.0
F192.0
tp249
a(VID00046
p250
F203.0
F205.0
tp251
a(VID00075
p252
F208.0
F398.0
tp253
a(VID00092
p254
F398.0
F503.0
tp255
atp256
atp257
a(F506.0
F21.19
(lp258
(L2L
g2
(lp259
(g4
F6.0
F135.0
tp260
a(g6
F135.0
F240.0
tp261
a(g8
F309.0
F310.0
tp262
a(g10
F310.0
F464.0
tp263
atp264
a(L9L
g13
(lp265
(g15
I0
F11.0
tp266
a(g17
F11.0
F157.0
tp267
a(g19
F206.0
F209.0
tp268
a(g21
F210.0
F393.0
tp269
atp270
a(L15L
g2
(lp271
(g25
F6.0
F143.0
tp272
a(g27
F206.0
F208.0
tp273
a(g29
F208.0
F338.0
tp274
a(g31
F338.0
F340.0
tp275
a(g33
F340.0
F479.0
tp276
atp277
a(L21L
g2
(lp278
(g37
I0
F6.0
tp279
a(g39
F48.0
F124.0
tp280
a(g41
F124.0
F292.0
tp281
a(g43
F309.0
F310.0
tp282
a(g45
F310.0
F311.0
tp283
a(g47
F311.0
F500.0
tp284
atp285
a(L24L
g2
(lp286
(g51
I0
F6.0
tp287
a(g53
F6.0
F12.0
tp288
a(g55
F12.0
F18.0
tp289
a(g57
F18.0
F224.0
tp290
a(g59
F310.0
F467.0
tp291
atp292
a(L40L
g2
(lp293
(g63
I0
F6.0
tp294
a(g65
F6.0
F168.0
tp295
a(g67
F168.0
F307.0
tp296
a(g69
F310.0
F503.0
tp297
atp298
a(L41L
g2
(lp299
(g73
F47.0
F192.0
tp300
a(g75
F206.0
F207.0
tp301
a(g77
F231.0
F370.0
tp302
a(g79
F390.0
F490.0
tp303
a(g81
F491.0
F493.0
tp304
atp305
a(L42L
g13
(lp306
(g85
I0
F0.0
tp307
a(g87
F12.0
F156.0
tp308
atp309
a(L46L
g13
(lp310
(g91
F6.0
F204.0
tp311
a(g93
F218.0
F479.0
tp312
atp313
a(L51L
g13
(lp314
(g97
I0
F11.0
tp315
a(g99
F206.0
F209.0
tp316
a(g101
F209.0
F502.0
tp317
atp318
a(L54L
g2
(lp319
(g105
I0
F6.0
tp320
a(g107
F6.0
F165.0
tp321
a(g109
F165.0
F269.0
tp322
a(g111
F269.0
F355.0
tp323
a(g113
F355.0
F489.0
tp324
a(g115
F504.0
F506.0
tp325
atp326
a(L58L
g118
(lp327
(g120
F506.0
F506.0
tp328
atp329
a(L62L
g123
(lp330
(g125
I0
F47.0
tp331
a(g127
F47.0
F95.0
tp332
a(g129
F206.0
F217.0
tp333
a(g131
F217.0
F232.0
tp334
a(g133
F309.0
F323.0
tp335
a(g135
F323.0
F337.0
tp336
atp337
a(L73L
g123
(lp338
(g139
I0
F48.0
tp339
a(g141
F206.0
F218.0
tp340
a(g143
F218.0
F231.0
tp341
a(g145
F237.0
F251.0
tp342
atp343
a(L78L
g2
(lp344
(g149
F6.0
F155.0
tp345
a(g151
F207.0
F361.0
tp346
atp347
a(L79L
g2
(lp348
(g155
F6.0
F174.0
tp349
a(g157
F206.0
F208.0
tp350
a(g159
F208.0
F210.0
tp351
a(g161
F333.0
F497.0
tp352
a(g163
F502.0
F504.0
tp353
atp354
a(L83L
g2
(lp355
(g167
I0
F6.0
tp356
a(g169
F6.0
F112.0
tp357
a(g171
F112.0
F203.0
tp358
a(g173
F217.0
F331.0
tp359
a(g175
F331.0
F333.0
tp360
a(g177
F333.0
F335.0
tp361
a(g179
F335.0
F337.0
tp362
a(g181
F337.0
F491.0
tp363
atp364
a(L84L
g184
(lp365
(g186
I0
F143.0
tp366
a(g188
F200.0
F237.0
tp367
a(g190
F237.0
F281.0
tp368
atp369
a(L85L
g2
(lp370
(g194
I0
F6.0
tp371
a(g196
F24.0
F155.0
tp372
a(g198
F208.0
F389.0
tp373
a(g200
F389.0
F390.0
tp374
a(g202
F390.0
F469.0
tp375
atp376
a(L88L
g13
(lp377
(g206
I0
F11.0
tp378
a(g208
F11.0
F222.0
tp379
a(g210
F309.0
F312.0
tp380
a(g212
F312.0
F501.0
tp381
atp382
a(L94L
g2
(lp383
(g216
I0
F6.0
tp384
a(g218
F6.0
F12.0
tp385
a(g220
F12.0
F122.0
tp386
a(g222
F237.0
F239.0
tp387
a(g224
F239.0
F375.0
tp388
atp389
a(L96L
g2
(lp390
(g228
I0
F6.0
tp391
a(g230
F6.0
F12.0
tp392
a(g232
F12.0
F18.0
tp393
a(g234
F18.0
F24.0
tp394
a(g236
F24.0
F30.0
tp395
a(g238
F30.0
F200.0
tp396
a(g240
F307.0
F309.0
tp397
a(g242
F340.0
F494.0
tp398
atp399
a(L99L
g2
(lp400
(g246
I0
F6.0
tp401
a(g248
F18.0
F192.0
tp402
a(g250
F204.0
F206.0
tp403
a(g252
F209.0
F399.0
tp404
a(g254
F399.0
F504.0
tp405
atp406
atp407
a(F510.0
F20.56
(lp408
(L2L
g2
(lp409
(g4
F6.0
F135.0
tp410
a(g87
F135.0
F207.0
tp411
a(g6
F207.0
F312.0
tp412
a(g8
F314.0
F315.0
tp413
a(g10
F315.0
F469.0
tp414
atp415
a(L9L
g13
(lp416
(g15
I0
F11.0
tp417
a(g17
F11.0
F157.0
tp418
a(g19
F209.0
F212.0
tp419
a(g21
F213.0
F396.0
tp420
atp421
a(L15L
g2
(lp422
(g25
F6.0
F143.0
tp423
a(g27
F209.0
F211.0
tp424
a(g29
F211.0
F341.0
tp425
a(g31
F341.0
F343.0
tp426
a(g33
F343.0
F482.0
tp427
atp428
a(L21L
g2
(lp429
(g37
I0
F6.0
tp430
a(g39
F48.0
F124.0
tp431
a(g41
F124.0
F292.0
tp432
a(g43
F314.0
F315.0
tp433
a(g45
F315.0
F316.0
tp434
a(g47
F316.0
F505.0
tp435
atp436
a(L24L
g2
(lp437
(g51
I0
F6.0
tp438
a(g53
F6.0
F12.0
tp439
a(g55
F12.0
F18.0
tp440
a(g57
F18.0
F224.0
tp441
a(g59
F315.0
F472.0
tp442
atp443
a(L40L
g2
(lp444
(g63
I0
F6.0
tp445
a(g65
F6.0
F168.0
tp446
a(g67
F168.0
F307.0
tp447
a(g69
F315.0
F508.0
tp448
atp449
a(L41L
g2
(lp450
(g73
F47.0
F192.0
tp451
a(g75
F209.0
F210.0
tp452
a(g77
F234.0
F373.0
tp453
a(g79
F393.0
F493.0
tp454
a(g81
F496.0
F498.0
tp455
atp456
a(L46L
g13
(lp457
(g91
F6.0
F204.0
tp458
a(g93
F221.0
F482.0
tp459
atp460
a(L51L
g13
(lp461
(g99
F209.0
F212.0
tp462
a(g101
F212.0
F505.0
tp463
atp464
a(L54L
g2
(lp465
(g105
I0
F6.0
tp466
a(g107
F6.0
F165.0
tp467
a(g109
F180.0
F284.0
tp468
a(g111
F284.0
F370.0
tp469
a(g113
F370.0
F504.0
tp470
a(g115
F508.0
F510.0
tp471
atp472
a(L58L
g118
(lp473
(g120
F510.0
F510.0
tp474
atp475
a(L62L
g123
(lp476
(g125
I0
F47.0
tp477
a(g127
F47.0
F95.0
tp478
a(g129
F209.0
F220.0
tp479
a(g131
F220.0
F235.0
tp480
a(g133
F314.0
F328.0
tp481
a(g135
F328.0
F342.0
tp482
atp483
a(L71L
g13
(lp484
(g85
I0
F0.0
tp485
atp486
a(L73L
g123
(lp487
(g139
I0
F48.0
tp488
a(g141
F209.0
F221.0
tp489
a(g143
F221.0
F234.0
tp490
a(g145
F237.0
F251.0
tp491
atp492
a(L78L
g2
(lp493
(g149
F6.0
F155.0
tp494
a(g151
F210.0
F364.0
tp495
atp496
a(L79L
g2
(lp497
(g155
F6.0
F174.0
tp498
a(g97
F174.0
F180.0
tp499
a(g157
F209.0
F211.0
tp500
a(g159
F211.0
F213.0
tp501
a(g161
F336.0
F500.0
tp502
a(g163
F505.0
F507.0
tp503
atp504
a(L83L
g2
(lp505
(g167
I0
F6.0
tp506
a(g169
F6.0
F112.0
tp507
a(g171
F112.0
F203.0
tp508
a(g173
F220.0
F334.0
tp509
a(g175
F334.0
F336.0
tp510
a(g177
F336.0
F338.0
tp511
a(g179
F338.0
F340.0
tp512
a(g181
F342.0
F496.0
tp513
atp514
a(L84L
g184
(lp515
(g186
I0
F143.0
tp516
a(g188
F200.0
F237.0
tp517
a(g190
F237.0
F281.0
tp518
atp519
a(L85L
g2
(lp520
(g194
I0
F6.0
tp521
a(g196
F24.0
F155.0
tp522
a(g198
F211.0
F392.0
tp523
a(g200
F392.0
F393.0
tp524
a(g202
F393.0
F472.0
tp525
atp526
a(L88L
g13
(lp527
(g206
I0
F11.0
tp528
a(g208
F11.0
F222.0
tp529
a(g210
F314.0
F317.0
tp530
a(g212
F317.0
F506.0
tp531
atp532
a(L94L
g2
(lp533
(g216
I0
F6.0
tp534
a(g218
F6.0
F12.0
tp535
a(g220
F12.0
F122.0
tp536
a(g222
F237.0
F239.0
tp537
a(g224
F239.0
F375.0
tp538
atp539
a(L96L
g2
(lp540
(g228
I0
F6.0
tp541
a(g230
F6.0
F12.0
tp542
a(g232
F12.0
F18.0
tp543
a(g234
F18.0
F24.0
tp544
a(g236
F24.0
F30.0
tp545
a(g238
F30.0
F200.0
tp546
a(g240
F312.0
F314.0
tp547
a(g242
F343.0
F497.0
tp548
atp549
a(L99L
g2
(lp550
(g246
I0
F6.0
tp551
a(g248
F18.0
F192.0
tp552
a(g250
F207.0
F209.0
tp553
a(g252
F212.0
F402.0
tp554
a(g254
F402.0
F507.0
tp555
atp556
atp557
a(F519.0
F19.93
(lp558
(L2L
g2
(lp559
(g4
F6.0
F135.0
tp560
a(g87
F135.0
F207.0
tp561
a(g6
F207.0
F312.0
tp562
a(g8
F315.0
F316.0
tp563
a(g10
F316.0
F470.0
tp564
atp565
a(L9L
g13
(lp566
(g15
I0
F11.0
tp567
a(g17
F11.0
F157.0
tp568
a(g19
F209.0
F212.0
tp569
a(g21
F213.0
F396.0
tp570
atp571
a(L15L
g2
(lp572
(g25
F6.0
F143.0
tp573
a(g27
F209.0
F211.0
tp574
a(g29
F211.0
F341.0
tp575
a(g31
F341.0
F343.0
tp576
a(g33
F343.0
F482.0
tp577
atp578
a(L21L
g2
(lp579
(g37
I0
F6.0
tp580
a(g39
F48.0
F124.0
tp581
a(g41
F124.0
F292.0
tp582
a(g43
F315.0
F316.0
tp583
a(g45
F316.0
F317.0
tp584
a(g47
F317.0
F506.0
tp585
atp586
a(L24L
g2
(lp587
(g51
I0
F6.0
tp588
a(g53
F6.0
F12.0
tp589
a(g55
F12.0
F18.0
tp590
a(g57
F18.0
F224.0
tp591
a(g59
F316.0
F473.0
tp592
atp593
a(L28L
g13
(lp594
(g120
F519.0
F519.0
tp595
atp596
a(L40L
g2
(lp597
(g63
I0
F6.0
tp598
a(g65
F12.0
F174.0
tp599
a(g67
F174.0
F313.0
tp600
a(g69
F316.0
F509.0
tp601
atp602
a(L41L
g2
(lp603
(g73
F47.0
F192.0
tp604
a(g75
F209.0
F210.0
tp605
a(g77
F234.0
F373.0
tp606
a(g79
F393.0
F493.0
tp607
a(g81
F517.0
F519.0
tp608
atp609
a(L42L
g13
(lp610
(g85
I0
F0.0
tp611
atp612
a(L46L
g13
(lp613
(g91
F6.0
F204.0
tp614
a(g93
F221.0
F482.0
tp615
atp616
a(L51L
g13
(lp617
(g99
F209.0
F212.0
tp618
a(g101
F212.0
F505.0
tp619
atp620
a(L54L
g2
(lp621
(g105
I0
F6.0
tp622
a(g107
F6.0
F165.0
tp623
a(g109
F180.0
F284.0
tp624
a(g111
F284.0
F370.0
tp625
a(g113
F370.0
F504.0
tp626
a(g115
F509.0
F511.0
tp627
atp628
a(L62L
g123
(lp629
(g125
I0
F47.0
tp630
a(g127
F47.0
F95.0
tp631
a(g129
F209.0
F220.0
tp632
a(g131
F220.0
F235.0
tp633
a(g133
F315.0
F329.0
tp634
a(g135
F329.0
F343.0
tp635
atp636
a(L73L
g123
(lp637
(g139
I0
F48.0
tp638
a(g141
F209.0
F221.0
tp639
a(g143
F221.0
F234.0
tp640
a(g145
F237.0
F251.0
tp641
atp642
a(L78L
g2
(lp643
(g149
F6.0
F155.0
tp644
a(g151
F210.0
F364.0
tp645
atp646
a(L79L
g2
(lp647
(g155
F6.0
F174.0
tp648
a(g97
F174.0
F180.0
tp649
a(g157
F209.0
F211.0
tp650
a(g159
F211.0
F213.0
tp651
a(g161
F336.0
F500.0
tp652
a(g163
F505.0
F507.0
tp653
atp654
a(L83L
g2
(lp655
(g167
I0
F6.0
tp656
a(g169
F6.0
F112.0
tp657
a(g171
F112.0
F203.0
tp658
a(g173
F220.0
F334.0
tp659
a(g175
F334.0
F336.0
tp660
a(g177
F336.0
F338.0
tp661
a(g179
F338.0
F340.0
tp662
a(g181
F343.0
F497.0
tp663
atp664
a(L84L
g184
(lp665
(g186
I0
F143.0
tp666
a(g188
F200.0
F237.0
tp667
a(g190
F237.0
F281.0
tp668
atp669
a(L85L
g2
(lp670
(g194
I0
F6.0
tp671
a(g196
F24.0
F155.0
tp672
a(g198
F211.0
F392.0
tp673
a(g200
F392.0
F393.0
tp674
a(g202
F393.0
F472.0
tp675
atp676
a(L88L
g13
(lp677
(g206
I0
F11.0
tp678
a(g208
F11.0
F222.0
tp679
a(g210
F315.0
F318.0
tp680
a(g212
F318.0
F507.0
tp681
atp682
a(L94L
g13
(lp683
(g216
I0
F12.0
tp684
a(g218
F12.0
F23.0
tp685
a(g220
F23.0
F242.0
tp686
a(g222
F242.0
F245.0
tp687
a(g224
F245.0
F517.0
tp688
atp689
a(L96L
g2
(lp690
(g228
I0
F6.0
tp691
a(g230
F6.0
F12.0
tp692
a(g232
F12.0
F18.0
tp693
a(g234
F18.0
F24.0
tp694
a(g236
F24.0
F30.0
tp695
a(g238
F30.0
F200.0
tp696
a(g240
F313.0
F315.0
tp697
a(g242
F343.0
F497.0
tp698
atp699
a(L99L
g2
(lp700
(g246
I0
F6.0
tp701
a(g248
F18.0
F192.0
tp702
a(g250
F207.0
F209.0
tp703
a(g252
F212.0
F402.0
tp704
a(g254
F402.0
F507.0
tp705
atp706
atp707
a(F521.0
F19.22
(lp708
(L2L
g2
(lp709
(g4
F6.0
F135.0
tp710
a(g87
F135.0
F207.0
tp711
a(g6
F207.0
F312.0
tp712
a(g8
F325.0
F326.0
tp713
a(g10
F335.0
F489.0
tp714
atp715
a(L6L
g184
(lp716
(g97
I0
F143.0
tp717
a(g143
F209.0
F248.0
tp718
a(g135
F248.0
F291.0
tp719
a(g190
F291.0
F335.0
tp720
atp721
a(L9L
g13
(lp722
(g91
F6.0
F204.0
tp723
a(g141
F209.0
F212.0
tp724
a(g19
F212.0
F215.0
tp725
a(g159
F215.0
F218.0
tp726
a(g21
F218.0
F401.0
tp727
a(g163
F518.0
F521.0
tp728
atp729
a(L15L
g2
(lp730
(g105
I0
F6.0
tp731
a(g25
F12.0
F149.0
tp732
a(g29
F211.0
F341.0
tp733
a(g33
F341.0
F480.0
tp734
atp735
a(L21L
g2
(lp736
(g85
I0
F0.0
tp737
a(g228
I0
F6.0
tp738
a(g149
F6.0
F155.0
tp739
a(g41
F155.0
F323.0
tp740
a(g43
F325.0
F326.0
tp741
a(g45
F326.0
F327.0
tp742
a(g47
F327.0
F516.0
tp743
atp744
a(L24L
g2
(lp745
(g51
I0
F6.0
tp746
a(g232
F6.0
F12.0
tp747
a(g55
F12.0
F18.0
tp748
a(g57
F18.0
F224.0
tp749
a(g59
F326.0
F483.0
tp750
atp751
a(L34L
g184
(lp752
(g186
I0
F143.0
tp753
a(g145
F219.0
F260.0
tp754
atp755
a(L40L
g2
(lp756
(g234
I0
F6.0
tp757
a(g63
F6.0
F12.0
tp758
a(g65
F12.0
F174.0
tp759
a(g67
F174.0
F313.0
tp760
a(g69
F326.0
F519.0
tp761
atp762
a(L41L
g2
(lp763
(g194
I0
F6.0
tp764
a(g230
F6.0
F12.0
tp765
a(g73
F12.0
F157.0
tp766
a(g27
F209.0
F211.0
tp767
a(g77
F248.0
F387.0
tp768
a(g79
F395.0
F495.0
tp769
a(g81
F517.0
F519.0
tp770
atp771
a(L46L
g13
(lp772
(g37
I0
F11.0
tp773
a(g157
F209.0
F213.0
tp774
a(g93
F213.0
F474.0
tp775
atp776
a(L50L
g13
(lp777
(g120
F521.0
F521.0
tp778
atp779
a(L51L
g13
(lp780
(g17
F6.0
F152.0
tp781
a(g101
F215.0
F508.0
tp782
atp783
a(L53L
g13
(lp784
(g139
I0
F11.0
tp785
a(g39
F11.0
F163.0
tp786
a(g151
F210.0
F518.0
tp787
atp788
a(L54L
g2
(lp789
(g107
F6.0
F165.0
tp790
a(g109
F165.0
F269.0
tp791
a(g111
F295.0
F381.0
tp792
a(g179
F381.0
F383.0
tp793
a(g113
F383.0
F517.0
tp794
atp795
a(L62L
g184
(lp796
(g175
F209.0
F251.0
tp797
a(g131
F251.0
F295.0
tp798
a(g31
F325.0
F364.0
tp799
atp800
a(L79L
g2
(lp801
(g155
F11.0
F179.0
tp802
a(g75
F209.0
F210.0
tp803
a(g161
F251.0
F415.0
tp804
atp805
a(L83L
g2
(lp806
(g169
F6.0
F112.0
tp807
a(g171
F112.0
F203.0
tp808
a(g250
F207.0
F209.0
tp809
a(g129
F209.0
F210.0
tp810
a(g173
F210.0
F324.0
tp811
a(g177
F325.0
F327.0
tp812
a(g133
F327.0
F329.0
tp813
a(g181
F329.0
F483.0
tp814
atp815
a(L84L
g184
(lp816
(g127
I0
F144.0
tp817
a(g188
F182.0
F219.0
tp818
atp819
a(L85L
g2
(lp820
(g167
I0
F6.0
tp821
a(g125
F6.0
F11.0
tp822
a(g196
F11.0
F142.0
tp823
a(g198
F213.0
F394.0
tp824
a(g200
F394.0
F395.0
tp825
a(g202
F395.0
F474.0
tp826
atp827
a(L88L
g13
(lp828
(g206
I0
F11.0
tp829
a(g208
F11.0
F222.0
tp830
a(g210
F325.0
F328.0
tp831
a(g212
F328.0
F517.0
tp832
atp833
a(L94L
g13
(lp834
(g216
I0
F12.0
tp835
a(g218
F12.0
F23.0
tp836
a(g220
F23.0
F242.0
tp837
a(g222
F242.0
F245.0
tp838
a(g224
F245.0
F517.0
tp839
atp840
a(L96L
g2
(lp841
(g53
I0
F6.0
tp842
a(g236
F6.0
F12.0
tp843
a(g238
F12.0
F182.0
tp844
a(g240
F323.0
F325.0
tp845
a(g242
F364.0
F518.0
tp846
a(g115
F519.0
F521.0
tp847
atp848
a(L99L
g2
(lp849
(g15
I0
F6.0
tp850
a(g246
F6.0
F12.0
tp851
a(g248
F12.0
F186.0
tp852
a(g99
F209.0
F211.0
tp853
a(g252
F211.0
F401.0
tp854
a(g254
F401.0
F506.0
tp855
atp856
atp857
a(F581.0
F19.14
(lp858
(L6L
g184
(lp859
(g186
I0
F143.0
tp860
a(g135
F226.0
F269.0
tp861
atp862
a(L9L
g13
(lp863
(g125
I0
F11.0
tp864
a(g232
F11.0
F22.0
tp865
a(g21
F281.0
F464.0
tp866
atp867
a(L21L
g2
(lp868
(g41
F33.0
F201.0
tp869
a(g175
F268.0
F270.0
tp870
a(g111
F296.0
F382.0
tp871
a(g47
F382.0
F571.0
tp872
atp873
a(L24L
g2
(lp874
(g206
I0
F5.0
tp875
a(g55
F5.0
F11.0
tp876
a(g57
F11.0
F217.0
tp877
a(g240
F313.0
F315.0
tp878
a(g179
F315.0
F317.0
tp879
a(g59
F317.0
F474.0
tp880
atp881
a(L39L
Vapac-sin#m3.large
p882
(lp883
(g120
F581.0
F581.0
tp884
atp885
a(L40L
g2
(lp886
(g230
I0
F6.0
tp887
a(g63
F6.0
F12.0
tp888
a(g65
F12.0
F174.0
tp889
a(g67
F174.0
F313.0
tp890
a(g43
F315.0
F316.0
tp891
a(g69
F316.0
F509.0
tp892
a(g81
F576.0
F578.0
tp893
atp894
a(L41L
g2
(lp895
(g167
I0
F6.0
tp896
a(g17
F11.0
F84.0
tp897
a(g73
F84.0
F229.0
tp898
a(g250
F266.0
F268.0
tp899
a(g19
F268.0
F270.0
tp900
a(g75
F270.0
F271.0
tp901
a(g77
F309.0
F448.0
tp902
a(g79
F454.0
F554.0
tp903
atp904
a(L46L
g2
(lp905
(g25
F6.0
F143.0
tp906
a(g27
F268.0
F270.0
tp907
a(g157
F270.0
F272.0
tp908
a(g93
F272.0
F403.0
tp909
a(g163
F579.0
F581.0
tp910
atp911
a(L47L
g2
(lp912
(g85
I0
F0.0
tp913
atp914
a(L51L
g13
(lp915
(g87
F6.0
F150.0
tp916
a(g53
F150.0
F162.0
tp917
a(g129
F268.0
F271.0
tp918
a(g101
F271.0
F564.0
tp919
atp920
a(L53L
g13
(lp921
(g39
F22.0
F174.0
tp922
a(g141
F268.0
F271.0
tp923
a(g151
F271.0
F579.0
tp924
atp925
a(L54L
g2
(lp926
(g105
I0
F6.0
tp927
a(g107
F6.0
F165.0
tp928
a(g97
F165.0
F171.0
tp929
a(g171
F171.0
F262.0
tp930
a(g173
F271.0
F385.0
tp931
a(g113
F385.0
F519.0
tp932
atp933
a(L62L
g13
(lp934
(g15
I0
F11.0
tp935
a(g139
F11.0
F22.0
tp936
a(g127
F22.0
F33.0
tp937
a(g6
F33.0
F244.0
tp938
a(g177
F315.0
F318.0
tp939
a(g31
F318.0
F321.0
tp940
a(g133
F321.0
F324.0
tp941
atp942
a(L71L
g13
(lp943
(g194
I0
F12.0
tp944
a(g91
F49.0
F247.0
tp945
a(g10
F247.0
F556.0
tp946
atp947
a(L79L
g2
(lp948
(g37
I0
F6.0
tp949
a(g155
F6.0
F174.0
tp950
a(g161
F270.0
F434.0
tp951
a(g33
F434.0
F573.0
tp952
a(g115
F578.0
F580.0
tp953
atp954
a(L83L
g13
(lp955
(g228
I0
F12.0
tp956
a(g208
F12.0
F223.0
tp957
a(g188
F223.0
F226.0
tp958
a(g181
F269.0
F576.0
tp959
atp960
a(L85L
g2
(lp961
(g4
F6.0
F135.0
tp962
a(g196
F135.0
F266.0
tp963
a(g99
F268.0
F270.0
tp964
a(g198
F272.0
F453.0
tp965
a(g200
F453.0
F454.0
tp966
atp967
a(L87L
g123
(lp968
(g51
I0
F49.0
tp969
a(g234
F49.0
F98.0
tp970
a(g159
F268.0
F281.0
tp971
a(g131
F281.0
F296.0
tp972
a(g143
F296.0
F309.0
tp973
a(g210
F315.0
F329.0
tp974
a(g45
F329.0
F341.0
tp975
atp976
a(L91L
g2
(lp977
(g149
F12.0
F161.0
tp978
a(g109
F171.0
F275.0
tp979
a(g202
F275.0
F354.0
tp980
atp981
a(L94L
g13
(lp982
(g216
I0
F12.0
tp983
a(g220
F12.0
F231.0
tp984
a(g190
F231.0
F234.0
tp985
a(g145
F234.0
F237.0
tp986
a(g222
F237.0
F240.0
tp987
a(g224
F240.0
F512.0
tp988
atp989
a(L96L
g2
(lp990
(g246
I0
F6.0
tp991
a(g218
F6.0
F12.0
tp992
a(g236
F12.0
F18.0
tp993
a(g238
F18.0
F188.0
tp994
a(g8
F315.0
F316.0
tp995
a(g212
F329.0
F424.0
tp996
a(g242
F424.0
F578.0
tp997
atp998
a(L99L
g2
(lp999
(g248
F22.0
F196.0
tp1000
a(g252
F270.0
F460.0
tp1001
a(g254
F460.0
F565.0
tp1002
atp1003
a(L101L
g13
(lp1004
(g169
F12.0
F224.0
tp1005
a(g29
F270.0
F529.0
tp1006
atp1007
atp1008
a(F595.0
F18.51
(lp1009
(L6L
g184
(lp1010
(g186
I0
F143.0
tp1011
a(g135
F237.0
F280.0
tp1012
atp1013
a(L9L
g13
(lp1014
(g125
I0
F11.0
tp1015
a(g232
F11.0
F22.0
tp1016
a(g21
F294.0
F477.0
tp1017
atp1018
a(L21L
g2
(lp1019
(g41
F33.0
F201.0
tp1020
a(g111
F309.0
F395.0
tp1021
a(g47
F395.0
F584.0
tp1022
atp1023
a(L24L
g2
(lp1024
(g206
I0
F5.0
tp1025
a(g55
F5.0
F11.0
tp1026
a(g57
F11.0
F217.0
tp1027
a(g240
F313.0
F315.0
tp1028
a(g179
F315.0
F317.0
tp1029
a(g59
F317.0
F474.0
tp1030
atp1031
a(L39L
g882
(lp1032
(g120
F595.0
F595.0
tp1033
atp1034
a(L40L
g2
(lp1035
(g230
I0
F6.0
tp1036
a(g63
F6.0
F12.0
tp1037
a(g65
F12.0
F174.0
tp1038
a(g67
F174.0
F313.0
tp1039
a(g43
F315.0
F316.0
tp1040
a(g69
F316.0
F509.0
tp1041
a(g202
F509.0
F588.0
tp1042
a(g81
F593.0
F595.0
tp1043
atp1044
a(L41L
g2
(lp1045
(g167
I0
F6.0
tp1046
a(g17
F11.0
F84.0
tp1047
a(g73
F84.0
F229.0
tp1048
a(g250
F279.0
F281.0
tp1049
a(g19
F281.0
F283.0
tp1050
a(g75
F283.0
F284.0
tp1051
a(g77
F322.0
F461.0
tp1052
a(g79
F470.0
F570.0
tp1053
atp1054
a(L46L
g13
(lp1055
(g25
F6.0
F279.0
tp1056
a(g27
F281.0
F284.0
tp1057
a(g157
F284.0
F288.0
tp1058
a(g93
F288.0
F549.0
tp1059
a(g163
F592.0
F595.0
tp1060
atp1061
a(L47L
g2
(lp1062
(g85
I0
F0.0
tp1063
atp1064
a(L51L
g13
(lp1065
(g87
F6.0
F150.0
tp1066
a(g53
F150.0
F162.0
tp1067
a(g129
F281.0
F284.0
tp1068
a(g101
F284.0
F577.0
tp1069
atp1070
a(L53L
g13
(lp1071
(g39
F22.0
F174.0
tp1072
a(g141
F281.0
F284.0
tp1073
a(g151
F284.0
F592.0
tp1074
atp1075
a(L54L
g2
(lp1076
(g105
I0
F6.0
tp1077
a(g107
F6.0
F165.0
tp1078
a(g97
F165.0
F171.0
tp1079
a(g171
F171.0
F262.0
tp1080
a(g173
F284.0
F398.0
tp1081
a(g113
F398.0
F532.0
tp1082
atp1083
a(L62L
g13
(lp1084
(g15
I0
F11.0
tp1085
a(g139
F11.0
F22.0
tp1086
a(g127
F22.0
F33.0
tp1087
a(g6
F33.0
F244.0
tp1088
a(g177
F315.0
F318.0
tp1089
a(g31
F318.0
F321.0
tp1090
a(g133
F321.0
F324.0
tp1091
atp1092
a(L71L
g13
(lp1093
(g194
I0
F12.0
tp1094
a(g91
F49.0
F247.0
tp1095
a(g175
F281.0
F284.0
tp1096
a(g10
F284.0
F593.0
tp1097
atp1098
a(L79L
g2
(lp1099
(g37
I0
F6.0
tp1100
a(g155
F6.0
F174.0
tp1101
a(g109
F174.0
F278.0
tp1102
a(g161
F284.0
F448.0
tp1103
a(g33
F448.0
F587.0
tp1104
a(g115
F587.0
F589.0
tp1105
atp1106
a(L83L
g13
(lp1107
(g228
I0
F12.0
tp1108
a(g234
F12.0
F23.0
tp1109
a(g208
F23.0
F234.0
tp1110
a(g188
F234.0
F237.0
tp1111
a(g181
F280.0
F587.0
tp1112
atp1113
a(L85L
g2
(lp1114
(g4
F6.0
F135.0
tp1115
a(g196
F135.0
F266.0
tp1116
a(g99
F281.0
F283.0
tp1117
a(g198
F288.0
F469.0
tp1118
a(g200
F469.0
F470.0
tp1119
atp1120
a(L87L
g123
(lp1121
(g51
I0
F49.0
tp1122
a(g159
F281.0
F294.0
tp1123
a(g131
F294.0
F309.0
tp1124
a(g143
F309.0
F322.0
tp1125
a(g210
F322.0
F336.0
tp1126
a(g45
F336.0
F348.0
tp1127
atp1128
a(L91L
g2
(lp1129
(g149
F12.0
F161.0
tp1130
atp1131
a(L94L
g13
(lp1132
(g216
I0
F12.0
tp1133
a(g220
F12.0
F231.0
tp1134
a(g190
F237.0
F240.0
tp1135
a(g145
F240.0
F243.0
tp1136
a(g222
F243.0
F246.0
tp1137
a(g224
F246.0
F518.0
tp1138
atp1139
a(L96L
g2
(lp1140
(g246
I0
F6.0
tp1141
a(g218
F6.0
F12.0
tp1142
a(g236
F12.0
F18.0
tp1143
a(g238
F18.0
F188.0
tp1144
a(g8
F315.0
F316.0
tp1145
a(g212
F336.0
F431.0
tp1146
a(g242
F431.0
F585.0
tp1147
atp1148
a(L99L
g2
(lp1149
(g248
F22.0
F196.0
tp1150
a(g252
F283.0
F473.0
tp1151
a(g254
F473.0
F578.0
tp1152
atp1153
a(L101L
g13
(lp1154
(g169
F12.0
F224.0
tp1155
a(g29
F284.0
F543.0
tp1156
atp1157
atp1158
a(F600.0
F17.25
(lp1159
(L6L
g184
(lp1160
(g186
I0
F143.0
tp1161
a(g135
F237.0
F280.0
tp1162
atp1163
a(L9L
g13
(lp1164
(g125
I0
F11.0
tp1165
a(g232
F11.0
F22.0
tp1166
a(g21
F294.0
F477.0
tp1167
atp1168
a(L21L
g2
(lp1169
(g149
F6.0
F155.0
tp1170
a(g41
F155.0
F323.0
tp1171
a(g111
F323.0
F409.0
tp1172
a(g47
F409.0
F598.0
tp1173
atp1174
a(L24L
g2
(lp1175
(g206
I0
F5.0
tp1176
a(g55
F5.0
F11.0
tp1177
a(g57
F11.0
F217.0
tp1178
a(g240
F323.0
F325.0
tp1179
a(g179
F325.0
F327.0
tp1180
a(g59
F327.0
F484.0
tp1181
atp1182
a(L39L
g882
(lp1183
(g120
F600.0
F600.0
tp1184
atp1185
a(L40L
g2
(lp1186
(g15
I0
F6.0
tp1187
a(g230
F6.0
F12.0
tp1188
a(g63
F12.0
F18.0
tp1189
a(g65
F18.0
F180.0
tp1190
a(g67
F180.0
F319.0
tp1191
a(g43
F325.0
F326.0
tp1192
a(g69
F326.0
F519.0
tp1193
a(g202
F519.0
F598.0
tp1194
a(g81
F598.0
F600.0
tp1195
atp1196
a(L41L
g2
(lp1197
(g167
I0
F6.0
tp1198
a(g17
F6.0
F79.0
tp1199
a(g73
F79.0
F224.0
tp1200
a(g250
F279.0
F281.0
tp1201
a(g19
F281.0
F283.0
tp1202
a(g75
F283.0
F284.0
tp1203
a(g77
F322.0
F461.0
tp1204
a(g79
F470.0
F570.0
tp1205
atp1206
a(L46L
g13
(lp1207
(g25
F6.0
F279.0
tp1208
a(g27
F281.0
F284.0
tp1209
a(g157
F284.0
F288.0
tp1210
a(g93
F288.0
F549.0
tp1211
a(g163
F592.0
F595.0
tp1212
atp1213
a(L47L
g2
(lp1214
(g85
I0
F0.0
tp1215
atp1216
a(L51L
g13
(lp1217
(g87
F12.0
F156.0
tp1218
a(g53
F156.0
F168.0
tp1219
a(g129
F281.0
F284.0
tp1220
a(g101
F284.0
F577.0
tp1221
atp1222
a(L53L
g13
(lp1223
(g39
F11.0
F163.0
tp1224
a(g141
F281.0
F284.0
tp1225
a(g151
F284.0
F592.0
tp1226
atp1227
a(L54L
g2
(lp1228
(g105
I0
F6.0
tp1229
a(g107
F6.0
F165.0
tp1230
a(g97
F165.0
F171.0
tp1231
a(g171
F171.0
F262.0
tp1232
a(g173
F284.0
F398.0
tp1233
a(g113
F398.0
F532.0
tp1234
atp1235
a(L62L
g13
(lp1236
(g139
I0
F11.0
tp1237
a(g127
F11.0
F22.0
tp1238
a(g6
F22.0
F233.0
tp1239
a(g177
F325.0
F328.0
tp1240
a(g31
F328.0
F331.0
tp1241
a(g133
F331.0
F334.0
tp1242
atp1243
a(L71L
g13
(lp1244
(g91
F49.0
F247.0
tp1245
a(g175
F281.0
F284.0
tp1246
a(g10
F284.0
F593.0
tp1247
atp1248
a(L79L
g2
(lp1249
(g37
I0
F6.0
tp1250
a(g155
F6.0
F174.0
tp1251
a(g109
F174.0
F278.0
tp1252
a(g161
F284.0
F448.0
tp1253
a(g33
F448.0
F587.0
tp1254
a(g115
F598.0
F600.0
tp1255
atp1256
a(L83L
g13
(lp1257
(g228
I0
F12.0
tp1258
a(g234
F12.0
F23.0
tp1259
a(g208
F23.0
F234.0
tp1260
a(g188
F234.0
F237.0
tp1261
a(g181
F280.0
F587.0
tp1262
atp1263
a(L85L
g2
(lp1264
(g4
F6.0
F135.0
tp1265
a(g196
F135.0
F266.0
tp1266
a(g99
F281.0
F283.0
tp1267
a(g198
F288.0
F469.0
tp1268
a(g200
F469.0
F470.0
tp1269
atp1270
a(L87L
g123
(lp1271
(g51
I0
F49.0
tp1272
a(g159
F281.0
F294.0
tp1273
a(g131
F294.0
F309.0
tp1274
a(g143
F309.0
F322.0
tp1275
a(g210
F325.0
F339.0
tp1276
a(g45
F339.0
F351.0
tp1277
atp1278
a(L94L
g13
(lp1279
(g216
I0
F12.0
tp1280
a(g220
F12.0
F231.0
tp1281
a(g190
F237.0
F240.0
tp1282
a(g145
F240.0
F243.0
tp1283
a(g222
F243.0
F246.0
tp1284
a(g224
F246.0
F518.0
tp1285
atp1286
a(L96L
g2
(lp1287
(g246
I0
F6.0
tp1288
a(g218
F6.0
F12.0
tp1289
a(g236
F12.0
F18.0
tp1290
a(g238
F18.0
F188.0
tp1291
a(g8
F325.0
F326.0
tp1292
a(g212
F339.0
F434.0
tp1293
a(g242
F434.0
F588.0
tp1294
atp1295
a(L99L
g2
(lp1296
(g194
I0
F6.0
tp1297
a(g248
F22.0
F196.0
tp1298
a(g252
F283.0
F473.0
tp1299
a(g254
F473.0
F578.0
tp1300
atp1301
a(L101L
g13
(lp1302
(g169
F12.0
F224.0
tp1303
a(g29
F284.0
F543.0
tp1304
atp1305
atp1306
a(F677.0
F17.09
(lp1307
(L96L
g2
(lp1308
(g216
I0
F6.0
tp1309
a(g218
F6.0
F12.0
tp1310
a(g220
F12.0
F122.0
tp1311
a(g236
F122.0
F128.0
tp1312
a(g238
F128.0
F298.0
tp1313
a(g177
F388.0
F390.0
tp1314
a(g242
F391.0
F545.0
tp1315
atp1316
a(L51L
g13
(lp1317
(g139
I0
F11.0
tp1318
a(g97
F11.0
F22.0
tp1319
a(g101
F289.0
F582.0
tp1320
atp1321
a(L99L
g2
(lp1322
(g125
I0
F5.0
tp1323
a(g246
F5.0
F11.0
tp1324
a(g196
F23.0
F154.0
tp1325
a(g250
F284.0
F286.0
tp1326
a(g99
F286.0
F288.0
tp1327
a(g252
F288.0
F478.0
tp1328
a(g198
F478.0
F659.0
tp1329
a(g163
F674.0
F676.0
tp1330
atp1331
a(L71L
g13
(lp1332
(g91
F12.0
F210.0
tp1333
a(g135
F350.0
F353.0
tp1334
a(g10
F353.0
F662.0
tp1335
atp1336
a(L40L
g2
(lp1337
(g127
I0
F6.0
tp1338
a(g55
F6.0
F12.0
tp1339
a(g63
F12.0
F18.0
tp1340
a(g65
F18.0
F180.0
tp1341
a(g186
F180.0
F185.0
tp1342
a(g67
F185.0
F324.0
tp1343
a(g240
F386.0
F388.0
tp1344
a(g8
F388.0
F389.0
tp1345
a(g43
F389.0
F390.0
tp1346
a(g69
F390.0
F583.0
tp1347
a(g202
F583.0
F662.0
tp1348
a(g81
F662.0
F664.0
tp1349
atp1350
a(L41L
g2
(lp1351
(g167
I0
F6.0
tp1352
a(g73
F6.0
F151.0
tp1353
a(g159
F286.0
F288.0
tp1354
a(g21
F288.0
F379.0
tp1355
a(g254
F390.0
F495.0
tp1356
atp1357
a(L46L
g13
(lp1358
(g25
F11.0
F284.0
tp1359
a(g27
F286.0
F289.0
tp1360
a(g157
F289.0
F293.0
tp1361
a(g93
F293.0
F554.0
tp1362
a(g200
F554.0
F557.0
tp1363
atp1364
a(L94L
g13
(lp1365
(g39
F11.0
F163.0
tp1366
a(g19
F286.0
F289.0
tp1367
a(g188
F347.0
F350.0
tp1368
a(g190
F350.0
F353.0
tp1369
a(g222
F353.0
F356.0
tp1370
a(g224
F356.0
F628.0
tp1371
atp1372
a(L14L
g2
(lp1373
(g15
I0
F6.0
tp1374
a(g51
F6.0
F12.0
tp1375
a(g41
F12.0
F180.0
tp1376
a(g175
F286.0
F288.0
tp1377
a(g143
F288.0
F290.0
tp1378
a(g113
F390.0
F524.0
tp1379
atp1380
a(L79L
g13
(lp1381
(g37
I0
F11.0
tp1382
a(g155
F11.0
F347.0
tp1383
a(g161
F347.0
F674.0
tp1384
atp1385
a(L24L
g2
(lp1386
(g232
I0
F6.0
tp1387
a(g248
F6.0
F180.0
tp1388
a(g57
F180.0
F386.0
tp1389
a(g179
F388.0
F390.0
tp1390
a(g59
F390.0
F547.0
tp1391
atp1392
a(L83L
g13
(lp1393
(g228
I0
F12.0
tp1394
a(g234
F12.0
F23.0
tp1395
a(g109
F23.0
F231.0
tp1396
a(g131
F286.0
F289.0
tp1397
a(g181
F353.0
F660.0
tp1398
atp1399
a(L21L
g2
(lp1400
(g17
F6.0
F79.0
tp1401
a(g149
F79.0
F228.0
tp1402
a(g75
F286.0
F287.0
tp1403
a(g77
F290.0
F429.0
tp1404
a(g47
F429.0
F618.0
tp1405
atp1406
a(L54L
g2
(lp1407
(g105
I0
F6.0
tp1408
a(g107
F6.0
F165.0
tp1409
a(g129
F286.0
F287.0
tp1410
a(g111
F289.0
F375.0
tp1411
a(g79
F557.0
F657.0
tp1412
a(g115
F675.0
F677.0
tp1413
atp1414
a(L87L
g13
(lp1415
(g4
F6.0
F263.0
tp1416
a(g173
F287.0
F514.0
tp1417
a(g145
F514.0
F517.0
tp1418
atp1419
a(L88L
g13
(lp1420
(g230
I0
F11.0
tp1421
a(g208
F139.0
F350.0
tp1422
a(g212
F429.0
F618.0
tp1423
atp1424
a(L47L
g13
(lp1425
(g85
I0
F0.0
tp1426
a(g194
I0
F12.0
tp1427
a(g53
F12.0
F24.0
tp1428
a(g171
F24.0
F207.0
tp1429
a(g29
F289.0
F548.0
tp1430
atp1431
a(L28L
g184
(lp1432
(g120
F677.0
F677.0
tp1433
atp1434
a(L73L
g184
(lp1435
(g206
I0
F139.0
tp1436
a(g210
F388.0
F429.0
tp1437
atp1438
a(L62L
g13
(lp1439
(g87
F11.0
F155.0
tp1440
a(g6
F155.0
F366.0
tp1441
a(g31
F388.0
F391.0
tp1442
a(g45
F391.0
F394.0
tp1443
a(g133
F394.0
F397.0
tp1444
a(g33
F397.0
F675.0
tp1445
atp1446
a(L53L
g13
(lp1447
(g169
F12.0
F224.0
tp1448
a(g141
F286.0
F289.0
tp1449
a(g151
F289.0
F597.0
tp1450
atp1451
atp1452
a(F687.0
F16.78
(lp1453
(L11L
Vapac-sin#m1.large
p1454
(lp1455
(g51
I0
F37.0
tp1456
atp1457
a(L14L
g13
(lp1458
(g15
I0
F11.0
tp1459
a(g41
F18.0
F354.0
tp1460
a(g143
F354.0
F357.0
tp1461
a(g113
F390.0
F659.0
tp1462
atp1463
a(L21L
g2
(lp1464
(g17
F11.0
F84.0
tp1465
a(g149
F84.0
F233.0
tp1466
a(g75
F287.0
F288.0
tp1467
a(g77
F357.0
F496.0
tp1468
a(g47
F496.0
F685.0
tp1469
atp1470
a(L24L
g2
(lp1471
(g232
I0
F6.0
tp1472
a(g248
F6.0
F180.0
tp1473
a(g57
F180.0
F386.0
tp1474
a(g179
F388.0
F390.0
tp1475
a(g59
F390.0
F547.0
tp1476
atp1477
a(L28L
g13
(lp1478
(g120
F687.0
F687.0
tp1479
atp1480
a(L40L
g2
(lp1481
(g167
I0
F6.0
tp1482
a(g246
F6.0
F12.0
tp1483
a(g127
F12.0
F18.0
tp1484
a(g55
F18.0
F24.0
tp1485
a(g63
F24.0
F30.0
tp1486
a(g65
F30.0
F192.0
tp1487
a(g186
F192.0
F197.0
tp1488
a(g67
F197.0
F336.0
tp1489
a(g240
F386.0
F388.0
tp1490
a(g8
F388.0
F389.0
tp1491
a(g43
F389.0
F390.0
tp1492
a(g69
F390.0
F583.0
tp1493
a(g202
F583.0
F662.0
tp1494
a(g81
F662.0
F664.0
tp1495
atp1496
a(L41L
g2
(lp1497
(g73
F5.0
F150.0
tp1498
a(g250
F285.0
F287.0
tp1499
a(g19
F287.0
F289.0
tp1500
a(g159
F289.0
F291.0
tp1501
a(g21
F291.0
F382.0
tp1502
a(g254
F390.0
F495.0
tp1503
atp1504
a(L46L
g13
(lp1505
(g37
I0
F11.0
tp1506
a(g25
F12.0
F285.0
tp1507
a(g27
F287.0
F290.0
tp1508
a(g157
F290.0
F294.0
tp1509
a(g93
F294.0
F555.0
tp1510
a(g200
F555.0
F558.0
tp1511
atp1512
a(L47L
g13
(lp1513
(g105
I0
F12.0
tp1514
a(g194
F12.0
F24.0
tp1515
a(g53
F24.0
F36.0
tp1516
a(g171
F36.0
F219.0
tp1517
a(g29
F290.0
F549.0
tp1518
atp1519
a(L51L
g13
(lp1520
(g139
I0
F11.0
tp1521
a(g97
F11.0
F22.0
tp1522
a(g101
F289.0
F582.0
tp1523
atp1524
a(L53L
g13
(lp1525
(g169
F12.0
F224.0
tp1526
a(g141
F287.0
F290.0
tp1527
a(g151
F290.0
F598.0
tp1528
atp1529
a(L54L
g2
(lp1530
(g107
F6.0
F165.0
tp1531
a(g111
F290.0
F376.0
tp1532
a(g79
F558.0
F658.0
tp1533
a(g115
F685.0
F687.0
tp1534
atp1535
a(L62L
g13
(lp1536
(g87
F11.0
F155.0
tp1537
a(g6
F155.0
F366.0
tp1538
a(g31
F388.0
F391.0
tp1539
a(g45
F391.0
F394.0
tp1540
a(g133
F394.0
F397.0
tp1541
a(g33
F397.0
F675.0
tp1542
atp1543
a(L71L
g13
(lp1544
(g91
F37.0
F235.0
tp1545
a(g135
F350.0
F353.0
tp1546
a(g10
F353.0
F662.0
tp1547
atp1548
a(L73L
g184
(lp1549
(g206
I0
F139.0
tp1550
a(g210
F388.0
F429.0
tp1551
atp1552
a(L79L
g13
(lp1553
(g155
F11.0
F347.0
tp1554
a(g129
F347.0
F350.0
tp1555
a(g175
F350.0
F353.0
tp1556
a(g161
F353.0
F680.0
tp1557
atp1558
a(L83L
g13
(lp1559
(g228
I0
F12.0
tp1560
a(g234
F12.0
F23.0
tp1561
a(g109
F23.0
F231.0
tp1562
a(g131
F287.0
F290.0
tp1563
a(g181
F353.0
F660.0
tp1564
atp1565
a(L87L
g13
(lp1566
(g85
I0
F0.0
tp1567
a(g4
F12.0
F269.0
tp1568
a(g173
F350.0
F577.0
tp1569
a(g145
F577.0
F580.0
tp1570
atp1571
a(L88L
g13
(lp1572
(g230
I0
F11.0
tp1573
a(g39
F11.0
F163.0
tp1574
a(g208
F163.0
F374.0
tp1575
a(g212
F429.0
F618.0
tp1576
atp1577
a(L94L
g13
(lp1578
(g188
F347.0
F350.0
tp1579
a(g190
F350.0
F353.0
tp1580
a(g222
F353.0
F356.0
tp1581
a(g224
F356.0
F628.0
tp1582
atp1583
a(L96L
g2
(lp1584
(g216
I0
F6.0
tp1585
a(g218
F6.0
F12.0
tp1586
a(g220
F12.0
F122.0
tp1587
a(g236
F122.0
F128.0
tp1588
a(g238
F128.0
F298.0
tp1589
a(g177
F388.0
F390.0
tp1590
a(g242
F391.0
F545.0
tp1591
atp1592
a(L99L
g2
(lp1593
(g125
I0
F5.0
tp1594
a(g196
F23.0
F154.0
tp1595
a(g99
F287.0
F289.0
tp1596
a(g252
F289.0
F479.0
tp1597
a(g198
F479.0
F660.0
tp1598
a(g163
F680.0
F682.0
tp1599
atp1600
atp1601
a(F697.0
F15.91
(lp1602
(L5L
g184
(lp1603
(g19
F299.0
F341.0
tp1604
atp1605
a(L14L
g13
(lp1606
(g15
I0
F11.0
tp1607
a(g51
F11.0
F22.0
tp1608
a(g41
F22.0
F358.0
tp1609
a(g175
F358.0
F361.0
tp1610
a(g143
F361.0
F364.0
tp1611
a(g200
F388.0
F391.0
tp1612
a(g113
F391.0
F660.0
tp1613
atp1614
a(L21L
g2
(lp1615
(g17
F11.0
F84.0
tp1616
a(g149
F84.0
F233.0
tp1617
a(g75
F299.0
F300.0
tp1618
a(g77
F364.0
F503.0
tp1619
a(g47
F503.0
F692.0
tp1620
atp1621
a(L24L
g2
(lp1622
(g232
I0
F6.0
tp1623
a(g248
F6.0
F180.0
tp1624
a(g57
F180.0
F386.0
tp1625
a(g179
F388.0
F390.0
tp1626
a(g59
F390.0
F547.0
tp1627
atp1628
a(L28L
g13
(lp1629
(g120
F697.0
F697.0
tp1630
atp1631
a(L40L
g2
(lp1632
(g167
I0
F6.0
tp1633
a(g127
F6.0
F12.0
tp1634
a(g55
F12.0
F18.0
tp1635
a(g63
F18.0
F24.0
tp1636
a(g65
F24.0
F186.0
tp1637
a(g186
F186.0
F191.0
tp1638
a(g67
F191.0
F330.0
tp1639
a(g240
F386.0
F388.0
tp1640
a(g8
F388.0
F389.0
tp1641
a(g43
F389.0
F390.0
tp1642
a(g69
F390.0
F583.0
tp1643
a(g202
F583.0
F662.0
tp1644
a(g81
F662.0
F664.0
tp1645
atp1646
a(L41L
g13
(lp1647
(g73
F5.0
F296.0
tp1648
a(g250
F296.0
F299.0
tp1649
a(g159
F299.0
F302.0
tp1650
a(g21
F302.0
F485.0
tp1651
a(g254
F485.0
F695.0
tp1652
atp1653
a(L46L
g13
(lp1654
(g37
I0
F11.0
tp1655
a(g25
F11.0
F284.0
tp1656
a(g27
F299.0
F302.0
tp1657
a(g157
F302.0
F306.0
tp1658
a(g93
F306.0
F567.0
tp1659
atp1660
a(L47L
g13
(lp1661
(g105
I0
F12.0
tp1662
a(g194
F12.0
F24.0
tp1663
a(g53
F24.0
F36.0
tp1664
a(g171
F36.0
F219.0
tp1665
a(g29
F302.0
F561.0
tp1666
atp1667
a(L50L
g13
(lp1668
(g107
F6.0
F324.0
tp1669
atp1670
a(L51L
g13
(lp1671
(g139
I0
F11.0
tp1672
a(g97
F11.0
F22.0
tp1673
a(g101
F341.0
F634.0
tp1674
atp1675
a(L53L
g13
(lp1676
(g169
F12.0
F224.0
tp1677
a(g141
F299.0
F302.0
tp1678
a(g151
F302.0
F610.0
tp1679
atp1680
a(L54L
g13
(lp1681
(g111
F302.0
F475.0
tp1682
a(g79
F475.0
F675.0
tp1683
atp1684
a(L62L
g13
(lp1685
(g87
F11.0
F155.0
tp1686
a(g6
F155.0
F366.0
tp1687
a(g31
F388.0
F391.0
tp1688
a(g45
F391.0
F394.0
tp1689
a(g133
F394.0
F397.0
tp1690
a(g33
F397.0
F675.0
tp1691
atp1692
a(L71L
g13
(lp1693
(g91
F22.0
F220.0
tp1694
a(g135
F350.0
F353.0
tp1695
a(g10
F353.0
F662.0
tp1696
atp1697
a(L73L
g184
(lp1698
(g206
I0
F139.0
tp1699
a(g210
F388.0
F429.0
tp1700
atp1701
a(L79L
g13
(lp1702
(g155
F11.0
F347.0
tp1703
a(g129
F347.0
F350.0
tp1704
a(g161
F361.0
F688.0
tp1705
atp1706
a(L83L
g13
(lp1707
(g228
I0
F12.0
tp1708
a(g234
F12.0
F23.0
tp1709
a(g109
F23.0
F231.0
tp1710
a(g131
F299.0
F302.0
tp1711
a(g181
F353.0
F660.0
tp1712
atp1713
a(L87L
g13
(lp1714
(g85
I0
F0.0
tp1715
a(g4
F12.0
F269.0
tp1716
a(g173
F350.0
F577.0
tp1717
atp1718
a(L88L
g13
(lp1719
(g230
I0
F11.0
tp1720
a(g39
F11.0
F163.0
tp1721
a(g208
F163.0
F374.0
tp1722
a(g212
F429.0
F618.0
tp1723
atp1724
a(L94L
g13
(lp1725
(g220
F12.0
F231.0
tp1726
a(g188
F347.0
F350.0
tp1727
a(g190
F350.0
F353.0
tp1728
a(g145
F353.0
F356.0
tp1729
a(g222
F356.0
F359.0
tp1730
a(g224
F359.0
F631.0
tp1731
atp1732
a(L96L
g2
(lp1733
(g216
I0
F6.0
tp1734
a(g218
F6.0
F12.0
tp1735
a(g236
F12.0
F18.0
tp1736
a(g238
F18.0
F188.0
tp1737
a(g177
F388.0
F390.0
tp1738
a(g242
F391.0
F545.0
tp1739
atp1740
a(L99L
g2
(lp1741
(g125
I0
F5.0
tp1742
a(g246
F5.0
F11.0
tp1743
a(g196
F23.0
F154.0
tp1744
a(g99
F299.0
F301.0
tp1745
a(g252
F301.0
F491.0
tp1746
a(g198
F491.0
F672.0
tp1747
a(g163
F688.0
F690.0
tp1748
a(g115
F695.0
F697.0
tp1749
atp1750
atp1751
a(F699.0
F15.28
(lp1752
(L5L
g184
(lp1753
(g19
F299.0
F341.0
tp1754
atp1755
a(L14L
g13
(lp1756
(g15
I0
F11.0
tp1757
a(g51
F11.0
F22.0
tp1758
a(g41
F22.0
F358.0
tp1759
a(g175
F358.0
F361.0
tp1760
a(g143
F361.0
F364.0
tp1761
a(g200
F388.0
F391.0
tp1762
a(g113
F391.0
F660.0
tp1763
atp1764
a(L21L
g2
(lp1765
(g17
F11.0
F84.0
tp1766
a(g149
F84.0
F233.0
tp1767
a(g75
F299.0
F300.0
tp1768
a(g77
F364.0
F503.0
tp1769
a(g47
F503.0
F692.0
tp1770
atp1771
a(L24L
g2
(lp1772
(g232
I0
F6.0
tp1773
a(g248
F6.0
F180.0
tp1774
a(g57
F180.0
F386.0
tp1775
a(g179
F388.0
F390.0
tp1776
a(g59
F390.0
F547.0
tp1777
atp1778
a(L28L
g13
(lp1779
(g120
F699.0
F699.0
tp1780
atp1781
a(L40L
g2
(lp1782
(g167
I0
F6.0
tp1783
a(g127
F6.0
F12.0
tp1784
a(g55
F12.0
F18.0
tp1785
a(g63
F18.0
F24.0
tp1786
a(g65
F24.0
F186.0
tp1787
a(g186
F186.0
F191.0
tp1788
a(g67
F191.0
F330.0
tp1789
a(g240
F386.0
F388.0
tp1790
a(g8
F388.0
F389.0
tp1791
a(g43
F389.0
F390.0
tp1792
a(g69
F390.0
F583.0
tp1793
a(g202
F583.0
F662.0
tp1794
a(g81
F662.0
F664.0
tp1795
atp1796
a(L41L
g13
(lp1797
(g73
F5.0
F296.0
tp1798
a(g250
F296.0
F299.0
tp1799
a(g159
F299.0
F302.0
tp1800
a(g21
F302.0
F485.0
tp1801
a(g254
F485.0
F695.0
tp1802
atp1803
a(L46L
g13
(lp1804
(g37
I0
F11.0
tp1805
a(g25
F11.0
F284.0
tp1806
a(g27
F299.0
F302.0
tp1807
a(g157
F302.0
F306.0
tp1808
a(g93
F306.0
F567.0
tp1809
atp1810
a(L47L
g13
(lp1811
(g105
I0
F12.0
tp1812
a(g194
F12.0
F24.0
tp1813
a(g53
F24.0
F36.0
tp1814
a(g171
F36.0
F219.0
tp1815
a(g29
F302.0
F561.0
tp1816
atp1817
a(L51L
g13
(lp1818
(g139
I0
F11.0
tp1819
a(g97
F11.0
F22.0
tp1820
a(g101
F341.0
F634.0
tp1821
atp1822
a(L53L
g13
(lp1823
(g169
F12.0
F224.0
tp1824
a(g141
F299.0
F302.0
tp1825
a(g151
F302.0
F610.0
tp1826
atp1827
a(L54L
g13
(lp1828
(g107
F6.0
F324.0
tp1829
a(g111
F324.0
F497.0
tp1830
a(g79
F497.0
F697.0
tp1831
atp1832
a(L62L
g13
(lp1833
(g87
F11.0
F155.0
tp1834
a(g6
F155.0
F366.0
tp1835
a(g31
F388.0
F391.0
tp1836
a(g45
F391.0
F394.0
tp1837
a(g133
F394.0
F397.0
tp1838
a(g33
F397.0
F675.0
tp1839
atp1840
a(L71L
g13
(lp1841
(g91
F22.0
F220.0
tp1842
a(g135
F350.0
F353.0
tp1843
a(g10
F353.0
F662.0
tp1844
atp1845
a(L73L
g184
(lp1846
(g206
I0
F139.0
tp1847
a(g210
F388.0
F429.0
tp1848
atp1849
a(L79L
g13
(lp1850
(g155
F11.0
F347.0
tp1851
a(g129
F347.0
F350.0
tp1852
a(g161
F361.0
F688.0
tp1853
atp1854
a(L83L
g13
(lp1855
(g228
I0
F12.0
tp1856
a(g234
F12.0
F23.0
tp1857
a(g109
F23.0
F231.0
tp1858
a(g131
F299.0
F302.0
tp1859
a(g181
F353.0
F660.0
tp1860
atp1861
a(L87L
g13
(lp1862
(g85
I0
F0.0
tp1863
a(g4
F12.0
F269.0
tp1864
a(g173
F350.0
F577.0
tp1865
atp1866
a(L88L
g13
(lp1867
(g230
I0
F11.0
tp1868
a(g39
F11.0
F163.0
tp1869
a(g208
F163.0
F374.0
tp1870
a(g212
F429.0
F618.0
tp1871
atp1872
a(L94L
g13
(lp1873
(g220
F12.0
F231.0
tp1874
a(g188
F347.0
F350.0
tp1875
a(g190
F350.0
F353.0
tp1876
a(g145
F353.0
F356.0
tp1877
a(g222
F356.0
F359.0
tp1878
a(g224
F359.0
F631.0
tp1879
atp1880
a(L96L
g2
(lp1881
(g216
I0
F6.0
tp1882
a(g218
F6.0
F12.0
tp1883
a(g236
F12.0
F18.0
tp1884
a(g238
F18.0
F188.0
tp1885
a(g177
F388.0
F390.0
tp1886
a(g242
F391.0
F545.0
tp1887
atp1888
a(L99L
g2
(lp1889
(g125
I0
F5.0
tp1890
a(g246
F5.0
F11.0
tp1891
a(g196
F23.0
F154.0
tp1892
a(g99
F299.0
F301.0
tp1893
a(g252
F301.0
F491.0
tp1894
a(g198
F491.0
F672.0
tp1895
a(g163
F688.0
F690.0
tp1896
a(g115
F697.0
F699.0
tp1897
atp1898
atp1899
a(F701.0
F14.57
(lp1900
(L96L
g13
(lp1901
(g216
I0
F12.0
tp1902
a(g218
F12.0
F23.0
tp1903
a(g236
F23.0
F34.0
tp1904
a(g238
F34.0
F374.0
tp1905
a(g177
F388.0
F391.0
tp1906
a(g242
F391.0
F699.0
tp1907
atp1908
a(L51L
g13
(lp1909
(g139
I0
F11.0
tp1910
a(g97
F11.0
F22.0
tp1911
a(g101
F302.0
F595.0
tp1912
atp1913
a(L99L
g2
(lp1914
(g125
I0
F5.0
tp1915
a(g246
F5.0
F11.0
tp1916
a(g196
F23.0
F154.0
tp1917
a(g99
F299.0
F301.0
tp1918
a(g252
F301.0
F491.0
tp1919
a(g198
F491.0
F672.0
tp1920
a(g163
F680.0
F682.0
tp1921
a(g115
F699.0
F701.0
tp1922
atp1923
a(L71L
g13
(lp1924
(g91
F22.0
F220.0
tp1925
a(g135
F377.0
F380.0
tp1926
a(g10
F380.0
F689.0
tp1927
atp1928
a(L40L
g2
(lp1929
(g167
I0
F6.0
tp1930
a(g127
F6.0
F12.0
tp1931
a(g55
F12.0
F18.0
tp1932
a(g63
F18.0
F24.0
tp1933
a(g65
F24.0
F186.0
tp1934
a(g186
F186.0
F191.0
tp1935
a(g67
F191.0
F330.0
tp1936
a(g240
F386.0
F388.0
tp1937
a(g8
F388.0
F389.0
tp1938
a(g43
F389.0
F390.0
tp1939
a(g69
F390.0
F583.0
tp1940
a(g202
F583.0
F662.0
tp1941
atp1942
a(L41L
g13
(lp1943
(g73
F5.0
F296.0
tp1944
a(g250
F296.0
F299.0
tp1945
a(g19
F299.0
F302.0
tp1946
a(g159
F302.0
F305.0
tp1947
a(g21
F305.0
F488.0
tp1948
a(g254
F488.0
F698.0
tp1949
a(g81
F698.0
F701.0
tp1950
atp1951
a(L73L
g184
(lp1952
(g206
I0
F139.0
tp1953
a(g210
F388.0
F429.0
tp1954
atp1955
a(L46L
g13
(lp1956
(g37
I0
F11.0
tp1957
a(g25
F11.0
F284.0
tp1958
a(g27
F299.0
F302.0
tp1959
a(g157
F302.0
F306.0
tp1960
a(g93
F306.0
F567.0
tp1961
atp1962
a(L79L
g13
(lp1963
(g155
F11.0
F347.0
tp1964
a(g129
F347.0
F350.0
tp1965
a(g175
F350.0
F353.0
tp1966
a(g161
F353.0
F680.0
tp1967
atp1968
a(L24L
g2
(lp1969
(g232
I0
F6.0
tp1970
a(g248
F6.0
F180.0
tp1971
a(g57
F180.0
F386.0
tp1972
a(g179
F388.0
F390.0
tp1973
a(g59
F390.0
F547.0
tp1974
atp1975
a(L94L
g13
(lp1976
(g220
F23.0
F242.0
tp1977
a(g188
F374.0
F377.0
tp1978
a(g190
F377.0
F380.0
tp1979
a(g145
F380.0
F383.0
tp1980
a(g222
F383.0
F386.0
tp1981
a(g224
F386.0
F658.0
tp1982
atp1983
a(L83L
g13
(lp1984
(g228
I0
F12.0
tp1985
a(g234
F12.0
F23.0
tp1986
a(g109
F23.0
F231.0
tp1987
a(g131
F299.0
F302.0
tp1988
a(g181
F380.0
F687.0
tp1989
atp1990
a(L14L
g13
(lp1991
(g15
I0
F11.0
tp1992
a(g51
F11.0
F22.0
tp1993
a(g41
F22.0
F358.0
tp1994
a(g143
F358.0
F361.0
tp1995
a(g200
F388.0
F391.0
tp1996
a(g113
F391.0
F660.0
tp1997
atp1998
a(L54L
g13
(lp1999
(g107
F6.0
F324.0
tp2000
a(g111
F324.0
F497.0
tp2001
a(g79
F497.0
F697.0
tp2002
atp2003
a(L87L
g13
(lp2004
(g85
I0
F0.0
tp2005
a(g4
F12.0
F269.0
tp2006
a(g173
F350.0
F577.0
tp2007
atp2008
a(L88L
g13
(lp2009
(g230
I0
F11.0
tp2010
a(g39
F11.0
F163.0
tp2011
a(g208
F163.0
F374.0
tp2012
a(g212
F429.0
F618.0
tp2013
atp2014
a(L47L
g13
(lp2015
(g105
I0
F12.0
tp2016
a(g194
F12.0
F24.0
tp2017
a(g53
F24.0
F36.0
tp2018
a(g171
F36.0
F219.0
tp2019
a(g29
F302.0
F561.0
tp2020
atp2021
a(L28L
g13
(lp2022
(g120
F701.0
F701.0
tp2023
atp2024
a(L53L
g13
(lp2025
(g169
F12.0
F224.0
tp2026
a(g141
F299.0
F302.0
tp2027
a(g151
F302.0
F610.0
tp2028
atp2029
a(L62L
g13
(lp2030
(g87
F11.0
F155.0
tp2031
a(g6
F155.0
F366.0
tp2032
a(g31
F388.0
F391.0
tp2033
a(g45
F391.0
F394.0
tp2034
a(g133
F394.0
F397.0
tp2035
a(g33
F397.0
F675.0
tp2036
atp2037
a(L21L
g2
(lp2038
(g17
F11.0
F84.0
tp2039
a(g149
F84.0
F233.0
tp2040
a(g75
F299.0
F300.0
tp2041
a(g77
F361.0
F500.0
tp2042
a(g47
F500.0
F689.0
tp2043
atp2044
atp2045
a(F744.0
F13.94
(lp2046
(L96L
g13
(lp2047
(g216
I0
F12.0
tp2048
a(g218
F12.0
F23.0
tp2049
a(g236
F23.0
F34.0
tp2050
a(g238
F34.0
F374.0
tp2051
a(g177
F427.0
F430.0
tp2052
a(g242
F433.0
F741.0
tp2053
atp2054
a(L51L
g13
(lp2055
(g97
I0
F11.0
tp2056
a(g99
F330.0
F333.0
tp2057
a(g141
F333.0
F336.0
tp2058
a(g101
F361.0
F654.0
tp2059
atp2060
a(L99L
g2
(lp2061
(g125
I0
F5.0
tp2062
a(g248
F23.0
F197.0
tp2063
a(g196
F197.0
F328.0
tp2064
a(g250
F328.0
F330.0
tp2065
a(g252
F333.0
F523.0
tp2066
a(g198
F523.0
F704.0
tp2067
a(g163
F704.0
F706.0
tp2068
a(g115
F742.0
F744.0
tp2069
atp2070
a(L71L
g13
(lp2071
(g91
F22.0
F220.0
tp2072
a(g159
F330.0
F333.0
tp2073
a(g143
F333.0
F336.0
tp2074
a(g135
F407.0
F410.0
tp2075
a(g10
F410.0
F719.0
tp2076
atp2077
a(L40L
g2
(lp2078
(g167
I0
F6.0
tp2079
a(g127
F6.0
F12.0
tp2080
a(g65
F12.0
F174.0
tp2081
a(g186
F174.0
F179.0
tp2082
a(g67
F179.0
F318.0
tp2083
a(g240
F425.0
F427.0
tp2084
a(g8
F427.0
F428.0
tp2085
a(g43
F428.0
F429.0
tp2086
a(g69
F429.0
F622.0
tp2087
a(g202
F622.0
F701.0
tp2088
a(g81
F719.0
F721.0
tp2089
atp2090
a(L41L
g13
(lp2091
(g73
F5.0
F296.0
tp2092
a(g21
F333.0
F516.0
tp2093
a(g254
F516.0
F726.0
tp2094
atp2095
a(L73L
g184
(lp2096
(g234
I0
F146.0
tp2097
a(g129
F330.0
F364.0
tp2098
a(g157
F364.0
F411.0
tp2099
a(g179
F427.0
F468.0
tp2100
atp2101
a(L46L
g13
(lp2102
(g37
I0
F11.0
tp2103
a(g25
F35.0
F308.0
tp2104
a(g93
F336.0
F597.0
tp2105
atp2106
a(L79L
g13
(lp2107
(g155
F11.0
F347.0
tp2108
a(g161
F364.0
F691.0
tp2109
atp2110
a(L24L
g13
(lp2111
(g55
I0
F12.0
tp2112
a(g57
F12.0
F425.0
tp2113
a(g59
F428.0
F742.0
tp2114
atp2115
a(L94L
g13
(lp2116
(g139
I0
F11.0
tp2117
a(g39
F11.0
F163.0
tp2118
a(g206
F163.0
F174.0
tp2119
a(g63
F174.0
F185.0
tp2120
a(g220
F185.0
F404.0
tp2121
a(g188
F404.0
F407.0
tp2122
a(g190
F407.0
F410.0
tp2123
a(g145
F410.0
F413.0
tp2124
a(g222
F413.0
F416.0
tp2125
a(g224
F416.0
F688.0
tp2126
atp2127
a(L83L
g13
(lp2128
(g228
I0
F12.0
tp2129
a(g232
F12.0
F23.0
tp2130
a(g131
F330.0
F333.0
tp2131
a(g181
F410.0
F717.0
tp2132
atp2133
a(L14L
g13
(lp2134
(g15
I0
F11.0
tp2135
a(g51
F11.0
F22.0
tp2136
a(g41
F22.0
F358.0
tp2137
a(g19
F358.0
F361.0
tp2138
a(g175
F361.0
F364.0
tp2139
a(g200
F427.0
F430.0
tp2140
a(g113
F468.0
F737.0
tp2141
atp2142
a(L54L
g13
(lp2143
(g107
F6.0
F324.0
tp2144
a(g27
F330.0
F333.0
tp2145
a(g75
F333.0
F336.0
tp2146
a(g111
F336.0
F509.0
tp2147
a(g79
F509.0
F709.0
tp2148
atp2149
a(L87L
g13
(lp2150
(g85
I0
F0.0
tp2151
a(g4
F12.0
F269.0
tp2152
a(g173
F364.0
F591.0
tp2153
atp2154
a(L88L
g13
(lp2155
(g208
F174.0
F385.0
tp2156
a(g212
F430.0
F619.0
tp2157
atp2158
a(L47L
g13
(lp2159
(g105
I0
F12.0
tp2160
a(g194
F12.0
F24.0
tp2161
a(g246
F24.0
F35.0
tp2162
a(g53
F35.0
F47.0
tp2163
a(g171
F47.0
F230.0
tp2164
a(g29
F333.0
F592.0
tp2165
atp2166
a(L28L
g882
(lp2167
(g120
F744.0
F744.0
tp2168
atp2169
a(L53L
g13
(lp2170
(g169
F12.0
F224.0
tp2171
a(g151
F336.0
F644.0
tp2172
atp2173
a(L62L
g13
(lp2174
(g230
I0
F11.0
tp2175
a(g87
F11.0
F155.0
tp2176
a(g6
F185.0
F396.0
tp2177
a(g210
F427.0
F430.0
tp2178
a(g31
F430.0
F433.0
tp2179
a(g45
F433.0
F436.0
tp2180
a(g133
F436.0
F439.0
tp2181
a(g33
F439.0
F717.0
tp2182
atp2183
a(L21L
g2
(lp2184
(g17
F11.0
F84.0
tp2185
a(g149
F84.0
F233.0
tp2186
a(g109
F233.0
F337.0
tp2187
a(g77
F337.0
F476.0
tp2188
a(g47
F476.0
F665.0
tp2189
atp2190
atp2191
a(F811.0
F13.62
(lp2192
(L96L
g13
(lp2193
(g139
I0
F11.0
tp2194
a(g55
F11.0
F23.0
tp2195
a(g63
F23.0
F34.0
tp2196
a(g216
F34.0
F46.0
tp2197
a(g238
F147.0
F487.0
tp2198
a(g8
F489.0
F492.0
tp2199
a(g242
F492.0
F800.0
tp2200
atp2201
a(L51L
g882
(lp2202
(g39
F11.0
F315.0
tp2203
a(g21
F319.0
F685.0
tp2204
atp2205
a(L99L
g2
(lp2206
(g248
F11.0
F185.0
tp2207
a(g250
F315.0
F317.0
tp2208
a(g27
F317.0
F319.0
tp2209
a(g99
F319.0
F321.0
tp2210
a(g252
F321.0
F511.0
tp2211
a(g157
F511.0
F513.0
tp2212
a(g198
F513.0
F694.0
tp2213
a(g254
F694.0
F799.0
tp2214
a(g115
F806.0
F808.0
tp2215
atp2216
a(L5L
g13
(lp2217
(g196
F23.0
F285.0
tp2218
atp2219
a(L71L
g13
(lp2220
(g91
F11.0
F209.0
tp2221
a(g109
F209.0
F417.0
tp2222
a(g141
F417.0
F420.0
tp2223
a(g210
F489.0
F492.0
tp2224
a(g135
F495.0
F498.0
tp2225
a(g10
F498.0
F807.0
tp2226
atp2227
a(L40L
g2
(lp2228
(g167
I0
F6.0
tp2229
a(g4
F12.0
F141.0
tp2230
a(g65
F141.0
F303.0
tp2231
a(g67
F303.0
F442.0
tp2232
a(g240
F487.0
F489.0
tp2233
a(g43
F489.0
F490.0
tp2234
a(g69
F490.0
F683.0
tp2235
a(g202
F683.0
F762.0
tp2236
a(g81
F807.0
F809.0
tp2237
atp2238
a(L9L
g13
(lp2239
(g15
I0
F11.0
tp2240
a(g17
F11.0
F157.0
tp2241
a(g87
F157.0
F301.0
tp2242
a(g29
F319.0
F578.0
tp2243
atp2244
a(L46L
g13
(lp2245
(g51
I0
F11.0
tp2246
a(g125
F11.0
F22.0
tp2247
a(g25
F22.0
F295.0
tp2248
a(g129
F317.0
F320.0
tp2249
a(g173
F320.0
F547.0
tp2250
a(g93
F547.0
F808.0
tp2251
atp2252
a(L94L
g13
(lp2253
(g218
I0
F11.0
tp2254
a(g220
F11.0
F230.0
tp2255
a(g31
F489.0
F492.0
tp2256
a(g188
F492.0
F495.0
tp2257
a(g190
F495.0
F498.0
tp2258
a(g145
F498.0
F501.0
tp2259
a(g222
F501.0
F504.0
tp2260
a(g224
F504.0
F776.0
tp2261
atp2262
a(L14L
g13
(lp2263
(g194
I0
F12.0
tp2264
a(g234
F12.0
F23.0
tp2265
a(g41
F23.0
F359.0
tp2266
a(g200
F489.0
F492.0
tp2267
a(g113
F492.0
F761.0
tp2268
atp2269
a(L79L
g13
(lp2270
(g85
I0
F0.0
tp2271
a(g155
F6.0
F342.0
tp2272
a(g161
F342.0
F669.0
tp2273
atp2274
a(L88L
g13
(lp2275
(g53
I0
F12.0
tp2276
a(g206
F12.0
F23.0
tp2277
a(g208
F23.0
F234.0
tp2278
a(g186
F234.0
F245.0
tp2279
a(g212
F492.0
F681.0
tp2280
atp2281
a(L83L
g13
(lp2282
(g232
I0
F11.0
tp2283
a(g171
F12.0
F195.0
tp2284
a(g175
F317.0
F320.0
tp2285
a(g143
F320.0
F323.0
tp2286
a(g45
F489.0
F492.0
tp2287
a(g181
F498.0
F805.0
tp2288
atp2289
a(L21L
g2
(lp2290
(g37
I0
F6.0
tp2291
a(g149
F12.0
F161.0
tp2292
a(g159
F317.0
F319.0
tp2293
a(g177
F489.0
F491.0
tp2294
a(g47
F492.0
F681.0
tp2295
atp2296
a(L54L
g13
(lp2297
(g107
F6.0
F324.0
tp2298
a(g101
F324.0
F617.0
tp2299
a(g111
F631.0
F804.0
tp2300
atp2301
a(L41L
g13
(lp2302
(g73
F22.0
F313.0
tp2303
a(g19
F317.0
F320.0
tp2304
a(g77
F323.0
F601.0
tp2305
a(g79
F601.0
F801.0
tp2306
atp2307
a(L24L
g13
(lp2308
(g230
I0
F11.0
tp2309
a(g246
F11.0
F22.0
tp2310
a(g57
F23.0
F436.0
tp2311
a(g59
F492.0
F806.0
tp2312
atp2313
a(L58L
g184
(lp2314
(g236
I0
F147.0
tp2315
atp2316
a(L28L
g2
(lp2317
(g120
F811.0
F811.0
tp2318
atp2319
a(L62L
g13
(lp2320
(g97
I0
F11.0
tp2321
a(g127
F11.0
F22.0
tp2322
a(g6
F34.0
F245.0
tp2323
a(g179
F489.0
F492.0
tp2324
a(g133
F492.0
F495.0
tp2325
a(g33
F495.0
F773.0
tp2326
atp2327
a(L53L
g13
(lp2328
(g105
I0
F12.0
tp2329
a(g228
F12.0
F24.0
tp2330
a(g169
F24.0
F236.0
tp2331
a(g75
F317.0
F320.0
tp2332
a(g151
F320.0
F628.0
tp2333
a(g131
F628.0
F631.0
tp2334
a(g163
F808.0
F811.0
tp2335
atp2336
atp2337
a(F812.0
F12.99
(lp2338
(L96L
g13
(lp2339
(g139
I0
F11.0
tp2340
a(g55
F11.0
F23.0
tp2341
a(g63
F23.0
F34.0
tp2342
a(g216
F34.0
F46.0
tp2343
a(g238
F147.0
F487.0
tp2344
a(g8
F489.0
F492.0
tp2345
a(g242
F492.0
F800.0
tp2346
atp2347
a(L51L
g882
(lp2348
(g39
F11.0
F315.0
tp2349
a(g21
F320.0
F686.0
tp2350
atp2351
a(L99L
g2
(lp2352
(g248
F11.0
F185.0
tp2353
a(g196
F185.0
F316.0
tp2354
a(g250
F316.0
F318.0
tp2355
a(g27
F318.0
F320.0
tp2356
a(g99
F320.0
F322.0
tp2357
a(g252
F322.0
F512.0
tp2358
a(g157
F512.0
F514.0
tp2359
a(g198
F514.0
F695.0
tp2360
a(g254
F695.0
F800.0
tp2361
a(g115
F806.0
F808.0
tp2362
atp2363
a(L71L
g13
(lp2364
(g91
F11.0
F209.0
tp2365
a(g109
F209.0
F417.0
tp2366
a(g141
F417.0
F420.0
tp2367
a(g210
F489.0
F492.0
tp2368
a(g135
F495.0
F498.0
tp2369
a(g10
F498.0
F807.0
tp2370
atp2371
a(L40L
g2
(lp2372
(g167
I0
F6.0
tp2373
a(g4
F12.0
F141.0
tp2374
a(g65
F141.0
F303.0
tp2375
a(g67
F303.0
F442.0
tp2376
a(g240
F487.0
F489.0
tp2377
a(g43
F489.0
F490.0
tp2378
a(g69
F490.0
F683.0
tp2379
a(g202
F683.0
F762.0
tp2380
a(g81
F807.0
F809.0
tp2381
atp2382
a(L9L
g13
(lp2383
(g15
I0
F11.0
tp2384
a(g17
F11.0
F157.0
tp2385
a(g29
F320.0
F579.0
tp2386
atp2387
a(L46L
g13
(lp2388
(g51
I0
F11.0
tp2389
a(g25
F11.0
F284.0
tp2390
a(g129
F318.0
F321.0
tp2391
a(g173
F321.0
F548.0
tp2392
a(g93
F548.0
F809.0
tp2393
atp2394
a(L94L
g13
(lp2395
(g218
I0
F11.0
tp2396
a(g220
F11.0
F230.0
tp2397
a(g31
F489.0
F492.0
tp2398
a(g188
F492.0
F495.0
tp2399
a(g190
F495.0
F498.0
tp2400
a(g145
F498.0
F501.0
tp2401
a(g222
F501.0
F504.0
tp2402
a(g224
F504.0
F776.0
tp2403
atp2404
a(L14L
g13
(lp2405
(g194
I0
F12.0
tp2406
a(g230
F12.0
F23.0
tp2407
a(g41
F23.0
F359.0
tp2408
a(g200
F489.0
F492.0
tp2409
a(g113
F492.0
F761.0
tp2410
atp2411
a(L79L
g13
(lp2412
(g85
I0
F0.0
tp2413
a(g155
F6.0
F342.0
tp2414
a(g161
F342.0
F669.0
tp2415
atp2416
a(L88L
g13
(lp2417
(g53
I0
F12.0
tp2418
a(g206
F12.0
F23.0
tp2419
a(g208
F23.0
F234.0
tp2420
a(g186
F234.0
F245.0
tp2421
a(g212
F492.0
F681.0
tp2422
atp2423
a(L83L
g13
(lp2424
(g232
I0
F11.0
tp2425
a(g234
F11.0
F22.0
tp2426
a(g171
F22.0
F205.0
tp2427
a(g175
F318.0
F321.0
tp2428
a(g143
F321.0
F324.0
tp2429
a(g45
F489.0
F492.0
tp2430
a(g181
F498.0
F805.0
tp2431
atp2432
a(L21L
g2
(lp2433
(g37
I0
F6.0
tp2434
a(g149
F12.0
F161.0
tp2435
a(g87
F161.0
F233.0
tp2436
a(g159
F318.0
F320.0
tp2437
a(g177
F489.0
F491.0
tp2438
a(g47
F492.0
F681.0
tp2439
atp2440
a(L54L
g13
(lp2441
(g107
F6.0
F324.0
tp2442
a(g101
F324.0
F617.0
tp2443
a(g111
F632.0
F805.0
tp2444
atp2445
a(L41L
g13
(lp2446
(g125
I0
F11.0
tp2447
a(g73
F11.0
F302.0
tp2448
a(g19
F318.0
F321.0
tp2449
a(g77
F324.0
F602.0
tp2450
a(g79
F602.0
F802.0
tp2451
atp2452
a(L24L
g13
(lp2453
(g246
I0
F11.0
tp2454
a(g57
F23.0
F436.0
tp2455
a(g59
F492.0
F806.0
tp2456
atp2457
a(L58L
g184
(lp2458
(g236
I0
F147.0
tp2459
atp2460
a(L28L
g123
(lp2461
(g120
F812.0
F812.0
tp2462
atp2463
a(L62L
g13
(lp2464
(g97
I0
F11.0
tp2465
a(g127
F11.0
F22.0
tp2466
a(g6
F34.0
F245.0
tp2467
a(g179
F489.0
F492.0
tp2468
a(g133
F492.0
F495.0
tp2469
a(g33
F495.0
F773.0
tp2470
atp2471
a(L53L
g13
(lp2472
(g105
I0
F12.0
tp2473
a(g228
F12.0
F24.0
tp2474
a(g169
F24.0
F236.0
tp2475
a(g75
F318.0
F321.0
tp2476
a(g151
F321.0
F629.0
tp2477
a(g131
F629.0
F632.0
tp2478
a(g163
F809.0
F812.0
tp2479
atp2480
atp2481
a(F827.0
F12.44
(lp2482
(L96L
g13
(lp2483
(g139
I0
F11.0
tp2484
a(g55
F11.0
F23.0
tp2485
a(g63
F23.0
F34.0
tp2486
a(g216
F34.0
F46.0
tp2487
a(g238
F49.0
F389.0
tp2488
a(g8
F444.0
F447.0
tp2489
a(g242
F447.0
F755.0
tp2490
atp2491
a(L51L
g882
(lp2492
(g39
F11.0
F315.0
tp2493
a(g21
F325.0
F691.0
tp2494
atp2495
a(L99L
g2
(lp2496
(g248
F11.0
F185.0
tp2497
a(g196
F185.0
F316.0
tp2498
a(g250
F320.0
F322.0
tp2499
a(g27
F322.0
F324.0
tp2500
a(g99
F324.0
F326.0
tp2501
a(g252
F326.0
F516.0
tp2502
a(g198
F516.0
F697.0
tp2503
a(g254
F697.0
F802.0
tp2504
a(g115
F825.0
F827.0
tp2505
atp2506
a(L71L
g13
(lp2507
(g91
F11.0
F209.0
tp2508
a(g109
F209.0
F417.0
tp2509
a(g141
F417.0
F420.0
tp2510
a(g210
F444.0
F447.0
tp2511
a(g135
F450.0
F453.0
tp2512
a(g10
F453.0
F762.0
tp2513
atp2514
a(L40L
g2
(lp2515
(g4
F12.0
F141.0
tp2516
a(g65
F141.0
F303.0
tp2517
a(g67
F303.0
F442.0
tp2518
a(g240
F442.0
F444.0
tp2519
a(g43
F444.0
F445.0
tp2520
a(g69
F445.0
F638.0
tp2521
a(g202
F638.0
F717.0
tp2522
a(g81
F762.0
F764.0
tp2523
atp2524
a(L41L
g13
(lp2525
(g167
I0
F11.0
tp2526
a(g73
F22.0
F313.0
tp2527
a(g19
F322.0
F325.0
tp2528
a(g77
F328.0
F606.0
tp2529
a(g79
F606.0
F806.0
tp2530
atp2531
a(L46L
g13
(lp2532
(g51
I0
F11.0
tp2533
a(g125
F11.0
F22.0
tp2534
a(g25
F22.0
F295.0
tp2535
a(g129
F322.0
F325.0
tp2536
a(g173
F325.0
F552.0
tp2537
a(g93
F552.0
F813.0
tp2538
atp2539
a(L94L
g13
(lp2540
(g218
I0
F11.0
tp2541
a(g220
F11.0
F230.0
tp2542
a(g31
F444.0
F447.0
tp2543
a(g188
F447.0
F450.0
tp2544
a(g190
F450.0
F453.0
tp2545
a(g145
F453.0
F456.0
tp2546
a(g222
F456.0
F459.0
tp2547
a(g224
F459.0
F731.0
tp2548
atp2549
a(L14L
g13
(lp2550
(g85
I0
F0.0
tp2551
a(g15
I0
F11.0
tp2552
a(g194
F11.0
F23.0
tp2553
a(g234
F23.0
F34.0
tp2554
a(g41
F34.0
F370.0
tp2555
a(g157
F370.0
F374.0
tp2556
a(g200
F444.0
F447.0
tp2557
a(g113
F447.0
F716.0
tp2558
atp2559
a(L79L
g13
(lp2560
(g37
I0
F11.0
tp2561
a(g155
F11.0
F347.0
tp2562
a(g161
F347.0
F674.0
tp2563
atp2564
a(L88L
g13
(lp2565
(g53
I0
F12.0
tp2566
a(g206
F12.0
F23.0
tp2567
a(g208
F23.0
F234.0
tp2568
a(g186
F234.0
F245.0
tp2569
a(g212
F447.0
F636.0
tp2570
atp2571
a(L83L
g13
(lp2572
(g232
I0
F11.0
tp2573
a(g171
F12.0
F195.0
tp2574
a(g175
F322.0
F325.0
tp2575
a(g45
F444.0
F447.0
tp2576
a(g181
F453.0
F760.0
tp2577
atp2578
a(L53L
g13
(lp2579
(g228
I0
F12.0
tp2580
a(g169
F12.0
F224.0
tp2581
a(g75
F322.0
F325.0
tp2582
a(g151
F325.0
F633.0
tp2583
a(g131
F633.0
F636.0
tp2584
a(g163
F813.0
F816.0
tp2585
atp2586
a(L54L
g13
(lp2587
(g107
F11.0
F329.0
tp2588
a(g101
F329.0
F622.0
tp2589
a(g111
F636.0
F809.0
tp2590
atp2591
a(L9L
g13
(lp2592
(g105
I0
F12.0
tp2593
a(g17
F12.0
F158.0
tp2594
a(g87
F158.0
F302.0
tp2595
a(g29
F324.0
F583.0
tp2596
atp2597
a(L24L
g13
(lp2598
(g230
I0
F11.0
tp2599
a(g246
F11.0
F22.0
tp2600
a(g57
F23.0
F436.0
tp2601
a(g59
F447.0
F761.0
tp2602
atp2603
a(L58L
g123
(lp2604
(g236
I0
F49.0
tp2605
atp2606
a(L28L
g123
(lp2607
(g120
F827.0
F827.0
tp2608
atp2609
a(L62L
g13
(lp2610
(g97
I0
F11.0
tp2611
a(g127
F11.0
F22.0
tp2612
a(g6
F34.0
F245.0
tp2613
a(g179
F444.0
F447.0
tp2614
a(g133
F447.0
F450.0
tp2615
a(g33
F450.0
F728.0
tp2616
atp2617
a(L21L
g13
(lp2618
(g149
F23.0
F320.0
tp2619
a(g159
F322.0
F325.0
tp2620
a(g143
F325.0
F328.0
tp2621
a(g177
F444.0
F447.0
tp2622
a(g47
F447.0
F825.0
tp2623
atp2624
atp2625
a(F949.0
F12.36
(lp2626
(L96L
g13
(lp2627
(g139
I0
F11.0
tp2628
a(g55
F11.0
F23.0
tp2629
a(g63
F23.0
F34.0
tp2630
a(g216
F34.0
F46.0
tp2631
a(g238
F147.0
F487.0
tp2632
a(g8
F489.0
F492.0
tp2633
a(g242
F492.0
F800.0
tp2634
atp2635
a(L51L
g882
(lp2636
(g39
F11.0
F315.0
tp2637
a(g21
F458.0
F824.0
tp2638
atp2639
a(L99L
g2
(lp2640
(g248
F11.0
F185.0
tp2641
a(g196
F185.0
F316.0
tp2642
a(g250
F453.0
F455.0
tp2643
a(g27
F455.0
F457.0
tp2644
a(g99
F457.0
F459.0
tp2645
a(g252
F459.0
F649.0
tp2646
a(g157
F649.0
F651.0
tp2647
a(g198
F651.0
F832.0
tp2648
a(g254
F832.0
F937.0
tp2649
a(g115
F939.0
F941.0
tp2650
atp2651
a(L71L
g13
(lp2652
(g91
F11.0
F209.0
tp2653
a(g109
F209.0
F417.0
tp2654
a(g141
F455.0
F458.0
tp2655
a(g210
F489.0
F492.0
tp2656
a(g135
F495.0
F498.0
tp2657
a(g10
F498.0
F807.0
tp2658
atp2659
a(L40L
g2
(lp2660
(g167
I0
F6.0
tp2661
a(g4
F12.0
F141.0
tp2662
a(g65
F141.0
F303.0
tp2663
a(g67
F303.0
F442.0
tp2664
a(g240
F487.0
F489.0
tp2665
a(g43
F489.0
F490.0
tp2666
a(g69
F490.0
F683.0
tp2667
a(g202
F683.0
F762.0
tp2668
a(g81
F807.0
F809.0
tp2669
atp2670
a(L9L
g13
(lp2671
(g15
I0
F11.0
tp2672
a(g17
F11.0
F157.0
tp2673
a(g29
F457.0
F716.0
tp2674
atp2675
a(L46L
g13
(lp2676
(g51
I0
F11.0
tp2677
a(g25
F11.0
F284.0
tp2678
a(g129
F455.0
F458.0
tp2679
a(g173
F458.0
F685.0
tp2680
a(g93
F685.0
F946.0
tp2681
atp2682
a(L94L
g13
(lp2683
(g218
I0
F11.0
tp2684
a(g220
F11.0
F230.0
tp2685
a(g31
F489.0
F492.0
tp2686
a(g188
F492.0
F495.0
tp2687
a(g190
F495.0
F498.0
tp2688
a(g145
F498.0
F501.0
tp2689
a(g222
F501.0
F504.0
tp2690
a(g224
F504.0
F776.0
tp2691
atp2692
a(L14L
g13
(lp2693
(g194
I0
F12.0
tp2694
a(g230
F12.0
F23.0
tp2695
a(g41
F23.0
F359.0
tp2696
a(g200
F489.0
F492.0
tp2697
a(g113
F492.0
F761.0
tp2698
atp2699
a(L79L
g13
(lp2700
(g85
I0
F0.0
tp2701
a(g155
F11.0
F347.0
tp2702
a(g161
F458.0
F785.0
tp2703
atp2704
a(L88L
g13
(lp2705
(g53
I0
F12.0
tp2706
a(g206
F12.0
F23.0
tp2707
a(g208
F23.0
F234.0
tp2708
a(g186
F234.0
F245.0
tp2709
a(g212
F492.0
F681.0
tp2710
atp2711
a(L83L
g13
(lp2712
(g232
I0
F11.0
tp2713
a(g234
F11.0
F22.0
tp2714
a(g171
F22.0
F205.0
tp2715
a(g175
F455.0
F458.0
tp2716
a(g143
F458.0
F461.0
tp2717
a(g45
F489.0
F492.0
tp2718
a(g181
F498.0
F805.0
tp2719
atp2720
a(L21L
g13
(lp2721
(g37
I0
F11.0
tp2722
a(g149
F12.0
F309.0
tp2723
a(g87
F309.0
F453.0
tp2724
a(g159
F455.0
F458.0
tp2725
a(g177
F489.0
F492.0
tp2726
a(g47
F492.0
F870.0
tp2727
atp2728
a(L54L
g13
(lp2729
(g107
F6.0
F324.0
tp2730
a(g101
F458.0
F751.0
tp2731
a(g111
F769.0
F942.0
tp2732
atp2733
a(L41L
g13
(lp2734
(g125
I0
F11.0
tp2735
a(g73
F11.0
F302.0
tp2736
a(g19
F455.0
F458.0
tp2737
a(g77
F461.0
F739.0
tp2738
a(g79
F739.0
F939.0
tp2739
atp2740
a(L24L
g13
(lp2741
(g246
I0
F11.0
tp2742
a(g57
F23.0
F436.0
tp2743
a(g59
F492.0
F806.0
tp2744
atp2745
a(L58L
g184
(lp2746
(g236
I0
F147.0
tp2747
atp2748
a(L28L
g123
(lp2749
(g120
F949.0
F949.0
tp2750
atp2751
a(L62L
g13
(lp2752
(g97
I0
F11.0
tp2753
a(g127
F11.0
F22.0
tp2754
a(g6
F34.0
F245.0
tp2755
a(g179
F489.0
F492.0
tp2756
a(g133
F492.0
F495.0
tp2757
a(g33
F495.0
F773.0
tp2758
atp2759
a(L53L
g13
(lp2760
(g105
I0
F12.0
tp2761
a(g228
F12.0
F24.0
tp2762
a(g169
F24.0
F236.0
tp2763
a(g75
F455.0
F458.0
tp2764
a(g151
F458.0
F766.0
tp2765
a(g131
F766.0
F769.0
tp2766
a(g163
F946.0
F949.0
tp2767
atp2768
atp2769
a(F952.0
F12.29
(lp2770
(L9L
g13
(lp2771
(g105
I0
F12.0
tp2772
a(g15
F12.0
F23.0
tp2773
a(g17
F23.0
F169.0
tp2774
a(g21
F358.0
F541.0
tp2775
a(g212
F699.0
F888.0
tp2776
atp2777
a(L14L
g13
(lp2778
(g85
I0
F0.0
tp2779
a(g246
I0
F11.0
tp2780
a(g41
F22.0
F358.0
tp2781
a(g129
F358.0
F361.0
tp2782
a(g131
F361.0
F364.0
tp2783
a(g208
F364.0
F575.0
tp2784
a(g113
F627.0
F896.0
tp2785
atp2786
a(L21L
g2
(lp2787
(g149
F12.0
F161.0
tp2788
a(g234
F161.0
F167.0
tp2789
a(g250
F316.0
F318.0
tp2790
a(g99
F318.0
F320.0
tp2791
a(g206
F320.0
F325.0
tp2792
a(g240
F619.0
F621.0
tp2793
a(g43
F621.0
F622.0
tp2794
a(g47
F624.0
F813.0
tp2795
atp2796
a(L28L
g118
(lp2797
(g120
F952.0
F952.0
tp2798
atp2799
a(L29L
g882
(lp2800
(g29
F321.0
F840.0
tp2801
atp2802
a(L40L
g2
(lp2803
(g4
F12.0
F141.0
tp2804
a(g139
F141.0
F147.0
tp2805
a(g55
F147.0
F153.0
tp2806
a(g65
F153.0
F315.0
tp2807
a(g220
F315.0
F425.0
tp2808
a(g186
F425.0
F430.0
tp2809
a(g67
F430.0
F569.0
tp2810
a(g69
F622.0
F815.0
tp2811
a(g81
F950.0
F952.0
tp2812
atp2813
a(L41L
g13
(lp2814
(g167
I0
F11.0
tp2815
a(g73
F11.0
F302.0
tp2816
a(g141
F318.0
F321.0
tp2817
a(g19
F321.0
F324.0
tp2818
a(g77
F327.0
F605.0
tp2819
a(g79
F624.0
F824.0
tp2820
atp2821
a(L46L
g13
(lp2822
(g125
I0
F11.0
tp2823
a(g25
F11.0
F284.0
tp2824
a(g109
F319.0
F527.0
tp2825
a(g93
F527.0
F788.0
tp2826
a(g145
F788.0
F791.0
tp2827
a(g202
F791.0
F949.0
tp2828
atp2829
a(L51L
g882
(lp2830
(g53
I0
F23.0
tp2831
a(g101
F324.0
F911.0
tp2832
atp2833
a(L53L
g184
(lp2834
(g157
F318.0
F365.0
tp2835
a(g8
F621.0
F658.0
tp2836
a(g210
F658.0
F699.0
tp2837
atp2838
a(L54L
g13
(lp2839
(g107
F11.0
F329.0
tp2840
a(g151
F329.0
F637.0
tp2841
a(g111
F637.0
F810.0
tp2842
a(g163
F915.0
F918.0
tp2843
atp2844
a(L62L
g13
(lp2845
(g228
I0
F12.0
tp2846
a(g169
F12.0
F224.0
tp2847
a(g27
F318.0
F321.0
tp2848
a(g175
F321.0
F324.0
tp2849
a(g143
F324.0
F327.0
tp2850
a(g6
F327.0
F538.0
tp2851
a(g200
F621.0
F624.0
tp2852
a(g179
F624.0
F627.0
tp2853
a(g31
F627.0
F630.0
tp2854
a(g133
F630.0
F633.0
tp2855
a(g33
F633.0
F911.0
tp2856
atp2857
a(L64L
g13
(lp2858
(g252
F320.0
F700.0
tp2859
atp2860
a(L71L
g13
(lp2861
(g194
I0
F12.0
tp2862
a(g87
F12.0
F156.0
tp2863
a(g39
F156.0
F308.0
tp2864
a(g97
F308.0
F319.0
tp2865
a(g75
F319.0
F322.0
tp2866
a(g135
F597.0
F600.0
tp2867
a(g10
F641.0
F950.0
tp2868
atp2869
a(L73L
g184
(lp2870
(g159
F318.0
F358.0
tp2871
a(g177
F621.0
F666.0
tp2872
atp2873
a(L79L
g13
(lp2874
(g37
I0
F11.0
tp2875
a(g155
F11.0
F347.0
tp2876
a(g173
F361.0
F588.0
tp2877
a(g161
F588.0
F915.0
tp2878
atp2879
a(L83L
g13
(lp2880
(g232
I0
F11.0
tp2881
a(g127
F11.0
F22.0
tp2882
a(g171
F23.0
F206.0
tp2883
a(g57
F206.0
F619.0
tp2884
a(g45
F621.0
F624.0
tp2885
a(g181
F624.0
F931.0
tp2886
atp2887
a(L84L
g184
(lp2888
(g236
I0
F147.0
tp2889
a(g188
F560.0
F597.0
tp2890
a(g190
F597.0
F641.0
tp2891
atp2892
a(L88L
g184
(lp2893
(g216
I0
F153.0
tp2894
a(g218
F153.0
F302.0
tp2895
atp2896
a(L94L
g13
(lp2897
(g222
F597.0
F600.0
tp2898
a(g224
F600.0
F872.0
tp2899
atp2900
a(L96L
g13
(lp2901
(g230
I0
F11.0
tp2902
a(g91
F11.0
F209.0
tp2903
a(g63
F209.0
F220.0
tp2904
a(g238
F220.0
F560.0
tp2905
a(g242
F630.0
F938.0
tp2906
atp2907
a(L99L
g2
(lp2908
(g51
I0
F6.0
tp2909
a(g248
F11.0
F185.0
tp2910
a(g196
F185.0
F316.0
tp2911
a(g198
F365.0
F546.0
tp2912
a(g254
F666.0
F771.0
tp2913
a(g59
F771.0
F928.0
tp2914
a(g115
F938.0
F940.0
tp2915
atp2916
atp2917
a(F953.0
F11.66
(lp2918
(L96L
g13
(lp2919
(g230
I0
F11.0
tp2920
a(g91
F11.0
F209.0
tp2921
a(g63
F209.0
F220.0
tp2922
a(g238
F220.0
F560.0
tp2923
a(g242
F630.0
F938.0
tp2924
atp2925
a(L51L
g882
(lp2926
(g53
I0
F23.0
tp2927
a(g101
F324.0
F911.0
tp2928
atp2929
a(L99L
g2
(lp2930
(g51
I0
F6.0
tp2931
a(g248
F11.0
F185.0
tp2932
a(g196
F185.0
F316.0
tp2933
a(g198
F365.0
F546.0
tp2934
a(g254
F666.0
F771.0
tp2935
a(g59
F771.0
F928.0
tp2936
a(g115
F938.0
F940.0
tp2937
atp2938
a(L64L
g13
(lp2939
(g252
F320.0
F700.0
tp2940
atp2941
a(L71L
g13
(lp2942
(g194
I0
F12.0
tp2943
a(g87
F12.0
F156.0
tp2944
a(g39
F156.0
F308.0
tp2945
a(g97
F308.0
F319.0
tp2946
a(g75
F319.0
F322.0
tp2947
a(g135
F597.0
F600.0
tp2948
a(g10
F641.0
F950.0
tp2949
atp2950
a(L40L
g2
(lp2951
(g4
F12.0
F141.0
tp2952
a(g139
F141.0
F147.0
tp2953
a(g55
F147.0
F153.0
tp2954
a(g65
F153.0
F315.0
tp2955
a(g220
F315.0
F425.0
tp2956
a(g186
F425.0
F430.0
tp2957
a(g67
F430.0
F569.0
tp2958
a(g69
F622.0
F815.0
tp2959
a(g224
F815.0
F951.0
tp2960
a(g81
F951.0
F953.0
tp2961
atp2962
a(L41L
g13
(lp2963
(g167
I0
F11.0
tp2964
a(g73
F11.0
F302.0
tp2965
a(g141
F318.0
F321.0
tp2966
a(g19
F321.0
F324.0
tp2967
a(g77
F327.0
F605.0
tp2968
a(g79
F624.0
F824.0
tp2969
atp2970
a(L46L
g13
(lp2971
(g125
I0
F11.0
tp2972
a(g25
F11.0
F284.0
tp2973
a(g109
F319.0
F527.0
tp2974
a(g93
F527.0
F788.0
tp2975
a(g145
F788.0
F791.0
tp2976
a(g202
F791.0
F949.0
tp2977
atp2978
a(L73L
g184
(lp2979
(g159
F318.0
F358.0
tp2980
a(g177
F621.0
F666.0
tp2981
atp2982
a(L14L
g13
(lp2983
(g85
I0
F0.0
tp2984
a(g246
I0
F11.0
tp2985
a(g41
F22.0
F358.0
tp2986
a(g129
F358.0
F361.0
tp2987
a(g131
F361.0
F364.0
tp2988
a(g208
F364.0
F575.0
tp2989
a(g113
F627.0
F896.0
tp2990
atp2991
a(L79L
g13
(lp2992
(g37
I0
F11.0
tp2993
a(g155
F11.0
F347.0
tp2994
a(g173
F361.0
F588.0
tp2995
a(g161
F588.0
F915.0
tp2996
atp2997
a(L50L
g123
(lp2998
(g120
F953.0
F953.0
tp2999
atp3000
a(L83L
g13
(lp3001
(g232
I0
F11.0
tp3002
a(g127
F11.0
F22.0
tp3003
a(g171
F23.0
F206.0
tp3004
a(g57
F206.0
F619.0
tp3005
a(g45
F621.0
F624.0
tp3006
a(g181
F624.0
F931.0
tp3007
atp3008
a(L84L
g184
(lp3009
(g236
I0
F147.0
tp3010
a(g188
F560.0
F597.0
tp3011
a(g190
F597.0
F641.0
tp3012
a(g222
F641.0
F683.0
tp3013
atp3014
a(L21L
g2
(lp3015
(g149
F12.0
F161.0
tp3016
a(g234
F161.0
F167.0
tp3017
a(g250
F316.0
F318.0
tp3018
a(g99
F318.0
F320.0
tp3019
a(g206
F320.0
F325.0
tp3020
a(g240
F619.0
F621.0
tp3021
a(g43
F621.0
F622.0
tp3022
a(g47
F624.0
F813.0
tp3023
atp3024
a(L54L
g13
(lp3025
(g107
F11.0
F329.0
tp3026
a(g151
F329.0
F637.0
tp3027
a(g111
F637.0
F810.0
tp3028
a(g163
F915.0
F918.0
tp3029
atp3030
a(L9L
g13
(lp3031
(g105
I0
F12.0
tp3032
a(g15
F12.0
F23.0
tp3033
a(g17
F23.0
F169.0
tp3034
a(g21
F358.0
F541.0
tp3035
a(g212
F699.0
F888.0
tp3036
atp3037
a(L88L
g184
(lp3038
(g216
I0
F153.0
tp3039
a(g218
F153.0
F302.0
tp3040
atp3041
a(L29L
g882
(lp3042
(g29
F321.0
F840.0
tp3043
atp3044
a(L62L
g13
(lp3045
(g228
I0
F12.0
tp3046
a(g169
F12.0
F224.0
tp3047
a(g27
F318.0
F321.0
tp3048
a(g175
F321.0
F324.0
tp3049
a(g143
F324.0
F327.0
tp3050
a(g6
F327.0
F538.0
tp3051
a(g200
F621.0
F624.0
tp3052
a(g179
F624.0
F627.0
tp3053
a(g31
F627.0
F630.0
tp3054
a(g133
F630.0
F633.0
tp3055
a(g33
F633.0
F911.0
tp3056
atp3057
a(L53L
g184
(lp3058
(g157
F318.0
F365.0
tp3059
a(g8
F621.0
F658.0
tp3060
a(g210
F658.0
F699.0
tp3061
atp3062
atp3063
a(F955.0
F10.71
(lp3064
(L96L
g13
(lp3065
(g230
I0
F11.0
tp3066
a(g91
F11.0
F209.0
tp3067
a(g63
F209.0
F220.0
tp3068
a(g238
F220.0
F560.0
tp3069
a(g242
F630.0
F938.0
tp3070
atp3071
a(L51L
g882
(lp3072
(g53
I0
F23.0
tp3073
a(g101
F327.0
F914.0
tp3074
atp3075
a(L99L
g2
(lp3076
(g51
I0
F6.0
tp3077
a(g248
F11.0
F185.0
tp3078
a(g196
F185.0
F316.0
tp3079
a(g27
F318.0
F320.0
tp3080
a(g252
F320.0
F510.0
tp3081
a(g198
F510.0
F691.0
tp3082
a(g254
F691.0
F796.0
tp3083
a(g59
F796.0
F953.0
tp3084
a(g115
F953.0
F955.0
tp3085
atp3086
a(L35L
g13
(lp3087
(g120
F955.0
F955.0
tp3088
atp3089
a(L71L
g13
(lp3090
(g87
F11.0
F155.0
tp3091
a(g39
F155.0
F307.0
tp3092
a(g75
F318.0
F321.0
tp3093
a(g135
F597.0
F600.0
tp3094
a(g10
F641.0
F950.0
tp3095
atp3096
a(L40L
g2
(lp3097
(g4
F12.0
F141.0
tp3098
a(g139
F141.0
F147.0
tp3099
a(g55
F147.0
F153.0
tp3100
a(g65
F153.0
F315.0
tp3101
a(g220
F315.0
F425.0
tp3102
a(g186
F425.0
F430.0
tp3103
a(g67
F430.0
F569.0
tp3104
a(g69
F622.0
F815.0
tp3105
a(g224
F815.0
F951.0
tp3106
a(g81
F951.0
F953.0
tp3107
atp3108
a(L41L
g13
(lp3109
(g167
I0
F11.0
tp3110
a(g228
F11.0
F23.0
tp3111
a(g73
F23.0
F314.0
tp3112
a(g129
F318.0
F321.0
tp3113
a(g141
F321.0
F324.0
tp3114
a(g19
F324.0
F327.0
tp3115
a(g77
F327.0
F605.0
tp3116
a(g79
F624.0
F824.0
tp3117
atp3118
a(L73L
g184
(lp3119
(g159
F318.0
F358.0
tp3120
a(g177
F621.0
F666.0
tp3121
atp3122
a(L14L
g13
(lp3123
(g85
I0
F0.0
tp3124
a(g246
I0
F11.0
tp3125
a(g41
F22.0
F358.0
tp3126
a(g131
F358.0
F361.0
tp3127
a(g208
F361.0
F572.0
tp3128
a(g113
F627.0
F896.0
tp3129
atp3130
a(L79L
g13
(lp3131
(g37
I0
F11.0
tp3132
a(g155
F11.0
F347.0
tp3133
a(g173
F347.0
F574.0
tp3134
a(g161
F574.0
F901.0
tp3135
atp3136
a(L83L
g13
(lp3137
(g232
I0
F11.0
tp3138
a(g127
F11.0
F22.0
tp3139
a(g171
F23.0
F206.0
tp3140
a(g57
F206.0
F619.0
tp3141
a(g45
F621.0
F624.0
tp3142
a(g181
F624.0
F931.0
tp3143
atp3144
a(L84L
g184
(lp3145
(g236
I0
F147.0
tp3146
a(g188
F560.0
F597.0
tp3147
a(g190
F597.0
F641.0
tp3148
a(g222
F641.0
F683.0
tp3149
atp3150
a(L46L
g13
(lp3151
(g194
I0
F12.0
tp3152
a(g125
F12.0
F23.0
tp3153
a(g25
F23.0
F296.0
tp3154
a(g109
F296.0
F504.0
tp3155
a(g93
F504.0
F765.0
tp3156
a(g145
F765.0
F768.0
tp3157
a(g202
F768.0
F926.0
tp3158
atp3159
a(L54L
g13
(lp3160
(g107
F11.0
F329.0
tp3161
a(g151
F329.0
F637.0
tp3162
a(g111
F637.0
F810.0
tp3163
a(g163
F914.0
F917.0
tp3164
atp3165
a(L9L
g13
(lp3166
(g105
I0
F12.0
tp3167
a(g15
F12.0
F23.0
tp3168
a(g17
F23.0
F169.0
tp3169
a(g97
F169.0
F180.0
tp3170
a(g29
F320.0
F579.0
tp3171
a(g21
F579.0
F762.0
tp3172
a(g212
F762.0
F951.0
tp3173
atp3174
a(L88L
g184
(lp3175
(g216
I0
F153.0
tp3176
a(g218
F153.0
F302.0
tp3177
atp3178
a(L53L
g184
(lp3179
(g157
F318.0
F365.0
tp3180
a(g175
F365.0
F407.0
tp3181
a(g8
F621.0
F658.0
tp3182
a(g210
F658.0
F699.0
tp3183
atp3184
a(L62L
g13
(lp3185
(g169
F23.0
F235.0
tp3186
a(g143
F318.0
F321.0
tp3187
a(g6
F321.0
F532.0
tp3188
a(g200
F621.0
F624.0
tp3189
a(g179
F624.0
F627.0
tp3190
a(g31
F627.0
F630.0
tp3191
a(g133
F630.0
F633.0
tp3192
a(g33
F633.0
F911.0
tp3193
atp3194
a(L21L
g2
(lp3195
(g149
F12.0
F161.0
tp3196
a(g234
F161.0
F167.0
tp3197
a(g250
F316.0
F318.0
tp3198
a(g99
F318.0
F320.0
tp3199
a(g206
F320.0
F325.0
tp3200
a(g240
F619.0
F621.0
tp3201
a(g43
F621.0
F622.0
tp3202
a(g47
F624.0
F813.0
tp3203
atp3204
atp3205
a(F976.0
F10.08
(lp3206
(L96L
g13
(lp3207
(g91
F11.0
F209.0
tp3208
a(g97
F209.0
F220.0
tp3209
a(g63
F220.0
F231.0
tp3210
a(g238
F231.0
F571.0
tp3211
a(g242
F595.0
F903.0
tp3212
atp3213
a(L51L
g882
(lp3214
(g139
I0
F22.0
tp3215
a(g53
F22.0
F45.0
tp3216
a(g101
F347.0
F934.0
tp3217
atp3218
a(L99L
g2
(lp3219
(g15
I0
F6.0
tp3220
a(g246
F6.0
F12.0
tp3221
a(g248
F22.0
F196.0
tp3222
a(g234
F196.0
F202.0
tp3223
a(g196
F202.0
F333.0
tp3224
a(g27
F338.0
F340.0
tp3225
a(g252
F341.0
F531.0
tp3226
a(g198
F531.0
F712.0
tp3227
a(g254
F712.0
F817.0
tp3228
a(g59
F817.0
F974.0
tp3229
a(g115
F974.0
F976.0
tp3230
atp3231
a(L35L
g13
(lp3232
(g120
F976.0
F976.0
tp3233
atp3234
a(L71L
g13
(lp3235
(g194
I0
F12.0
tp3236
a(g87
F12.0
F156.0
tp3237
a(g39
F156.0
F308.0
tp3238
a(g75
F338.0
F341.0
tp3239
a(g135
F608.0
F611.0
tp3240
a(g10
F652.0
F961.0
tp3241
atp3242
a(L40L
g2
(lp3243
(g4
F12.0
F141.0
tp3244
a(g55
F141.0
F147.0
tp3245
a(g65
F153.0
F315.0
tp3246
a(g220
F315.0
F425.0
tp3247
a(g186
F425.0
F430.0
tp3248
a(g67
F430.0
F569.0
tp3249
a(g69
F589.0
F782.0
tp3250
a(g224
F782.0
F918.0
tp3251
a(g81
F961.0
F963.0
tp3252
atp3253
a(L41L
g13
(lp3254
(g167
I0
F11.0
tp3255
a(g73
F11.0
F302.0
tp3256
a(g129
F338.0
F341.0
tp3257
a(g141
F341.0
F344.0
tp3258
a(g19
F344.0
F347.0
tp3259
a(g77
F347.0
F625.0
tp3260
a(g79
F625.0
F825.0
tp3261
atp3262
a(L46L
g13
(lp3263
(g125
I0
F11.0
tp3264
a(g25
F12.0
F285.0
tp3265
a(g109
F285.0
F493.0
tp3266
a(g93
F493.0
F754.0
tp3267
a(g145
F754.0
F757.0
tp3268
a(g202
F757.0
F915.0
tp3269
atp3270
a(L73L
g184
(lp3271
(g159
F338.0
F378.0
tp3272
a(g177
F586.0
F631.0
tp3273
atp3274
a(L14L
g13
(lp3275
(g230
I0
F11.0
tp3276
a(g41
F33.0
F369.0
tp3277
a(g131
F369.0
F372.0
tp3278
a(g208
F372.0
F583.0
tp3279
a(g113
F592.0
F861.0
tp3280
atp3281
a(L79L
g13
(lp3282
(g37
I0
F11.0
tp3283
a(g155
F11.0
F347.0
tp3284
a(g173
F347.0
F574.0
tp3285
a(g161
F574.0
F901.0
tp3286
atp3287
a(L83L
g13
(lp3288
(g51
I0
F11.0
tp3289
a(g232
F11.0
F22.0
tp3290
a(g127
F22.0
F33.0
tp3291
a(g57
F147.0
F560.0
tp3292
a(g45
F586.0
F589.0
tp3293
a(g181
F611.0
F918.0
tp3294
atp3295
a(L84L
g184
(lp3296
(g236
I0
F147.0
tp3297
a(g188
F571.0
F608.0
tp3298
a(g190
F608.0
F652.0
tp3299
a(g222
F652.0
F694.0
tp3300
atp3301
a(L21L
g13
(lp3302
(g149
F12.0
F309.0
tp3303
a(g250
F335.0
F338.0
tp3304
a(g99
F338.0
F341.0
tp3305
a(g206
F341.0
F352.0
tp3306
a(g240
F583.0
F586.0
tp3307
a(g43
F586.0
F589.0
tp3308
a(g47
F589.0
F967.0
tp3309
atp3310
a(L54L
g13
(lp3311
(g105
I0
F12.0
tp3312
a(g107
F12.0
F330.0
tp3313
a(g151
F341.0
F649.0
tp3314
a(g111
F649.0
F822.0
tp3315
a(g163
F934.0
F937.0
tp3316
atp3317
a(L9L
g13
(lp3318
(g17
F6.0
F152.0
tp3319
a(g171
F152.0
F335.0
tp3320
a(g29
F340.0
F599.0
tp3321
a(g21
F599.0
F782.0
tp3322
a(g212
F782.0
F971.0
tp3323
atp3324
a(L88L
g184
(lp3325
(g216
I0
F153.0
tp3326
a(g218
F153.0
F302.0
tp3327
atp3328
a(L25L
g1454
(lp3329
(g85
I0
F0.0
tp3330
atp3331
a(L62L
g13
(lp3332
(g228
I0
F12.0
tp3333
a(g169
F12.0
F224.0
tp3334
a(g143
F338.0
F341.0
tp3335
a(g6
F341.0
F552.0
tp3336
a(g200
F586.0
F589.0
tp3337
a(g179
F589.0
F592.0
tp3338
a(g31
F592.0
F595.0
tp3339
a(g133
F595.0
F598.0
tp3340
a(g33
F598.0
F876.0
tp3341
atp3342
a(L53L
g184
(lp3343
(g157
F338.0
F385.0
tp3344
a(g175
F385.0
F427.0
tp3345
a(g8
F586.0
F623.0
tp3346
a(g210
F623.0
F664.0
tp3347
atp3348
atp3349
a(F1034.0
F9.77
(lp3350
(L96L
g13
(lp3351
(g91
F22.0
F220.0
tp3352
a(g238
F220.0
F560.0
tp3353
a(g242
F652.0
F960.0
tp3354
atp3355
a(L64L
g184
(lp3356
(g139
I0
F145.0
tp3357
a(g143
F318.0
F357.0
tp3358
atp3359
a(L99L
g2
(lp3360
(g246
I0
F6.0
tp3361
a(g248
F11.0
F185.0
tp3362
a(g196
F185.0
F316.0
tp3363
a(g250
F316.0
F318.0
tp3364
a(g252
F324.0
F514.0
tp3365
a(g198
F514.0
F695.0
tp3366
a(g254
F695.0
F800.0
tp3367
a(g59
F800.0
F957.0
tp3368
a(g115
F1027.0
F1029.0
tp3369
atp3370
a(L6L
g123
(lp3371
(g120
F1034.0
F1034.0
tp3372
atp3373
a(L51L
g882
(lp3374
(g53
I0
F23.0
tp3375
a(g101
F360.0
F947.0
tp3376
a(g163
F1000.0
F1006.0
tp3377
atp3378
a(L71L
g13
(lp3379
(g194
I0
F12.0
tp3380
a(g87
F12.0
F156.0
tp3381
a(g236
F156.0
F167.0
tp3382
a(g177
F646.0
F649.0
tp3383
a(g135
F679.0
F682.0
tp3384
a(g10
F723.0
F1032.0
tp3385
atp3386
a(L40L
g2
(lp3387
(g167
I0
F6.0
tp3388
a(g4
F12.0
F141.0
tp3389
a(g234
F141.0
F147.0
tp3390
a(g55
F147.0
F153.0
tp3391
a(g65
F153.0
F315.0
tp3392
a(g220
F315.0
F425.0
tp3393
a(g67
F503.0
F642.0
tp3394
a(g200
F646.0
F647.0
tp3395
a(g69
F649.0
F842.0
tp3396
a(g224
F842.0
F978.0
tp3397
a(g81
F1032.0
F1034.0
tp3398
atp3399
a(L41L
g13
(lp3400
(g37
I0
F11.0
tp3401
a(g51
F11.0
F22.0
tp3402
a(g73
F23.0
F314.0
tp3403
a(g97
F314.0
F325.0
tp3404
a(g27
F325.0
F328.0
tp3405
a(g157
F328.0
F332.0
tp3406
a(g75
F332.0
F335.0
tp3407
a(g77
F357.0
F635.0
tp3408
a(g79
F647.0
F847.0
tp3409
atp3410
a(L14L
g13
(lp3411
(g230
I0
F11.0
tp3412
a(g41
F22.0
F358.0
tp3413
a(g206
F358.0
F369.0
tp3414
a(g208
F369.0
F580.0
tp3415
a(g113
F649.0
F918.0
tp3416
atp3417
a(L73L
g184
(lp3418
(g19
F318.0
F360.0
tp3419
a(g186
F360.0
F503.0
tp3420
atp3421
a(L46L
g13
(lp3422
(g105
I0
F12.0
tp3423
a(g125
F12.0
F23.0
tp3424
a(g25
F23.0
F296.0
tp3425
a(g109
F325.0
F533.0
tp3426
a(g93
F590.0
F851.0
tp3427
a(g145
F851.0
F854.0
tp3428
a(g202
F854.0
F1012.0
tp3429
atp3430
a(L79L
g13
(lp3431
(g155
F11.0
F347.0
tp3432
a(g173
F347.0
F574.0
tp3433
a(g161
F574.0
F901.0
tp3434
atp3435
a(L83L
g13
(lp3436
(g232
I0
F11.0
tp3437
a(g127
F11.0
F22.0
tp3438
a(g171
F23.0
F206.0
tp3439
a(g57
F206.0
F619.0
tp3440
a(g45
F646.0
F649.0
tp3441
a(g181
F682.0
F989.0
tp3442
atp3443
a(L9L
g13
(lp3444
(g15
I0
F11.0
tp3445
a(g17
F11.0
F157.0
tp3446
a(g39
F157.0
F309.0
tp3447
a(g29
F328.0
F587.0
tp3448
a(g141
F587.0
F590.0
tp3449
a(g21
F648.0
F831.0
tp3450
a(g212
F831.0
F1020.0
tp3451
atp3452
a(L21L
g13
(lp3453
(g149
F12.0
F309.0
tp3454
a(g151
F335.0
F643.0
tp3455
a(g240
F643.0
F646.0
tp3456
a(g43
F646.0
F649.0
tp3457
a(g47
F649.0
F1027.0
tp3458
atp3459
a(L54L
g882
(lp3460
(g107
F6.0
F642.0
tp3461
a(g159
F642.0
F648.0
tp3462
a(g131
F648.0
F655.0
tp3463
a(g111
F655.0
F1000.0
tp3464
atp3465
a(L87L
g123
(lp3466
(g85
I0
F0.0
tp3467
atp3468
a(L88L
g184
(lp3469
(g216
I0
F153.0
tp3470
a(g218
F153.0
F302.0
tp3471
a(g8
F646.0
F683.0
tp3472
a(g210
F683.0
F724.0
tp3473
atp3474
a(L84L
g184
(lp3475
(g63
I0
F145.0
tp3476
a(g188
F642.0
F679.0
tp3477
a(g190
F679.0
F723.0
tp3478
a(g222
F723.0
F765.0
tp3479
atp3480
a(L62L
g13
(lp3481
(g228
I0
F12.0
tp3482
a(g169
F12.0
F224.0
tp3483
a(g129
F318.0
F321.0
tp3484
a(g99
F321.0
F324.0
tp3485
a(g175
F324.0
F327.0
tp3486
a(g6
F327.0
F538.0
tp3487
a(g179
F646.0
F649.0
tp3488
a(g31
F649.0
F652.0
tp3489
a(g133
F652.0
F655.0
tp3490
a(g33
F655.0
F933.0
tp3491
atp3492
atp3493
a(F1219.0
F9.53
(lp3494
(L96L
g13
(lp3495
(g87
F11.0
F155.0
tp3496
a(g216
F155.0
F167.0
tp3497
a(g236
F167.0
F178.0
tp3498
a(g238
F178.0
F518.0
tp3499
a(g113
F622.0
F891.0
tp3500
a(g242
F891.0
F1199.0
tp3501
atp3502
a(L51L
g882
(lp3503
(g101
F600.0
F1187.0
tp3504
atp3505
a(L99L
g2
(lp3506
(g51
I0
F6.0
tp3507
a(g246
F6.0
F12.0
tp3508
a(g232
F12.0
F18.0
tp3509
a(g248
F18.0
F192.0
tp3510
a(g234
F192.0
F198.0
tp3511
a(g196
F198.0
F329.0
tp3512
a(g250
F592.0
F594.0
tp3513
a(g27
F594.0
F596.0
tp3514
a(g129
F596.0
F597.0
tp3515
a(g252
F597.0
F787.0
tp3516
a(g198
F787.0
F968.0
tp3517
a(g131
F968.0
F970.0
tp3518
a(g111
F970.0
F1056.0
tp3519
a(g222
F1056.0
F1058.0
tp3520
atp3521
a(L35L
g2
(lp3522
(g120
F1219.0
F1219.0
tp3523
atp3524
a(L71L
g13
(lp3525
(g139
I0
F11.0
tp3526
a(g39
F11.0
F163.0
tp3527
a(g63
F163.0
F174.0
tp3528
a(g8
F619.0
F622.0
tp3529
a(g135
F645.0
F648.0
tp3530
a(g190
F648.0
F651.0
tp3531
a(g10
F651.0
F960.0
tp3532
atp3533
a(L40L
g2
(lp3534
(g167
I0
F6.0
tp3535
a(g4
F24.0
F153.0
tp3536
a(g55
F153.0
F159.0
tp3537
a(g65
F167.0
F329.0
tp3538
a(g218
F329.0
F335.0
tp3539
a(g220
F335.0
F445.0
tp3540
a(g67
F445.0
F584.0
tp3541
a(g240
F617.0
F619.0
tp3542
a(g79
F622.0
F722.0
tp3543
a(g212
F722.0
F817.0
tp3544
a(g69
F817.0
F1010.0
tp3545
a(g224
F1058.0
F1194.0
tp3546
a(g81
F1194.0
F1196.0
tp3547
atp3548
a(L9L
g13
(lp3549
(g15
I0
F11.0
tp3550
a(g17
F11.0
F157.0
tp3551
a(g109
F157.0
F365.0
tp3552
a(g29
F596.0
F855.0
tp3553
a(g21
F855.0
F1038.0
tp3554
atp3555
a(L46L
g882
(lp3556
(g25
F12.0
F558.0
tp3557
a(g93
F601.0
F1124.0
tp3558
atp3559
a(L14L
g13
(lp3560
(g230
I0
F11.0
tp3561
a(g127
F11.0
F22.0
tp3562
a(g41
F22.0
F358.0
tp3563
a(g206
F358.0
F369.0
tp3564
a(g208
F369.0
F580.0
tp3565
a(g254
F664.0
F874.0
tp3566
atp3567
a(L79L
g13
(lp3568
(g85
I0
F0.0
tp3569
a(g155
F11.0
F347.0
tp3570
a(g161
F600.0
F927.0
tp3571
a(g163
F1216.0
F1219.0
tp3572
atp3573
a(L88L
g184
(lp3574
(g53
I0
F151.0
tp3575
a(g186
F151.0
F294.0
tp3576
a(g177
F619.0
F664.0
tp3577
a(g43
F664.0
F698.0
tp3578
a(g145
F698.0
F739.0
tp3579
atp3580
a(L83L
g13
(lp3581
(g125
I0
F11.0
tp3582
a(g157
F594.0
F598.0
tp3583
a(g141
F598.0
F601.0
tp3584
a(g159
F601.0
F604.0
tp3585
a(g179
F619.0
F622.0
tp3586
a(g133
F622.0
F625.0
tp3587
a(g188
F642.0
F645.0
tp3588
a(g181
F648.0
F955.0
tp3589
atp3590
a(L21L
g13
(lp3591
(g37
I0
F11.0
tp3592
a(g228
F11.0
F23.0
tp3593
a(g194
F23.0
F35.0
tp3594
a(g149
F35.0
F332.0
tp3595
a(g171
F332.0
F515.0
tp3596
a(g99
F594.0
F597.0
tp3597
a(g19
F597.0
F600.0
tp3598
a(g210
F619.0
F622.0
tp3599
a(g47
F630.0
F1008.0
tp3600
a(g115
F1199.0
F1202.0
tp3601
atp3602
a(L54L
g882
(lp3603
(g107
F6.0
F642.0
tp3604
a(g173
F642.0
F1097.0
tp3605
atp3606
a(L41L
g882
(lp3607
(g73
F11.0
F592.0
tp3608
a(g175
F594.0
F600.0
tp3609
a(g143
F600.0
F606.0
tp3610
a(g77
F606.0
F1162.0
tp3611
atp3612
a(L24L
g13
(lp3613
(g91
F6.0
F204.0
tp3614
a(g57
F204.0
F617.0
tp3615
a(g200
F619.0
F622.0
tp3616
a(g59
F622.0
F936.0
tp3617
a(g202
F936.0
F1094.0
tp3618
atp3619
a(L62L
g882
(lp3620
(g97
I0
F22.0
tp3621
a(g6
F174.0
F595.0
tp3622
a(g31
F619.0
F625.0
tp3623
a(g45
F625.0
F630.0
tp3624
a(g33
F630.0
F1185.0
tp3625
atp3626
a(L53L
g882
(lp3627
(g105
I0
F24.0
tp3628
a(g169
F24.0
F448.0
tp3629
a(g75
F594.0
F600.0
tp3630
a(g151
F600.0
F1216.0
tp3631
atp3632
atp3633
a(F1317.0
F8.75
(lp3634
(L3L
g123
(lp3635
(g129
F635.0
F646.0
tp3636
atp3637
a(L96L
g13
(lp3638
(g236
I0
F11.0
tp3639
a(g238
F11.0
F351.0
tp3640
a(g31
F647.0
F650.0
tp3641
a(g242
F650.0
F958.0
tp3642
atp3643
a(L99L
g13
(lp3644
(g248
F23.0
F370.0
tp3645
a(g196
F370.0
F632.0
tp3646
a(g27
F635.0
F638.0
tp3647
a(g198
F642.0
F1003.0
tp3648
a(g111
F1003.0
F1176.0
tp3649
a(g222
F1176.0
F1179.0
tp3650
atp3651
a(L71L
g882
(lp3652
(g91
F23.0
F420.0
tp3653
a(g8
F647.0
F653.0
tp3654
a(g210
F653.0
F659.0
tp3655
a(g135
F672.0
F679.0
tp3656
a(g190
F679.0
F686.0
tp3657
a(g10
F686.0
F1304.0
tp3658
atp3659
a(L40L
g2
(lp3660
(g167
I0
F6.0
tp3661
a(g4
F24.0
F153.0
tp3662
a(g53
F153.0
F159.0
tp3663
a(g55
F159.0
F165.0
tp3664
a(g63
F165.0
F171.0
tp3665
a(g65
F171.0
F333.0
tp3666
a(g218
F333.0
F339.0
tp3667
a(g220
F339.0
F449.0
tp3668
a(g67
F449.0
F588.0
tp3669
a(g240
F645.0
F647.0
tp3670
a(g79
F650.0
F750.0
tp3671
a(g212
F750.0
F845.0
tp3672
a(g69
F845.0
F1038.0
tp3673
a(g224
F1179.0
F1315.0
tp3674
a(g81
F1315.0
F1317.0
tp3675
atp3676
a(L9L
g13
(lp3677
(g15
I0
F11.0
tp3678
a(g17
F11.0
F157.0
tp3679
a(g127
F157.0
F168.0
tp3680
a(g173
F646.0
F873.0
tp3681
a(g21
F873.0
F1056.0
tp3682
a(g163
F1277.0
F1280.0
tp3683
atp3684
a(L46L
g882
(lp3685
(g51
I0
F23.0
tp3686
a(g25
F23.0
F569.0
tp3687
a(g93
F641.0
F1164.0
tp3688
atp3689
a(L14L
g13
(lp3690
(g194
I0
F12.0
tp3691
a(g230
F12.0
F23.0
tp3692
a(g39
F67.0
F219.0
tp3693
a(g41
F219.0
F555.0
tp3694
a(g250
F632.0
F635.0
tp3695
a(g254
F654.0
F864.0
tp3696
a(g113
F864.0
F1133.0
tp3697
atp3698
a(L79L
Vapac-sin#m1.xlarge
p3699
(lp3700
(g85
I0
F0.0
tp3701
a(g155
F11.0
F556.0
tp3702
a(g161
F641.0
F1173.0
tp3703
atp3704
a(L88L
g184
(lp3705
(g216
I0
F153.0
tp3706
a(g186
F153.0
F296.0
tp3707
a(g43
F647.0
F681.0
tp3708
a(g145
F681.0
F722.0
tp3709
atp3710
a(L83L
g882
(lp3711
(g232
I0
F23.0
tp3712
a(g234
F23.0
F45.0
tp3713
a(g139
F45.0
F67.0
tp3714
a(g171
F159.0
F525.0
tp3715
a(g19
F635.0
F641.0
tp3716
a(g159
F641.0
F647.0
tp3717
a(g131
F647.0
F654.0
tp3718
a(g45
F654.0
F659.0
tp3719
a(g133
F659.0
F666.0
tp3720
a(g188
F666.0
F672.0
tp3721
a(g181
F679.0
F1293.0
tp3722
atp3723
a(L21L
g13
(lp3724
(g37
I0
F11.0
tp3725
a(g149
F12.0
F309.0
tp3726
a(g87
F309.0
F453.0
tp3727
a(g99
F635.0
F638.0
tp3728
a(g157
F638.0
F642.0
tp3729
a(g143
F642.0
F645.0
tp3730
a(g47
F659.0
F1037.0
tp3731
a(g115
F1221.0
F1224.0
tp3732
atp3733
a(L54L
g13
(lp3734
(g107
F6.0
F324.0
tp3735
a(g29
F638.0
F897.0
tp3736
a(g252
F897.0
F1277.0
tp3737
atp3738
a(L41L
g882
(lp3739
(g125
I0
F22.0
tp3740
a(g73
F22.0
F603.0
tp3741
a(g175
F635.0
F641.0
tp3742
a(g77
F645.0
F1201.0
tp3743
atp3744
a(L24L
g13
(lp3745
(g246
I0
F11.0
tp3746
a(g208
F21.0
F232.0
tp3747
a(g57
F232.0
F645.0
tp3748
a(g200
F647.0
F650.0
tp3749
a(g59
F653.0
F967.0
tp3750
a(g202
F967.0
F1125.0
tp3751
atp3752
a(L55L
g882
(lp3753
(g97
I0
F22.0
tp3754
a(g109
F22.0
F438.0
tp3755
a(g141
F635.0
F641.0
tp3756
a(g101
F641.0
F1228.0
tp3757
a(g120
F1317.0
F1317.0
tp3758
atp3759
a(L62L
g882
(lp3760
(g206
I0
F21.0
tp3761
a(g6
F171.0
F592.0
tp3762
a(g177
F647.0
F654.0
tp3763
a(g179
F654.0
F660.0
tp3764
a(g33
F666.0
F1221.0
tp3765
atp3766
a(L53L
g882
(lp3767
(g105
I0
F24.0
tp3768
a(g228
F24.0
F47.0
tp3769
a(g169
F47.0
F471.0
tp3770
a(g75
F635.0
F641.0
tp3771
a(g151
F641.0
F1257.0
tp3772
atp3773
atp3774
a(F1351.0
F8.43
(lp3775
(L3L
g123
(lp3776
(g129
F635.0
F646.0
tp3777
atp3778
a(L96L
g882
(lp3779
(g236
I0
F23.0
tp3780
a(g238
F23.0
F703.0
tp3781
a(g31
F705.0
F711.0
tp3782
a(g242
F711.0
F1328.0
tp3783
atp3784
a(L99L
g13
(lp3785
(g248
F23.0
F370.0
tp3786
a(g196
F370.0
F632.0
tp3787
a(g27
F635.0
F638.0
tp3788
a(g198
F642.0
F1003.0
tp3789
a(g111
F1003.0
F1176.0
tp3790
a(g222
F1176.0
F1179.0
tp3791
atp3792
a(L71L
g882
(lp3793
(g91
F23.0
F420.0
tp3794
a(g8
F705.0
F711.0
tp3795
a(g210
F711.0
F717.0
tp3796
a(g135
F717.0
F724.0
tp3797
a(g190
F724.0
F731.0
tp3798
a(g10
F731.0
F1349.0
tp3799
atp3800
a(L40L
g2
(lp3801
(g167
I0
F6.0
tp3802
a(g4
F24.0
F153.0
tp3803
a(g53
F153.0
F159.0
tp3804
a(g55
F159.0
F165.0
tp3805
a(g63
F165.0
F171.0
tp3806
a(g65
F171.0
F333.0
tp3807
a(g218
F333.0
F339.0
tp3808
a(g220
F339.0
F449.0
tp3809
a(g67
F449.0
F588.0
tp3810
a(g240
F703.0
F705.0
tp3811
a(g79
F708.0
F808.0
tp3812
a(g212
F808.0
F903.0
tp3813
a(g69
F903.0
F1096.0
tp3814
a(g224
F1179.0
F1315.0
tp3815
a(g81
F1349.0
F1351.0
tp3816
atp3817
a(L9L
g13
(lp3818
(g15
I0
F11.0
tp3819
a(g17
F11.0
F157.0
tp3820
a(g127
F157.0
F168.0
tp3821
a(g173
F646.0
F873.0
tp3822
a(g21
F873.0
F1056.0
tp3823
a(g163
F1337.0
F1340.0
tp3824
atp3825
a(L46L
g882
(lp3826
(g51
I0
F23.0
tp3827
a(g25
F23.0
F569.0
tp3828
a(g93
F641.0
F1164.0
tp3829
atp3830
a(L14L
g13
(lp3831
(g194
I0
F12.0
tp3832
a(g230
F12.0
F23.0
tp3833
a(g39
F67.0
F219.0
tp3834
a(g41
F219.0
F555.0
tp3835
a(g250
F632.0
F635.0
tp3836
a(g254
F712.0
F922.0
tp3837
a(g113
F922.0
F1191.0
tp3838
atp3839
a(L79L
g882
(lp3840
(g85
I0
F0.0
tp3841
a(g155
F11.0
F682.0
tp3842
a(g161
F682.0
F1337.0
tp3843
atp3844
a(L88L
g184
(lp3845
(g216
I0
F153.0
tp3846
a(g186
F153.0
F296.0
tp3847
a(g43
F705.0
F739.0
tp3848
a(g145
F739.0
F780.0
tp3849
atp3850
a(L50L
g13
(lp3851
(g120
F1351.0
F1351.0
tp3852
atp3853
a(L83L
g882
(lp3854
(g232
I0
F23.0
tp3855
a(g234
F23.0
F45.0
tp3856
a(g139
F45.0
F67.0
tp3857
a(g171
F159.0
F525.0
tp3858
a(g19
F635.0
F641.0
tp3859
a(g159
F641.0
F647.0
tp3860
a(g131
F647.0
F654.0
tp3861
a(g45
F705.0
F710.0
tp3862
a(g188
F710.0
F716.0
tp3863
a(g181
F724.0
F1338.0
tp3864
atp3865
a(L39L
g882
(lp3866
(g133
F705.0
F712.0
tp3867
atp3868
a(L21L
g13
(lp3869
(g37
I0
F11.0
tp3870
a(g149
F12.0
F309.0
tp3871
a(g87
F309.0
F453.0
tp3872
a(g99
F635.0
F638.0
tp3873
a(g157
F638.0
F642.0
tp3874
a(g143
F642.0
F645.0
tp3875
a(g47
F710.0
F1088.0
tp3876
a(g115
F1328.0
F1331.0
tp3877
atp3878
a(L54L
g13
(lp3879
(g107
F6.0
F324.0
tp3880
a(g29
F638.0
F897.0
tp3881
a(g252
F897.0
F1277.0
tp3882
atp3883
a(L41L
g882
(lp3884
(g125
I0
F22.0
tp3885
a(g73
F22.0
F603.0
tp3886
a(g175
F635.0
F641.0
tp3887
a(g77
F645.0
F1201.0
tp3888
atp3889
a(L24L
g13
(lp3890
(g246
I0
F11.0
tp3891
a(g208
F21.0
F232.0
tp3892
a(g57
F232.0
F645.0
tp3893
a(g200
F705.0
F708.0
tp3894
a(g59
F711.0
F1025.0
tp3895
a(g202
F1025.0
F1183.0
tp3896
atp3897
a(L55L
g882
(lp3898
(g97
I0
F22.0
tp3899
a(g109
F22.0
F438.0
tp3900
a(g141
F635.0
F641.0
tp3901
a(g101
F641.0
F1228.0
tp3902
atp3903
a(L62L
g882
(lp3904
(g206
I0
F21.0
tp3905
a(g6
F171.0
F592.0
tp3906
a(g177
F705.0
F712.0
tp3907
a(g179
F712.0
F718.0
tp3908
a(g33
F718.0
F1273.0
tp3909
atp3910
a(L53L
g882
(lp3911
(g105
I0
F24.0
tp3912
a(g228
F24.0
F47.0
tp3913
a(g169
F47.0
F471.0
tp3914
a(g75
F635.0
F641.0
tp3915
a(g151
F641.0
F1257.0
tp3916
atp3917
atp3918
a(F1404.0
F7.64
(lp3919
(L96L
g882
(lp3920
(g186
I0
F22.0
tp3921
a(g236
F22.0
F45.0
tp3922
a(g238
F45.0
F725.0
tp3923
a(g31
F727.0
F733.0
tp3924
a(g242
F733.0
F1350.0
tp3925
atp3926
a(L99L
g13
(lp3927
(g248
F23.0
F370.0
tp3928
a(g196
F370.0
F632.0
tp3929
a(g198
F648.0
F1009.0
tp3930
a(g111
F1009.0
F1182.0
tp3931
a(g222
F1182.0
F1185.0
tp3932
atp3933
a(L71L
g882
(lp3934
(g91
F23.0
F420.0
tp3935
a(g8
F727.0
F733.0
tp3936
a(g210
F733.0
F739.0
tp3937
a(g135
F745.0
F752.0
tp3938
a(g190
F752.0
F759.0
tp3939
a(g10
F759.0
F1377.0
tp3940
atp3941
a(L40L
g2
(lp3942
(g167
I0
F6.0
tp3943
a(g4
F24.0
F153.0
tp3944
a(g53
F153.0
F159.0
tp3945
a(g55
F159.0
F165.0
tp3946
a(g63
F165.0
F171.0
tp3947
a(g65
F171.0
F333.0
tp3948
a(g218
F333.0
F339.0
tp3949
a(g220
F339.0
F449.0
tp3950
a(g67
F449.0
F588.0
tp3951
a(g240
F725.0
F727.0
tp3952
a(g79
F730.0
F830.0
tp3953
a(g212
F830.0
F925.0
tp3954
a(g69
F925.0
F1118.0
tp3955
a(g224
F1185.0
F1321.0
tp3956
a(g81
F1377.0
F1379.0
tp3957
atp3958
a(L9L
g13
(lp3959
(g15
I0
F11.0
tp3960
a(g17
F11.0
F157.0
tp3961
a(g87
F157.0
F301.0
tp3962
a(g250
F632.0
F635.0
tp3963
a(g173
F640.0
F867.0
tp3964
a(g21
F867.0
F1050.0
tp3965
a(g163
F1401.0
F1404.0
tp3966
atp3967
a(L46L
g882
(lp3968
(g51
I0
F23.0
tp3969
a(g125
F23.0
F45.0
tp3970
a(g25
F45.0
F591.0
tp3971
a(g93
F654.0
F1177.0
tp3972
atp3973
a(L14L
g13
(lp3974
(g194
I0
F12.0
tp3975
a(g39
F67.0
F219.0
tp3976
a(g41
F219.0
F555.0
tp3977
a(g29
F641.0
F900.0
tp3978
a(g254
F900.0
F1110.0
tp3979
a(g113
F1110.0
F1379.0
tp3980
atp3981
a(L79L
g882
(lp3982
(g85
I0
F0.0
tp3983
a(g155
F11.0
F682.0
tp3984
a(g161
F682.0
F1337.0
tp3985
atp3986
a(L88L
g184
(lp3987
(g216
I0
F153.0
tp3988
a(g43
F727.0
F761.0
tp3989
a(g145
F761.0
F802.0
tp3990
atp3991
a(L50L
g13
(lp3992
(g120
F1404.0
F1404.0
tp3993
atp3994
a(L83L
g882
(lp3995
(g232
I0
F23.0
tp3996
a(g234
F23.0
F45.0
tp3997
a(g139
F45.0
F67.0
tp3998
a(g171
F159.0
F525.0
tp3999
a(g19
F635.0
F641.0
tp4000
a(g159
F641.0
F647.0
tp4001
a(g131
F647.0
F654.0
tp4002
a(g45
F727.0
F732.0
tp4003
a(g133
F732.0
F739.0
tp4004
a(g188
F739.0
F745.0
tp4005
a(g181
F752.0
F1366.0
tp4006
atp4007
a(L21L
g13
(lp4008
(g37
I0
F11.0
tp4009
a(g149
F12.0
F309.0
tp4010
a(g99
F635.0
F638.0
tp4011
a(g143
F638.0
F641.0
tp4012
a(g47
F732.0
F1110.0
tp4013
a(g115
F1379.0
F1382.0
tp4014
atp4015
a(L54L
g882
(lp4016
(g107
F6.0
F642.0
tp4017
a(g252
F642.0
F1401.0
tp4018
atp4019
a(L41L
g882
(lp4020
(g73
F45.0
F626.0
tp4021
a(g129
F635.0
F640.0
tp4022
a(g175
F640.0
F646.0
tp4023
a(g77
F646.0
F1202.0
tp4024
atp4025
a(L24L
g13
(lp4026
(g230
I0
F11.0
tp4027
a(g246
F11.0
F22.0
tp4028
a(g97
F22.0
F33.0
tp4029
a(g127
F33.0
F44.0
tp4030
a(g208
F44.0
F255.0
tp4031
a(g57
F255.0
F668.0
tp4032
a(g200
F727.0
F730.0
tp4033
a(g59
F733.0
F1047.0
tp4034
a(g202
F1047.0
F1205.0
tp4035
atp4036
a(L55L
g882
(lp4037
(g109
F33.0
F449.0
tp4038
a(g27
F635.0
F641.0
tp4039
a(g157
F641.0
F648.0
tp4040
a(g141
F648.0
F654.0
tp4041
a(g101
F654.0
F1241.0
tp4042
atp4043
a(L62L
g882
(lp4044
(g206
I0
F21.0
tp4045
a(g6
F171.0
F592.0
tp4046
a(g177
F727.0
F734.0
tp4047
a(g179
F734.0
F740.0
tp4048
a(g33
F740.0
F1295.0
tp4049
atp4050
a(L53L
g882
(lp4051
(g105
I0
F24.0
tp4052
a(g228
F24.0
F47.0
tp4053
a(g169
F47.0
F471.0
tp4054
a(g75
F635.0
F641.0
tp4055
a(g151
F641.0
F1257.0
tp4056
atp4057
atp4058
a(F1471.0
F7.32
(lp4059
(L96L
g13
(lp4060
(g236
I0
F11.0
tp4061
a(g238
F11.0
F351.0
tp4062
a(g242
F689.0
F997.0
tp4063
atp4064
a(L99L
g13
(lp4065
(g248
F23.0
F370.0
tp4066
a(g196
F370.0
F632.0
tp4067
a(g198
F652.0
F1013.0
tp4068
a(g111
F1013.0
F1186.0
tp4069
a(g222
F1186.0
F1189.0
tp4070
atp4071
a(L71L
g882
(lp4072
(g91
F23.0
F420.0
tp4073
a(g8
F670.0
F676.0
tp4074
a(g210
F676.0
F682.0
tp4075
a(g135
F683.0
F690.0
tp4076
a(g190
F690.0
F697.0
tp4077
a(g10
F697.0
F1315.0
tp4078
atp4079
a(L8L
g123
(lp4080
(g85
I0
F0.0
tp4081
atp4082
a(L41L
g882
(lp4083
(g167
I0
F23.0
tp4084
a(g73
F45.0
F626.0
tp4085
a(g129
F639.0
F644.0
tp4086
a(g175
F644.0
F650.0
tp4087
a(g77
F652.0
F1208.0
tp4088
atp4089
a(L46L
g882
(lp4090
(g51
I0
F23.0
tp4091
a(g125
F23.0
F45.0
tp4092
a(g25
F45.0
F591.0
tp4093
a(g93
F658.0
F1181.0
tp4094
atp4095
a(L14L
g13
(lp4096
(g194
I0
F12.0
tp4097
a(g39
F67.0
F219.0
tp4098
a(g41
F219.0
F555.0
tp4099
a(g29
F645.0
F904.0
tp4100
a(g254
F904.0
F1114.0
tp4101
a(g113
F1114.0
F1383.0
tp4102
atp4103
a(L79L
g882
(lp4104
(g155
F6.0
F677.0
tp4105
a(g161
F677.0
F1332.0
tp4106
atp4107
a(L40L
g2
(lp4108
(g37
I0
F6.0
tp4109
a(g4
F24.0
F153.0
tp4110
a(g53
F153.0
F159.0
tp4111
a(g55
F159.0
F165.0
tp4112
a(g63
F165.0
F171.0
tp4113
a(g65
F171.0
F333.0
tp4114
a(g218
F333.0
F339.0
tp4115
a(g220
F339.0
F449.0
tp4116
a(g67
F449.0
F588.0
tp4117
a(g240
F668.0
F670.0
tp4118
a(g79
F673.0
F773.0
tp4119
a(g212
F773.0
F868.0
tp4120
a(g69
F868.0
F1061.0
tp4121
a(g224
F1189.0
F1325.0
tp4122
a(g81
F1325.0
F1327.0
tp4123
atp4124
a(L83L
g882
(lp4125
(g232
I0
F23.0
tp4126
a(g234
F23.0
F45.0
tp4127
a(g139
F45.0
F67.0
tp4128
a(g171
F159.0
F525.0
tp4129
a(g19
F639.0
F645.0
tp4130
a(g159
F645.0
F651.0
tp4131
a(g131
F651.0
F658.0
tp4132
a(g133
F670.0
F677.0
tp4133
a(g188
F677.0
F683.0
tp4134
a(g181
F690.0
F1304.0
tp4135
atp4136
a(L88L
g184
(lp4137
(g216
I0
F153.0
tp4138
a(g186
F153.0
F296.0
tp4139
a(g43
F670.0
F704.0
tp4140
a(g145
F704.0
F745.0
tp4141
atp4142
a(L53L
g882
(lp4143
(g105
I0
F24.0
tp4144
a(g169
F24.0
F448.0
tp4145
a(g75
F639.0
F645.0
tp4146
a(g151
F645.0
F1261.0
tp4147
atp4148
a(L54L
g882
(lp4149
(g107
F23.0
F659.0
tp4150
a(g252
F659.0
F1418.0
tp4151
atp4152
a(L9L
g882
(lp4153
(g15
I0
F22.0
tp4154
a(g17
F22.0
F315.0
tp4155
a(g87
F315.0
F604.0
tp4156
a(g250
F632.0
F639.0
tp4157
a(g173
F644.0
F1099.0
tp4158
a(g21
F1099.0
F1465.0
tp4159
a(g163
F1465.0
F1471.0
tp4160
atp4161
a(L24L
g13
(lp4162
(g230
I0
F11.0
tp4163
a(g246
F11.0
F22.0
tp4164
a(g97
F22.0
F33.0
tp4165
a(g127
F33.0
F44.0
tp4166
a(g208
F44.0
F255.0
tp4167
a(g57
F255.0
F668.0
tp4168
a(g200
F670.0
F673.0
tp4169
a(g59
F676.0
F990.0
tp4170
a(g202
F990.0
F1148.0
tp4171
atp4172
a(L55L
g882
(lp4173
(g109
F33.0
F449.0
tp4174
a(g27
F639.0
F645.0
tp4175
a(g157
F645.0
F652.0
tp4176
a(g141
F652.0
F658.0
tp4177
a(g101
F658.0
F1245.0
tp4178
a(g120
F1471.0
F1471.0
tp4179
atp4180
a(L62L
g882
(lp4181
(g206
I0
F21.0
tp4182
a(g6
F171.0
F592.0
tp4183
a(g177
F670.0
F677.0
tp4184
a(g179
F677.0
F683.0
tp4185
a(g31
F683.0
F689.0
tp4186
a(g45
F689.0
F694.0
tp4187
a(g33
F694.0
F1249.0
tp4188
atp4189
a(L21L
g882
(lp4190
(g228
I0
F23.0
tp4191
a(g149
F23.0
F617.0
tp4192
a(g99
F639.0
F646.0
tp4193
a(g143
F646.0
F652.0
tp4194
a(g47
F694.0
F1450.0
tp4195
a(g115
F1450.0
F1457.0
tp4196
atp4197
atp4198
a(F1473.0
F7.01
(lp4199
(L96L
g882
(lp4200
(g236
I0
F23.0
tp4201
a(g238
F23.0
F703.0
tp4202
a(g31
F705.0
F711.0
tp4203
a(g242
F711.0
F1328.0
tp4204
atp4205
a(L99L
g13
(lp4206
(g248
F23.0
F370.0
tp4207
a(g196
F370.0
F632.0
tp4208
a(g198
F652.0
F1013.0
tp4209
a(g111
F1013.0
F1186.0
tp4210
a(g222
F1186.0
F1189.0
tp4211
atp4212
a(L71L
g882
(lp4213
(g91
F23.0
F420.0
tp4214
a(g8
F705.0
F711.0
tp4215
a(g210
F711.0
F717.0
tp4216
a(g135
F723.0
F730.0
tp4217
a(g190
F730.0
F737.0
tp4218
a(g10
F737.0
F1355.0
tp4219
atp4220
a(L8L
g123
(lp4221
(g85
I0
F0.0
tp4222
atp4223
a(L41L
g882
(lp4224
(g167
I0
F23.0
tp4225
a(g73
F45.0
F626.0
tp4226
a(g129
F639.0
F644.0
tp4227
a(g175
F644.0
F650.0
tp4228
a(g77
F652.0
F1208.0
tp4229
atp4230
a(L46L
g882
(lp4231
(g51
I0
F23.0
tp4232
a(g125
F23.0
F45.0
tp4233
a(g25
F45.0
F591.0
tp4234
a(g93
F658.0
F1181.0
tp4235
atp4236
a(L14L
g13
(lp4237
(g194
I0
F12.0
tp4238
a(g39
F67.0
F219.0
tp4239
a(g41
F219.0
F555.0
tp4240
a(g29
F645.0
F904.0
tp4241
a(g254
F904.0
F1114.0
tp4242
a(g113
F1114.0
F1383.0
tp4243
atp4244
a(L79L
g882
(lp4245
(g155
F6.0
F677.0
tp4246
a(g161
F677.0
F1332.0
tp4247
atp4248
a(L40L
g2
(lp4249
(g37
I0
F6.0
tp4250
a(g4
F24.0
F153.0
tp4251
a(g53
F153.0
F159.0
tp4252
a(g55
F159.0
F165.0
tp4253
a(g63
F165.0
F171.0
tp4254
a(g65
F171.0
F333.0
tp4255
a(g218
F333.0
F339.0
tp4256
a(g220
F339.0
F449.0
tp4257
a(g67
F449.0
F588.0
tp4258
a(g240
F703.0
F705.0
tp4259
a(g79
F708.0
F808.0
tp4260
a(g212
F808.0
F903.0
tp4261
a(g69
F903.0
F1096.0
tp4262
a(g224
F1189.0
F1325.0
tp4263
a(g81
F1355.0
F1357.0
tp4264
atp4265
a(L50L
g2
(lp4266
(g120
F1473.0
F1473.0
tp4267
atp4268
a(L83L
g882
(lp4269
(g232
I0
F23.0
tp4270
a(g234
F23.0
F45.0
tp4271
a(g139
F45.0
F67.0
tp4272
a(g171
F159.0
F525.0
tp4273
a(g19
F639.0
F645.0
tp4274
a(g159
F645.0
F651.0
tp4275
a(g131
F651.0
F658.0
tp4276
a(g45
F705.0
F710.0
tp4277
a(g133
F710.0
F717.0
tp4278
a(g188
F717.0
F723.0
tp4279
a(g181
F730.0
F1344.0
tp4280
atp4281
a(L88L
g184
(lp4282
(g216
I0
F153.0
tp4283
a(g186
F153.0
F296.0
tp4284
a(g43
F705.0
F739.0
tp4285
a(g145
F739.0
F780.0
tp4286
atp4287
a(L53L
g882
(lp4288
(g105
I0
F24.0
tp4289
a(g169
F24.0
F448.0
tp4290
a(g75
F639.0
F645.0
tp4291
a(g151
F645.0
F1261.0
tp4292
atp4293
a(L54L
g882
(lp4294
(g107
F23.0
F659.0
tp4295
a(g252
F659.0
F1418.0
tp4296
atp4297
a(L9L
g882
(lp4298
(g15
I0
F22.0
tp4299
a(g17
F22.0
F315.0
tp4300
a(g87
F315.0
F604.0
tp4301
a(g250
F632.0
F639.0
tp4302
a(g173
F644.0
F1099.0
tp4303
a(g21
F1099.0
F1465.0
tp4304
a(g163
F1465.0
F1471.0
tp4305
atp4306
a(L24L
g13
(lp4307
(g230
I0
F11.0
tp4308
a(g246
F11.0
F22.0
tp4309
a(g97
F22.0
F33.0
tp4310
a(g127
F33.0
F44.0
tp4311
a(g208
F44.0
F255.0
tp4312
a(g57
F255.0
F668.0
tp4313
a(g200
F705.0
F708.0
tp4314
a(g59
F711.0
F1025.0
tp4315
a(g202
F1025.0
F1183.0
tp4316
atp4317
a(L55L
g882
(lp4318
(g109
F33.0
F449.0
tp4319
a(g27
F639.0
F645.0
tp4320
a(g157
F645.0
F652.0
tp4321
a(g141
F652.0
F658.0
tp4322
a(g101
F658.0
F1245.0
tp4323
atp4324
a(L62L
g882
(lp4325
(g206
I0
F21.0
tp4326
a(g6
F171.0
F592.0
tp4327
a(g177
F705.0
F712.0
tp4328
a(g179
F712.0
F718.0
tp4329
a(g33
F718.0
F1273.0
tp4330
atp4331
a(L21L
g882
(lp4332
(g228
I0
F23.0
tp4333
a(g149
F23.0
F617.0
tp4334
a(g99
F639.0
F646.0
tp4335
a(g143
F646.0
F652.0
tp4336
a(g47
F710.0
F1466.0
tp4337
a(g115
F1466.0
F1473.0
tp4338
atp4339
atp4340
a(F1612.0
F6.94
(lp4341
(L9L
g882
(lp4342
(g194
I0
F23.0
tp4343
a(g125
F23.0
F45.0
tp4344
a(g139
F45.0
F67.0
tp4345
a(g97
F67.0
F89.0
tp4346
a(g109
F89.0
F505.0
tp4347
a(g29
F632.0
F1151.0
tp4348
a(g173
F1151.0
F1606.0
tp4349
atp4350
a(L14L
g13
(lp4351
(g105
I0
F12.0
tp4352
a(g17
F22.0
F168.0
tp4353
a(g41
F168.0
F504.0
tp4354
a(g27
F629.0
F632.0
tp4355
a(g208
F632.0
F843.0
tp4356
a(g79
F884.0
F1084.0
tp4357
a(g69
F1084.0
F1471.0
tp4358
atp4359
a(L21L
g882
(lp4360
(g228
I0
F23.0
tp4361
a(g149
F23.0
F617.0
tp4362
a(g47
F851.0
F1607.0
tp4363
atp4364
a(L24L
g3699
(lp4365
(g55
I0
F19.0
tp4366
a(g57
F19.0
F689.0
tp4367
a(g59
F852.0
F1361.0
tp4368
atp4369
a(L40L
g13
(lp4370
(g232
I0
F11.0
tp4371
a(g65
F23.0
F347.0
tp4372
a(g220
F347.0
F566.0
tp4373
a(g67
F566.0
F843.0
tp4374
a(g240
F843.0
F846.0
tp4375
a(g179
F846.0
F849.0
tp4376
a(g113
F849.0
F1118.0
tp4377
a(g212
F1118.0
F1307.0
tp4378
a(g224
F1307.0
F1579.0
tp4379
a(g81
F1579.0
F1582.0
tp4380
atp4381
a(L41L
g882
(lp4382
(g167
I0
F23.0
tp4383
a(g73
F45.0
F626.0
tp4384
a(g157
F629.0
F636.0
tp4385
a(g77
F636.0
F1192.0
tp4386
atp4387
a(L46L
g882
(lp4388
(g230
I0
F22.0
tp4389
a(g25
F22.0
F568.0
tp4390
a(g93
F665.0
F1188.0
tp4391
a(g202
F1188.0
F1504.0
tp4392
atp4393
a(L50L
g118
(lp4394
(g120
F1612.0
F1612.0
tp4395
atp4396
a(L51L
g882
(lp4397
(g39
F67.0
F371.0
tp4398
a(g101
F635.0
F1222.0
tp4399
a(g21
F1222.0
F1588.0
tp4400
atp4401
a(L53L
g882
(lp4402
(g15
I0
F22.0
tp4403
a(g169
F23.0
F447.0
tp4404
a(g99
F629.0
F636.0
tp4405
a(g151
F665.0
F1281.0
tp4406
a(g163
F1606.0
F1612.0
tp4407
atp4408
a(L54L
g882
(lp4409
(g107
F23.0
F659.0
tp4410
a(g75
F659.0
F665.0
tp4411
a(g111
F709.0
F1054.0
tp4412
a(g210
F1054.0
F1060.0
tp4413
a(g43
F1060.0
F1065.0
tp4414
atp4415
a(L62L
g882
(lp4416
(g87
F22.0
F311.0
tp4417
a(g63
F311.0
F333.0
tp4418
a(g6
F333.0
F754.0
tp4419
a(g33
F858.0
F1413.0
tp4420
atp4421
a(L71L
g882
(lp4422
(g91
F147.0
F544.0
tp4423
a(g129
F629.0
F634.0
tp4424
a(g8
F846.0
F852.0
tp4425
a(g135
F852.0
F859.0
tp4426
a(g10
F859.0
F1477.0
tp4427
atp4428
a(L75L
g184
(lp4429
(g51
I0
F147.0
tp4430
atp4431
a(L79L
g882
(lp4432
(g85
I0
F0.0
tp4433
a(g155
F23.0
F694.0
tp4434
a(g159
F694.0
F700.0
tp4435
a(g161
F700.0
F1355.0
tp4436
atp4437
a(L83L
g882
(lp4438
(g37
I0
F23.0
tp4439
a(g234
F23.0
F45.0
tp4440
a(g171
F151.0
F517.0
tp4441
a(g19
F629.0
F635.0
tp4442
a(g175
F635.0
F641.0
tp4443
a(g45
F846.0
F851.0
tp4444
a(g133
F851.0
F858.0
tp4445
a(g181
F859.0
F1473.0
tp4446
atp4447
a(L84L
g184
(lp4448
(g53
I0
F151.0
tp4449
a(g141
F629.0
F665.0
tp4450
a(g131
F665.0
F709.0
tp4451
a(g188
F726.0
F763.0
tp4452
a(g190
F763.0
F807.0
tp4453
a(g145
F807.0
F848.0
tp4454
a(g222
F848.0
F890.0
tp4455
atp4456
a(L85L
g882
(lp4457
(g4
F12.0
F527.0
tp4458
a(g143
F629.0
F635.0
tp4459
atp4460
a(L88L
g184
(lp4461
(g127
I0
F144.0
tp4462
a(g218
F144.0
F293.0
tp4463
a(g186
F293.0
F436.0
tp4464
atp4465
a(L93L
g184
(lp4466
(g206
I0
F139.0
tp4467
a(g200
F846.0
F884.0
tp4468
a(g31
F884.0
F923.0
tp4469
atp4470
a(L96L
g882
(lp4471
(g216
I0
F23.0
tp4472
a(g236
F23.0
F46.0
tp4473
a(g238
F46.0
F726.0
tp4474
a(g177
F846.0
F853.0
tp4475
a(g242
F923.0
F1540.0
tp4476
atp4477
a(L99L
g13
(lp4478
(g246
I0
F11.0
tp4479
a(g248
F11.0
F358.0
tp4480
a(g196
F358.0
F620.0
tp4481
a(g250
F626.0
F629.0
tp4482
a(g252
F636.0
F1016.0
tp4483
a(g198
F1016.0
F1377.0
tp4484
a(g254
F1377.0
F1587.0
tp4485
a(g115
F1607.0
F1610.0
tp4486
atp4487
atp4488
a(F1617.0
F6.54
(lp4489
(L96L
g882
(lp4490
(g216
I0
F23.0
tp4491
a(g236
F23.0
F46.0
tp4492
a(g238
F46.0
F726.0
tp4493
a(g177
F851.0
F858.0
tp4494
a(g242
F928.0
F1545.0
tp4495
atp4496
a(L51L
g882
(lp4497
(g39
F67.0
F371.0
tp4498
a(g101
F640.0
F1227.0
tp4499
a(g21
F1227.0
F1593.0
tp4500
atp4501
a(L99L
g13
(lp4502
(g248
F22.0
F369.0
tp4503
a(g196
F369.0
F631.0
tp4504
a(g250
F631.0
F634.0
tp4505
a(g252
F641.0
F1021.0
tp4506
a(g198
F1021.0
F1382.0
tp4507
a(g254
F1382.0
F1592.0
tp4508
a(g115
F1612.0
F1615.0
tp4509
atp4510
a(L71L
g882
(lp4511
(g91
F11.0
F408.0
tp4512
a(g129
F634.0
F639.0
tp4513
a(g135
F763.0
F770.0
tp4514
a(g10
F807.0
F1425.0
tp4515
atp4516
a(L40L
g13
(lp4517
(g51
I0
F11.0
tp4518
a(g232
F11.0
F22.0
tp4519
a(g65
F23.0
F347.0
tp4520
a(g220
F347.0
F566.0
tp4521
a(g67
F566.0
F843.0
tp4522
a(g240
F848.0
F851.0
tp4523
a(g113
F857.0
F1126.0
tp4524
a(g212
F1126.0
F1315.0
tp4525
a(g224
F1315.0
F1587.0
tp4526
a(g81
F1587.0
F1590.0
tp4527
atp4528
a(L41L
g882
(lp4529
(g37
I0
F23.0
tp4530
a(g73
F45.0
F626.0
tp4531
a(g77
F640.0
F1196.0
tp4532
a(g79
F1196.0
F1596.0
tp4533
atp4534
a(L46L
g882
(lp4535
(g15
I0
F22.0
tp4536
a(g230
F22.0
F44.0
tp4537
a(g25
F44.0
F590.0
tp4538
a(g93
F670.0
F1193.0
tp4539
a(g202
F1193.0
F1509.0
tp4540
atp4541
a(L73L
g1454
(lp4542
(g120
F1617.0
F1617.0
tp4543
atp4544
a(L14L
g13
(lp4545
(g167
I0
F11.0
tp4546
a(g17
F22.0
F168.0
tp4547
a(g41
F168.0
F504.0
tp4548
a(g27
F634.0
F637.0
tp4549
a(g208
F637.0
F848.0
tp4550
a(g69
F1070.0
F1457.0
tp4551
atp4552
a(L79L
g882
(lp4553
(g85
I0
F0.0
tp4554
a(g155
F23.0
F694.0
tp4555
a(g159
F694.0
F700.0
tp4556
a(g161
F700.0
F1355.0
tp4557
atp4558
a(L24L
g882
(lp4559
(g55
I0
F23.0
tp4560
a(g57
F23.0
F848.0
tp4561
a(g8
F851.0
F857.0
tp4562
a(g59
F857.0
F1484.0
tp4563
atp4564
a(L83L
g882
(lp4565
(g246
I0
F23.0
tp4566
a(g234
F23.0
F45.0
tp4567
a(g171
F151.0
F517.0
tp4568
a(g19
F634.0
F640.0
tp4569
a(g175
F640.0
F646.0
tp4570
a(g45
F851.0
F856.0
tp4571
a(g133
F856.0
F863.0
tp4572
a(g181
F863.0
F1477.0
tp4573
atp4574
a(L84L
g184
(lp4575
(g53
I0
F151.0
tp4576
a(g141
F634.0
F670.0
tp4577
a(g131
F670.0
F714.0
tp4578
a(g188
F726.0
F763.0
tp4579
a(g190
F763.0
F807.0
tp4580
a(g145
F807.0
F848.0
tp4581
a(g222
F848.0
F890.0
tp4582
atp4583
a(L85L
g882
(lp4584
(g4
F24.0
F539.0
tp4585
a(g143
F634.0
F640.0
tp4586
a(g33
F863.0
F1418.0
tp4587
atp4588
a(L54L
g882
(lp4589
(g107
F11.0
F647.0
tp4590
a(g75
F647.0
F653.0
tp4591
a(g111
F714.0
F1059.0
tp4592
a(g210
F1059.0
F1065.0
tp4593
a(g43
F1065.0
F1070.0
tp4594
atp4595
a(L9L
g882
(lp4596
(g194
I0
F23.0
tp4597
a(g125
F23.0
F45.0
tp4598
a(g139
F45.0
F67.0
tp4599
a(g97
F67.0
F89.0
tp4600
a(g109
F89.0
F505.0
tp4601
a(g29
F637.0
F1156.0
tp4602
a(g173
F1156.0
F1611.0
tp4603
atp4604
a(L88L
g184
(lp4605
(g127
I0
F144.0
tp4606
a(g218
F144.0
F293.0
tp4607
a(g186
F293.0
F436.0
tp4608
atp4609
a(L21L
g882
(lp4610
(g228
I0
F23.0
tp4611
a(g149
F23.0
F617.0
tp4612
a(g47
F856.0
F1612.0
tp4613
atp4614
a(L93L
g184
(lp4615
(g206
I0
F139.0
tp4616
a(g200
F851.0
F889.0
tp4617
a(g31
F889.0
F928.0
tp4618
atp4619
a(L62L
g882
(lp4620
(g87
F44.0
F333.0
tp4621
a(g63
F333.0
F355.0
tp4622
a(g6
F355.0
F776.0
tp4623
a(g179
F851.0
F857.0
tp4624
atp4625
a(L53L
g882
(lp4626
(g105
I0
F24.0
tp4627
a(g169
F24.0
F448.0
tp4628
a(g99
F634.0
F641.0
tp4629
a(g157
F641.0
F648.0
tp4630
a(g151
F653.0
F1269.0
tp4631
a(g163
F1611.0
F1617.0
tp4632
atp4633
atp4634
a(F1803.0
F6.22
(lp4635
(L96L
g882
(lp4636
(g125
I0
F22.0
tp4637
a(g139
F22.0
F44.0
tp4638
a(g97
F44.0
F66.0
tp4639
a(g216
F66.0
F89.0
tp4640
a(g236
F89.0
F112.0
tp4641
a(g238
F112.0
F792.0
tp4642
a(g242
F1116.0
F1733.0
tp4643
atp4644
a(L51L
g882
(lp4645
(g53
I0
F23.0
tp4646
a(g101
F787.0
F1374.0
tp4647
a(g21
F1374.0
F1740.0
tp4648
atp4649
a(L99L
g13
(lp4650
(g248
F34.0
F381.0
tp4651
a(g196
F381.0
F643.0
tp4652
a(g252
F788.0
F1168.0
tp4653
a(g198
F1168.0
F1529.0
tp4654
a(g254
F1529.0
F1739.0
tp4655
a(g115
F1800.0
F1803.0
tp4656
atp4657
a(L36L
g2
(lp4658
(g120
F1803.0
F1803.0
tp4659
atp4660
a(L71L
g882
(lp4661
(g230
I0
F22.0
tp4662
a(g91
F23.0
F420.0
tp4663
a(g99
F781.0
F788.0
tp4664
a(g177
F1039.0
F1046.0
tp4665
a(g8
F1046.0
F1052.0
tp4666
a(g135
F1052.0
F1059.0
tp4667
a(g10
F1059.0
F1677.0
tp4668
atp4669
a(L40L
g13
(lp4670
(g4
F12.0
F269.0
tp4671
a(g220
F439.0
F658.0
tp4672
a(g67
F658.0
F935.0
tp4673
a(g240
F1036.0
F1039.0
tp4674
a(g113
F1045.0
F1314.0
tp4675
a(g212
F1314.0
F1503.0
tp4676
a(g224
F1503.0
F1775.0
tp4677
a(g81
F1775.0
F1778.0
tp4678
atp4679
a(L41L
g882
(lp4680
(g167
I0
F23.0
tp4681
a(g73
F23.0
F604.0
tp4682
a(g27
F781.0
F787.0
tp4683
a(g129
F787.0
F792.0
tp4684
a(g143
F792.0
F798.0
tp4685
a(g77
F798.0
F1354.0
tp4686
a(g79
F1354.0
F1754.0
tp4687
atp4688
a(L74L
g13
(lp4689
(g85
I0
F0.0
tp4690
atp4691
a(L46L
g882
(lp4692
(g25
F23.0
F569.0
tp4693
a(g93
F864.0
F1387.0
tp4694
a(g145
F1387.0
F1393.0
tp4695
a(g202
F1393.0
F1709.0
tp4696
atp4697
a(L14L
g13
(lp4698
(g105
I0
F12.0
tp4699
a(g246
F12.0
F23.0
tp4700
a(g232
F23.0
F34.0
tp4701
a(g41
F290.0
F626.0
tp4702
a(g175
F781.0
F784.0
tp4703
a(g208
F784.0
F995.0
tp4704
a(g69
F1050.0
F1437.0
tp4705
atp4706
a(L79L
g882
(lp4707
(g155
F23.0
F694.0
tp4708
a(g161
F784.0
F1439.0
tp4709
atp4710
a(L24L
g882
(lp4711
(g55
I0
F23.0
tp4712
a(g57
F23.0
F848.0
tp4713
a(g59
F1052.0
F1679.0
tp4714
atp4715
a(L83L
g882
(lp4716
(g51
I0
F23.0
tp4717
a(g171
F23.0
F389.0
tp4718
a(g65
F389.0
F1036.0
tp4719
a(g45
F1039.0
F1044.0
tp4720
a(g133
F1044.0
F1051.0
tp4721
a(g181
F1059.0
F1673.0
tp4722
atp4723
a(L84L
g184
(lp4724
(g157
F781.0
F828.0
tp4725
a(g141
F828.0
F864.0
tp4726
a(g131
F864.0
F908.0
tp4727
a(g188
F908.0
F945.0
tp4728
a(g190
F945.0
F989.0
tp4729
a(g222
F989.0
F1031.0
tp4730
atp4731
a(L21L
g882
(lp4732
(g37
I0
F23.0
tp4733
a(g228
F23.0
F46.0
tp4734
a(g194
F46.0
F69.0
tp4735
a(g149
F69.0
F663.0
tp4736
a(g250
F774.0
F781.0
tp4737
a(g19
F781.0
F787.0
tp4738
a(g159
F787.0
F793.0
tp4739
a(g47
F1044.0
F1800.0
tp4740
atp4741
a(L54L
g882
(lp4742
(g107
F23.0
F659.0
tp4743
a(g111
F908.0
F1253.0
tp4744
a(g210
F1253.0
F1259.0
tp4745
atp4746
a(L9L
g882
(lp4747
(g15
I0
F22.0
tp4748
a(g17
F22.0
F315.0
tp4749
a(g109
F315.0
F731.0
tp4750
a(g29
F787.0
F1306.0
tp4751
a(g173
F1306.0
F1761.0
tp4752
atp4753
a(L88L
g184
(lp4754
(g234
I0
F146.0
tp4755
a(g127
F146.0
F290.0
tp4756
a(g218
F290.0
F439.0
tp4757
a(g186
F439.0
F582.0
tp4758
atp4759
a(L93L
g184
(lp4760
(g206
I0
F139.0
tp4761
a(g200
F1039.0
F1077.0
tp4762
a(g31
F1077.0
F1116.0
tp4763
atp4764
a(L62L
g882
(lp4765
(g87
F22.0
F311.0
tp4766
a(g63
F311.0
F333.0
tp4767
a(g6
F333.0
F754.0
tp4768
a(g179
F1039.0
F1045.0
tp4769
a(g43
F1045.0
F1050.0
tp4770
a(g33
F1051.0
F1606.0
tp4771
atp4772
a(L53L
g882
(lp4773
(g169
F46.0
F470.0
tp4774
a(g39
F470.0
F774.0
tp4775
a(g75
F781.0
F787.0
tp4776
a(g151
F787.0
F1403.0
tp4777
a(g163
F1761.0
F1767.0
tp4778
atp4779
atp4780
a(F1924.0
F5.91
(lp4781
(L9L
g882
(lp4782
(g17
F11.0
F304.0
tp4783
a(g29
F652.0
F1171.0
tp4784
a(g21
F1171.0
F1537.0
tp4785
a(g212
F1537.0
F1915.0
tp4786
atp4787
a(L14L
g882
(lp4788
(g41
F45.0
F718.0
tp4789
a(g129
F718.0
F723.0
tp4790
a(g131
F723.0
F730.0
tp4791
a(g208
F730.0
F1153.0
tp4792
a(g113
F1166.0
F1703.0
tp4793
atp4794
a(L21L
g882
(lp4795
(g149
F23.0
F617.0
tp4796
a(g250
F642.0
F649.0
tp4797
a(g99
F649.0
F656.0
tp4798
a(g206
F656.0
F677.0
tp4799
a(g43
F1160.0
F1165.0
tp4800
a(g47
F1165.0
F1921.0
tp4801
atp4802
a(L37L
g123
(lp4803
(g85
I0
F0.0
tp4804
atp4805
a(L40L
g13
(lp4806
(g4
F24.0
F281.0
tp4807
a(g139
F281.0
F292.0
tp4808
a(g55
F292.0
F304.0
tp4809
a(g65
F304.0
F628.0
tp4810
a(g220
F628.0
F847.0
tp4811
a(g67
F847.0
F1124.0
tp4812
a(g69
F1165.0
F1552.0
tp4813
a(g224
F1552.0
F1824.0
tp4814
a(g81
F1847.0
F1850.0
tp4815
atp4816
a(L41L
g882
(lp4817
(g167
I0
F23.0
tp4818
a(g37
F23.0
F46.0
tp4819
a(g73
F46.0
F627.0
tp4820
a(g141
F649.0
F655.0
tp4821
a(g77
F661.0
F1217.0
tp4822
a(g79
F1217.0
F1617.0
tp4823
atp4824
a(L44L
g882
(lp4825
(g171
F23.0
F389.0
tp4826
atp4827
a(L46L
g882
(lp4828
(g105
I0
F24.0
tp4829
a(g125
F24.0
F46.0
tp4830
a(g25
F46.0
F592.0
tp4831
a(g109
F592.0
F1008.0
tp4832
a(g93
F1008.0
F1531.0
tp4833
a(g202
F1531.0
F1847.0
tp4834
atp4835
a(L51L
g882
(lp4836
(g53
I0
F23.0
tp4837
a(g101
F691.0
F1278.0
tp4838
atp4839
a(L53L
g123
(lp4840
(g234
I0
F49.0
tp4841
a(g97
F49.0
F97.0
tp4842
a(g157
F649.0
F665.0
tp4843
a(g145
F1166.0
F1180.0
tp4844
atp4845
a(L54L
g882
(lp4846
(g107
F23.0
F659.0
tp4847
a(g151
F659.0
F1275.0
tp4848
a(g111
F1275.0
F1620.0
tp4849
a(g163
F1708.0
F1714.0
tp4850
atp4851
a(L62L
g882
(lp4852
(g228
I0
F23.0
tp4853
a(g169
F23.0
F447.0
tp4854
a(g175
F649.0
F655.0
tp4855
a(g143
F655.0
F661.0
tp4856
a(g6
F661.0
F1082.0
tp4857
a(g179
F1160.0
F1166.0
tp4858
a(g31
F1166.0
F1172.0
tp4859
a(g33
F1172.0
F1727.0
tp4860
atp4861
a(L71L
g882
(lp4862
(g194
I0
F23.0
tp4863
a(g87
F23.0
F312.0
tp4864
a(g39
F312.0
F616.0
tp4865
a(g75
F649.0
F655.0
tp4866
a(g186
F655.0
F677.0
tp4867
a(g135
F1166.0
F1173.0
tp4868
a(g10
F1210.0
F1828.0
tp4869
atp4870
a(L73L
g184
(lp4871
(g19
F649.0
F691.0
tp4872
a(g159
F691.0
F731.0
tp4873
a(g177
F1160.0
F1205.0
tp4874
atp4875
a(L74L
g123
(lp4876
(g173
F723.0
F1708.0
tp4877
atp4878
a(L79L
g882
(lp4879
(g155
F46.0
F717.0
tp4880
a(g161
F717.0
F1372.0
tp4881
atp4882
a(L83L
g882
(lp4883
(g232
I0
F23.0
tp4884
a(g127
F23.0
F45.0
tp4885
a(g57
F304.0
F1129.0
tp4886
a(g240
F1153.0
F1160.0
tp4887
a(g45
F1160.0
F1165.0
tp4888
a(g133
F1165.0
F1172.0
tp4889
a(g181
F1173.0
F1787.0
tp4890
atp4891
a(L84L
g184
(lp4892
(g188
F1129.0
F1166.0
tp4893
a(g190
F1166.0
F1210.0
tp4894
a(g222
F1210.0
F1252.0
tp4895
atp4896
a(L87L
g2
(lp4897
(g120
F1924.0
F1924.0
tp4898
atp4899
a(L88L
g184
(lp4900
(g216
I0
F153.0
tp4901
a(g218
F153.0
F302.0
tp4902
a(g236
F302.0
F449.0
tp4903
a(g8
F1160.0
F1197.0
tp4904
a(g210
F1197.0
F1238.0
tp4905
atp4906
a(L96L
g882
(lp4907
(g51
I0
F23.0
tp4908
a(g91
F23.0
F420.0
tp4909
a(g63
F420.0
F442.0
tp4910
a(g238
F449.0
F1129.0
tp4911
a(g200
F1160.0
F1166.0
tp4912
a(g242
F1172.0
F1789.0
tp4913
atp4914
a(L99L
g13
(lp4915
(g15
I0
F11.0
tp4916
a(g230
F11.0
F22.0
tp4917
a(g246
F22.0
F33.0
tp4918
a(g248
F33.0
F380.0
tp4919
a(g196
F380.0
F642.0
tp4920
a(g27
F649.0
F652.0
tp4921
a(g252
F656.0
F1036.0
tp4922
a(g198
F1036.0
F1397.0
tp4923
a(g254
F1397.0
F1607.0
tp4924
a(g59
F1607.0
F1921.0
tp4925
a(g115
F1921.0
F1924.0
tp4926
atp4927
atp4928
a(F1952.0
F5.44
(lp4929
(L96L
g882
(lp4930
(g91
F46.0
F443.0
tp4931
a(g63
F443.0
F465.0
tp4932
a(g238
F465.0
F1145.0
tp4933
a(g200
F1155.0
F1161.0
tp4934
a(g242
F1161.0
F1778.0
tp4935
atp4936
a(L51L
g882
(lp4937
(g139
I0
F22.0
tp4938
a(g53
F22.0
F45.0
tp4939
a(g101
F719.0
F1306.0
tp4940
atp4941
a(L99L
g13
(lp4942
(g15
I0
F11.0
tp4943
a(g246
F11.0
F22.0
tp4944
a(g248
F23.0
F370.0
tp4945
a(g234
F370.0
F381.0
tp4946
a(g196
F381.0
F643.0
tp4947
a(g97
F643.0
F654.0
tp4948
a(g27
F677.0
F680.0
tp4949
a(g252
F684.0
F1064.0
tp4950
a(g198
F1064.0
F1425.0
tp4951
a(g254
F1425.0
F1635.0
tp4952
a(g59
F1635.0
F1949.0
tp4953
a(g115
F1949.0
F1952.0
tp4954
atp4955
a(L71L
g882
(lp4956
(g194
I0
F23.0
tp4957
a(g87
F23.0
F312.0
tp4958
a(g39
F312.0
F616.0
tp4959
a(g186
F616.0
F638.0
tp4960
a(g133
F1155.0
F1162.0
tp4961
a(g135
F1182.0
F1189.0
tp4962
a(g10
F1226.0
F1844.0
tp4963
atp4964
a(L40L
g13
(lp4965
(g4
F24.0
F281.0
tp4966
a(g55
F281.0
F293.0
tp4967
a(g65
F293.0
F617.0
tp4968
a(g220
F617.0
F836.0
tp4969
a(g67
F836.0
F1113.0
tp4970
a(g69
F1166.0
F1553.0
tp4971
a(g224
F1553.0
F1825.0
tp4972
atp4973
a(L41L
g882
(lp4974
(g167
I0
F23.0
tp4975
a(g51
F23.0
F46.0
tp4976
a(g73
F46.0
F627.0
tp4977
a(g129
F677.0
F682.0
tp4978
a(g77
F689.0
F1245.0
tp4979
a(g79
F1245.0
F1645.0
tp4980
atp4981
a(L46L
g882
(lp4982
(g125
I0
F22.0
tp4983
a(g25
F22.0
F568.0
tp4984
a(g109
F654.0
F1070.0
tp4985
a(g141
F1070.0
F1076.0
tp4986
a(g93
F1076.0
F1599.0
tp4987
a(g202
F1599.0
F1915.0
tp4988
atp4989
a(L73L
g184
(lp4990
(g19
F677.0
F719.0
tp4991
a(g159
F719.0
F759.0
tp4992
a(g177
F1155.0
F1200.0
tp4993
atp4994
a(L14L
g882
(lp4995
(g85
I0
F0.0
tp4996
a(g230
I0
F22.0
tp4997
a(g41
F45.0
F718.0
tp4998
a(g131
F718.0
F725.0
tp4999
a(g208
F725.0
F1148.0
tp5000
a(g113
F1161.0
F1698.0
tp5001
atp5002
a(L79L
g882
(lp5003
(g37
I0
F23.0
tp5004
a(g155
F23.0
F694.0
tp5005
a(g173
F694.0
F1149.0
tp5006
a(g161
F1149.0
F1804.0
tp5007
atp5008
a(L83L
g882
(lp5009
(g232
I0
F23.0
tp5010
a(g127
F23.0
F45.0
tp5011
a(g57
F293.0
F1118.0
tp5012
a(g240
F1148.0
F1155.0
tp5013
a(g45
F1155.0
F1160.0
tp5014
a(g181
F1189.0
F1803.0
tp5015
atp5016
a(L84L
g184
(lp5017
(g188
F1145.0
F1182.0
tp5018
a(g190
F1182.0
F1226.0
tp5019
a(g145
F1226.0
F1267.0
tp5020
a(g222
F1267.0
F1309.0
tp5021
atp5022
a(L21L
g882
(lp5023
(g149
F23.0
F617.0
tp5024
a(g250
F670.0
F677.0
tp5025
a(g99
F677.0
F684.0
tp5026
a(g75
F684.0
F690.0
tp5027
a(g206
F690.0
F711.0
tp5028
a(g179
F1155.0
F1161.0
tp5029
a(g43
F1161.0
F1166.0
tp5030
a(g47
F1166.0
F1922.0
tp5031
atp5032
a(L54L
g882
(lp5033
(g105
I0
F24.0
tp5034
a(g107
F24.0
F660.0
tp5035
a(g151
F690.0
F1306.0
tp5036
a(g111
F1306.0
F1651.0
tp5037
a(g163
F1804.0
F1810.0
tp5038
atp5039
a(L9L
g882
(lp5040
(g17
F11.0
F304.0
tp5041
a(g171
F304.0
F670.0
tp5042
a(g29
F680.0
F1199.0
tp5043
a(g21
F1199.0
F1565.0
tp5044
a(g212
F1565.0
F1943.0
tp5045
a(g81
F1943.0
F1949.0
tp5046
atp5047
a(L88L
g184
(lp5048
(g218
I0
F149.0
tp5049
a(g8
F1155.0
F1192.0
tp5050
a(g210
F1192.0
F1233.0
tp5051
atp5052
a(L87L
g2
(lp5053
(g120
F1952.0
F1952.0
tp5054
atp5055
a(L91L
g184
(lp5056
(g157
F677.0
F724.0
tp5057
atp5058
a(L93L
g184
(lp5059
(g216
I0
F153.0
tp5060
a(g236
F153.0
F300.0
tp5061
atp5062
a(L62L
g882
(lp5063
(g228
I0
F23.0
tp5064
a(g169
F23.0
F447.0
tp5065
a(g175
F677.0
F683.0
tp5066
a(g143
F683.0
F689.0
tp5067
a(g6
F689.0
F1110.0
tp5068
a(g31
F1155.0
F1161.0
tp5069
a(g33
F1162.0
F1717.0
tp5070
atp5071
atp5072
a(F2034.0
F5.2
(lp5073
(L96L
g882
(lp5074
(g91
F46.0
F443.0
tp5075
a(g97
F443.0
F465.0
tp5076
a(g238
F465.0
F1145.0
tp5077
a(g242
F1273.0
F1890.0
tp5078
atp5079
a(L51L
g123
(lp5080
(g53
I0
F50.0
tp5081
a(g101
F677.0
F1948.0
tp5082
a(g163
F1948.0
F1962.0
tp5083
atp5084
a(L2L
g184
(lp5085
(g143
F635.0
F674.0
tp5086
atp5087
a(L99L
g13
(lp5088
(g15
I0
F11.0
tp5089
a(g246
F11.0
F22.0
tp5090
a(g248
F23.0
F370.0
tp5091
a(g196
F370.0
F632.0
tp5092
a(g250
F632.0
F635.0
tp5093
a(g252
F647.0
F1027.0
tp5094
a(g198
F1027.0
F1388.0
tp5095
a(g254
F1388.0
F1598.0
tp5096
a(g59
F1598.0
F1912.0
tp5097
a(g115
F2031.0
F2034.0
tp5098
atp5099
a(L6L
g2
(lp5100
(g85
I0
F0.0
tp5101
atp5102
a(L71L
g882
(lp5103
(g194
I0
F23.0
tp5104
a(g87
F23.0
F312.0
tp5105
a(g236
F312.0
F335.0
tp5106
a(g177
F1261.0
F1268.0
tp5107
a(g10
F1269.0
F1887.0
tp5108
atp5109
a(L40L
g13
(lp5110
(g167
I0
F11.0
tp5111
a(g4
F24.0
F281.0
tp5112
a(g55
F281.0
F293.0
tp5113
a(g65
F293.0
F617.0
tp5114
a(g220
F617.0
F836.0
tp5115
a(g67
F836.0
F1113.0
tp5116
a(g240
F1258.0
F1261.0
tp5117
a(g69
F1275.0
F1662.0
tp5118
a(g222
F1662.0
F1665.0
tp5119
a(g224
F1665.0
F1937.0
tp5120
atp5121
a(L41L
g882
(lp5122
(g37
I0
F23.0
tp5123
a(g51
F23.0
F46.0
tp5124
a(g73
F46.0
F627.0
tp5125
a(g27
F635.0
F641.0
tp5126
a(g157
F641.0
F648.0
tp5127
a(g75
F648.0
F654.0
tp5128
a(g77
F674.0
F1230.0
tp5129
a(g79
F1267.0
F1667.0
tp5130
atp5131
a(L14L
g882
(lp5132
(g230
I0
F22.0
tp5133
a(g41
F67.0
F740.0
tp5134
a(g206
F740.0
F761.0
tp5135
a(g208
F761.0
F1184.0
tp5136
a(g200
F1261.0
F1267.0
tp5137
a(g113
F1267.0
F1804.0
tp5138
a(g81
F2011.0
F2017.0
tp5139
atp5140
a(L73L
g184
(lp5141
(g234
I0
F146.0
tp5142
a(g19
F635.0
F677.0
tp5143
a(g186
F677.0
F820.0
tp5144
atp5145
a(L46L
g882
(lp5146
(g105
I0
F24.0
tp5147
a(g125
F24.0
F46.0
tp5148
a(g25
F46.0
F592.0
tp5149
a(g93
F1166.0
F1689.0
tp5150
a(g145
F1689.0
F1695.0
tp5151
a(g202
F1695.0
F2011.0
tp5152
atp5153
a(L79L
g882
(lp5154
(g155
F23.0
F694.0
tp5155
a(g173
F694.0
F1149.0
tp5156
a(g161
F1149.0
F1804.0
tp5157
atp5158
a(L83L
g882
(lp5159
(g232
I0
F23.0
tp5160
a(g139
F23.0
F45.0
tp5161
a(g127
F45.0
F67.0
tp5162
a(g171
F67.0
F433.0
tp5163
a(g57
F433.0
F1258.0
tp5164
a(g45
F1261.0
F1266.0
tp5165
a(g181
F1266.0
F1880.0
tp5166
atp5167
a(L84L
g184
(lp5168
(g63
I0
F145.0
tp5169
a(g188
F1145.0
F1182.0
tp5170
a(g135
F1182.0
F1225.0
tp5171
a(g190
F1225.0
F1269.0
tp5172
atp5173
a(L21L
g882
(lp5174
(g149
F23.0
F617.0
tp5175
a(g151
F654.0
F1270.0
tp5176
a(g43
F1270.0
F1275.0
tp5177
a(g47
F1275.0
F2031.0
tp5178
atp5179
a(L54L
g882
(lp5180
(g107
F11.0
F647.0
tp5181
a(g109
F647.0
F1063.0
tp5182
a(g159
F1063.0
F1069.0
tp5183
a(g131
F1069.0
F1076.0
tp5184
a(g111
F1076.0
F1421.0
tp5185
atp5186
a(L9L
g882
(lp5187
(g17
F11.0
F304.0
tp5188
a(g39
F304.0
F608.0
tp5189
a(g29
F641.0
F1160.0
tp5190
a(g141
F1160.0
F1166.0
tp5191
a(g21
F1166.0
F1532.0
tp5192
a(g212
F1532.0
F1910.0
tp5193
atp5194
a(L88L
g184
(lp5195
(g216
I0
F153.0
tp5196
a(g218
F153.0
F302.0
tp5197
a(g8
F1261.0
F1298.0
tp5198
a(g210
F1298.0
F1339.0
tp5199
atp5200
a(L62L
g882
(lp5201
(g228
I0
F23.0
tp5202
a(g169
F23.0
F447.0
tp5203
a(g129
F635.0
F640.0
tp5204
a(g99
F640.0
F647.0
tp5205
a(g175
F647.0
F653.0
tp5206
a(g6
F653.0
F1074.0
tp5207
a(g179
F1261.0
F1267.0
tp5208
a(g31
F1267.0
F1273.0
tp5209
a(g133
F1273.0
F1280.0
tp5210
a(g33
F1280.0
F1835.0
tp5211
atp5212
a(L35L
g3699
(lp5213
(g120
F2034.0
F2034.0
tp5214
atp5215
atp5216
a(F2179.0
F5.12
(lp5217
(L96L
g882
(lp5218
(g91
F46.0
F443.0
tp5219
a(g97
F443.0
F465.0
tp5220
a(g238
F465.0
F1145.0
tp5221
a(g242
F1282.0
F1899.0
tp5222
atp5223
a(L51L
g123
(lp5224
(g53
I0
F50.0
tp5225
a(g101
F677.0
F1948.0
tp5226
a(g163
F2165.0
F2179.0
tp5227
atp5228
a(L99L
g13
(lp5229
(g230
I0
F11.0
tp5230
a(g246
F11.0
F22.0
tp5231
a(g248
F23.0
F370.0
tp5232
a(g196
F370.0
F632.0
tp5233
a(g250
F632.0
F635.0
tp5234
a(g252
F647.0
F1027.0
tp5235
a(g198
F1167.0
F1528.0
tp5236
a(g177
F1528.0
F1531.0
tp5237
a(g254
F1531.0
F1741.0
tp5238
a(g59
F1741.0
F2055.0
tp5239
a(g115
F2146.0
F2149.0
tp5240
atp5241
a(L36L
g13
(lp5242
(g120
F2179.0
F2179.0
tp5243
atp5244
a(L71L
g882
(lp5245
(g87
F11.0
F300.0
tp5246
a(g135
F1426.0
F1433.0
tp5247
a(g10
F1470.0
F2088.0
tp5248
atp5249
a(L40L
g13
(lp5250
(g167
I0
F11.0
tp5251
a(g37
F11.0
F22.0
tp5252
a(g4
F51.0
F308.0
tp5253
a(g55
F308.0
F320.0
tp5254
a(g65
F320.0
F644.0
tp5255
a(g220
F644.0
F863.0
tp5256
a(g67
F863.0
F1140.0
tp5257
a(g69
F1281.0
F1668.0
tp5258
a(g224
F1668.0
F1940.0
tp5259
a(g81
F2088.0
F2091.0
tp5260
atp5261
a(L9L
g882
(lp5262
(g15
I0
F22.0
tp5263
a(g17
F22.0
F315.0
tp5264
a(g39
F315.0
F619.0
tp5265
a(g29
F641.0
F1160.0
tp5266
a(g157
F1160.0
F1167.0
tp5267
a(g141
F1167.0
F1173.0
tp5268
a(g21
F1402.0
F1768.0
tp5269
a(g212
F1768.0
F2146.0
tp5270
atp5271
a(L62L
g882
(lp5272
(g169
F23.0
F447.0
tp5273
a(g129
F635.0
F640.0
tp5274
a(g99
F640.0
F647.0
tp5275
a(g175
F647.0
F653.0
tp5276
a(g6
F653.0
F1074.0
tp5277
a(g179
F1270.0
F1276.0
tp5278
a(g31
F1276.0
F1282.0
tp5279
a(g133
F1282.0
F1289.0
tp5280
a(g33
F1289.0
F1844.0
tp5281
atp5282
a(L73L
g184
(lp5283
(g19
F635.0
F677.0
tp5284
a(g186
F677.0
F820.0
tp5285
atp5286
a(L14L
g882
(lp5287
(g194
I0
F23.0
tp5288
a(g51
F23.0
F46.0
tp5289
a(g234
F46.0
F68.0
tp5290
a(g41
F68.0
F741.0
tp5291
a(g206
F741.0
F762.0
tp5292
a(g208
F762.0
F1185.0
tp5293
a(g113
F1276.0
F1813.0
tp5294
atp5295
a(L79L
g882
(lp5296
(g155
F22.0
F693.0
tp5297
a(g173
F693.0
F1148.0
tp5298
a(g161
F1148.0
F1803.0
tp5299
atp5300
a(L88L
g184
(lp5301
(g216
I0
F153.0
tp5302
a(g218
F153.0
F302.0
tp5303
a(g236
F302.0
F449.0
tp5304
a(g8
F1270.0
F1307.0
tp5305
atp5306
a(L83L
g882
(lp5307
(g232
I0
F23.0
tp5308
a(g139
F23.0
F45.0
tp5309
a(g127
F45.0
F67.0
tp5310
a(g171
F67.0
F433.0
tp5311
a(g57
F433.0
F1258.0
tp5312
a(g45
F1270.0
F1275.0
tp5313
a(g181
F1433.0
F2047.0
tp5314
atp5315
a(L84L
g184
(lp5316
(g63
I0
F145.0
tp5317
a(g200
F1270.0
F1308.0
tp5318
a(g188
F1389.0
F1426.0
tp5319
a(g190
F1426.0
F1470.0
tp5320
a(g222
F1470.0
F1512.0
tp5321
atp5322
a(L53L
g123
(lp5323
(g105
I0
F51.0
tp5324
a(g143
F635.0
F648.0
tp5325
atp5326
a(L54L
g123
(lp5327
(g107
F11.0
F1389.0
tp5328
a(g159
F1389.0
F1402.0
tp5329
a(g131
F1402.0
F1417.0
tp5330
a(g111
F1417.0
F2165.0
tp5331
atp5332
a(L41L
g882
(lp5333
(g73
F22.0
F603.0
tp5334
a(g27
F635.0
F641.0
tp5335
a(g75
F641.0
F647.0
tp5336
a(g77
F648.0
F1204.0
tp5337
a(g79
F1308.0
F1708.0
tp5338
atp5339
a(L46L
g882
(lp5340
(g125
I0
F22.0
tp5341
a(g25
F22.0
F568.0
tp5342
a(g109
F568.0
F984.0
tp5343
a(g93
F1173.0
F1696.0
tp5344
a(g145
F1696.0
F1702.0
tp5345
a(g202
F1702.0
F2018.0
tp5346
atp5347
a(L30L
g13
(lp5348
(g85
I0
F0.0
tp5349
atp5350
a(L21L
g882
(lp5351
(g228
I0
F23.0
tp5352
a(g149
F23.0
F617.0
tp5353
a(g151
F647.0
F1263.0
tp5354
a(g240
F1263.0
F1270.0
tp5355
a(g210
F1270.0
F1276.0
tp5356
a(g43
F1276.0
F1281.0
tp5357
a(g47
F1281.0
F2037.0
tp5358
atp5359
atp5360
a(F2191.0
F5.05
(lp5361
(L96L
g882
(lp5362
(g85
I0
F0.0
tp5363
a(g91
F69.0
F466.0
tp5364
a(g97
F466.0
F488.0
tp5365
a(g238
F488.0
F1168.0
tp5366
a(g242
F1307.0
F1924.0
tp5367
atp5368
a(L51L
g123
(lp5369
(g53
I0
F50.0
tp5370
a(g101
F695.0
F1966.0
tp5371
a(g163
F2177.0
F2191.0
tp5372
atp5373
a(L2L
g184
(lp5374
(g143
F653.0
F692.0
tp5375
atp5376
a(L99L
g13
(lp5377
(g15
I0
F11.0
tp5378
a(g246
F11.0
F22.0
tp5379
a(g248
F23.0
F370.0
tp5380
a(g196
F370.0
F632.0
tp5381
a(g250
F650.0
F653.0
tp5382
a(g252
F665.0
F1045.0
tp5383
a(g198
F1045.0
F1406.0
tp5384
a(g177
F1406.0
F1409.0
tp5385
a(g254
F1409.0
F1619.0
tp5386
a(g59
F1619.0
F1933.0
tp5387
atp5388
a(L36L
g13
(lp5389
(g120
F2191.0
F2191.0
tp5390
atp5391
a(L71L
g882
(lp5392
(g194
I0
F23.0
tp5393
a(g87
F23.0
F312.0
tp5394
a(g135
F1438.0
F1445.0
tp5395
a(g10
F1482.0
F2100.0
tp5396
atp5397
a(L40L
g13
(lp5398
(g4
F24.0
F281.0
tp5399
a(g55
F281.0
F293.0
tp5400
a(g65
F293.0
F617.0
tp5401
a(g220
F617.0
F836.0
tp5402
a(g67
F838.0
F1115.0
tp5403
a(g69
F1306.0
F1693.0
tp5404
a(g224
F1693.0
F1965.0
tp5405
a(g81
F2100.0
F2103.0
tp5406
atp5407
a(L41L
g882
(lp5408
(g167
I0
F23.0
tp5409
a(g37
F23.0
F46.0
tp5410
a(g51
F46.0
F69.0
tp5411
a(g73
F69.0
F650.0
tp5412
a(g27
F653.0
F659.0
tp5413
a(g157
F659.0
F666.0
tp5414
a(g75
F666.0
F672.0
tp5415
a(g77
F692.0
F1248.0
tp5416
a(g79
F1333.0
F1733.0
tp5417
a(g115
F2158.0
F2165.0
tp5418
atp5419
a(L14L
g882
(lp5420
(g230
I0
F22.0
tp5421
a(g41
F67.0
F740.0
tp5422
a(g206
F740.0
F761.0
tp5423
a(g208
F761.0
F1184.0
tp5424
a(g113
F1301.0
F1838.0
tp5425
atp5426
a(L73L
g184
(lp5427
(g234
I0
F146.0
tp5428
a(g19
F653.0
F695.0
tp5429
a(g186
F695.0
F838.0
tp5430
atp5431
a(L46L
g882
(lp5432
(g105
I0
F24.0
tp5433
a(g125
F24.0
F46.0
tp5434
a(g25
F46.0
F592.0
tp5435
a(g109
F592.0
F1008.0
tp5436
a(g93
F1184.0
F1707.0
tp5437
a(g145
F1707.0
F1713.0
tp5438
a(g202
F1713.0
F2029.0
tp5439
atp5440
a(L79L
g882
(lp5441
(g155
F46.0
F717.0
tp5442
a(g173
F717.0
F1172.0
tp5443
a(g161
F1172.0
F1827.0
tp5444
atp5445
a(L83L
g882
(lp5446
(g232
I0
F23.0
tp5447
a(g139
F23.0
F45.0
tp5448
a(g127
F45.0
F67.0
tp5449
a(g171
F67.0
F433.0
tp5450
a(g57
F433.0
F1258.0
tp5451
a(g45
F1295.0
F1300.0
tp5452
a(g181
F1445.0
F2059.0
tp5453
atp5454
a(L84L
g184
(lp5455
(g63
I0
F145.0
tp5456
a(g200
F1295.0
F1333.0
tp5457
a(g188
F1401.0
F1438.0
tp5458
a(g190
F1438.0
F1482.0
tp5459
a(g222
F1482.0
F1524.0
tp5460
atp5461
a(L21L
g882
(lp5462
(g149
F23.0
F617.0
tp5463
a(g151
F672.0
F1288.0
tp5464
a(g240
F1288.0
F1295.0
tp5465
a(g210
F1295.0
F1301.0
tp5466
a(g43
F1301.0
F1306.0
tp5467
a(g47
F1306.0
F2062.0
tp5468
atp5469
a(L54L
g123
(lp5470
(g107
F23.0
F1401.0
tp5471
a(g159
F1401.0
F1414.0
tp5472
a(g131
F1414.0
F1429.0
tp5473
a(g111
F1429.0
F2177.0
tp5474
atp5475
a(L9L
g882
(lp5476
(g17
F11.0
F304.0
tp5477
a(g39
F304.0
F608.0
tp5478
a(g29
F659.0
F1178.0
tp5479
a(g141
F1178.0
F1184.0
tp5480
a(g21
F1414.0
F1780.0
tp5481
a(g212
F1780.0
F2158.0
tp5482
atp5483
a(L88L
g184
(lp5484
(g216
I0
F153.0
tp5485
a(g218
F153.0
F302.0
tp5486
a(g236
F302.0
F449.0
tp5487
a(g8
F1295.0
F1332.0
tp5488
atp5489
a(L62L
g882
(lp5490
(g228
I0
F23.0
tp5491
a(g169
F23.0
F447.0
tp5492
a(g129
F653.0
F658.0
tp5493
a(g99
F658.0
F665.0
tp5494
a(g175
F665.0
F671.0
tp5495
a(g6
F671.0
F1092.0
tp5496
a(g179
F1295.0
F1301.0
tp5497
a(g31
F1301.0
F1307.0
tp5498
a(g133
F1307.0
F1314.0
tp5499
a(g33
F1314.0
F1869.0
tp5500
atp5501
atp5502
a(F2463.0
F4.89
(lp5503
(L96L
g882
(lp5504
(g91
F46.0
F443.0
tp5505
a(g97
F443.0
F465.0
tp5506
a(g238
F465.0
F1145.0
tp5507
a(g242
F1287.0
F1904.0
tp5508
atp5509
a(L51L
g123
(lp5510
(g53
I0
F50.0
tp5511
a(g101
F682.0
F1953.0
tp5512
a(g163
F2205.0
F2219.0
tp5513
atp5514
a(L99L
g13
(lp5515
(g230
I0
F11.0
tp5516
a(g246
F11.0
F22.0
tp5517
a(g248
F23.0
F370.0
tp5518
a(g196
F370.0
F632.0
tp5519
a(g250
F637.0
F640.0
tp5520
a(g252
F652.0
F1032.0
tp5521
a(g198
F1172.0
F1533.0
tp5522
a(g177
F1533.0
F1536.0
tp5523
a(g254
F1536.0
F1746.0
tp5524
a(g59
F1746.0
F2060.0
tp5525
a(g115
F2186.0
F2189.0
tp5526
atp5527
a(L71L
g123
(lp5528
(g87
F11.0
F637.0
tp5529
a(g135
F1466.0
F1480.0
tp5530
atp5531
a(L40L
g13
(lp5532
(g4
F51.0
F308.0
tp5533
a(g55
F308.0
F320.0
tp5534
a(g65
F320.0
F644.0
tp5535
a(g220
F644.0
F863.0
tp5536
a(g67
F863.0
F1140.0
tp5537
a(g69
F1286.0
F1673.0
tp5538
a(g224
F1673.0
F1945.0
tp5539
a(g81
F2460.0
F2463.0
tp5540
atp5541
a(L41L
g882
(lp5542
(g167
I0
F23.0
tp5543
a(g73
F23.0
F604.0
tp5544
a(g27
F640.0
F646.0
tp5545
a(g75
F646.0
F652.0
tp5546
a(g77
F679.0
F1235.0
tp5547
a(g79
F1313.0
F1713.0
tp5548
atp5549
a(L46L
g882
(lp5550
(g125
I0
F22.0
tp5551
a(g25
F22.0
F568.0
tp5552
a(g109
F568.0
F984.0
tp5553
a(g93
F1178.0
F1701.0
tp5554
a(g145
F1701.0
F1707.0
tp5555
a(g202
F1707.0
F2023.0
tp5556
atp5557
a(L73L
g184
(lp5558
(g19
F640.0
F682.0
tp5559
a(g186
F682.0
F825.0
tp5560
atp5561
a(L14L
g882
(lp5562
(g194
I0
F23.0
tp5563
a(g51
F23.0
F46.0
tp5564
a(g234
F46.0
F68.0
tp5565
a(g41
F68.0
F741.0
tp5566
a(g206
F741.0
F762.0
tp5567
a(g208
F762.0
F1185.0
tp5568
a(g113
F1281.0
F1818.0
tp5569
a(g120
F2463.0
F2463.0
tp5570
atp5571
a(L79L
g882
(lp5572
(g37
I0
F23.0
tp5573
a(g155
F23.0
F694.0
tp5574
a(g173
F694.0
F1149.0
tp5575
a(g161
F1149.0
F1804.0
tp5576
atp5577
a(L83L
g882
(lp5578
(g232
I0
F23.0
tp5579
a(g139
F23.0
F45.0
tp5580
a(g127
F45.0
F67.0
tp5581
a(g171
F67.0
F433.0
tp5582
a(g57
F433.0
F1258.0
tp5583
a(g45
F1275.0
F1280.0
tp5584
a(g133
F1280.0
F1287.0
tp5585
a(g181
F1480.0
F2094.0
tp5586
atp5587
a(L84L
g184
(lp5588
(g63
I0
F145.0
tp5589
a(g200
F1275.0
F1313.0
tp5590
a(g188
F1429.0
F1466.0
tp5591
a(g190
F1466.0
F1510.0
tp5592
a(g222
F1510.0
F1552.0
tp5593
atp5594
a(L21L
g882
(lp5595
(g228
I0
F23.0
tp5596
a(g149
F23.0
F617.0
tp5597
a(g151
F652.0
F1268.0
tp5598
a(g240
F1268.0
F1275.0
tp5599
a(g210
F1275.0
F1281.0
tp5600
a(g43
F1281.0
F1286.0
tp5601
a(g47
F1286.0
F2042.0
tp5602
atp5603
a(L54L
g123
(lp5604
(g105
I0
F51.0
tp5605
a(g107
F51.0
F1429.0
tp5606
a(g159
F1429.0
F1442.0
tp5607
a(g131
F1442.0
F1457.0
tp5608
a(g111
F1457.0
F2205.0
tp5609
atp5610
a(L9L
g882
(lp5611
(g15
I0
F22.0
tp5612
a(g17
F22.0
F315.0
tp5613
a(g39
F315.0
F619.0
tp5614
a(g29
F646.0
F1165.0
tp5615
a(g157
F1165.0
F1172.0
tp5616
a(g141
F1172.0
F1178.0
tp5617
a(g21
F1442.0
F1808.0
tp5618
a(g212
F1808.0
F2186.0
tp5619
atp5620
a(L88L
g184
(lp5621
(g216
I0
F153.0
tp5622
a(g218
F153.0
F302.0
tp5623
a(g236
F302.0
F449.0
tp5624
a(g8
F1275.0
F1312.0
tp5625
atp5626
a(L47L
g2
(lp5627
(g85
I0
F0.0
tp5628
atp5629
a(L62L
g882
(lp5630
(g169
F23.0
F447.0
tp5631
a(g129
F640.0
F645.0
tp5632
a(g99
F645.0
F652.0
tp5633
a(g175
F652.0
F658.0
tp5634
a(g6
F658.0
F1079.0
tp5635
a(g179
F1275.0
F1281.0
tp5636
a(g31
F1281.0
F1287.0
tp5637
a(g33
F1287.0
F1842.0
tp5638
a(g10
F1842.0
F2460.0
tp5639
atp5640
a(L53L
g184
(lp5641
(g143
F640.0
F679.0
tp5642
atp5643
atp5644
a(F3385.0
F4.81
(lp5645
(L96L
g882
(lp5646
(g91
F46.0
F443.0
tp5647
a(g97
F443.0
F465.0
tp5648
a(g238
F465.0
F1145.0
tp5649
a(g242
F1945.0
F2562.0
tp5650
atp5651
a(L51L
g123
(lp5652
(g53
I0
F50.0
tp5653
a(g101
F1326.0
F2597.0
tp5654
a(g163
F2597.0
F2611.0
tp5655
atp5656
a(L99L
g13
(lp5657
(g230
I0
F11.0
tp5658
a(g246
F11.0
F22.0
tp5659
a(g248
F23.0
F370.0
tp5660
a(g196
F370.0
F632.0
tp5661
a(g250
F1281.0
F1284.0
tp5662
a(g252
F1296.0
F1676.0
tp5663
a(g198
F1824.0
F2185.0
tp5664
a(g177
F2185.0
F2188.0
tp5665
a(g254
F2188.0
F2398.0
tp5666
a(g59
F2398.0
F2712.0
tp5667
a(g115
F3382.0
F3385.0
tp5668
atp5669
a(L36L
g184
(lp5670
(g120
F3385.0
F3385.0
tp5671
atp5672
a(L71L
g123
(lp5673
(g87
F11.0
F637.0
tp5674
a(g135
F2008.0
F2022.0
tp5675
atp5676
a(L40L
g13
(lp5677
(g167
I0
F11.0
tp5678
a(g37
F11.0
F22.0
tp5679
a(g4
F51.0
F308.0
tp5680
a(g55
F308.0
F320.0
tp5681
a(g65
F320.0
F644.0
tp5682
a(g220
F644.0
F863.0
tp5683
a(g67
F1469.0
F1746.0
tp5684
a(g69
F1944.0
F2331.0
tp5685
a(g224
F2331.0
F2603.0
tp5686
a(g81
F3118.0
F3121.0
tp5687
atp5688
a(L9L
g882
(lp5689
(g15
I0
F22.0
tp5690
a(g17
F22.0
F315.0
tp5691
a(g39
F315.0
F619.0
tp5692
a(g29
F1298.0
F1817.0
tp5693
a(g157
F1817.0
F1824.0
tp5694
a(g141
F1824.0
F1830.0
tp5695
a(g21
F1830.0
F2196.0
tp5696
a(g212
F2196.0
F2574.0
tp5697
atp5698
a(L46L
g882
(lp5699
(g125
I0
F22.0
tp5700
a(g25
F22.0
F568.0
tp5701
a(g109
F568.0
F984.0
tp5702
a(g93
F1830.0
F2353.0
tp5703
a(g145
F2353.0
F2359.0
tp5704
a(g202
F2359.0
F2675.0
tp5705
atp5706
a(L73L
g184
(lp5707
(g19
F1284.0
F1326.0
tp5708
a(g186
F1326.0
F1469.0
tp5709
atp5710
a(L14L
g882
(lp5711
(g194
I0
F23.0
tp5712
a(g51
F23.0
F46.0
tp5713
a(g234
F46.0
F68.0
tp5714
a(g41
F68.0
F741.0
tp5715
a(g206
F741.0
F762.0
tp5716
a(g208
F762.0
F1185.0
tp5717
a(g113
F1939.0
F2476.0
tp5718
atp5719
a(L79L
g882
(lp5720
(g155
F22.0
F693.0
tp5721
a(g173
F1289.0
F1744.0
tp5722
a(g161
F1744.0
F2399.0
tp5723
atp5724
a(L81L
g882
(lp5725
(g85
I0
F0.0
tp5726
atp5727
a(L83L
g882
(lp5728
(g232
I0
F23.0
tp5729
a(g139
F23.0
F45.0
tp5730
a(g127
F45.0
F67.0
tp5731
a(g171
F67.0
F433.0
tp5732
a(g57
F433.0
F1258.0
tp5733
a(g45
F1933.0
F1938.0
tp5734
a(g133
F1938.0
F1945.0
tp5735
a(g181
F2022.0
F2636.0
tp5736
atp5737
a(L84L
g184
(lp5738
(g63
I0
F145.0
tp5739
a(g200
F1933.0
F1971.0
tp5740
a(g188
F1971.0
F2008.0
tp5741
a(g190
F2008.0
F2052.0
tp5742
a(g222
F2052.0
F2094.0
tp5743
atp5744
a(L53L
g123
(lp5745
(g105
I0
F51.0
tp5746
a(g143
F1284.0
F1297.0
tp5747
atp5748
a(L54L
g123
(lp5749
(g107
F11.0
F1389.0
tp5750
a(g159
F1389.0
F1402.0
tp5751
a(g131
F1402.0
F1417.0
tp5752
a(g111
F1417.0
F2165.0
tp5753
atp5754
a(L41L
g123
(lp5755
(g73
F22.0
F1281.0
tp5756
a(g27
F1284.0
F1298.0
tp5757
a(g75
F1298.0
F1310.0
tp5758
a(g77
F1310.0
F2514.0
tp5759
a(g79
F2514.0
F3382.0
tp5760
atp5761
a(L88L
g184
(lp5762
(g216
I0
F153.0
tp5763
a(g218
F153.0
F302.0
tp5764
a(g236
F302.0
F449.0
tp5765
a(g8
F1933.0
F1970.0
tp5766
atp5767
a(L62L
g882
(lp5768
(g169
F23.0
F447.0
tp5769
a(g129
F1284.0
F1289.0
tp5770
a(g99
F1289.0
F1296.0
tp5771
a(g175
F1296.0
F1302.0
tp5772
a(g6
F1302.0
F1723.0
tp5773
a(g179
F1933.0
F1939.0
tp5774
a(g31
F1939.0
F1945.0
tp5775
a(g33
F1945.0
F2500.0
tp5776
a(g10
F2500.0
F3118.0
tp5777
atp5778
a(L21L
g882
(lp5779
(g228
I0
F23.0
tp5780
a(g149
F23.0
F617.0
tp5781
a(g151
F1310.0
F1926.0
tp5782
a(g240
F1926.0
F1933.0
tp5783
a(g210
F1933.0
F1939.0
tp5784
a(g43
F1939.0
F1944.0
tp5785
a(g47
F1944.0
F2700.0
tp5786
atp5787
atp5788
a(F3564.0
F4.65
(lp5789
(L96L
g882
(lp5790
(g230
I0
F22.0
tp5791
a(g91
F22.0
F419.0
tp5792
a(g238
F449.0
F1129.0
tp5793
a(g242
F2243.0
F2860.0
tp5794
atp5795
a(L51L
g123
(lp5796
(g53
I0
F50.0
tp5797
a(g101
F1381.0
F2652.0
tp5798
a(g163
F2652.0
F2666.0
tp5799
atp5800
a(L99L
g13
(lp5801
(g51
I0
F11.0
tp5802
a(g248
F23.0
F370.0
tp5803
a(g196
F667.0
F929.0
tp5804
a(g250
F1336.0
F1339.0
tp5805
a(g252
F1351.0
F1731.0
tp5806
a(g198
F1871.0
F2232.0
tp5807
a(g177
F2232.0
F2235.0
tp5808
a(g254
F2235.0
F2445.0
tp5809
a(g59
F2445.0
F2759.0
tp5810
a(g115
F3015.0
F3018.0
tp5811
atp5812
a(L71L
g123
(lp5813
(g194
I0
F51.0
tp5814
a(g87
F51.0
F677.0
tp5815
a(g39
F677.0
F1336.0
tp5816
a(g97
F1336.0
F1384.0
tp5817
a(g135
F1438.0
F1452.0
tp5818
atp5819
a(L40L
g882
(lp5820
(g4
F24.0
F539.0
tp5821
a(g139
F539.0
F561.0
tp5822
a(g55
F561.0
F584.0
tp5823
a(g65
F584.0
F1231.0
tp5824
a(g220
F1231.0
F1670.0
tp5825
a(g67
F1670.0
F2224.0
tp5826
a(g200
F2231.0
F2237.0
tp5827
a(g69
F2242.0
F3015.0
tp5828
a(g224
F3015.0
F3558.0
tp5829
a(g81
F3558.0
F3564.0
tp5830
atp5831
a(L41L
g882
(lp5832
(g167
I0
F23.0
tp5833
a(g73
F23.0
F604.0
tp5834
a(g27
F1339.0
F1345.0
tp5835
a(g75
F1345.0
F1351.0
tp5836
a(g77
F1352.0
F1908.0
tp5837
a(g79
F2237.0
F2637.0
tp5838
atp5839
a(L10L
g13
(lp5840
(g120
F3564.0
F3564.0
tp5841
atp5842
a(L46L
g882
(lp5843
(g125
I0
F22.0
tp5844
a(g25
F23.0
F569.0
tp5845
a(g109
F1384.0
F1800.0
tp5846
a(g93
F1877.0
F2400.0
tp5847
a(g145
F2400.0
F2406.0
tp5848
a(g202
F2406.0
F2722.0
tp5849
atp5850
a(L73L
g184
(lp5851
(g19
F1339.0
F1381.0
tp5852
a(g186
F1381.0
F1524.0
tp5853
atp5854
a(L14L
g882
(lp5855
(g85
I0
F0.0
tp5856
a(g246
I0
F23.0
tp5857
a(g41
F45.0
F718.0
tp5858
a(g206
F718.0
F739.0
tp5859
a(g208
F739.0
F1162.0
tp5860
a(g113
F2237.0
F2774.0
tp5861
atp5862
a(L79L
g882
(lp5863
(g37
I0
F23.0
tp5864
a(g155
F23.0
F694.0
tp5865
a(g173
F1344.0
F1799.0
tp5866
a(g161
F1799.0
F2454.0
tp5867
atp5868
a(L83L
g882
(lp5869
(g232
I0
F23.0
tp5870
a(g127
F23.0
F45.0
tp5871
a(g171
F50.0
F416.0
tp5872
a(g57
F584.0
F1409.0
tp5873
a(g45
F2231.0
F2236.0
tp5874
a(g133
F2236.0
F2243.0
tp5875
a(g181
F2243.0
F2857.0
tp5876
atp5877
a(L84L
g184
(lp5878
(g63
I0
F145.0
tp5879
a(g188
F1401.0
F1438.0
tp5880
a(g190
F1438.0
F1482.0
tp5881
a(g222
F1482.0
F1524.0
tp5882
atp5883
a(L21L
g882
(lp5884
(g149
F51.0
F645.0
tp5885
a(g234
F645.0
F667.0
tp5886
a(g151
F1351.0
F1967.0
tp5887
a(g240
F2224.0
F2231.0
tp5888
a(g210
F2231.0
F2237.0
tp5889
a(g43
F2237.0
F2242.0
tp5890
a(g47
F2242.0
F2998.0
tp5891
atp5892
a(L54L
g123
(lp5893
(g107
F23.0
F1401.0
tp5894
a(g159
F1401.0
F1414.0
tp5895
a(g131
F1414.0
F1429.0
tp5896
a(g111
F1429.0
F2177.0
tp5897
atp5898
a(L9L
g882
(lp5899
(g105
I0
F24.0
tp5900
a(g15
F24.0
F46.0
tp5901
a(g17
F46.0
F339.0
tp5902
a(g29
F1345.0
F1864.0
tp5903
a(g157
F1864.0
F1871.0
tp5904
a(g141
F1871.0
F1877.0
tp5905
a(g21
F1877.0
F2243.0
tp5906
a(g212
F2243.0
F2621.0
tp5907
atp5908
a(L88L
g184
(lp5909
(g216
I0
F153.0
tp5910
a(g218
F153.0
F302.0
tp5911
a(g236
F302.0
F449.0
tp5912
a(g8
F2231.0
F2268.0
tp5913
atp5914
a(L62L
g882
(lp5915
(g228
I0
F23.0
tp5916
a(g169
F23.0
F447.0
tp5917
a(g129
F1339.0
F1344.0
tp5918
a(g99
F1344.0
F1351.0
tp5919
a(g175
F1351.0
F1357.0
tp5920
a(g6
F1357.0
F1778.0
tp5921
a(g179
F2231.0
F2237.0
tp5922
a(g31
F2237.0
F2243.0
tp5923
a(g33
F2243.0
F2798.0
tp5924
a(g10
F2798.0
F3416.0
tp5925
atp5926
a(L53L
g123
(lp5927
(g143
F1339.0
F1352.0
tp5928
atp5929
atp5930
a.