(lp0
(F411.0
F7.56
(lp1
(L0L
Vapac-sin#m3.2xlarge
p2
(lp3
(VID00005
p4
I0
F5.0
tp5
a(VID00012
p6
F5.0
F107.0
tp7
a(VID00013
p8
F107.0
F213.0
tp9
a(VID00021
p10
F215.0
F217.0
tp11
a(VID00017
p12
F217.0
F219.0
tp13
a(VID00018
p14
F219.0
F221.0
tp15
a(VID00025
p16
F221.0
F300.0
tp17
a(VID00019
p18
F300.0
F302.0
tp19
a(VID00026
p20
F302.0
F396.0
tp21
atp22
a(L5L
g2
(lp23
(VID00002
p24
I0
F5.0
tp25
a(VID00009
p26
F5.0
F188.0
tp27
a(VID00014
p28
F213.0
F215.0
tp29
a(VID00023
p30
F217.0
F406.0
tp31
atp32
a(L9L
Vapac-sin#m1.large
p33
(lp34
(S'exit'
p35
F411.0
F411.0
tp36
atp37
a(L15L
g2
(lp38
(VID00006
p39
I0
F6.0
tp40
a(VID00001
p41
F6.0
F12.0
tp42
a(VID00008
p43
F12.0
F120.0
tp44
a(VID00027
p45
F217.0
F374.0
tp46
atp47
a(L17L
g2
(lp48
(VID00007
p49
F5.0
F213.0
tp50
a(VID00015
p51
F215.0
F217.0
tp52
a(VID00022
p53
F217.0
F410.0
tp54
a(VID00029
p55
F410.0
F411.0
tp56
atp57
a(L21L
Vapac-sin#m3.medium
p58
(lp59
(S'entry'
p60
I0
F0.0
tp61
atp62
a(L25L
g2
(lp63
(VID00004
p64
I0
F6.0
tp65
a(VID00003
p66
F6.0
F11.0
tp67
a(VID00010
p68
F11.0
F171.0
tp69
a(VID00016
p70
F215.0
F217.0
tp71
a(VID00028
p72
F217.0
F329.0
tp73
atp74
a(L31L
g2
(lp75
(VID00000
p76
I0
F5.0
tp77
a(VID00011
p78
F6.0
F171.0
tp79
a(VID00020
p80
F215.0
F217.0
tp81
a(VID00024
p82
F219.0
F348.0
tp83
atp84
atp85
a(F431.0
F6.93
(lp86
(L0L
g2
(lp87
(g68
F5.0
F165.0
tp88
a(g18
F222.0
F224.0
tp89
a(g20
F224.0
F318.0
tp90
a(g72
F318.0
F430.0
tp91
atp92
a(L5L
g2
(lp93
(g41
I0
F6.0
tp94
a(g76
F6.0
F11.0
tp95
a(g24
F11.0
F16.0
tp96
a(g26
F16.0
F199.0
tp97
a(g30
F231.0
F420.0
tp98
a(g55
F430.0
F431.0
tp99
atp100
a(L15L
g2
(lp101
(g39
I0
F6.0
tp102
a(g43
F6.0
F114.0
tp103
a(g8
F114.0
F220.0
tp104
a(g45
F225.0
F382.0
tp105
atp106
a(L17L
g2
(lp107
(g4
I0
F5.0
tp108
a(g64
F5.0
F11.0
tp109
a(g49
F11.0
F219.0
tp110
a(g51
F222.0
F224.0
tp111
a(g53
F224.0
F417.0
tp112
atp113
a(L18L
Vapac-sin#m3.xlarge
p114
(lp115
(g35
F431.0
F431.0
tp116
atp117
a(L22L
g58
(lp118
(g60
I0
F0.0
tp119
atp120
a(L25L
g114
(lp121
(g6
F5.0
F209.0
tp122
a(g80
F222.0
F225.0
tp123
a(g10
F225.0
F228.0
tp124
a(g70
F228.0
F231.0
tp125
a(g14
F231.0
F234.0
tp126
a(g16
F234.0
F391.0
tp127
atp128
a(L31L
g2
(lp129
(g66
I0
F5.0
tp130
a(g78
F11.0
F176.0
tp131
a(g28
F220.0
F222.0
tp132
a(g12
F222.0
F224.0
tp133
a(g82
F224.0
F353.0
tp134
atp135
atp136
a(F480.0
F6.3
(lp137
(L0L
g2
(lp138
(g24
I0
F5.0
tp139
a(g6
F5.0
F107.0
tp140
a(g68
F107.0
F267.0
tp141
a(g14
F269.0
F271.0
tp142
a(g18
F271.0
F273.0
tp143
a(g20
F273.0
F367.0
tp144
a(g72
F367.0
F479.0
tp145
atp146
a(L5L
g2
(lp147
(g64
I0
F6.0
tp148
a(g41
F6.0
F12.0
tp149
a(g76
F12.0
F17.0
tp150
a(g26
F17.0
F200.0
tp151
a(g12
F269.0
F271.0
tp152
a(g70
F271.0
F273.0
tp153
a(g30
F273.0
F462.0
tp154
a(g55
F479.0
F480.0
tp155
atp156
a(L12L
g33
(lp157
(g35
F480.0
F480.0
tp158
atp159
a(L15L
g2
(lp160
(g39
I0
F6.0
tp161
a(g43
F12.0
F120.0
tp162
a(g8
F120.0
F226.0
tp163
a(g45
F271.0
F428.0
tp164
atp165
a(L17L
g2
(lp166
(g4
I0
F5.0
tp167
a(g49
F17.0
F225.0
tp168
a(g28
F267.0
F269.0
tp169
a(g80
F269.0
F271.0
tp170
a(g51
F271.0
F273.0
tp171
a(g53
F273.0
F466.0
tp172
atp173
a(L21L
g33
(lp174
(g60
I0
F0.0
tp175
atp176
a(L31L
g2
(lp177
(g66
I0
F5.0
tp178
a(g78
F6.0
F171.0
tp179
a(g10
F269.0
F271.0
tp180
a(g82
F271.0
F400.0
tp181
a(g16
F400.0
F479.0
tp182
atp183
atp184
a(F530.0
F5.67
(lp185
(L0L
g2
(lp186
(g4
I0
F5.0
tp187
a(g39
F5.0
F11.0
tp188
a(g24
F11.0
F16.0
tp189
a(g26
F16.0
F199.0
tp190
a(g28
F274.0
F276.0
tp191
a(g12
F276.0
F278.0
tp192
a(g70
F278.0
F280.0
tp193
a(g30
F280.0
F469.0
tp194
atp195
a(L3L
g58
(lp196
(g60
I0
F0.0
tp197
atp198
a(L4L
g2
(lp199
(g66
I0
F5.0
tp200
a(g6
F5.0
F107.0
tp201
a(g78
F107.0
F272.0
tp202
a(g53
F280.0
F473.0
tp203
atp204
a(L9L
g33
(lp205
(g35
F530.0
F530.0
tp206
atp207
a(L16L
g114
(lp208
(g8
F11.0
F223.0
tp209
a(g51
F276.0
F280.0
tp210
a(g14
F280.0
F283.0
tp211
a(g16
F283.0
F440.0
tp212
atp213
a(L17L
g2
(lp214
(g41
I0
F6.0
tp215
a(g76
F6.0
F11.0
tp216
a(g49
F11.0
F219.0
tp217
a(g80
F276.0
F278.0
tp218
a(g45
F278.0
F435.0
tp219
a(g20
F435.0
F529.0
tp220
a(g55
F529.0
F530.0
tp221
atp222
a(L25L
g2
(lp223
(g64
I0
F6.0
tp224
a(g43
F6.0
F114.0
tp225
a(g68
F114.0
F274.0
tp226
a(g10
F276.0
F278.0
tp227
a(g82
F278.0
F407.0
tp228
a(g18
F407.0
F409.0
tp229
a(g72
F409.0
F521.0
tp230
atp231
atp232
a(F563.0
F5.04
(lp233
(L0L
g2
(lp234
(g24
I0
F5.0
tp235
a(g26
F5.0
F188.0
tp236
a(g6
F188.0
F290.0
tp237
a(g70
F292.0
F294.0
tp238
a(g30
F294.0
F483.0
tp239
a(g16
F483.0
F562.0
tp240
atp241
a(L2L
Vapac-sin#m3.large
p242
(lp243
(g60
I0
F0.0
tp244
atp245
a(L4L
g2
(lp246
(g66
I0
F5.0
tp247
a(g43
F12.0
F120.0
tp248
a(g78
F120.0
F285.0
tp249
a(g28
F290.0
F292.0
tp250
a(g80
F292.0
F294.0
tp251
a(g10
F294.0
F296.0
tp252
a(g12
F296.0
F298.0
tp253
a(g51
F298.0
F300.0
tp254
a(g53
F300.0
F493.0
tp255
atp256
a(L16L
Vapac-sin#m1.small
p257
(lp258
(g35
F563.0
F563.0
tp259
atp260
a(L17L
g2
(lp261
(g4
I0
F5.0
tp262
a(g39
F5.0
F11.0
tp263
a(g49
F17.0
F225.0
tp264
a(g45
F294.0
F451.0
tp265
a(g14
F451.0
F453.0
tp266
a(g20
F453.0
F547.0
tp267
a(g55
F562.0
F563.0
tp268
atp269
a(L25L
g2
(lp270
(g64
I0
F6.0
tp271
a(g41
F6.0
F12.0
tp272
a(g76
F12.0
F17.0
tp273
a(g8
F17.0
F123.0
tp274
a(g68
F123.0
F283.0
tp275
a(g82
F298.0
F427.0
tp276
a(g18
F427.0
F429.0
tp277
a(g72
F429.0
F541.0
tp278
atp279
atp280
a(F616.0
F4.41
(lp281
(L0L
g2
(lp282
(g64
I0
F6.0
tp283
a(g39
F6.0
F12.0
tp284
a(g41
F12.0
F18.0
tp285
a(g26
F18.0
F201.0
tp286
a(g6
F201.0
F303.0
tp287
a(g70
F327.0
F329.0
tp288
a(g30
F329.0
F518.0
tp289
a(g20
F518.0
F612.0
tp290
atp291
a(L2L
g114
(lp292
(g60
I0
F0.0
tp293
atp294
a(L4L
g2
(lp295
(g66
I0
F5.0
tp296
a(g24
F5.0
F10.0
tp297
a(g43
F18.0
F126.0
tp298
a(g78
F126.0
F291.0
tp299
a(g80
F327.0
F329.0
tp300
a(g12
F329.0
F331.0
tp301
a(g53
F334.0
F527.0
tp302
a(g14
F527.0
F529.0
tp303
a(g16
F529.0
F608.0
tp304
atp305
a(L17L
g2
(lp306
(g4
I0
F5.0
tp307
a(g76
F5.0
F10.0
tp308
a(g49
F10.0
F218.0
tp309
a(g8
F218.0
F324.0
tp310
a(g28
F325.0
F327.0
tp311
a(g45
F329.0
F486.0
tp312
a(g82
F486.0
F615.0
tp313
a(g55
F615.0
F616.0
tp314
atp315
a(L24L
g58
(lp316
(g35
F616.0
F616.0
tp317
atp318
a(L25L
g114
(lp319
(g68
F5.0
F325.0
tp320
a(g10
F327.0
F330.0
tp321
a(g51
F330.0
F334.0
tp322
a(g18
F334.0
F337.0
tp323
a(g72
F337.0
F562.0
tp324
atp325
atp326
a(F753.0
F4.09
(lp327
(L0L
g2
(lp328
(g24
I0
F5.0
tp329
a(g26
F5.0
F188.0
tp330
a(g43
F188.0
F296.0
tp331
a(g6
F296.0
F398.0
tp332
a(g28
F398.0
F400.0
tp333
a(g80
F400.0
F402.0
tp334
a(g70
F402.0
F404.0
tp335
a(g30
F404.0
F593.0
tp336
a(g18
F593.0
F595.0
tp337
a(g20
F595.0
F689.0
tp338
atp339
a(L4L
g114
(lp340
(g78
F6.0
F335.0
tp341
a(g10
F400.0
F403.0
tp342
a(g82
F403.0
F660.0
tp343
atp344
a(L5L
g2
(lp345
(g60
I0
F0.0
tp346
atp347
a(L17L
g2
(lp348
(g64
I0
F6.0
tp349
a(g41
F6.0
F12.0
tp350
a(g76
F12.0
F17.0
tp351
a(g49
F17.0
F225.0
tp352
a(g8
F225.0
F331.0
tp353
a(g45
F402.0
F559.0
tp354
a(g53
F559.0
F752.0
tp355
a(g55
F752.0
F753.0
tp356
atp357
a(L23L
g242
(lp358
(g4
I0
F22.0
tp359
a(g39
F22.0
F44.0
tp360
a(g14
F400.0
F406.0
tp361
a(g16
F406.0
F721.0
tp362
atp363
a(L24L
g58
(lp364
(g35
F753.0
F753.0
tp365
atp366
a(L25L
g114
(lp367
(g66
I0
F11.0
tp368
a(g68
F11.0
F331.0
tp369
a(g12
F400.0
F403.0
tp370
a(g51
F403.0
F407.0
tp371
a(g72
F407.0
F632.0
tp372
atp373
atp374
a(F765.0
F3.78
(lp375
(L0L
g2
(lp376
(g24
I0
F5.0
tp377
a(g26
F5.0
F188.0
tp378
a(g43
F188.0
F296.0
tp379
a(g6
F296.0
F398.0
tp380
a(g28
F398.0
F400.0
tp381
a(g70
F400.0
F402.0
tp382
a(g30
F402.0
F591.0
tp383
a(g16
F591.0
F670.0
tp384
a(g20
F670.0
F764.0
tp385
atp386
a(L4L
g114
(lp387
(g41
I0
F11.0
tp388
a(g66
F11.0
F22.0
tp389
a(g78
F22.0
F351.0
tp390
a(g80
F400.0
F403.0
tp391
a(g10
F403.0
F406.0
tp392
a(g82
F406.0
F663.0
tp393
atp394
a(L17L
g2
(lp395
(g4
I0
F5.0
tp396
a(g64
F5.0
F11.0
tp397
a(g39
F11.0
F17.0
tp398
a(g76
F17.0
F22.0
tp399
a(g49
F22.0
F230.0
tp400
a(g8
F230.0
F336.0
tp401
a(g45
F403.0
F560.0
tp402
a(g51
F560.0
F562.0
tp403
a(g53
F562.0
F755.0
tp404
a(g55
F764.0
F765.0
tp405
atp406
a(L21L
g242
(lp407
(g60
I0
F0.0
tp408
atp409
a(L24L
g58
(lp410
(g35
F765.0
F765.0
tp411
atp412
a(L25L
g114
(lp413
(g68
F22.0
F342.0
tp414
a(g12
F400.0
F403.0
tp415
a(g14
F403.0
F406.0
tp416
a(g18
F406.0
F409.0
tp417
a(g72
F409.0
F634.0
tp418
atp419
atp420
a(F853.0
F3.46
(lp421
(L0L
g114
(lp422
(g60
I0
F0.0
tp423
a(g4
I0
F11.0
tp424
a(g39
F11.0
F22.0
tp425
a(g76
F22.0
F33.0
tp426
a(g24
F33.0
F44.0
tp427
a(g26
F44.0
F410.0
tp428
a(g18
F436.0
F439.0
tp429
a(g20
F439.0
F627.0
tp430
a(g72
F627.0
F852.0
tp431
atp432
a(L4L
g114
(lp433
(g64
I0
F11.0
tp434
a(g78
F11.0
F340.0
tp435
a(g10
F436.0
F439.0
tp436
a(g82
F439.0
F696.0
tp437
atp438
a(L12L
g242
(lp439
(g35
F853.0
F853.0
tp440
atp441
a(L17L
g2
(lp442
(g41
I0
F6.0
tp443
a(g49
F33.0
F241.0
tp444
a(g68
F241.0
F401.0
tp445
a(g28
F434.0
F436.0
tp446
a(g80
F436.0
F438.0
tp447
a(g45
F438.0
F595.0
tp448
a(g51
F595.0
F597.0
tp449
a(g53
F597.0
F790.0
tp450
a(g55
F852.0
F853.0
tp451
atp452
a(L23L
g114
(lp453
(g43
F6.0
F222.0
tp454
a(g8
F222.0
F434.0
tp455
a(g12
F436.0
F439.0
tp456
a(g30
F443.0
F820.0
tp457
atp458
a(L25L
g242
(lp459
(g66
I0
F22.0
tp460
a(g6
F22.0
F431.0
tp461
a(g70
F436.0
F443.0
tp462
a(g14
F443.0
F449.0
tp463
a(g16
F449.0
F764.0
tp464
atp465
atp466
a(F934.0
F3.15
(lp467
(L0L
g114
(lp468
(g4
I0
F11.0
tp469
a(g64
F11.0
F22.0
tp470
a(g26
F22.0
F388.0
tp471
a(g70
F481.0
F484.0
tp472
a(g30
F484.0
F861.0
tp473
atp474
a(L4L
g114
(lp475
(g66
I0
F11.0
tp476
a(g78
F22.0
F351.0
tp477
a(g10
F481.0
F484.0
tp478
a(g82
F642.0
F899.0
tp479
atp480
a(L16L
g114
(lp481
(g35
F934.0
F934.0
tp482
atp483
a(L17L
g2
(lp484
(g60
I0
F0.0
tp485
a(g76
I0
F5.0
tp486
a(g49
F5.0
F213.0
tp487
a(g8
F213.0
F319.0
tp488
a(g68
F319.0
F479.0
tp489
a(g28
F479.0
F481.0
tp490
a(g80
F481.0
F483.0
tp491
a(g45
F483.0
F640.0
tp492
a(g12
F640.0
F642.0
tp493
a(g51
F642.0
F644.0
tp494
a(g53
F644.0
F837.0
tp495
a(g18
F837.0
F839.0
tp496
a(g20
F839.0
F933.0
tp497
a(g55
F933.0
F934.0
tp498
atp499
a(L23L
g242
(lp500
(g39
I0
F22.0
tp501
a(g41
F22.0
F44.0
tp502
a(g43
F44.0
F475.0
tp503
a(g14
F481.0
F487.0
tp504
a(g16
F487.0
F802.0
tp505
atp506
a(L25L
g242
(lp507
(g24
I0
F22.0
tp508
a(g6
F22.0
F431.0
tp509
a(g72
F484.0
F933.0
tp510
atp511
atp512
a(F1067.0
F2.83
(lp513
(L0L
g114
(lp514
(g60
I0
F0.0
tp515
a(g4
I0
F11.0
tp516
a(g39
F11.0
F22.0
tp517
a(g76
F22.0
F33.0
tp518
a(g24
F33.0
F44.0
tp519
a(g26
F44.0
F410.0
tp520
a(g28
F556.0
F559.0
tp521
a(g12
F559.0
F562.0
tp522
a(g30
F562.0
F939.0
tp523
atp524
a(L4L
g114
(lp525
(g64
I0
F11.0
tp526
a(g43
F11.0
F227.0
tp527
a(g78
F227.0
F556.0
tp528
a(g70
F559.0
F562.0
tp529
a(g51
F562.0
F566.0
tp530
a(g53
F566.0
F951.0
tp531
atp532
a(L17L
g114
(lp533
(g41
I0
F11.0
tp534
a(g49
F33.0
F448.0
tp535
a(g80
F559.0
F562.0
tp536
a(g45
F562.0
F876.0
tp537
a(g20
F876.0
F1064.0
tp538
a(g55
F1064.0
F1067.0
tp539
atp540
a(L19L
g242
(lp541
(g6
F11.0
F420.0
tp542
a(g14
F559.0
F565.0
tp543
a(g16
F565.0
F880.0
tp544
atp545
a(L24L
g257
(lp546
(g35
F1067.0
F1067.0
tp547
atp548
a(L25L
g114
(lp549
(g66
I0
F11.0
tp550
a(g8
F22.0
F234.0
tp551
a(g68
F234.0
F554.0
tp552
a(g10
F559.0
F562.0
tp553
a(g82
F562.0
F819.0
tp554
a(g18
F819.0
F822.0
tp555
a(g72
F822.0
F1047.0
tp556
atp557
atp558
a(F1124.0
F2.52
(lp559
(L0L
g114
(lp560
(g24
I0
F11.0
tp561
a(g26
F11.0
F377.0
tp562
a(g6
F377.0
F581.0
tp563
a(g70
F584.0
F587.0
tp564
a(g30
F587.0
F964.0
tp565
a(g16
F964.0
F1121.0
tp566
atp567
a(L2L
g114
(lp568
(g60
I0
F0.0
tp569
atp570
a(L4L
g114
(lp571
(g66
I0
F11.0
tp572
a(g43
F33.0
F249.0
tp573
a(g78
F249.0
F578.0
tp574
a(g28
F581.0
F584.0
tp575
a(g80
F584.0
F587.0
tp576
a(g10
F587.0
F590.0
tp577
a(g12
F590.0
F593.0
tp578
a(g51
F593.0
F597.0
tp579
a(g53
F597.0
F982.0
tp580
atp581
a(L5L
g2
(lp582
(g35
F1124.0
F1124.0
tp583
atp584
a(L17L
g114
(lp585
(g39
I0
F11.0
tp586
a(g49
F44.0
F459.0
tp587
a(g45
F587.0
F901.0
tp588
a(g14
F901.0
F904.0
tp589
a(g20
F904.0
F1092.0
tp590
a(g55
F1121.0
F1124.0
tp591
atp592
a(L25L
g114
(lp593
(g4
I0
F11.0
tp594
a(g64
F11.0
F22.0
tp595
a(g41
F22.0
F33.0
tp596
a(g76
F33.0
F44.0
tp597
a(g8
F44.0
F256.0
tp598
a(g68
F256.0
F576.0
tp599
a(g82
F593.0
F850.0
tp600
a(g18
F850.0
F853.0
tp601
a(g72
F853.0
F1078.0
tp602
atp603
atp604
a(F1230.0
F2.2
(lp605
(L0L
g114
(lp606
(g4
I0
F11.0
tp607
a(g64
F11.0
F22.0
tp608
a(g39
F22.0
F33.0
tp609
a(g41
F33.0
F44.0
tp610
a(g26
F44.0
F410.0
tp611
a(g6
F410.0
F614.0
tp612
a(g70
F653.0
F656.0
tp613
a(g30
F656.0
F1033.0
tp614
a(g20
F1033.0
F1221.0
tp615
atp616
a(L4L
g114
(lp617
(g66
I0
F11.0
tp618
a(g24
F11.0
F22.0
tp619
a(g43
F44.0
F260.0
tp620
a(g78
F260.0
F589.0
tp621
a(g80
F653.0
F656.0
tp622
a(g12
F656.0
F659.0
tp623
a(g53
F666.0
F1051.0
tp624
a(g14
F1051.0
F1054.0
tp625
a(g16
F1054.0
F1211.0
tp626
atp627
a(L7L
g114
(lp628
(g60
I0
F0.0
tp629
atp630
a(L17L
g114
(lp631
(g76
I0
F11.0
tp632
a(g49
F11.0
F426.0
tp633
a(g8
F426.0
F638.0
tp634
a(g28
F650.0
F653.0
tp635
a(g45
F656.0
F970.0
tp636
a(g82
F970.0
F1227.0
tp637
a(g55
F1227.0
F1230.0
tp638
atp639
a(L24L
g257
(lp640
(g35
F1230.0
F1230.0
tp641
atp642
a(L25L
g242
(lp643
(g68
F11.0
F650.0
tp644
a(g10
F653.0
F659.0
tp645
a(g51
F659.0
F666.0
tp646
a(g18
F666.0
F672.0
tp647
a(g72
F672.0
F1121.0
tp648
atp649
atp650
a(F1505.0
F2.05
(lp651
(L0L
g114
(lp652
(g24
I0
F11.0
tp653
a(g26
F11.0
F377.0
tp654
a(g43
F377.0
F593.0
tp655
a(g6
F593.0
F797.0
tp656
a(g28
F797.0
F800.0
tp657
a(g80
F800.0
F803.0
tp658
a(g70
F803.0
F806.0
tp659
a(g30
F806.0
F1183.0
tp660
a(g18
F1183.0
F1186.0
tp661
a(g20
F1186.0
F1374.0
tp662
atp663
a(L2L
g242
(lp664
(g60
I0
F0.0
tp665
atp666
a(L4L
g242
(lp667
(g4
I0
F22.0
tp668
a(g39
F22.0
F44.0
tp669
a(g78
F44.0
F703.0
tp670
a(g10
F800.0
F806.0
tp671
a(g82
F806.0
F1321.0
tp672
atp673
a(L17L
g114
(lp674
(g64
I0
F11.0
tp675
a(g41
F11.0
F22.0
tp676
a(g49
F22.0
F437.0
tp677
a(g8
F437.0
F649.0
tp678
a(g45
F803.0
F1117.0
tp679
a(g53
F1117.0
F1502.0
tp680
a(g55
F1502.0
F1505.0
tp681
atp682
a(L23L
g58
(lp683
(g14
F800.0
F814.0
tp684
a(g16
F814.0
F1496.0
tp685
atp686
a(L24L
g114
(lp687
(g35
F1505.0
F1505.0
tp688
atp689
a(L25L
g242
(lp690
(g76
I0
F22.0
tp691
a(g66
F22.0
F44.0
tp692
a(g68
F44.0
F683.0
tp693
a(g12
F800.0
F806.0
tp694
a(g51
F806.0
F813.0
tp695
a(g72
F813.0
F1262.0
tp696
atp697
atp698
a(F1528.0
F1.89
(lp699
(L0L
g114
(lp700
(g24
I0
F11.0
tp701
a(g26
F11.0
F377.0
tp702
a(g43
F377.0
F593.0
tp703
a(g6
F593.0
F797.0
tp704
a(g28
F797.0
F800.0
tp705
a(g70
F800.0
F803.0
tp706
a(g30
F803.0
F1180.0
tp707
a(g16
F1180.0
F1337.0
tp708
a(g20
F1337.0
F1525.0
tp709
atp710
a(L4L
g242
(lp711
(g4
I0
F22.0
tp712
a(g41
F22.0
F44.0
tp713
a(g66
F44.0
F66.0
tp714
a(g78
F66.0
F725.0
tp715
a(g80
F800.0
F807.0
tp716
a(g10
F807.0
F813.0
tp717
a(g82
F813.0
F1328.0
tp718
atp719
a(L9L
g33
(lp720
(g60
I0
F0.0
tp721
atp722
a(L17L
g114
(lp723
(g64
I0
F11.0
tp724
a(g39
F11.0
F22.0
tp725
a(g76
F22.0
F33.0
tp726
a(g49
F33.0
F448.0
tp727
a(g8
F448.0
F660.0
tp728
a(g45
F807.0
F1121.0
tp729
a(g53
F1121.0
F1506.0
tp730
a(g55
F1525.0
F1528.0
tp731
atp732
a(L24L
g114
(lp733
(g35
F1528.0
F1528.0
tp734
atp735
a(L25L
g242
(lp736
(g68
F66.0
F705.0
tp737
a(g12
F800.0
F806.0
tp738
a(g51
F806.0
F813.0
tp739
a(g14
F813.0
F819.0
tp740
a(g18
F819.0
F825.0
tp741
a(g72
F825.0
F1274.0
tp742
atp743
atp744
a(F1734.0
F1.73
(lp745
(L0L
g242
(lp746
(g39
I0
F22.0
tp747
a(g76
F22.0
F44.0
tp748
a(g24
F44.0
F66.0
tp749
a(g26
F66.0
F798.0
tp750
a(g18
F900.0
F906.0
tp751
a(g20
F906.0
F1282.0
tp752
a(g72
F1282.0
F1731.0
tp753
atp754
a(L4L
g242
(lp755
(g64
I0
F22.0
tp756
a(g66
F22.0
F44.0
tp757
a(g78
F44.0
F703.0
tp758
a(g82
F912.0
F1427.0
tp759
atp760
a(L6L
g257
(lp761
(g35
F1734.0
F1734.0
tp762
atp763
a(L17L
g114
(lp764
(g4
I0
F11.0
tp765
a(g49
F44.0
F459.0
tp766
a(g68
F459.0
F779.0
tp767
a(g28
F897.0
F900.0
tp768
a(g45
F914.0
F1228.0
tp769
a(g53
F1228.0
F1613.0
tp770
a(g55
F1731.0
F1734.0
tp771
atp772
a(L23L
g242
(lp773
(g41
I0
F22.0
tp774
a(g43
F22.0
F453.0
tp775
a(g8
F453.0
F877.0
tp776
a(g10
F900.0
F906.0
tp777
a(g12
F906.0
F912.0
tp778
a(g30
F928.0
F1682.0
tp779
atp780
a(L25L
g58
(lp781
(g6
F11.0
F897.0
tp782
a(g80
F900.0
F914.0
tp783
a(g70
F914.0
F928.0
tp784
a(g51
F928.0
F943.0
tp785
a(g14
F943.0
F957.0
tp786
a(g16
F957.0
F1639.0
tp787
atp788
a(L29L
g58
(lp789
(g60
I0
F0.0
tp790
atp791
atp792
a(F1848.0
F1.57
(lp793
(L0L
g114
(lp794
(g24
I0
F11.0
tp795
a(g26
F11.0
F377.0
tp796
a(g43
F377.0
F593.0
tp797
a(g6
F593.0
F797.0
tp798
a(g8
F797.0
F1009.0
tp799
a(g28
F1009.0
F1012.0
tp800
a(g12
F1012.0
F1015.0
tp801
a(g70
F1015.0
F1018.0
tp802
a(g30
F1018.0
F1395.0
tp803
a(g14
F1395.0
F1398.0
tp804
a(g18
F1398.0
F1401.0
tp805
a(g20
F1401.0
F1589.0
tp806
a(g72
F1589.0
F1814.0
tp807
a(g55
F1845.0
F1848.0
tp808
atp809
a(L4L
g242
(lp810
(g39
I0
F22.0
tp811
a(g78
F44.0
F703.0
tp812
a(g80
F1012.0
F1019.0
tp813
a(g10
F1019.0
F1025.0
tp814
a(g51
F1025.0
F1032.0
tp815
a(g53
F1032.0
F1803.0
tp816
atp817
a(L11L
g33
(lp818
(g60
I0
F0.0
tp819
atp820
a(L17L
g242
(lp821
(g4
I0
F22.0
tp822
a(g64
F22.0
F44.0
tp823
a(g41
F44.0
F66.0
tp824
a(g49
F66.0
F896.0
tp825
a(g82
F1015.0
F1530.0
tp826
a(g16
F1530.0
F1845.0
tp827
atp828
a(L21L
g257
(lp829
(g35
F1848.0
F1848.0
tp830
atp831
a(L25L
g242
(lp832
(g76
I0
F22.0
tp833
a(g66
F22.0
F44.0
tp834
a(g68
F44.0
F683.0
tp835
a(g45
F1019.0
F1647.0
tp836
atp837
atp838
a(F2116.0
F1.42
(lp839
(L0L
g242
(lp840
(g4
I0
F22.0
tp841
a(g64
F22.0
F44.0
tp842
a(g39
F44.0
F66.0
tp843
a(g24
F66.0
F88.0
tp844
a(g26
F88.0
F820.0
tp845
a(g28
F1092.0
F1099.0
tp846
a(g12
F1099.0
F1105.0
tp847
a(g70
F1105.0
F1112.0
tp848
a(g30
F1112.0
F1866.0
tp849
atp850
a(L4L
g242
(lp851
(g66
I0
F22.0
tp852
a(g6
F22.0
F431.0
tp853
a(g78
F431.0
F1090.0
tp854
a(g53
F1114.0
F1885.0
tp855
atp856
a(L16L
g58
(lp857
(g8
F66.0
F984.0
tp858
a(g51
F1099.0
F1114.0
tp859
a(g14
F1114.0
F1128.0
tp860
a(g16
F1128.0
F1810.0
tp861
atp862
a(L17L
g242
(lp863
(g76
I0
F22.0
tp864
a(g49
F22.0
F852.0
tp865
a(g80
F1099.0
F1106.0
tp866
a(g45
F1106.0
F1734.0
tp867
a(g20
F1734.0
F2110.0
tp868
a(g55
F2110.0
F2116.0
tp869
atp870
a(L18L
g242
(lp871
(g60
I0
F0.0
tp872
atp873
a(L25L
g242
(lp874
(g41
I0
F22.0
tp875
a(g43
F22.0
F453.0
tp876
a(g68
F453.0
F1092.0
tp877
a(g10
F1099.0
F1105.0
tp878
a(g82
F1105.0
F1620.0
tp879
a(g18
F1620.0
F1626.0
tp880
a(g72
F1626.0
F2075.0
tp881
atp882
a(L30L
Vapac-sin#m1.medium
p883
(lp884
(g35
F2116.0
F2116.0
tp885
atp886
atp887
a(F2252.0
F1.26
(lp888
(L0L
g242
(lp889
(g24
I0
F22.0
tp890
a(g26
F22.0
F754.0
tp891
a(g6
F754.0
F1163.0
tp892
a(g70
F1170.0
F1177.0
tp893
a(g30
F1177.0
F1931.0
tp894
a(g16
F1931.0
F2246.0
tp895
atp896
a(L4L
g242
(lp897
(g66
I0
F22.0
tp898
a(g43
F44.0
F475.0
tp899
a(g78
F475.0
F1134.0
tp900
a(g28
F1163.0
F1170.0
tp901
a(g80
F1170.0
F1177.0
tp902
a(g10
F1177.0
F1183.0
tp903
a(g12
F1183.0
F1189.0
tp904
a(g51
F1189.0
F1196.0
tp905
a(g53
F1196.0
F1967.0
tp906
atp907
a(L16L
g2
(lp908
(g35
F2252.0
F2252.0
tp909
atp910
a(L17L
g242
(lp911
(g4
I0
F22.0
tp912
a(g39
F22.0
F44.0
tp913
a(g49
F66.0
F896.0
tp914
a(g45
F1177.0
F1805.0
tp915
a(g14
F1805.0
F1811.0
tp916
a(g20
F1811.0
F2187.0
tp917
a(g55
F2246.0
F2252.0
tp918
atp919
a(L25L
g242
(lp920
(g64
I0
F22.0
tp921
a(g41
F22.0
F44.0
tp922
a(g76
F44.0
F66.0
tp923
a(g8
F66.0
F490.0
tp924
a(g68
F490.0
F1129.0
tp925
a(g82
F1189.0
F1704.0
tp926
a(g18
F1704.0
F1710.0
tp927
a(g72
F1710.0
F2159.0
tp928
atp929
a(L30L
g2
(lp930
(g60
I0
F0.0
tp931
atp932
atp933
a(F2570.0
F1.1
(lp934
(L0L
g242
(lp935
(g64
I0
F22.0
tp936
a(g39
F22.0
F44.0
tp937
a(g41
F44.0
F66.0
tp938
a(g26
F66.0
F798.0
tp939
a(g6
F798.0
F1207.0
tp940
a(g28
F1407.0
F1414.0
tp941
a(g70
F1414.0
F1421.0
tp942
a(g30
F1421.0
F2175.0
tp943
a(g18
F2175.0
F2181.0
tp944
a(g20
F2181.0
F2557.0
tp945
atp946
a(L4L
g242
(lp947
(g66
I0
F22.0
tp948
a(g24
F22.0
F44.0
tp949
a(g43
F66.0
F497.0
tp950
a(g78
F497.0
F1156.0
tp951
a(g80
F1414.0
F1421.0
tp952
a(g10
F1421.0
F1427.0
tp953
a(g53
F1442.0
F2213.0
tp954
a(g14
F2213.0
F2219.0
tp955
a(g16
F2219.0
F2534.0
tp956
atp957
a(L12L
Vapac-sin#m1.xlarge
p958
(lp959
(g35
F2570.0
F2570.0
tp960
atp961
a(L17L
g242
(lp962
(g4
I0
F22.0
tp963
a(g76
F22.0
F44.0
tp964
a(g49
F44.0
F874.0
tp965
a(g8
F874.0
F1298.0
tp966
a(g45
F1421.0
F2049.0
tp967
a(g82
F2049.0
F2564.0
tp968
a(g55
F2564.0
F2570.0
tp969
atp970
a(L19L
g958
(lp971
(g60
I0
F0.0
tp972
atp973
a(L25L
g58
(lp974
(g68
F22.0
F1407.0
tp975
a(g12
F1414.0
F1427.0
tp976
a(g51
F1427.0
F1442.0
tp977
a(g72
F1442.0
F2416.0
tp978
atp979
atp980
a(F3059.0
F0.95
(lp981
(L0L
g242
(lp982
(g24
I0
F22.0
tp983
a(g26
F22.0
F754.0
tp984
a(g43
F754.0
F1185.0
tp985
a(g6
F1185.0
F1594.0
tp986
a(g28
F1594.0
F1601.0
tp987
a(g70
F1601.0
F1608.0
tp988
a(g30
F1608.0
F2362.0
tp989
a(g16
F2362.0
F2677.0
tp990
a(g20
F2677.0
F3053.0
tp991
atp992
a(L17L
g242
(lp993
(g64
I0
F22.0
tp994
a(g41
F22.0
F44.0
tp995
a(g49
F97.0
F927.0
tp996
a(g8
F927.0
F1351.0
tp997
a(g45
F1615.0
F2243.0
tp998
a(g51
F2243.0
F2250.0
tp999
a(g53
F2250.0
F3021.0
tp1000
a(g55
F3053.0
F3059.0
tp1001
atp1002
a(L4L
g58
(lp1003
(g4
I0
F47.0
tp1004
a(g78
F47.0
F1474.0
tp1005
a(g80
F1601.0
F1615.0
tp1006
a(g10
F1615.0
F1629.0
tp1007
a(g82
F1629.0
F2745.0
tp1008
a(g35
F3059.0
F3059.0
tp1009
atp1010
a(L5L
g958
(lp1011
(g60
I0
F0.0
tp1012
atp1013
a(L25L
g58
(lp1014
(g39
I0
F49.0
tp1015
a(g76
F49.0
F97.0
tp1016
a(g66
F97.0
F144.0
tp1017
a(g68
F144.0
F1529.0
tp1018
a(g12
F1601.0
F1614.0
tp1019
a(g14
F1614.0
F1628.0
tp1020
a(g18
F1628.0
F1641.0
tp1021
a(g72
F1641.0
F2615.0
tp1022
atp1023
atp1024
a.