(lp0
(F15.0
F6.3
(lp1
(L0L
Vapac-sin#m3.2xlarge
p2
(lp3
(VID00004
p4
I0
F4.0
tp5
a(VID00005
p6
F4.0
F7.0
tp7
a(VID00012
p8
F7.0
F10.0
tp9
a(VID00016
p10
F10.0
F13.0
tp11
atp12
a(L7L
Vapac-sin#m1.xlarge
p13
(lp14
(S'entry'
p15
I0
F0.0
tp16
atp17
a(L10L
g13
(lp18
(VID00024
p19
F15.0
F15.0
tp20
atp21
a(L13L
g2
(lp22
(VID00015
p23
F10.0
F10.0
tp24
atp25
a(L15L
g2
(lp26
(VID00003
p27
I0
F4.0
tp28
a(VID00008
p29
F4.0
F7.0
tp30
a(VID00010
p31
F7.0
F10.0
tp32
a(VID00017
p33
F10.0
F13.0
tp34
a(VID00022
p35
F13.0
F14.0
tp36
a(VID00023
p37
F14.0
F15.0
tp38
a(S'exit'
p39
F15.0
F15.0
tp40
atp41
a(L16L
g2
(lp42
(VID00000
p43
I0
F4.0
tp44
a(VID00007
p45
F4.0
F7.0
tp46
a(VID00020
p47
F10.0
F13.0
tp48
atp49
a(L19L
g2
(lp50
(VID00002
p51
I0
F4.0
tp52
a(VID00013
p53
F4.0
F7.0
tp54
a(VID00011
p55
F7.0
F10.0
tp56
a(VID00014
p57
F10.0
F10.0
tp58
a(VID00019
p59
F10.0
F13.0
tp60
a(VID00021
p61
F13.0
F13.0
tp62
atp63
a(L20L
g2
(lp64
(VID00001
p65
I0
F4.0
tp66
a(VID00006
p67
F4.0
F7.0
tp68
a(VID00009
p69
F7.0
F10.0
tp70
a(VID00018
p71
F10.0
F13.0
tp72
atp73
atp74
a(F21.0
F5.04
(lp75
(L5L
g2
(lp76
(g51
I0
F4.0
tp77
a(g69
F4.0
F7.0
tp78
a(g29
F7.0
F10.0
tp79
a(g53
F10.0
F13.0
tp80
a(g59
F13.0
F16.0
tp81
atp82
a(L8L
Vapac-sin#m3.large
p83
(lp84
(g39
F21.0
F21.0
tp85
atp86
a(L10L
g2
(lp87
(g23
F13.0
F13.0
tp88
atp89
a(L13L
g2
(lp90
(g57
F13.0
F13.0
tp91
atp92
a(L14L
g2
(lp93
(g61
F19.0
F19.0
tp94
atp95
a(L15L
g2
(lp96
(g65
I0
F4.0
tp97
a(g67
F4.0
F7.0
tp98
a(g31
F7.0
F10.0
tp99
a(g35
F19.0
F20.0
tp100
a(g37
F20.0
F21.0
tp101
atp102
a(L16L
g2
(lp103
(g43
I0
F4.0
tp104
a(g27
F4.0
F8.0
tp105
a(g45
F8.0
F11.0
tp106
a(g33
F13.0
F16.0
tp107
a(g71
F16.0
F19.0
tp108
atp109
a(L19L
Vapac-sin#m3.xlarge
p110
(lp111
(g15
I0
F0.0
tp112
atp113
a(L20L
g2
(lp114
(g4
I0
F4.0
tp115
a(g6
F4.0
F7.0
tp116
a(g8
F7.0
F10.0
tp117
a(g55
F10.0
F13.0
tp118
a(g47
F13.0
F16.0
tp119
a(g10
F16.0
F19.0
tp120
atp121
a(L24L
g2
(lp122
(g19
F21.0
F21.0
tp123
atp124
atp125
a(F22.0
F4.41
(lp126
(L4L
g2
(lp127
(g57
F14.0
F14.0
tp128
atp129
a(L5L
g110
(lp130
(g51
I0
F8.0
tp131
a(g53
F8.0
F14.0
tp132
atp133
a(L13L
g2
(lp134
(g15
I0
F0.0
tp135
atp136
a(L14L
g2
(lp137
(g61
F20.0
F20.0
tp138
atp139
a(L15L
g2
(lp140
(g65
I0
F4.0
tp141
a(g67
F4.0
F7.0
tp142
a(g29
F8.0
F11.0
tp143
a(g31
F11.0
F14.0
tp144
a(g59
F14.0
F17.0
tp145
a(g35
F20.0
F21.0
tp146
a(g37
F21.0
F22.0
tp147
atp148
a(L16L
g2
(lp149
(g43
I0
F4.0
tp150
a(g27
F4.0
F8.0
tp151
a(g45
F8.0
F11.0
tp152
a(g8
F11.0
F14.0
tp153
a(g23
F14.0
F14.0
tp154
a(g33
F14.0
F17.0
tp155
a(g71
F17.0
F20.0
tp156
atp157
a(L18L
g13
(lp158
(g19
F22.0
F22.0
tp159
atp160
a(L20L
g2
(lp161
(g4
I0
F4.0
tp162
a(g6
F4.0
F7.0
tp163
a(g69
F8.0
F11.0
tp164
a(g55
F11.0
F14.0
tp165
a(g47
F14.0
F17.0
tp166
a(g10
F17.0
F20.0
tp167
atp168
a(L23L
Vapac-sin#m1.medium
p169
(lp170
(g39
F22.0
F22.0
tp171
atp172
atp173
a(F25.0
F3.78
(lp174
(L4L
g2
(lp175
(g57
F17.0
F17.0
tp176
atp177
a(L14L
g2
(lp178
(g61
F23.0
F23.0
tp179
atp180
a(L15L
g2
(lp181
(g4
I0
F4.0
tp182
a(g65
F4.0
F8.0
tp183
a(g67
F8.0
F11.0
tp184
a(g6
F11.0
F14.0
tp185
a(g31
F14.0
F17.0
tp186
a(g59
F17.0
F20.0
tp187
a(g35
F23.0
F24.0
tp188
a(g37
F24.0
F25.0
tp189
atp190
a(L16L
g2
(lp191
(g43
I0
F4.0
tp192
a(g27
F4.0
F8.0
tp193
a(g45
F8.0
F11.0
tp194
a(g29
F11.0
F14.0
tp195
a(g53
F14.0
F17.0
tp196
a(g23
F17.0
F17.0
tp197
a(g33
F17.0
F20.0
tp198
a(g71
F20.0
F23.0
tp199
atp200
a(L18L
g13
(lp201
(g19
F25.0
F25.0
tp202
atp203
a(L20L
g2
(lp204
(g51
I0
F4.0
tp205
a(g69
F8.0
F11.0
tp206
a(g8
F11.0
F14.0
tp207
a(g55
F14.0
F17.0
tp208
a(g47
F17.0
F20.0
tp209
a(g10
F20.0
F23.0
tp210
atp211
a(L23L
g169
(lp212
(g39
F25.0
F25.0
tp213
atp214
a(L24L
Vapac-sin#m1.large
p215
(lp216
(g15
I0
F0.0
tp217
atp218
atp219
a(F29.0
F3.15
(lp220
(L0L
g2
(lp221
(g4
I0
F4.0
tp222
a(g65
F4.0
F8.0
tp223
a(g67
F8.0
F11.0
tp224
a(g6
F11.0
F14.0
tp225
a(g45
F14.0
F17.0
tp226
a(g8
F17.0
F20.0
tp227
a(g71
F20.0
F23.0
tp228
a(g59
F23.0
F26.0
tp229
a(g35
F27.0
F28.0
tp230
a(g37
F28.0
F29.0
tp231
atp232
a(L5L
g110
(lp233
(g51
I0
F8.0
tp234
a(g69
F8.0
F14.0
tp235
a(g53
F14.0
F20.0
tp236
a(g47
F20.0
F27.0
tp237
atp238
a(L15L
g110
(lp239
(g27
I0
F8.0
tp240
a(g29
F8.0
F15.0
tp241
a(g33
F20.0
F27.0
tp242
atp243
a(L16L
g110
(lp244
(g43
I0
F8.0
tp245
a(g31
F8.0
F14.0
tp246
a(g55
F14.0
F20.0
tp247
a(g57
F20.0
F20.0
tp248
a(g10
F20.0
F26.0
tp249
atp250
a(L18L
g2
(lp251
(g61
F27.0
F27.0
tp252
atp253
a(L21L
g83
(lp254
(g39
F29.0
F29.0
tp255
atp256
a(L23L
g2
(lp257
(g23
F20.0
F20.0
tp258
atp259
a(L24L
g110
(lp260
(g19
F29.0
F29.0
tp261
atp262
a(L25L
g2
(lp263
(g15
I0
F0.0
tp264
atp265
atp266
a(F34.0
F2.83
(lp267
(L0L
g2
(lp268
(g65
I0
F4.0
tp269
a(g43
F4.0
F8.0
tp270
a(g67
F8.0
F11.0
tp271
a(g6
F11.0
F14.0
tp272
a(g45
F14.0
F17.0
tp273
a(g69
F17.0
F20.0
tp274
a(g8
F20.0
F23.0
tp275
a(g47
F23.0
F26.0
tp276
a(g71
F26.0
F29.0
tp277
a(g59
F29.0
F32.0
tp278
a(g61
F32.0
F32.0
tp279
a(g35
F32.0
F33.0
tp280
a(g37
F33.0
F34.0
tp281
atp282
a(L6L
g83
(lp283
(g4
I0
F17.0
tp284
a(g39
F34.0
F34.0
tp285
atp286
a(L15L
g110
(lp287
(g27
I0
F8.0
tp288
a(g29
F8.0
F15.0
tp289
a(g53
F17.0
F23.0
tp290
a(g33
F23.0
F30.0
tp291
atp292
a(L16L
g110
(lp293
(g51
I0
F8.0
tp294
a(g31
F8.0
F14.0
tp295
a(g55
F14.0
F20.0
tp296
a(g57
F23.0
F23.0
tp297
a(g10
F23.0
F29.0
tp298
atp299
a(L20L
g83
(lp300
(g15
I0
F0.0
tp301
atp302
a(L23L
g2
(lp303
(g23
F23.0
F23.0
tp304
atp305
a(L24L
g110
(lp306
(g19
F34.0
F34.0
tp307
atp308
atp309
a(F37.0
F2.52
(lp310
(L0L
g2
(lp311
(g4
I0
F4.0
tp312
a(g65
F4.0
F8.0
tp313
a(g43
F8.0
F12.0
tp314
a(g67
F12.0
F15.0
tp315
a(g6
F15.0
F18.0
tp316
a(g45
F18.0
F21.0
tp317
a(g8
F21.0
F24.0
tp318
a(g47
F26.0
F29.0
tp319
a(g71
F29.0
F32.0
tp320
a(g59
F32.0
F35.0
tp321
a(g61
F35.0
F35.0
tp322
a(g35
F35.0
F36.0
tp323
a(g37
F36.0
F37.0
tp324
atp325
a(L7L
g2
(lp326
(g15
I0
F0.0
tp327
atp328
a(L15L
g110
(lp329
(g27
I0
F8.0
tp330
a(g29
F12.0
F19.0
tp331
a(g53
F19.0
F25.0
tp332
a(g33
F26.0
F33.0
tp333
atp334
a(L16L
g110
(lp335
(g51
I0
F8.0
tp336
a(g69
F8.0
F14.0
tp337
a(g31
F14.0
F20.0
tp338
a(g55
F20.0
F26.0
tp339
a(g57
F26.0
F26.0
tp340
a(g10
F26.0
F32.0
tp341
atp342
a(L21L
g110
(lp343
(g39
F37.0
F37.0
tp344
atp345
a(L23L
g2
(lp346
(g23
F26.0
F26.0
tp347
atp348
a(L24L
g110
(lp349
(g19
F37.0
F37.0
tp350
atp351
atp352
a(F43.0
F2.2
(lp353
(L0L
g2
(lp354
(g65
I0
F4.0
tp355
a(g43
F4.0
F8.0
tp356
a(g67
F8.0
F11.0
tp357
a(g6
F11.0
F14.0
tp358
a(g45
F14.0
F17.0
tp359
a(g69
F17.0
F20.0
tp360
a(g8
F20.0
F23.0
tp361
a(g53
F23.0
F26.0
tp362
a(g55
F26.0
F29.0
tp363
a(g23
F29.0
F29.0
tp364
a(g47
F29.0
F32.0
tp365
a(g33
F32.0
F35.0
tp366
a(g71
F35.0
F38.0
tp367
a(g59
F38.0
F41.0
tp368
a(g61
F41.0
F41.0
tp369
a(g35
F41.0
F42.0
tp370
a(g37
F42.0
F43.0
tp371
atp372
a(L12L
g83
(lp373
(g4
I0
F17.0
tp374
atp375
a(L13L
g110
(lp376
(g15
I0
F0.0
tp377
atp378
a(L16L
g110
(lp379
(g27
I0
F8.0
tp380
a(g51
F8.0
F16.0
tp381
a(g29
F16.0
F23.0
tp382
a(g31
F23.0
F29.0
tp383
a(g10
F29.0
F35.0
tp384
atp385
a(L20L
g110
(lp386
(g57
F29.0
F29.0
tp387
atp388
a(L21L
g83
(lp389
(g39
F43.0
F43.0
tp390
atp391
a(L24L
g110
(lp392
(g19
F43.0
F43.0
tp393
atp394
atp395
a(F47.0
F1.89
(lp396
(L0L
g2
(lp397
(g15
I0
F0.0
tp398
a(g4
I0
F4.0
tp399
a(g65
F4.0
F8.0
tp400
a(g43
F8.0
F12.0
tp401
a(g67
F12.0
F15.0
tp402
a(g6
F15.0
F18.0
tp403
a(g45
F18.0
F21.0
tp404
a(g69
F21.0
F24.0
tp405
a(g8
F24.0
F27.0
tp406
a(g53
F27.0
F30.0
tp407
a(g55
F30.0
F33.0
tp408
a(g23
F33.0
F33.0
tp409
a(g47
F33.0
F36.0
tp410
a(g33
F36.0
F39.0
tp411
a(g71
F39.0
F42.0
tp412
a(g59
F42.0
F45.0
tp413
a(g61
F45.0
F45.0
tp414
a(g35
F45.0
F46.0
tp415
a(g37
F46.0
F47.0
tp416
atp417
a(L16L
g110
(lp418
(g27
I0
F8.0
tp419
a(g51
F8.0
F16.0
tp420
a(g29
F16.0
F23.0
tp421
a(g31
F23.0
F29.0
tp422
a(g10
F33.0
F39.0
tp423
atp424
a(L11L
g215
(lp425
(g39
F47.0
F47.0
tp426
atp427
a(L20L
g110
(lp428
(g57
F33.0
F33.0
tp429
atp430
a(L24L
g110
(lp431
(g19
F47.0
F47.0
tp432
atp433
atp434
a(F52.0
F1.73
(lp435
(L0L
g2
(lp436
(g4
I0
F4.0
tp437
a(g65
F4.0
F8.0
tp438
a(g43
F8.0
F12.0
tp439
a(g67
F12.0
F15.0
tp440
a(g6
F15.0
F18.0
tp441
a(g27
F18.0
F22.0
tp442
a(g45
F22.0
F25.0
tp443
a(g69
F25.0
F28.0
tp444
a(g29
F28.0
F31.0
tp445
a(g53
F31.0
F34.0
tp446
a(g55
F34.0
F37.0
tp447
a(g47
F37.0
F40.0
tp448
a(g33
F40.0
F43.0
tp449
a(g71
F43.0
F46.0
tp450
a(g59
F46.0
F49.0
tp451
a(g61
F50.0
F50.0
tp452
a(g35
F50.0
F51.0
tp453
a(g37
F51.0
F52.0
tp454
atp455
a(L2L
Vapac-sin#m3.medium
p456
(lp457
(g8
F8.0
F36.0
tp458
atp459
a(L4L
g2
(lp460
(g23
F37.0
F37.0
tp461
atp462
a(L7L
g110
(lp463
(g15
I0
F0.0
tp464
atp465
a(L16L
g83
(lp466
(g51
I0
F16.0
tp467
a(g31
F16.0
F29.0
tp468
a(g10
F37.0
F50.0
tp469
atp470
a(L20L
g2
(lp471
(g57
F37.0
F37.0
tp472
atp473
a(L21L
Vapac-sin#m1.small
p474
(lp475
(g39
F52.0
F52.0
tp476
atp477
a(L24L
g2
(lp478
(g19
F52.0
F52.0
tp479
atp480
atp481
a(F55.0
F1.57
(lp482
(L0L
g2
(lp483
(g15
I0
F0.0
tp484
a(g4
I0
F4.0
tp485
a(g65
F4.0
F8.0
tp486
a(g43
F8.0
F12.0
tp487
a(g67
F12.0
F15.0
tp488
a(g6
F15.0
F18.0
tp489
a(g27
F18.0
F22.0
tp490
a(g45
F22.0
F25.0
tp491
a(g69
F25.0
F28.0
tp492
a(g29
F28.0
F31.0
tp493
a(g8
F31.0
F34.0
tp494
a(g53
F34.0
F37.0
tp495
a(g55
F37.0
F40.0
tp496
a(g23
F40.0
F40.0
tp497
a(g47
F40.0
F43.0
tp498
a(g33
F43.0
F46.0
tp499
a(g71
F46.0
F49.0
tp500
a(g59
F49.0
F52.0
tp501
a(g61
F53.0
F53.0
tp502
a(g35
F53.0
F54.0
tp503
a(g37
F54.0
F55.0
tp504
atp505
a(L16L
g83
(lp506
(g51
I0
F16.0
tp507
a(g31
F16.0
F29.0
tp508
a(g10
F40.0
F53.0
tp509
atp510
a(L20L
g2
(lp511
(g57
F40.0
F40.0
tp512
atp513
a(L21L
g110
(lp514
(g39
F55.0
F55.0
tp515
atp516
a(L24L
g110
(lp517
(g19
F55.0
F55.0
tp518
atp519
atp520
a(F61.0
F1.42
(lp521
(L0L
g2
(lp522
(g4
I0
F4.0
tp523
a(g65
F4.0
F8.0
tp524
a(g43
F8.0
F12.0
tp525
a(g67
F12.0
F15.0
tp526
a(g6
F15.0
F18.0
tp527
a(g27
F18.0
F22.0
tp528
a(g45
F22.0
F25.0
tp529
a(g51
F25.0
F29.0
tp530
a(g69
F29.0
F32.0
tp531
a(g29
F32.0
F35.0
tp532
a(g53
F35.0
F38.0
tp533
a(g31
F38.0
F41.0
tp534
a(g55
F41.0
F44.0
tp535
a(g47
F44.0
F47.0
tp536
a(g33
F47.0
F50.0
tp537
a(g10
F50.0
F53.0
tp538
a(g71
F53.0
F56.0
tp539
a(g59
F56.0
F59.0
tp540
a(g35
F59.0
F60.0
tp541
a(g37
F60.0
F61.0
tp542
atp543
a(L1L
g474
(lp544
(g39
F61.0
F61.0
tp545
atp546
a(L7L
g456
(lp547
(g15
I0
F0.0
tp548
atp549
a(L12L
g2
(lp550
(g23
F44.0
F44.0
tp551
atp552
a(L13L
g2
(lp553
(g61
F59.0
F59.0
tp554
atp555
a(L21L
g2
(lp556
(g57
F44.0
F44.0
tp557
atp558
a(L22L
g456
(lp559
(g8
F8.0
F36.0
tp560
atp561
a(L24L
g110
(lp562
(g19
F61.0
F61.0
tp563
atp564
atp565
a(F64.0
F1.26
(lp566
(L0L
g2
(lp567
(g4
I0
F4.0
tp568
a(g65
F4.0
F8.0
tp569
a(g43
F8.0
F12.0
tp570
a(g67
F12.0
F15.0
tp571
a(g6
F15.0
F18.0
tp572
a(g27
F18.0
F22.0
tp573
a(g45
F22.0
F25.0
tp574
a(g51
F25.0
F29.0
tp575
a(g69
F29.0
F32.0
tp576
a(g29
F32.0
F35.0
tp577
a(g8
F35.0
F38.0
tp578
a(g53
F38.0
F41.0
tp579
a(g31
F41.0
F44.0
tp580
a(g55
F44.0
F47.0
tp581
a(g47
F47.0
F50.0
tp582
a(g33
F50.0
F53.0
tp583
a(g10
F53.0
F56.0
tp584
a(g71
F56.0
F59.0
tp585
a(g59
F59.0
F62.0
tp586
a(g35
F62.0
F63.0
tp587
a(g37
F63.0
F64.0
tp588
atp589
a(L1L
g169
(lp590
(g39
F64.0
F64.0
tp591
atp592
a(L14L
g2
(lp593
(g23
F47.0
F47.0
tp594
atp595
a(L20L
g2
(lp596
(g61
F62.0
F62.0
tp597
atp598
a(L24L
g110
(lp599
(g19
F64.0
F64.0
tp600
atp601
a(L25L
g215
(lp602
(g15
I0
F0.0
tp603
atp604
a(L26L
g110
(lp605
(g57
F47.0
F47.0
tp606
atp607
atp608
a(F93.0
F1.1
(lp609
(L0L
g110
(lp610
(g65
I0
F9.0
tp611
a(g43
F9.0
F17.0
tp612
a(g67
F17.0
F24.0
tp613
a(g6
F24.0
F31.0
tp614
a(g45
F31.0
F38.0
tp615
a(g69
F38.0
F44.0
tp616
a(g8
F44.0
F51.0
tp617
a(g53
F51.0
F57.0
tp618
a(g55
F57.0
F63.0
tp619
a(g57
F63.0
F63.0
tp620
a(g47
F63.0
F70.0
tp621
a(g71
F70.0
F77.0
tp622
a(g59
F77.0
F84.0
tp623
a(g35
F89.0
F91.0
tp624
a(g37
F91.0
F93.0
tp625
atp626
a(L4L
g2
(lp627
(g23
F63.0
F63.0
tp628
atp629
a(L6L
g456
(lp630
(g4
I0
F37.0
tp631
atp632
a(L9L
g2
(lp633
(g61
F89.0
F89.0
tp634
atp635
a(L11L
g13
(lp636
(g15
I0
F0.0
tp637
atp638
a(L16L
g83
(lp639
(g27
I0
F17.0
tp640
a(g51
F17.0
F33.0
tp641
a(g29
F33.0
F46.0
tp642
a(g31
F46.0
F59.0
tp643
a(g33
F63.0
F76.0
tp644
a(g10
F76.0
F89.0
tp645
atp646
a(L19L
g2
(lp647
(g19
F93.0
F93.0
tp648
atp649
a(L26L
g474
(lp650
(g39
F93.0
F93.0
tp651
atp652
atp653
a(F99.0
F0.94
(lp654
(L0L
g110
(lp655
(g4
I0
F8.0
tp656
a(g65
F8.0
F17.0
tp657
a(g43
F17.0
F25.0
tp658
a(g67
F25.0
F32.0
tp659
a(g6
F32.0
F39.0
tp660
a(g27
F39.0
F47.0
tp661
a(g45
F47.0
F54.0
tp662
a(g8
F54.0
F61.0
tp663
a(g53
F61.0
F67.0
tp664
a(g47
F69.0
F76.0
tp665
a(g71
F76.0
F83.0
tp666
a(g59
F83.0
F90.0
tp667
a(g35
F95.0
F97.0
tp668
a(g37
F97.0
F99.0
tp669
atp670
a(L6L
g83
(lp671
(g39
F99.0
F99.0
tp672
atp673
a(L9L
g110
(lp674
(g15
I0
F0.0
tp675
atp676
a(L14L
g110
(lp677
(g57
F69.0
F69.0
tp678
atp679
a(L16L
g83
(lp680
(g51
I0
F16.0
tp681
a(g69
F17.0
F30.0
tp682
a(g29
F30.0
F43.0
tp683
a(g31
F43.0
F56.0
tp684
a(g55
F56.0
F69.0
tp685
a(g33
F69.0
F82.0
tp686
a(g10
F82.0
F95.0
tp687
atp688
a(L19L
g2
(lp689
(g23
F69.0
F69.0
tp690
atp691
a(L20L
g2
(lp692
(g61
F95.0
F95.0
tp693
atp694
a(L24L
g110
(lp695
(g19
F99.0
F99.0
tp696
atp697
atp698
a(F118.0
F0.79
(lp699
(L0L
g110
(lp700
(g4
I0
F8.0
tp701
a(g65
F8.0
F17.0
tp702
a(g43
F17.0
F25.0
tp703
a(g67
F25.0
F32.0
tp704
a(g6
F32.0
F39.0
tp705
a(g27
F39.0
F47.0
tp706
a(g45
F47.0
F54.0
tp707
a(g69
F54.0
F60.0
tp708
a(g29
F60.0
F67.0
tp709
a(g8
F67.0
F74.0
tp710
a(g53
F74.0
F80.0
tp711
a(g55
F80.0
F86.0
tp712
a(g47
F86.0
F93.0
tp713
a(g33
F93.0
F100.0
tp714
a(g71
F100.0
F107.0
tp715
a(g59
F107.0
F114.0
tp716
a(g35
F114.0
F116.0
tp717
a(g37
F116.0
F118.0
tp718
atp719
a(L1L
g169
(lp720
(g39
F118.0
F118.0
tp721
atp722
a(L2L
g2
(lp723
(g15
I0
F0.0
tp724
atp725
a(L13L
g2
(lp726
(g61
F114.0
F114.0
tp727
atp728
a(L14L
g2
(lp729
(g57
F86.0
F86.0
tp730
atp731
a(L16L
g456
(lp732
(g51
I0
F36.0
tp733
a(g31
F36.0
F64.0
tp734
a(g10
F86.0
F114.0
tp735
atp736
a(L21L
g2
(lp737
(g23
F86.0
F86.0
tp738
atp739
a(L24L
g110
(lp740
(g19
F118.0
F118.0
tp741
atp742
atp743
a(F138.0
F0.63
(lp744
(L0L
g110
(lp745
(g4
I0
F8.0
tp746
a(g65
F8.0
F17.0
tp747
a(g43
F17.0
F25.0
tp748
a(g67
F25.0
F32.0
tp749
a(g6
F32.0
F39.0
tp750
a(g27
F39.0
F47.0
tp751
a(g45
F47.0
F54.0
tp752
a(g51
F54.0
F62.0
tp753
a(g69
F62.0
F68.0
tp754
a(g29
F68.0
F75.0
tp755
a(g8
F75.0
F82.0
tp756
a(g53
F82.0
F88.0
tp757
a(g31
F88.0
F94.0
tp758
a(g55
F94.0
F100.0
tp759
a(g47
F100.0
F107.0
tp760
a(g33
F107.0
F114.0
tp761
a(g10
F114.0
F120.0
tp762
a(g71
F120.0
F127.0
tp763
a(g59
F127.0
F134.0
tp764
a(g35
F134.0
F136.0
tp765
a(g37
F136.0
F138.0
tp766
atp767
a(L1L
g215
(lp768
(g39
F138.0
F138.0
tp769
atp770
a(L7L
g2
(lp771
(g15
I0
F0.0
tp772
atp773
a(L13L
g2
(lp774
(g61
F134.0
F134.0
tp775
atp776
a(L14L
g2
(lp777
(g23
F100.0
F100.0
tp778
atp779
a(L24L
g110
(lp780
(g19
F138.0
F138.0
tp781
atp782
a(L26L
g110
(lp783
(g57
F100.0
F100.0
tp784
atp785
atp786
a(F190.0
F0.55
(lp787
(L0L
g83
(lp788
(g4
I0
F17.0
tp789
a(g65
F17.0
F34.0
tp790
a(g43
F34.0
F50.0
tp791
a(g67
F50.0
F63.0
tp792
a(g6
F63.0
F76.0
tp793
a(g45
F76.0
F89.0
tp794
a(g69
F89.0
F102.0
tp795
a(g8
F102.0
F115.0
tp796
a(g55
F115.0
F128.0
tp797
a(g47
F129.0
F142.0
tp798
a(g33
F142.0
F155.0
tp799
a(g71
F155.0
F168.0
tp800
a(g59
F168.0
F181.0
tp801
a(g35
F181.0
F185.0
tp802
a(g37
F185.0
F190.0
tp803
atp804
a(L7L
g2
(lp805
(g15
I0
F0.0
tp806
atp807
a(L8L
g215
(lp808
(g39
F190.0
F190.0
tp809
atp810
a(L11L
g2
(lp811
(g61
F181.0
F181.0
tp812
atp813
a(L16L
g456
(lp814
(g27
I0
F36.0
tp815
a(g51
F36.0
F72.0
tp816
a(g29
F72.0
F101.0
tp817
a(g31
F101.0
F129.0
tp818
a(g10
F129.0
F157.0
tp819
atp820
a(L18L
g474
(lp821
(g53
F36.0
F119.0
tp822
atp823
a(L20L
g2
(lp824
(g57
F129.0
F129.0
tp825
atp826
a(L21L
g2
(lp827
(g23
F129.0
F129.0
tp828
atp829
a(L24L
g110
(lp830
(g19
F190.0
F190.0
tp831
atp832
atp833
a(F202.0
F0.47
(lp834
(L0L
g83
(lp835
(g4
I0
F17.0
tp836
a(g65
F17.0
F34.0
tp837
a(g43
F34.0
F50.0
tp838
a(g67
F50.0
F63.0
tp839
a(g6
F63.0
F76.0
tp840
a(g45
F76.0
F89.0
tp841
a(g69
F89.0
F102.0
tp842
a(g8
F102.0
F115.0
tp843
a(g53
F115.0
F128.0
tp844
a(g55
F128.0
F141.0
tp845
a(g47
F141.0
F154.0
tp846
a(g33
F154.0
F167.0
tp847
a(g71
F167.0
F180.0
tp848
a(g59
F180.0
F193.0
tp849
a(g35
F193.0
F197.0
tp850
a(g37
F197.0
F202.0
tp851
atp852
a(L7L
g2
(lp853
(g15
I0
F0.0
tp854
atp855
a(L10L
g2
(lp856
(g39
F202.0
F202.0
tp857
atp858
a(L13L
g2
(lp859
(g61
F193.0
F193.0
tp860
atp861
a(L16L
g456
(lp862
(g27
I0
F36.0
tp863
a(g51
F36.0
F72.0
tp864
a(g29
F72.0
F101.0
tp865
a(g31
F101.0
F129.0
tp866
a(g10
F141.0
F169.0
tp867
atp868
a(L21L
g2
(lp869
(g23
F141.0
F141.0
tp870
atp871
a(L22L
g2
(lp872
(g57
F141.0
F141.0
tp873
atp874
a(L24L
g13
(lp875
(g19
F202.0
F202.0
tp876
atp877
atp878
a(F257.0
F0.39
(lp879
(L0L
g83
(lp880
(g65
I0
F17.0
tp881
a(g43
F17.0
F33.0
tp882
a(g67
F33.0
F46.0
tp883
a(g6
F46.0
F59.0
tp884
a(g27
F59.0
F76.0
tp885
a(g45
F76.0
F89.0
tp886
a(g51
F89.0
F105.0
tp887
a(g69
F105.0
F118.0
tp888
a(g29
F118.0
F131.0
tp889
a(g8
F131.0
F144.0
tp890
a(g53
F144.0
F157.0
tp891
a(g31
F157.0
F170.0
tp892
a(g55
F170.0
F183.0
tp893
a(g47
F183.0
F196.0
tp894
a(g33
F196.0
F209.0
tp895
a(g10
F209.0
F222.0
tp896
a(g71
F222.0
F235.0
tp897
a(g59
F235.0
F248.0
tp898
a(g35
F248.0
F252.0
tp899
a(g37
F252.0
F257.0
tp900
atp901
a(L1L
g474
(lp902
(g4
I0
F110.0
tp903
atp904
a(L7L
g83
(lp905
(g15
I0
F0.0
tp906
atp907
a(L10L
g110
(lp908
(g39
F257.0
F257.0
tp909
atp910
a(L14L
g2
(lp911
(g23
F183.0
F183.0
tp912
atp913
a(L20L
g2
(lp914
(g61
F248.0
F248.0
tp915
atp916
a(L24L
g110
(lp917
(g19
F257.0
F257.0
tp918
atp919
a(L26L
g110
(lp920
(g57
F183.0
F183.0
tp921
atp922
atp923
a(F274.0
F0.31
(lp924
(L0L
g83
(lp925
(g15
I0
F0.0
tp926
a(g4
I0
F17.0
tp927
a(g65
F17.0
F34.0
tp928
a(g43
F34.0
F50.0
tp929
a(g67
F50.0
F63.0
tp930
a(g6
F63.0
F76.0
tp931
a(g27
F76.0
F93.0
tp932
a(g45
F93.0
F106.0
tp933
a(g51
F106.0
F122.0
tp934
a(g69
F122.0
F135.0
tp935
a(g29
F135.0
F148.0
tp936
a(g8
F148.0
F161.0
tp937
a(g53
F161.0
F174.0
tp938
a(g31
F174.0
F187.0
tp939
a(g55
F187.0
F200.0
tp940
a(g47
F200.0
F213.0
tp941
a(g33
F213.0
F226.0
tp942
a(g10
F226.0
F239.0
tp943
a(g71
F239.0
F252.0
tp944
a(g59
F252.0
F265.0
tp945
a(g35
F265.0
F269.0
tp946
a(g37
F269.0
F274.0
tp947
atp948
a(L10L
g110
(lp949
(g39
F274.0
F274.0
tp950
atp951
a(L14L
g2
(lp952
(g23
F200.0
F200.0
tp953
atp954
a(L20L
g2
(lp955
(g61
F265.0
F265.0
tp956
atp957
a(L24L
g110
(lp958
(g19
F274.0
F274.0
tp959
atp960
a(L26L
g110
(lp961
(g57
F200.0
F200.0
tp962
atp963
atp964
a(F476.0
F0.24
(lp965
(L0L
g456
(lp966
(g4
I0
F37.0
tp967
a(g65
F37.0
F74.0
tp968
a(g43
F74.0
F110.0
tp969
a(g67
F110.0
F138.0
tp970
a(g6
F138.0
F166.0
tp971
a(g27
F166.0
F202.0
tp972
a(g45
F202.0
F231.0
tp973
a(g69
F231.0
F259.0
tp974
a(g8
F259.0
F287.0
tp975
a(g53
F287.0
F315.0
tp976
a(g55
F315.0
F343.0
tp977
a(g47
F343.0
F372.0
tp978
a(g33
F372.0
F400.0
tp979
a(g71
F400.0
F429.0
tp980
a(g59
F429.0
F458.0
tp981
a(g35
F458.0
F466.0
tp982
a(g37
F466.0
F476.0
tp983
atp984
a(L2L
g2
(lp985
(g61
F458.0
F458.0
tp986
atp987
a(L4L
g110
(lp988
(g15
I0
F0.0
tp989
atp990
a(L7L
g13
(lp991
(g19
F476.0
F476.0
tp992
atp993
a(L14L
g2
(lp994
(g57
F343.0
F343.0
tp995
atp996
a(L16L
g474
(lp997
(g51
I0
F107.0
tp998
a(g29
F110.0
F196.0
tp999
a(g31
F196.0
F280.0
tp1000
a(g10
F343.0
F426.0
tp1001
atp1002
a(L22L
g456
(lp1003
(g39
F476.0
F476.0
tp1004
atp1005
a(L26L
g2
(lp1006
(g23
F343.0
F343.0
tp1007
atp1008
atp1009
a(F597.0
F0.16
(lp1010
(L0L
g456
(lp1011
(g4
I0
F37.0
tp1012
a(g65
F37.0
F74.0
tp1013
a(g43
F74.0
F110.0
tp1014
a(g67
F110.0
F138.0
tp1015
a(g6
F138.0
F166.0
tp1016
a(g27
F166.0
F202.0
tp1017
a(g45
F202.0
F231.0
tp1018
a(g51
F231.0
F267.0
tp1019
a(g69
F267.0
F295.0
tp1020
a(g29
F295.0
F324.0
tp1021
a(g8
F324.0
F352.0
tp1022
a(g53
F352.0
F380.0
tp1023
a(g31
F380.0
F408.0
tp1024
a(g55
F408.0
F436.0
tp1025
a(g47
F436.0
F465.0
tp1026
a(g33
F465.0
F493.0
tp1027
a(g10
F493.0
F521.0
tp1028
a(g71
F521.0
F550.0
tp1029
a(g59
F550.0
F579.0
tp1030
a(g35
F579.0
F587.0
tp1031
a(g37
F587.0
F597.0
tp1032
atp1033
a(L1L
g474
(lp1034
(g39
F597.0
F597.0
tp1035
atp1036
a(L7L
g456
(lp1037
(g15
I0
F0.0
tp1038
atp1039
a(L14L
g2
(lp1040
(g23
F436.0
F436.0
tp1041
atp1042
a(L20L
g2
(lp1043
(g61
F579.0
F579.0
tp1044
atp1045
a(L24L
g110
(lp1046
(g19
F597.0
F597.0
tp1047
atp1048
a(L26L
g110
(lp1049
(g57
F436.0
F436.0
tp1050
atp1051
atp1052
a(F1790.0
F0.08
(lp1053
(L0L
g474
(lp1054
(g4
I0
F110.0
tp1055
a(g65
F110.0
F221.0
tp1056
a(g43
F221.0
F328.0
tp1057
a(g67
F328.0
F413.0
tp1058
a(g6
F413.0
F498.0
tp1059
a(g27
F498.0
F607.0
tp1060
a(g45
F607.0
F694.0
tp1061
a(g51
F694.0
F801.0
tp1062
a(g69
F801.0
F885.0
tp1063
a(g29
F885.0
F971.0
tp1064
a(g8
F971.0
F1056.0
tp1065
a(g53
F1056.0
F1139.0
tp1066
a(g31
F1139.0
F1223.0
tp1067
a(g55
F1223.0
F1307.0
tp1068
a(g47
F1307.0
F1393.0
tp1069
a(g33
F1393.0
F1478.0
tp1070
a(g10
F1478.0
F1561.0
tp1071
a(g71
F1561.0
F1648.0
tp1072
a(g59
F1648.0
F1735.0
tp1073
a(g35
F1735.0
F1759.0
tp1074
a(g37
F1759.0
F1790.0
tp1075
atp1076
a(L7L
g456
(lp1077
(g15
I0
F0.0
tp1078
atp1079
a(L8L
g215
(lp1080
(g39
F1790.0
F1790.0
tp1081
atp1082
a(L9L
g13
(lp1083
(g19
F1790.0
F1790.0
tp1084
atp1085
a(L12L
g2
(lp1086
(g23
F1307.0
F1307.0
tp1087
atp1088
a(L13L
g2
(lp1089
(g61
F1735.0
F1735.0
tp1090
atp1091
a(L21L
g2
(lp1092
(g57
F1307.0
F1307.0
tp1093
atp1094
atp1095
a.