(lp0
(F1429.0
F4.57
(lp1
(L2L
Vapac-sin#m3.2xlarge
p2
(lp3
(VID00005
p4
I0
F0.0
tp5
a(VID00040
p6
I0
F0.0
tp7
atp8
a(L3L
Vapac-sin#m1.small
p9
(lp10
(VID00036
p11
I0
F14.0
tp12
a(VID00049
p13
F14.0
F275.0
tp14
a(VID00048
p15
F275.0
F470.0
tp16
a(VID00038
p17
F470.0
F484.0
tp18
a(VID00011
p19
F484.0
F497.0
tp20
a(VID00018
p21
F497.0
F812.0
tp22
a(VID00023
p23
F1025.0
F1065.0
tp24
a(VID00026
p25
F1065.0
F1114.0
tp26
atp27
a(L4L
Vapac-sin#m1.large
p28
(lp29
(S'exit'
p30
F1429.0
F1429.0
tp31
atp32
a(L6L
g2
(lp33
(VID00009
p34
I0
F0.0
tp35
atp36
a(L8L
g2
(lp37
(VID00015
p38
I0
F0.0
tp39
atp40
a(L11L
g2
(lp41
(VID00046
p42
I0
F0.0
tp43
a(VID00041
p44
I0
F0.0
tp45
atp46
a(L12L
Vapac-sin#m3.xlarge
p47
(lp48
(VID00017
p49
I0
F777.0
tp50
atp51
a(L14L
g2
(lp52
(VID00043
p53
I0
F0.0
tp54
a(VID00004
p55
I0
F0.0
tp56
a(VID00003
p57
I0
F1.0
tp58
a(VID00050
p59
F1.0
F636.0
tp60
a(VID00051
p61
F636.0
F699.0
tp62
a(VID00019
p63
F699.0
F713.0
tp64
a(VID00021
p65
F932.0
F1025.0
tp66
a(VID00024
p67
F1025.0
F1428.0
tp68
a(VID00057
p69
F1428.0
F1429.0
tp70
atp71
a(L16L
Vapac-sin#m3.medium
p72
(lp73
(VID00000
p74
F699.0
F699.0
tp75
atp76
a(L25L
g2
(lp77
(VID00007
p78
I0
F0.0
tp79
atp80
a(L28L
g2
(lp81
(VID00014
p82
I0
F0.0
tp83
atp84
a(L30L
g2
(lp85
(VID00016
p86
I0
F0.0
tp87
atp88
a(L33L
g47
(lp89
(VID00028
p90
F1032.0
F1032.0
tp91
atp92
a(L34L
g2
(lp93
(VID00012
p94
I0
F0.0
tp95
atp96
a(L38L
g2
(lp97
(VID00002
p98
I0
F0.0
tp99
atp100
a(L39L
g2
(lp101
(VID00006
p102
I0
F0.0
tp103
a(VID00047
p104
I0
F557.0
tp105
atp106
a(L44L
g2
(lp107
(VID00022
p108
F1025.0
F1025.0
tp109
atp110
a(L47L
g2
(lp111
(VID00001
p112
I0
F0.0
tp113
a(VID00010
p114
I0
F0.0
tp115
atp116
a(L48L
g2
(lp117
(VID00029
p118
I0
F0.0
tp119
atp120
a(L49L
g2
(lp121
(VID00052
p122
F699.0
F699.0
tp123
a(VID00013
p124
F699.0
F699.0
tp125
a(VID00030
p126
F699.0
F699.0
tp127
atp128
a(L52L
g2
(lp129
(VID00032
p130
I0
F0.0
tp131
atp132
a(L54L
g72
(lp133
(S'entry'
p134
I0
F0.0
tp135
atp136
a(L55L
g9
(lp137
(VID00037
p138
I0
F14.0
tp139
a(VID00039
p140
F14.0
F23.0
tp141
a(VID00044
p142
F23.0
F31.0
tp143
a(VID00055
p144
F699.0
F963.0
tp145
a(VID00056
p146
F963.0
F1012.0
tp147
a(VID00035
p148
F1012.0
F1022.0
tp149
a(VID00031
p150
F1022.0
F1032.0
tp151
atp152
a(L56L
g2
(lp153
(VID00042
p154
I0
F0.0
tp155
a(VID00033
p156
I0
F0.0
tp157
a(VID00034
p158
I0
F0.0
tp159
atp160
a(L57L
g2
(lp161
(VID00008
p162
I0
F0.0
tp163
a(VID00020
p164
I0
F932.0
tp165
a(VID00045
p166
F932.0
F932.0
tp167
a(VID00053
p168
F932.0
F934.0
tp169
a(VID00054
p170
F934.0
F1368.0
tp171
a(VID00025
p172
F1368.0
F1378.0
tp173
a(VID00027
p174
F1428.0
F1429.0
tp175
atp176
atp177
a(F1443.0
F3.94
(lp178
(L2L
g2
(lp179
(g4
I0
F0.0
tp180
a(g6
I0
F0.0
tp181
atp182
a(L3L
g9
(lp183
(g11
I0
F14.0
tp184
a(g15
F14.0
F209.0
tp185
a(g19
F209.0
F222.0
tp186
a(g21
F222.0
F537.0
tp187
a(g23
F1039.0
F1079.0
tp188
a(g25
F1079.0
F1128.0
tp189
atp190
a(L6L
g2
(lp191
(g34
I0
F0.0
tp192
atp193
a(L8L
g2
(lp194
(g44
I0
F0.0
tp195
a(g38
I0
F0.0
tp196
atp197
a(L11L
g2
(lp198
(g42
I0
F0.0
tp199
atp200
a(L14L
g2
(lp201
(g53
I0
F0.0
tp202
a(g55
I0
F0.0
tp203
a(g57
I0
F1.0
tp204
a(g59
F1.0
F636.0
tp205
a(g61
F636.0
F699.0
tp206
a(g146
F699.0
F701.0
tp207
a(g63
F701.0
F715.0
tp208
a(g65
F946.0
F1039.0
tp209
a(g67
F1039.0
F1442.0
tp210
a(g69
F1442.0
F1443.0
tp211
atp212
a(L16L
g72
(lp213
(g74
F1368.0
F1368.0
tp214
atp215
a(L17L
g28
(lp216
(g30
F1443.0
F1443.0
tp217
atp218
a(L25L
g2
(lp219
(g78
I0
F0.0
tp220
atp221
a(L28L
g2
(lp222
(g114
I0
F0.0
tp223
a(g82
I0
F0.0
tp224
atp225
a(L33L
g47
(lp226
(g90
F997.0
F997.0
tp227
atp228
a(L36L
g2
(lp229
(g94
I0
F0.0
tp230
atp231
a(L38L
g2
(lp232
(g98
I0
F0.0
tp233
atp234
a(L39L
g2
(lp235
(g102
I0
F0.0
tp236
a(g104
I0
F557.0
tp237
a(g49
F557.0
F946.0
tp238
atp239
a(L41L
g2
(lp240
(g140
I0
F0.0
tp241
atp242
a(L44L
g2
(lp243
(g108
F1039.0
F1039.0
tp244
atp245
a(L47L
g2
(lp246
(g112
I0
F0.0
tp247
atp248
a(L48L
g2
(lp249
(g118
I0
F0.0
tp250
atp251
a(L49L
g2
(lp252
(g122
F699.0
F699.0
tp253
a(g124
F699.0
F699.0
tp254
a(g126
F699.0
F699.0
tp255
atp256
a(L52L
g2
(lp257
(g130
I0
F0.0
tp258
atp259
a(L54L
g72
(lp260
(g134
I0
F0.0
tp261
atp262
a(L55L
g9
(lp263
(g138
I0
F14.0
tp264
a(g142
F14.0
F22.0
tp265
a(g13
F22.0
F283.0
tp266
a(g144
F699.0
F963.0
tp267
a(g17
F963.0
F977.0
tp268
a(g148
F977.0
F987.0
tp269
a(g150
F987.0
F997.0
tp270
atp271
a(L56L
g2
(lp272
(g154
I0
F0.0
tp273
a(g156
I0
F0.0
tp274
a(g158
I0
F0.0
tp275
atp276
a(L57L
g2
(lp277
(g162
I0
F0.0
tp278
a(g164
I0
F932.0
tp279
a(g166
F932.0
F932.0
tp280
a(g168
F932.0
F934.0
tp281
a(g170
F934.0
F1368.0
tp282
a(g86
F1368.0
F1368.0
tp283
a(g172
F1368.0
F1378.0
tp284
a(g174
F1442.0
F1443.0
tp285
atp286
atp287
a(F1611.0
F3.31
(lp288
(L0L
g2
(lp289
(g158
I0
F0.0
tp290
atp291
a(L2L
g2
(lp292
(g122
F1176.0
F1176.0
tp293
a(g38
F1176.0
F1176.0
tp294
a(g108
F1176.0
F1176.0
tp295
a(g6
F1176.0
F1176.0
tp296
atp297
a(L3L
g9
(lp298
(g168
F1176.0
F1217.0
tp299
a(g144
F1217.0
F1481.0
tp300
a(g146
F1481.0
F1530.0
tp301
a(g19
F1530.0
F1543.0
tp302
a(g86
F1543.0
F1554.0
tp303
a(g23
F1554.0
F1594.0
tp304
atp305
a(L8L
g2
(lp306
(g102
I0
F0.0
tp307
atp308
a(L12L
g2
(lp309
(g98
I0
F0.0
tp310
a(g44
I0
F0.0
tp311
atp312
a(L13L
g2
(lp313
(g53
I0
F0.0
tp314
atp315
a(L14L
g2
(lp316
(g11
I0
F1.0
tp317
a(g15
F1.0
F8.0
tp318
a(g59
F8.0
F643.0
tp319
a(g49
F643.0
F1032.0
tp320
a(g65
F1032.0
F1125.0
tp321
a(g67
F1125.0
F1528.0
tp322
a(g172
F1528.0
F1538.0
tp323
a(g69
F1610.0
F1611.0
tp324
atp325
a(L17L
Vapac-sin#m1.xlarge
p326
(lp327
(g30
F1611.0
F1611.0
tp328
atp329
a(L20L
g2
(lp330
(g162
I0
F0.0
tp331
a(g94
I0
F0.0
tp332
atp333
a(L21L
g2
(lp334
(g112
I0
F0.0
tp335
a(g34
I0
F0.0
tp336
atp337
a(L31L
g47
(lp338
(g104
I0
F1113.0
tp339
atp340
a(L33L
g326
(lp341
(g90
F1176.0
F1176.0
tp342
atp343
a(L34L
g2
(lp344
(g140
I0
F0.0
tp345
atp346
a(L37L
g9
(lp347
(g166
I0
F11.0
tp348
a(g17
F11.0
F25.0
tp349
a(g114
F25.0
F35.0
tp350
a(g21
F35.0
F350.0
tp351
a(g63
F350.0
F708.0
tp352
a(g25
F1125.0
F1174.0
tp353
atp354
a(L44L
g2
(lp355
(g142
I0
F0.0
tp356
atp357
a(L45L
g2
(lp358
(g148
I0
F0.0
tp359
atp360
a(L49L
g2
(lp361
(g124
I0
F0.0
tp362
a(g118
I0
F0.0
tp363
a(g126
I0
F0.0
tp364
atp365
a(L50L
g47
(lp366
(g74
F1554.0
F1554.0
tp367
atp368
a(L51L
g2
(lp369
(g42
I0
F0.0
tp370
a(g4
I0
F0.0
tp371
atp372
a(L52L
g2
(lp373
(g130
I0
F0.0
tp374
a(g82
I0
F0.0
tp375
atp376
a(L54L
g2
(lp377
(g134
I0
F0.0
tp378
atp379
a(L55L
g2
(lp380
(g55
I0
F0.0
tp381
a(g78
I0
F0.0
tp382
a(g150
I0
F0.0
tp383
atp384
a(L56L
g2
(lp385
(g154
I0
F0.0
tp386
a(g156
I0
F0.0
tp387
atp388
a(L57L
g2
(lp389
(g138
I0
F1.0
tp390
a(g57
F1.0
F2.0
tp391
a(g164
F2.0
F934.0
tp392
a(g13
F934.0
F944.0
tp393
a(g61
F1113.0
F1176.0
tp394
a(g170
F1176.0
F1610.0
tp395
a(g174
F1610.0
F1611.0
tp396
atp397
atp398
a(F1987.0
F2.68
(lp399
(L2L
g2
(lp400
(g122
F1552.0
F1552.0
tp401
a(g108
F1552.0
F1552.0
tp402
a(g6
F1552.0
F1552.0
tp403
atp404
a(L3L
g9
(lp405
(g34
I0
F10.0
tp406
a(g168
F1552.0
F1593.0
tp407
a(g144
F1593.0
F1857.0
tp408
a(g146
F1857.0
F1906.0
tp409
a(g19
F1906.0
F1919.0
tp410
a(g23
F1919.0
F1959.0
tp411
atp412
a(L4L
g47
(lp413
(g30
F1987.0
F1987.0
tp414
atp415
a(L37L
g9
(lp416
(g138
I0
F14.0
tp417
a(g13
F14.0
F275.0
tp418
a(g17
F275.0
F289.0
tp419
a(g124
F289.0
F298.0
tp420
a(g114
F298.0
F308.0
tp421
a(g21
F308.0
F623.0
tp422
a(g25
F1140.0
F1189.0
tp423
atp424
a(L7L
g72
(lp425
(g74
F1919.0
F1919.0
tp426
atp427
a(L8L
g2
(lp428
(g38
I0
F0.0
tp429
atp430
a(L41L
g2
(lp431
(g140
I0
F0.0
tp432
a(g86
I0
F0.0
tp433
atp434
a(L12L
g2
(lp435
(g98
I0
F0.0
tp436
a(g142
I0
F0.0
tp437
atp438
a(L14L
g2
(lp439
(g11
I0
F1.0
tp440
a(g57
F1.0
F2.0
tp441
a(g15
F2.0
F9.0
tp442
a(g59
F9.0
F644.0
tp443
a(g49
F644.0
F1033.0
tp444
a(g148
F1033.0
F1033.0
tp445
a(g63
F1033.0
F1047.0
tp446
a(g65
F1047.0
F1140.0
tp447
a(g67
F1140.0
F1543.0
tp448
a(g172
F1552.0
F1562.0
tp449
a(g69
F1986.0
F1987.0
tp450
atp451
a(L16L
g326
(lp452
(g90
F1552.0
F1552.0
tp453
atp454
a(L49L
g2
(lp455
(g102
I0
F0.0
tp456
a(g126
I0
F0.0
tp457
atp458
a(L51L
g2
(lp459
(g4
I0
F0.0
tp460
atp461
a(L52L
g2
(lp462
(g53
I0
F0.0
tp463
a(g55
I0
F0.0
tp464
a(g44
I0
F0.0
tp465
a(g82
I0
F0.0
tp466
a(g150
I0
F0.0
tp467
atp468
a(L21L
g2
(lp469
(g42
I0
F0.0
tp470
a(g158
I0
F0.0
tp471
atp472
a(L22L
g2
(lp473
(g130
I0
F0.0
tp474
a(g112
I0
F0.0
tp475
a(g118
I0
F0.0
tp476
atp477
a(L56L
g2
(lp478
(g162
I0
F0.0
tp479
a(g156
I0
F0.0
tp480
atp481
a(L57L
g2
(lp482
(g164
I0
F932.0
tp483
a(g104
F932.0
F1489.0
tp484
a(g61
F1489.0
F1552.0
tp485
a(g170
F1552.0
F1986.0
tp486
a(g174
F1986.0
F1987.0
tp487
atp488
a(L26L
g326
(lp489
(g134
I0
F0.0
tp490
atp491
a(L20L
g2
(lp492
(g166
I0
F0.0
tp493
a(g94
I0
F0.0
tp494
atp495
a(L31L
g2
(lp496
(g154
I0
F0.0
tp497
a(g78
I0
F0.0
tp498
atp499
atp500
a(F2390.0
F2.44
(lp501
(L1L
g2
(lp502
(g78
I0
F0.0
tp503
a(g162
I0
F0.0
tp504
a(g140
I0
F0.0
tp505
a(g114
I0
F0.0
tp506
atp507
a(L2L
g2
(lp508
(g166
I0
F0.0
tp509
a(g38
I0
F0.0
tp510
a(g6
I0
F0.0
tp511
atp512
a(L3L
g9
(lp513
(g130
I0
F12.0
tp514
a(g42
F12.0
F24.0
tp515
a(g57
F24.0
F38.0
tp516
a(g15
F38.0
F233.0
tp517
a(g124
F233.0
F242.0
tp518
a(g21
F242.0
F557.0
tp519
atp520
a(L4L
g72
(lp521
(g30
F2390.0
F2390.0
tp522
atp523
a(L37L
g9
(lp524
(g17
I0
F14.0
tp525
a(g19
F14.0
F27.0
tp526
a(g63
F27.0
F385.0
tp527
a(g108
F1930.0
F1941.0
tp528
a(g23
F1941.0
F1981.0
tp529
a(g25
F1981.0
F2030.0
tp530
atp531
a(L6L
g2
(lp532
(g86
I0
F0.0
tp533
atp534
a(L7L
g2
(lp535
(g44
I0
F0.0
tp536
atp537
a(L40L
g2
(lp538
(g82
I0
F0.0
tp539
atp540
a(L44L
g2
(lp541
(g112
I0
F0.0
tp542
a(g148
I0
F0.0
tp543
atp544
a(L45L
g2
(lp545
(g55
I0
F0.0
tp546
a(g118
I0
F0.0
tp547
atp548
a(L14L
g47
(lp549
(g53
I0
F1.0
tp550
a(g59
F1.0
F1272.0
tp551
a(g122
F1552.0
F1553.0
tp552
a(g69
F1986.0
F1987.0
tp553
atp554
a(L47L
g2
(lp555
(g98
I0
F0.0
tp556
atp557
a(L33L
Vapac-sin#m1.medium
p558
(lp559
(g90
F1916.0
F1916.0
tp560
atp561
a(L24L
Vapac-sin#m3.large
p562
(lp563
(g138
I0
F2.0
tp564
a(g102
F2.0
F4.0
tp565
a(g94
F4.0
F5.0
tp566
a(g49
F5.0
F1559.0
tp567
a(g65
F1559.0
F1930.0
tp568
a(g172
F1941.0
F1982.0
tp569
atp570
a(L22L
g28
(lp571
(g74
F242.0
F242.0
tp572
atp573
a(L55L
g9
(lp574
(g11
I0
F14.0
tp575
a(g13
F14.0
F275.0
tp576
a(g168
F1552.0
F1593.0
tp577
a(g144
F1593.0
F1857.0
tp578
a(g146
F1857.0
F1906.0
tp579
a(g150
F1906.0
F1916.0
tp580
atp581
a(L56L
g2
(lp582
(g134
I0
F0.0
tp583
a(g154
I0
F0.0
tp584
a(g142
I0
F0.0
tp585
a(g156
I0
F0.0
tp586
a(g158
I0
F0.0
tp587
atp588
a(L57L
g2
(lp589
(g164
I0
F932.0
tp590
a(g104
F932.0
F1489.0
tp591
a(g61
F1489.0
F1552.0
tp592
a(g170
F1552.0
F1986.0
tp593
a(g67
F1986.0
F2389.0
tp594
a(g174
F2389.0
F2390.0
tp595
atp596
a(L49L
g2
(lp597
(g126
I0
F0.0
tp598
atp599
a(L15L
g2
(lp600
(g34
I0
F0.0
tp601
atp602
a(L29L
g2
(lp603
(g4
I0
F0.0
tp604
atp605
atp606
a(F2545.0
F2.21
(lp607
(L0L
g47
(lp608
(g134
I0
F0.0
tp609
atp610
a(L2L
g2
(lp611
(g122
F1553.0
F1553.0
tp612
a(g148
F1553.0
F1553.0
tp613
a(g6
F1553.0
F1553.0
tp614
atp615
a(L3L
g9
(lp616
(g98
I0
F8.0
tp617
a(g15
F8.0
F203.0
tp618
a(g168
F1553.0
F1594.0
tp619
a(g144
F1594.0
F1858.0
tp620
a(g146
F1858.0
F1907.0
tp621
a(g19
F1907.0
F1920.0
tp622
a(g23
F2141.0
F2181.0
tp623
a(g30
F2545.0
F2545.0
tp624
atp625
a(L4L
g2
(lp626
(g44
I0
F0.0
tp627
atp628
a(L7L
g326
(lp629
(g74
F1920.0
F1920.0
tp630
atp631
a(L8L
g2
(lp632
(g38
I0
F0.0
tp633
a(g118
I0
F0.0
tp634
atp635
a(L12L
g2
(lp636
(g142
I0
F0.0
tp637
atp638
a(L13L
g2
(lp639
(g130
I0
F0.0
tp640
atp641
a(L14L
g47
(lp642
(g59
I0
F1271.0
tp643
a(g49
F1271.0
F2048.0
tp644
a(g69
F2048.0
F2049.0
tp645
atp646
a(L17L
g9
(lp647
(g13
I0
F261.0
tp648
atp649
a(L20L
g2
(lp650
(g34
I0
F0.0
tp651
atp652
a(L21L
g2
(lp653
(g53
I0
F0.0
tp654
atp655
a(L24L
g9
(lp656
(g63
I0
F358.0
tp657
a(g172
F2152.0
F2416.0
tp658
atp659
a(L26L
g2
(lp660
(g94
I0
F0.0
tp661
a(g86
I0
F0.0
tp662
atp663
a(L33L
g72
(lp664
(g90
F1553.0
F1553.0
tp665
atp666
a(L37L
g9
(lp667
(g11
I0
F14.0
tp668
a(g42
F14.0
F26.0
tp669
a(g57
F26.0
F40.0
tp670
a(g17
F40.0
F54.0
tp671
a(g21
F54.0
F369.0
tp672
a(g108
F2141.0
F2152.0
tp673
a(g25
F2152.0
F2201.0
tp674
atp675
a(L39L
g2
(lp676
(g154
I0
F0.0
tp677
a(g4
I0
F0.0
tp678
a(g78
I0
F0.0
tp679
a(g166
I0
F0.0
tp680
atp681
a(L40L
g2
(lp682
(g112
I0
F0.0
tp683
a(g124
I0
F0.0
tp684
a(g114
I0
F0.0
tp685
atp686
a(L41L
g2
(lp687
(g140
I0
F0.0
tp688
atp689
a(L44L
g2
(lp690
(g55
I0
F0.0
tp691
a(g162
I0
F0.0
tp692
a(g82
I0
F0.0
tp693
atp694
a(L45L
g2
(lp695
(g150
I0
F0.0
tp696
atp697
a(L49L
g2
(lp698
(g126
I0
F0.0
tp699
atp700
a(L56L
g2
(lp701
(g102
I0
F0.0
tp702
a(g156
I0
F0.0
tp703
a(g158
I0
F0.0
tp704
atp705
a(L57L
g2
(lp706
(g138
I0
F1.0
tp707
a(g164
F1.0
F933.0
tp708
a(g104
F933.0
F1490.0
tp709
a(g61
F1490.0
F1553.0
tp710
a(g170
F1553.0
F1987.0
tp711
a(g65
F2048.0
F2141.0
tp712
a(g67
F2141.0
F2544.0
tp713
a(g174
F2544.0
F2545.0
tp714
atp715
atp716
a(F2565.0
F2.13
(lp717
(L0L
g2
(lp718
(g134
I0
F0.0
tp719
atp720
a(L2L
g2
(lp721
(g148
I0
F0.0
tp722
a(g6
I0
F0.0
tp723
atp724
a(L3L
g9
(lp725
(g98
I0
F8.0
tp726
a(g15
F8.0
F203.0
tp727
a(g168
F1553.0
F1594.0
tp728
a(g144
F1594.0
F1858.0
tp729
a(g146
F1858.0
F1907.0
tp730
a(g19
F1907.0
F1920.0
tp731
a(g23
F2161.0
F2201.0
tp732
a(g30
F2565.0
F2565.0
tp733
atp734
a(L4L
g2
(lp735
(g44
I0
F0.0
tp736
atp737
a(L6L
g2
(lp738
(g124
I0
F0.0
tp739
atp740
a(L7L
g326
(lp741
(g74
F1920.0
F1920.0
tp742
atp743
a(L8L
g2
(lp744
(g38
I0
F0.0
tp745
a(g118
I0
F0.0
tp746
atp747
a(L12L
g2
(lp748
(g142
I0
F0.0
tp749
atp750
a(L13L
g2
(lp751
(g130
I0
F0.0
tp752
a(g102
I0
F0.0
tp753
a(g112
I0
F0.0
tp754
atp755
a(L14L
g47
(lp756
(g13
I0
F20.0
tp757
a(g59
F20.0
F1291.0
tp758
a(g49
F1291.0
F2068.0
tp759
a(g69
F2068.0
F2069.0
tp760
atp761
a(L20L
g2
(lp762
(g34
I0
F0.0
tp763
atp764
a(L21L
g2
(lp765
(g53
I0
F0.0
tp766
atp767
a(L24L
g9
(lp768
(g140
I0
F9.0
tp769
a(g63
F9.0
F367.0
tp770
a(g172
F2172.0
F2436.0
tp771
atp772
a(L26L
g2
(lp773
(g94
I0
F0.0
tp774
atp775
a(L33L
g72
(lp776
(g90
F1576.0
F1576.0
tp777
atp778
a(L37L
g9
(lp779
(g11
I0
F14.0
tp780
a(g42
F14.0
F26.0
tp781
a(g57
F26.0
F40.0
tp782
a(g122
F1553.0
F1562.0
tp783
a(g17
F1562.0
F1576.0
tp784
a(g21
F1576.0
F1891.0
tp785
a(g108
F2161.0
F2172.0
tp786
a(g25
F2172.0
F2221.0
tp787
atp788
a(L39L
g2
(lp789
(g4
I0
F0.0
tp790
a(g166
I0
F0.0
tp791
atp792
a(L40L
g2
(lp793
(g114
I0
F0.0
tp794
atp795
a(L44L
g2
(lp796
(g55
I0
F0.0
tp797
a(g162
I0
F0.0
tp798
a(g82
I0
F0.0
tp799
atp800
a(L45L
g2
(lp801
(g78
I0
F0.0
tp802
a(g150
I0
F0.0
tp803
atp804
a(L49L
g2
(lp805
(g126
I0
F0.0
tp806
atp807
a(L52L
g2
(lp808
(g86
I0
F0.0
tp809
atp810
a(L56L
g2
(lp811
(g156
I0
F0.0
tp812
a(g158
I0
F0.0
tp813
atp814
a(L57L
g2
(lp815
(g154
I0
F0.0
tp816
a(g138
I0
F1.0
tp817
a(g164
F1.0
F933.0
tp818
a(g104
F933.0
F1490.0
tp819
a(g61
F1490.0
F1553.0
tp820
a(g170
F1553.0
F1987.0
tp821
a(g65
F2068.0
F2161.0
tp822
a(g67
F2161.0
F2564.0
tp823
a(g174
F2564.0
F2565.0
tp824
atp825
atp826
a(F2996.0
F2.05
(lp827
(L2L
g2
(lp828
(g122
F1553.0
F1553.0
tp829
a(g6
F1553.0
F1553.0
tp830
atp831
a(L3L
g9
(lp832
(g98
I0
F8.0
tp833
a(g15
F8.0
F203.0
tp834
a(g168
F1553.0
F1594.0
tp835
a(g144
F1594.0
F1858.0
tp836
a(g146
F1858.0
F1907.0
tp837
a(g19
F1907.0
F1920.0
tp838
a(g23
F2190.0
F2230.0
tp839
a(g172
F2230.0
F2494.0
tp840
atp841
a(L4L
g558
(lp842
(g30
F2996.0
F2996.0
tp843
atp844
a(L6L
g2
(lp845
(g154
I0
F0.0
tp846
a(g148
I0
F0.0
tp847
a(g150
I0
F0.0
tp848
atp849
a(L8L
g2
(lp850
(g38
I0
F0.0
tp851
a(g118
I0
F0.0
tp852
atp853
a(L11L
g326
(lp854
(g74
F1920.0
F1920.0
tp855
atp856
a(L12L
g2
(lp857
(g112
I0
F0.0
tp858
a(g142
I0
F0.0
tp859
a(g114
I0
F0.0
tp860
atp861
a(L13L
g2
(lp862
(g4
I0
F0.0
tp863
a(g34
I0
F0.0
tp864
atp865
a(L14L
g47
(lp866
(g13
I0
F20.0
tp867
a(g59
F20.0
F1291.0
tp868
a(g44
F1291.0
F1292.0
tp869
a(g49
F1292.0
F2069.0
tp870
a(g63
F2069.0
F2097.0
tp871
a(g67
F2190.0
F2995.0
tp872
a(g69
F2995.0
F2996.0
tp873
atp874
a(L20L
g2
(lp875
(g158
I0
F0.0
tp876
atp877
a(L21L
g2
(lp878
(g53
I0
F0.0
tp879
atp880
a(L26L
g2
(lp881
(g130
I0
F0.0
tp882
a(g94
I0
F0.0
tp883
a(g86
I0
F0.0
tp884
atp885
a(L37L
g9
(lp886
(g11
I0
F14.0
tp887
a(g42
F14.0
F26.0
tp888
a(g57
F26.0
F40.0
tp889
a(g17
F40.0
F54.0
tp890
a(g21
F54.0
F369.0
tp891
a(g108
F2190.0
F2201.0
tp892
a(g25
F2201.0
F2250.0
tp893
atp894
a(L39L
g2
(lp895
(g78
I0
F0.0
tp896
a(g166
I0
F0.0
tp897
atp898
a(L40L
g2
(lp899
(g124
I0
F0.0
tp900
atp901
a(L41L
g2
(lp902
(g140
I0
F0.0
tp903
atp904
a(L43L
g72
(lp905
(g90
F1553.0
F1553.0
tp906
atp907
a(L44L
g2
(lp908
(g55
I0
F0.0
tp909
a(g162
I0
F0.0
tp910
a(g82
I0
F0.0
tp911
atp912
a(L49L
g2
(lp913
(g134
I0
F0.0
tp914
a(g126
I0
F0.0
tp915
atp916
a(L53L
g2
(lp917
(g156
I0
F0.0
tp918
atp919
a(L56L
g2
(lp920
(g102
I0
F0.0
tp921
atp922
a(L57L
g2
(lp923
(g138
I0
F1.0
tp924
a(g164
F1.0
F933.0
tp925
a(g104
F933.0
F1490.0
tp926
a(g61
F1490.0
F1553.0
tp927
a(g170
F1553.0
F1987.0
tp928
a(g65
F2097.0
F2190.0
tp929
a(g174
F2995.0
F2996.0
tp930
atp931
atp932
a.