(lp0
(F1357.0
F1.89
(lp1
(L0L
Vapac-sin#m3.medium
p2
(lp3
(VID00000
p4
F754.0
F754.0
tp5
atp6
a(L1L
Vapac-sin#m3.2xlarge
p7
(lp8
(VID00012
p9
I0
F0.0
tp10
atp11
a(L8L
g7
(lp12
(VID00003
p13
I0
F0.0
tp14
atp15
a(L10L
g7
(lp16
(VID00005
p17
I0
F0.0
tp18
a(VID00004
p19
I0
F0.0
tp20
a(VID00006
p21
I0
F0.0
tp22
a(VID00008
p23
I0
F0.0
tp24
a(VID00011
p25
I0
F0.0
tp26
atp27
a(L11L
Vapac-sin#m1.small
p28
(lp29
(S'exit'
p30
F1357.0
F1357.0
tp31
atp32
a(L12L
g7
(lp33
(VID00007
p34
I0
F0.0
tp35
atp36
a(L16L
g7
(lp37
(VID00015
p38
I0
F0.0
tp39
atp40
a(L19L
Vapac-sin#m3.xlarge
p41
(lp42
(VID00001
p43
I0
F1.0
tp44
a(VID00020
p45
F1.0
F28.0
tp46
a(VID00013
p47
F28.0
F29.0
tp48
a(VID00018
p49
F29.0
F633.0
tp50
a(VID00019
p51
F633.0
F662.0
tp52
a(VID00024
p53
F905.0
F909.0
tp54
a(VID00026
p55
F909.0
F929.0
tp56
a(VID00027
p57
F929.0
F931.0
tp58
atp59
a(L22L
g7
(lp60
(S'entry'
p61
I0
F0.0
tp62
a(VID00021
p63
I0
F754.0
tp64
a(VID00010
p65
F754.0
F754.0
tp66
a(VID00022
p67
F754.0
F905.0
tp68
a(VID00025
p69
F905.0
F1356.0
tp70
a(VID00028
p71
F1356.0
F1357.0
tp72
atp73
a(L26L
g7
(lp74
(VID00014
p75
I0
F0.0
tp76
atp77
a(L27L
g7
(lp78
(VID00023
p79
F905.0
F905.0
tp80
atp81
a(L28L
g7
(lp82
(VID00002
p83
I0
F0.0
tp84
a(VID00009
p85
I0
F0.0
tp86
a(VID00016
p87
I0
F0.0
tp88
atp89
a(L29L
g7
(lp90
(VID00017
p91
I0
F0.0
tp92
atp93
atp94
a(F1659.0
F1.34
(lp95
(L2L
Vapac-sin#m1.large
p96
(lp97
(g4
F754.0
F754.0
tp98
atp99
a(L7L
g7
(lp100
(g9
I0
F0.0
tp101
atp102
a(L8L
g7
(lp103
(g79
F1207.0
F1207.0
tp104
atp105
a(L10L
g7
(lp106
(g17
I0
F0.0
tp107
a(g21
I0
F0.0
tp108
a(g25
I0
F0.0
tp109
a(g38
I0
F0.0
tp110
atp111
a(L12L
g7
(lp112
(g34
I0
F0.0
tp113
atp114
a(L18L
g7
(lp115
(g13
I0
F0.0
tp116
atp117
a(L19L
g28
(lp118
(g43
I0
F13.0
tp119
a(g23
F13.0
F22.0
tp120
a(g45
F22.0
F378.0
tp121
a(g47
F378.0
F392.0
tp122
a(g51
F392.0
F772.0
tp123
a(g53
F1207.0
F1255.0
tp124
a(g55
F1255.0
F1519.0
tp125
a(g57
F1519.0
F1547.0
tp126
atp127
a(L20L
g2
(lp128
(g30
F1659.0
F1659.0
tp129
atp130
a(L22L
g7
(lp131
(g61
I0
F0.0
tp132
a(g63
I0
F754.0
tp133
a(g65
F754.0
F754.0
tp134
a(g49
F754.0
F1056.0
tp135
a(g67
F1056.0
F1207.0
tp136
a(g69
F1207.0
F1658.0
tp137
a(g71
F1658.0
F1659.0
tp138
atp139
a(L26L
g7
(lp140
(g19
I0
F0.0
tp141
atp142
a(L28L
g7
(lp143
(g83
I0
F0.0
tp144
a(g85
I0
F0.0
tp145
a(g87
I0
F0.0
tp146
a(g75
I0
F0.0
tp147
atp148
a(L29L
g7
(lp149
(g91
I0
F0.0
tp150
atp151
atp152
a(F2712.0
F0.94
(lp153
(L0L
Vapac-sin#m1.medium
p154
(lp155
(g4
F59.0
F59.0
tp156
atp157
a(L1L
Vapac-sin#m3.large
p158
(lp159
(g61
I0
F0.0
tp160
atp161
a(L8L
g7
(lp162
(g13
I0
F0.0
tp163
atp164
a(L9L
g7
(lp165
(g87
I0
F0.0
tp166
a(g91
I0
F0.0
tp167
atp168
a(L10L
g7
(lp169
(g17
I0
F0.0
tp170
a(g21
I0
F0.0
tp171
a(g43
I0
F0.0
tp172
a(g25
I0
F0.0
tp173
a(g75
I0
F0.0
tp174
atp175
a(L11L
g28
(lp176
(g30
F2712.0
F2712.0
tp177
atp178
a(L12L
g7
(lp179
(g34
I0
F0.0
tp180
atp181
a(L19L
g158
(lp182
(g83
I0
F2.0
tp183
a(g45
F2.0
F57.0
tp184
a(g47
F57.0
F59.0
tp185
a(g49
F59.0
F1266.0
tp186
a(g51
F1266.0
F1324.0
tp187
a(g53
F1809.0
F1816.0
tp188
a(g55
F1816.0
F1857.0
tp189
a(g57
F1857.0
F1861.0
tp190
atp191
a(L21L
g7
(lp192
(g9
I0
F0.0
tp193
atp194
a(L22L
g41
(lp195
(g63
I0
F1507.0
tp196
a(g67
F1507.0
F1809.0
tp197
a(g69
F1809.0
F2711.0
tp198
a(g71
F2711.0
F2712.0
tp199
atp200
a(L25L
g7
(lp201
(g79
F1809.0
F1809.0
tp202
atp203
a(L27L
g7
(lp204
(g85
I0
F0.0
tp205
a(g65
I0
F0.0
tp206
atp207
a(L28L
g7
(lp208
(g19
I0
F0.0
tp209
a(g38
I0
F0.0
tp210
atp211
a(L30L
g7
(lp212
(g23
I0
F0.0
tp213
atp214
atp215
a(F3316.0
F0.71
(lp216
(L2L
g158
(lp217
(g4
F404.0
F404.0
tp218
atp219
a(L6L
g41
(lp220
(g61
I0
F0.0
tp221
atp222
a(L10L
g7
(lp223
(g17
I0
F0.0
tp224
a(g19
I0
F0.0
tp225
a(g21
I0
F0.0
tp226
a(g23
I0
F0.0
tp227
atp228
a(L11L
g154
(lp229
(g30
F3316.0
F3316.0
tp230
atp231
a(L12L
g7
(lp232
(g34
I0
F0.0
tp233
atp234
a(L16L
g7
(lp235
(g38
I0
F0.0
tp236
atp237
a(L19L
g28
(lp238
(g43
I0
F13.0
tp239
a(g83
F13.0
F26.0
tp240
a(g45
F26.0
F382.0
tp241
a(g47
F382.0
F396.0
tp242
a(g87
F396.0
F404.0
tp243
a(g51
F404.0
F784.0
tp244
a(g53
F2413.0
F2461.0
tp245
a(g55
F2461.0
F2725.0
tp246
a(g57
F2725.0
F2753.0
tp247
atp248
a(L22L
g41
(lp249
(g63
I0
F1507.0
tp250
a(g49
F1507.0
F2111.0
tp251
a(g67
F2111.0
F2413.0
tp252
a(g69
F2413.0
F3315.0
tp253
a(g71
F3315.0
F3316.0
tp254
atp255
a(L23L
g7
(lp256
(g13
I0
F0.0
tp257
a(g25
I0
F0.0
tp258
a(g75
I0
F0.0
tp259
atp260
a(L25L
g7
(lp261
(g79
F2413.0
F2413.0
tp262
atp263
a(L29L
g7
(lp264
(g9
I0
F0.0
tp265
a(g91
I0
F0.0
tp266
atp267
a(L30L
g7
(lp268
(g85
I0
F0.0
tp269
a(g65
I0
F0.0
tp270
atp271
atp272
a.