(lp0
(F176.0
F5.67
(lp1
(L2L
Vapac-sin#m3.2xlarge
p2
(lp3
(S'entry'
p4
I0
F0.0
tp5
a(VID00022
p6
I0
F28.0
tp7
a(VID00002
p8
F28.0
F51.0
tp9
a(VID00011
p10
F51.0
F108.0
tp11
a(VID00035
p12
F108.0
F146.0
tp13
a(VID00042
p14
F146.0
F164.0
tp15
a(VID00040
p16
F164.0
F176.0
tp17
a(VID00041
p18
F176.0
F176.0
tp19
a(VID00000
p20
F176.0
F176.0
tp21
atp22
a(L35L
Vapac-sin#m3.xlarge
p23
(lp24
(VID00004
p25
F88.0
F89.0
tp26
a(VID00006
p27
F100.0
F101.0
tp28
a(VID00017
p29
F140.0
F141.0
tp30
a(VID00046
p31
F146.0
F170.0
tp32
a(VID00028
p33
F170.0
F171.0
tp34
atp35
a(L6L
Vapac-sin#m3.large
p36
(lp37
(VID00005
p38
F51.0
F100.0
tp39
a(VID00018
p40
F108.0
F171.0
tp41
a(VID00019
p42
F171.0
F173.0
tp43
atp44
a(L8L
Vapac-sin#m3.medium
p45
(lp46
(VID00027
p47
F28.0
F133.0
tp48
a(VID00026
p49
F133.0
F135.0
tp50
a(VID00010
p51
F135.0
F138.0
tp52
a(VID00021
p53
F162.0
F166.0
tp54
a(VID00047
p55
F170.0
F173.0
tp56
atp57
a(L9L
g36
(lp58
(VID00031
p59
F28.0
F79.0
tp60
a(VID00033
p61
F79.0
F158.0
tp62
atp63
a(L42L
g45
(lp64
(VID00029
p65
F28.0
F173.0
tp66
a(VID00034
p67
F173.0
F176.0
tp68
atp69
a(L15L
g23
(lp70
(VID00003
p71
F51.0
F88.0
tp72
a(VID00014
p73
F108.0
F133.0
tp74
a(VID00044
p75
F146.0
F173.0
tp76
a(VID00045
p77
F173.0
F174.0
tp78
atp79
a(L16L
g36
(lp80
(VID00023
p81
F28.0
F81.0
tp82
a(VID00025
p83
F81.0
F117.0
tp84
a(VID00020
p85
F117.0
F162.0
tp86
a(VID00043
p87
F164.0
F166.0
tp88
a(VID00001
p89
F176.0
F176.0
tp90
atp91
a(L40L
g36
(lp92
(S'exit'
p93
F176.0
F176.0
tp94
atp95
a(L19L
g36
(lp96
(VID00024
p97
F81.0
F82.0
tp98
a(VID00008
p99
F82.0
F84.0
tp100
a(VID00013
p101
F123.0
F124.0
tp102
a(VID00036
p103
F146.0
F174.0
tp104
a(VID00030
p105
F174.0
F176.0
tp106
atp107
a(L27L
g2
(lp108
(VID00007
p109
F51.0
F71.0
tp110
a(VID00012
p111
F108.0
F123.0
tp112
a(VID00016
p113
F123.0
F140.0
tp114
a(VID00038
p115
F146.0
F159.0
tp116
a(VID00039
p117
F159.0
F159.0
tp118
a(VID00048
p119
F159.0
F173.0
tp120
a(VID00049
p121
F173.0
F173.0
tp122
a(VID00032
p123
F173.0
F173.0
tp124
atp125
a(L31L
g36
(lp126
(VID00009
p127
F57.0
F132.0
tp128
a(VID00015
p129
F133.0
F135.0
tp130
a(VID00037
p131
F174.0
F175.0
tp132
atp133
atp134
a(F262.0
F4.66
(lp135
(L2L
g2
(lp136
(g4
I0
F0.0
tp137
a(g6
I0
F28.0
tp138
a(g8
F28.0
F51.0
tp139
a(g10
F51.0
F108.0
tp140
a(g85
F108.0
F119.0
tp141
a(g12
F119.0
F157.0
tp142
a(g75
F157.0
F171.0
tp143
a(g115
F171.0
F184.0
tp144
a(g119
F184.0
F198.0
tp145
a(g61
F198.0
F218.0
tp146
a(g16
F218.0
F230.0
tp147
a(g18
F230.0
F230.0
tp148
a(g20
F261.0
F261.0
tp149
atp150
a(L35L
Vapac-sin#m1.small
p151
(lp152
(g25
F88.0
F99.0
tp153
a(g27
F100.0
F108.0
tp154
a(g29
F194.0
F207.0
tp155
a(g129
F235.0
F245.0
tp156
a(g67
F245.0
F255.0
tp157
atp158
a(L6L
g36
(lp159
(g38
F51.0
F100.0
tp160
a(g65
F100.0
F167.0
tp161
a(g40
F167.0
F230.0
tp162
a(g42
F230.0
F232.0
tp163
atp164
a(L8L
g45
(lp165
(g47
F28.0
F133.0
tp166
a(g49
F133.0
F135.0
tp167
a(g53
F135.0
F139.0
tp168
a(g55
F181.0
F184.0
tp169
a(g131
F258.0
F260.0
tp170
atp171
a(L15L
g23
(lp172
(g71
F51.0
F88.0
tp173
a(g14
F157.0
F193.0
tp174
a(g121
F198.0
F199.0
tp175
a(g33
F199.0
F200.0
tp176
atp177
a(L16L
g23
(lp178
(g81
F28.0
F54.0
tp179
a(g83
F54.0
F72.0
tp180
a(g111
F108.0
F138.0
tp181
a(g77
F171.0
F172.0
tp182
a(g87
F193.0
F194.0
tp183
a(g89
F258.0
F258.0
tp184
atp185
a(L40L
g45
(lp186
(g93
F261.0
F261.0
tp187
atp188
a(L19L
Vapac-sin#m1.xlarge
p189
(lp190
(g109
F51.0
F115.0
tp191
a(g97
F115.0
F116.0
tp192
a(g51
F132.0
F133.0
tp193
a(g101
F138.0
F139.0
tp194
a(g113
F139.0
F194.0
tp195
a(g73
F194.0
F235.0
tp196
a(g103
F235.0
F258.0
tp197
a(g117
F258.0
F259.0
tp198
a(g105
F259.0
F260.0
tp199
a(g123
F260.0
F261.0
tp200
atp201
a(L27L
g36
(lp202
(g127
F57.0
F132.0
tp203
a(g99
F132.0
F134.0
tp204
a(g59
F134.0
F185.0
tp205
atp206
a(L29L
g23
(lp207
(g31
F157.0
F181.0
tp208
atp209
atp210
a(F429.0
F3.4
(lp211
(L2L
g23
(lp212
(g4
I0
F0.0
tp213
a(g6
I0
F56.0
tp214
a(g8
F56.0
F101.0
tp215
a(g10
F101.0
F215.0
tp216
a(g85
F215.0
F238.0
tp217
a(g12
F238.0
F315.0
tp218
a(g75
F315.0
F342.0
tp219
a(g14
F342.0
F378.0
tp220
a(g16
F378.0
F401.0
tp221
a(g18
F401.0
F402.0
tp222
a(g20
F430.0
F430.0
tp223
atp224
a(L35L
g151
(lp225
(g25
F260.0
F271.0
tp226
a(g27
F271.0
F279.0
tp227
a(g29
F345.0
F358.0
tp228
a(g129
F396.0
F406.0
tp229
a(g33
F406.0
F417.0
tp230
atp231
a(L6L
g36
(lp232
(g38
F101.0
F150.0
tp233
a(g65
F150.0
F217.0
tp234
a(g40
F217.0
F280.0
tp235
a(g42
F280.0
F282.0
tp236
atp237
a(L8L
g45
(lp238
(g47
F56.0
F161.0
tp239
a(g83
F161.0
F240.0
tp240
a(g49
F240.0
F242.0
tp241
a(g53
F242.0
F246.0
tp242
a(g31
F315.0
F421.0
tp243
a(g55
F421.0
F424.0
tp244
atp245
a(L9L
g36
(lp246
(g59
F56.0
F107.0
tp247
a(g61
F107.0
F186.0
tp248
atp249
a(L42L
g45
(lp250
(g67
F186.0
F189.0
tp251
atp252
a(L15L
g45
(lp253
(g71
F101.0
F260.0
tp254
atp255
a(L16L
g36
(lp256
(g81
F56.0
F109.0
tp257
a(g97
F109.0
F110.0
tp258
a(g111
F215.0
F276.0
tp259
a(g77
F342.0
F344.0
tp260
a(g87
F378.0
F380.0
tp261
a(g89
F428.0
F428.0
tp262
atp263
a(L40L
g45
(lp264
(g93
F430.0
F430.0
tp265
atp266
a(L19L
g36
(lp267
(g51
F255.0
F256.0
tp268
a(g101
F276.0
F277.0
tp269
a(g113
F277.0
F345.0
tp270
a(g73
F345.0
F396.0
tp271
a(g103
F396.0
F424.0
tp272
a(g105
F424.0
F426.0
tp273
atp274
a(L27L
g36
(lp275
(g109
F101.0
F180.0
tp276
a(g127
F180.0
F255.0
tp277
a(g99
F255.0
F257.0
tp278
a(g115
F315.0
F369.0
tp279
a(g117
F369.0
F371.0
tp280
a(g119
F371.0
F428.0
tp281
a(g121
F428.0
F429.0
tp282
a(g123
F429.0
F430.0
tp283
atp284
a(L31L
g189
(lp285
(g131
F424.0
F425.0
tp286
atp287
atp288
a(F471.0
F2.53
(lp289
(L32L
g151
(lp290
(g33
F161.0
F172.0
tp291
atp292
a(L2L
g23
(lp293
(g4
I0
F0.0
tp294
a(g6
I0
F56.0
tp295
a(g8
F56.0
F101.0
tp296
a(g10
F101.0
F215.0
tp297
a(g85
F215.0
F238.0
tp298
a(g12
F238.0
F315.0
tp299
a(g75
F315.0
F342.0
tp300
a(g115
F342.0
F369.0
tp301
a(g119
F369.0
F397.0
tp302
a(g61
F397.0
F436.0
tp303
a(g16
F436.0
F459.0
tp304
a(g18
F459.0
F460.0
tp305
a(g20
F472.0
F472.0
tp306
atp307
a(L35L
g151
(lp308
(g25
F260.0
F271.0
tp309
a(g27
F271.0
F279.0
tp310
a(g29
F345.0
F358.0
tp311
a(g129
F396.0
F406.0
tp312
a(g67
F436.0
F446.0
tp313
atp314
a(L6L
g36
(lp315
(g38
F101.0
F150.0
tp316
a(g65
F150.0
F217.0
tp317
a(g40
F217.0
F280.0
tp318
a(g42
F280.0
F282.0
tp319
atp320
a(L8L
g45
(lp321
(g47
F56.0
F161.0
tp322
a(g49
F161.0
F163.0
tp323
a(g53
F238.0
F242.0
tp324
a(g31
F315.0
F421.0
tp325
a(g55
F421.0
F424.0
tp326
a(g131
F424.0
F426.0
tp327
atp328
a(L34L
Vapac-sin#m1.medium
p329
(lp330
(g121
F397.0
F402.0
tp331
atp332
a(L15L
g45
(lp333
(g71
F101.0
F260.0
tp334
a(g14
F315.0
F470.0
tp335
atp336
a(L16L
g36
(lp337
(g81
F56.0
F109.0
tp338
a(g83
F109.0
F145.0
tp339
a(g111
F215.0
F276.0
tp340
a(g77
F342.0
F344.0
tp341
a(g87
F470.0
F472.0
tp342
a(g89
F472.0
F472.0
tp343
atp344
a(L40L
g45
(lp345
(g93
F472.0
F472.0
tp346
atp347
a(L19L
g36
(lp348
(g97
F109.0
F110.0
tp349
a(g51
F255.0
F256.0
tp350
a(g101
F276.0
F277.0
tp351
a(g113
F277.0
F345.0
tp352
a(g73
F345.0
F396.0
tp353
a(g103
F396.0
F424.0
tp354
a(g117
F424.0
F426.0
tp355
a(g105
F426.0
F428.0
tp356
a(g123
F428.0
F429.0
tp357
atp358
a(L27L
g36
(lp359
(g109
F101.0
F180.0
tp360
a(g127
F180.0
F255.0
tp361
a(g99
F255.0
F257.0
tp362
a(g59
F257.0
F308.0
tp363
atp364
atp365
a(F790.0
F2.21
(lp366
(L2L
g23
(lp367
(g4
I0
F0.0
tp368
a(g6
I0
F56.0
tp369
a(g8
F56.0
F101.0
tp370
a(g127
F101.0
F139.0
tp371
a(g10
F139.0
F253.0
tp372
a(g85
F253.0
F276.0
tp373
a(g12
F276.0
F353.0
tp374
a(g75
F353.0
F380.0
tp375
a(g14
F380.0
F416.0
tp376
a(g115
F416.0
F443.0
tp377
a(g119
F443.0
F471.0
tp378
a(g59
F471.0
F497.0
tp379
a(g61
F497.0
F536.0
tp380
a(g16
F536.0
F559.0
tp381
a(g18
F559.0
F560.0
tp382
a(g20
F790.0
F790.0
tp383
atp384
a(L35L
g151
(lp385
(g25
F260.0
F271.0
tp386
a(g27
F271.0
F279.0
tp387
a(g65
F279.0
F713.0
tp388
a(g67
F713.0
F723.0
tp389
atp390
a(L6L
g36
(lp391
(g38
F101.0
F150.0
tp392
a(g40
F253.0
F316.0
tp393
a(g42
F316.0
F318.0
tp394
a(g105
F713.0
F715.0
tp395
atp396
a(L8L
g45
(lp397
(g47
F56.0
F161.0
tp398
a(g83
F161.0
F240.0
tp399
a(g49
F240.0
F242.0
tp400
a(g31
F353.0
F459.0
tp401
a(g55
F459.0
F462.0
tp402
a(g87
F462.0
F466.0
tp403
a(g131
F779.0
F781.0
tp404
a(g121
F781.0
F784.0
tp405
atp406
a(L15L
g45
(lp407
(g71
F101.0
F260.0
tp408
a(g113
F260.0
F407.0
tp409
a(g33
F407.0
F411.0
tp410
atp411
a(L16L
g36
(lp412
(g81
F56.0
F109.0
tp413
a(g97
F109.0
F110.0
tp414
a(g111
F253.0
F314.0
tp415
a(g101
F314.0
F315.0
tp416
a(g89
F779.0
F779.0
tp417
atp418
a(L17L
g36
(lp419
(g129
F584.0
F586.0
tp420
atp421
a(L19L
g151
(lp422
(g51
F139.0
F147.0
tp423
a(g73
F253.0
F584.0
tp424
a(g77
F584.0
F594.0
tp425
a(g103
F594.0
F779.0
tp426
a(g117
F779.0
F790.0
tp427
atp428
a(L40L
g151
(lp429
(g93
F790.0
F790.0
tp430
atp431
a(L24L
g151
(lp432
(g123
F497.0
F502.0
tp433
atp434
a(L27L
g151
(lp435
(g109
F101.0
F615.0
tp436
a(g99
F615.0
F626.0
tp437
a(g53
F626.0
F638.0
tp438
a(g29
F638.0
F651.0
tp439
atp440
atp441
a(F932.0
F1.82
(lp442
(L2L
g23
(lp443
(g4
I0
F0.0
tp444
a(g6
I0
F56.0
tp445
a(g8
F56.0
F101.0
tp446
a(g127
F101.0
F139.0
tp447
a(g10
F139.0
F253.0
tp448
a(g85
F253.0
F276.0
tp449
a(g12
F276.0
F353.0
tp450
a(g75
F353.0
F380.0
tp451
a(g115
F380.0
F407.0
tp452
a(g119
F407.0
F435.0
tp453
a(g61
F435.0
F474.0
tp454
a(g16
F474.0
F497.0
tp455
a(g18
F497.0
F498.0
tp456
a(g20
F930.0
F930.0
tp457
atp458
a(L35L
g151
(lp459
(g25
F260.0
F271.0
tp460
a(g65
F271.0
F705.0
tp461
a(g67
F705.0
F715.0
tp462
atp463
a(L6L
g36
(lp464
(g27
F261.0
F262.0
tp465
a(g40
F262.0
F325.0
tp466
a(g42
F325.0
F327.0
tp467
atp468
a(L39L
g329
(lp469
(g38
F101.0
F261.0
tp470
atp471
a(L8L
g45
(lp472
(g83
F56.0
F135.0
tp473
a(g49
F135.0
F137.0
tp474
a(g31
F353.0
F459.0
tp475
a(g55
F459.0
F462.0
tp476
a(g131
F904.0
F906.0
tp477
atp478
a(L15L
g45
(lp479
(g71
F101.0
F260.0
tp480
a(g113
F260.0
F407.0
tp481
a(g14
F407.0
F562.0
tp482
a(g121
F562.0
F565.0
tp483
a(g33
F565.0
F569.0
tp484
atp485
a(L16L
g329
(lp486
(g81
F56.0
F227.0
tp487
a(g109
F227.0
F484.0
tp488
a(g97
F484.0
F488.0
tp489
a(g111
F488.0
F685.0
tp490
a(g101
F685.0
F689.0
tp491
a(g77
F689.0
F694.0
tp492
a(g87
F694.0
F699.0
tp493
a(g89
F904.0
F905.0
tp494
atp495
a(L40L
g151
(lp496
(g93
F930.0
F930.0
tp497
atp498
a(L19L
g151
(lp499
(g47
F56.0
F370.0
tp500
a(g51
F370.0
F378.0
tp501
a(g73
F378.0
F709.0
tp502
a(g129
F709.0
F719.0
tp503
a(g103
F719.0
F904.0
tp504
a(g117
F904.0
F915.0
tp505
a(g105
F915.0
F925.0
tp506
a(g123
F925.0
F930.0
tp507
atp508
a(L27L
g151
(lp509
(g99
F484.0
F495.0
tp510
a(g53
F495.0
F507.0
tp511
a(g29
F507.0
F520.0
tp512
a(g59
F520.0
F854.0
tp513
atp514
atp515
a(F1134.0
F0.87
(lp516
(L2L
g36
(lp517
(g4
I0
F0.0
tp518
a(g6
I0
F111.0
tp519
a(g8
F111.0
F201.0
tp520
a(g127
F201.0
F276.0
tp521
a(g10
F276.0
F505.0
tp522
a(g85
F505.0
F550.0
tp523
a(g12
F550.0
F703.0
tp524
a(g75
F703.0
F758.0
tp525
a(g14
F758.0
F829.0
tp526
a(g115
F829.0
F883.0
tp527
a(g119
F883.0
F940.0
tp528
a(g59
F940.0
F991.0
tp529
a(g61
F991.0
F1070.0
tp530
a(g16
F1070.0
F1117.0
tp531
a(g18
F1117.0
F1119.0
tp532
a(g20
F1133.0
F1133.0
tp533
atp534
a(L35L
g151
(lp535
(g25
F678.0
F689.0
tp536
a(g65
F689.0
F1123.0
tp537
a(g67
F1123.0
F1133.0
tp538
atp539
a(L6L
g151
(lp540
(g38
F201.0
F520.0
tp541
a(g27
F520.0
F528.0
tp542
a(g40
F528.0
F936.0
tp543
a(g42
F936.0
F948.0
tp544
a(g105
F1123.0
F1133.0
tp545
atp546
a(L8L
g151
(lp547
(g83
F111.0
F348.0
tp548
a(g49
F348.0
F354.0
tp549
a(g31
F703.0
F1021.0
tp550
a(g55
F1021.0
F1031.0
tp551
a(g87
F1031.0
F1042.0
tp552
a(g131
F1042.0
F1048.0
tp553
a(g121
F1048.0
F1058.0
tp554
atp555
a(L15L
g151
(lp556
(g71
F201.0
F678.0
tp557
a(g113
F678.0
F1119.0
tp558
a(g33
F1119.0
F1130.0
tp559
atp560
a(L16L
g151
(lp561
(g81
F111.0
F453.0
tp562
a(g97
F453.0
F461.0
tp563
a(g111
F505.0
F900.0
tp564
a(g101
F900.0
F907.0
tp565
a(g89
F1123.0
F1124.0
tp566
atp567
a(L40L
g151
(lp568
(g93
F1133.0
F1133.0
tp569
atp570
a(L19L
g151
(lp571
(g47
F111.0
F425.0
tp572
a(g51
F425.0
F433.0
tp573
a(g73
F505.0
F836.0
tp574
a(g129
F836.0
F846.0
tp575
a(g77
F846.0
F856.0
tp576
a(g103
F856.0
F1041.0
tp577
a(g117
F1041.0
F1052.0
tp578
a(g123
F1052.0
F1057.0
tp579
atp580
a(L27L
g151
(lp581
(g109
F201.0
F715.0
tp582
a(g99
F715.0
F726.0
tp583
a(g53
F726.0
F738.0
tp584
a(g29
F1119.0
F1132.0
tp585
atp586
atp587
a(F1900.0
F0.72
(lp588
(L2L
g45
(lp589
(g4
I0
F0.0
tp590
a(g6
I0
F241.0
tp591
a(g8
F241.0
F436.0
tp592
a(g10
F436.0
F932.0
tp593
a(g12
F932.0
F1264.0
tp594
a(g75
F1264.0
F1382.0
tp595
a(g115
F1382.0
F1499.0
tp596
a(g119
F1499.0
F1622.0
tp597
a(g61
F1622.0
F1793.0
tp598
a(g16
F1793.0
F1894.0
tp599
a(g18
F1894.0
F1898.0
tp600
a(g20
F1898.0
F1899.0
tp601
atp602
a(L35L
g151
(lp603
(g25
F913.0
F924.0
tp604
a(g27
F924.0
F932.0
tp605
a(g29
F1373.0
F1386.0
tp606
a(g129
F1423.0
F1433.0
tp607
a(g67
F1793.0
F1803.0
tp608
atp609
a(L6L
g151
(lp610
(g38
F436.0
F755.0
tp611
a(g65
F755.0
F1189.0
tp612
a(g40
F1189.0
F1597.0
tp613
a(g42
F1597.0
F1609.0
tp614
atp615
a(L8L
g151
(lp616
(g47
F241.0
F555.0
tp617
a(g49
F820.0
F826.0
tp618
a(g51
F1081.0
F1089.0
tp619
a(g53
F1238.0
F1250.0
tp620
a(g31
F1264.0
F1582.0
tp621
a(g55
F1582.0
F1592.0
tp622
a(g131
F1608.0
F1614.0
tp623
atp624
a(L15L
g151
(lp625
(g71
F436.0
F913.0
tp626
a(g113
F932.0
F1373.0
tp627
a(g14
F1373.0
F1837.0
tp628
a(g121
F1837.0
F1847.0
tp629
a(g33
F1847.0
F1858.0
tp630
atp631
a(L16L
g151
(lp632
(g81
F241.0
F583.0
tp633
a(g83
F583.0
F820.0
tp634
a(g85
F945.0
F1238.0
tp635
a(g77
F1382.0
F1392.0
tp636
a(g87
F1837.0
F1848.0
tp637
a(g89
F1894.0
F1895.0
tp638
atp639
a(L40L
g151
(lp640
(g93
F1899.0
F1899.0
tp641
atp642
a(L19L
g151
(lp643
(g97
F583.0
F591.0
tp644
a(g127
F591.0
F1081.0
tp645
a(g99
F1081.0
F1092.0
tp646
a(g73
F1092.0
F1423.0
tp647
a(g103
F1423.0
F1608.0
tp648
a(g117
F1608.0
F1619.0
tp649
a(g105
F1619.0
F1629.0
tp650
a(g123
F1686.0
F1691.0
tp651
atp652
a(L27L
g151
(lp653
(g109
F436.0
F950.0
tp654
a(g111
F950.0
F1345.0
tp655
a(g101
F1345.0
F1352.0
tp656
a(g59
F1352.0
F1686.0
tp657
atp658
atp659
a.