(lp0
(F97.0
F7.24
(lp1
(L1L
Vapac-sin#m3.large
p2
(lp3
(S'exit'
p4
F97.0
F97.0
tp5
atp6
a(L2L
Vapac-sin#m3.2xlarge
p7
(lp8
(S'entry'
p9
I0
F0.0
tp10
a(VID00002
p11
I0
F49.0
tp12
a(VID00013
p13
F49.0
F79.0
tp14
a(VID00020
p15
F79.0
F87.0
tp16
a(VID00021
p17
F87.0
F87.0
tp18
a(VID00022
p19
F87.0
F97.0
tp20
a(VID00023
p21
F97.0
F97.0
tp22
a(VID00012
p23
F97.0
F97.0
tp24
a(VID00019
p25
F97.0
F97.0
tp26
a(VID00001
p27
F97.0
F97.0
tp28
atp29
a(L8L
g7
(lp30
(VID00007
p31
F49.0
F60.0
tp32
a(VID00005
p33
F60.0
F72.0
tp34
a(VID00016
p35
F79.0
F93.0
tp36
a(VID00000
p37
F97.0
F97.0
tp38
atp39
a(L10L
g7
(lp40
(VID00004
p41
F61.0
F61.0
tp42
a(VID00011
p43
F61.0
F80.0
tp44
a(VID00014
p45
F80.0
F95.0
tp46
a(VID00029
p47
F96.0
F96.0
tp48
atp49
a(L11L
Vapac-sin#m3.xlarge
p50
(lp51
(VID00008
p52
F60.0
F60.0
tp53
a(VID00026
p54
F79.0
F94.0
tp55
a(VID00010
p56
F94.0
F94.0
tp57
atp58
a(L14L
g2
(lp59
(VID00009
p60
F49.0
F89.0
tp61
a(VID00027
p62
F94.0
F95.0
tp63
a(VID00015
p64
F95.0
F97.0
tp65
atp66
a(L24L
g7
(lp67
(VID00003
p68
F49.0
F61.0
tp69
a(VID00024
p70
F79.0
F96.0
tp71
a(VID00025
p72
F96.0
F96.0
tp73
a(VID00017
p74
F96.0
F96.0
tp75
atp76
a(L25L
g7
(lp77
(VID00006
p78
F72.0
F72.0
tp79
a(VID00018
p80
F79.0
F88.0
tp81
a(VID00028
p82
F88.0
F96.0
tp83
atp84
atp85
a(F144.0
F6.77
(lp86
(L1L
g2
(lp87
(g4
F145.0
F145.0
tp88
atp89
a(L2L
g7
(lp90
(g9
I0
F0.0
tp91
a(g11
I0
F49.0
tp92
a(g13
F49.0
F79.0
tp93
a(g19
F79.0
F89.0
tp94
a(g56
F89.0
F89.0
tp95
a(g23
F89.0
F89.0
tp96
a(g80
F89.0
F98.0
tp97
a(g25
F98.0
F98.0
tp98
a(g27
F145.0
F145.0
tp99
atp100
a(L8L
g7
(lp101
(g33
F49.0
F61.0
tp102
a(g78
F61.0
F61.0
tp103
a(g15
F79.0
F87.0
tp104
a(g70
F87.0
F104.0
tp105
a(g72
F104.0
F104.0
tp106
a(g35
F104.0
F118.0
tp107
a(g37
F145.0
F145.0
tp108
atp109
a(L10L
g7
(lp110
(g60
F49.0
F59.0
tp111
a(g43
F59.0
F78.0
tp112
a(g45
F79.0
F94.0
tp113
a(g47
F145.0
F145.0
tp114
atp115
a(L11L
g7
(lp116
(g68
F49.0
F61.0
tp117
a(g41
F61.0
F61.0
tp118
a(g31
F61.0
F72.0
tp119
a(g17
F87.0
F87.0
tp120
a(g21
F89.0
F89.0
tp121
atp122
a(L14L
g2
(lp123
(g54
F79.0
F109.0
tp124
a(g62
F109.0
F110.0
tp125
a(g64
F110.0
F112.0
tp126
a(g82
F112.0
F145.0
tp127
atp128
a(L24L
g7
(lp129
(g74
F118.0
F118.0
tp130
atp131
a(L31L
Vapac-sin#m1.medium
p132
(lp133
(g52
F72.0
F75.0
tp134
atp135
atp136
a(F146.0
F4.89
(lp137
(L2L
g7
(lp138
(g9
I0
F0.0
tp139
a(g11
I0
F49.0
tp140
a(g13
F49.0
F79.0
tp141
a(g19
F79.0
F89.0
tp142
a(g56
F89.0
F89.0
tp143
a(g23
F89.0
F89.0
tp144
a(g80
F89.0
F98.0
tp145
a(g25
F98.0
F98.0
tp146
a(g37
F147.0
F147.0
tp147
atp148
a(L8L
g7
(lp149
(g33
F49.0
F61.0
tp150
a(g78
F61.0
F61.0
tp151
a(g15
F79.0
F87.0
tp152
a(g70
F87.0
F104.0
tp153
a(g72
F104.0
F104.0
tp154
a(g35
F104.0
F118.0
tp155
a(g47
F145.0
F145.0
tp156
atp157
a(L10L
g7
(lp158
(g60
F49.0
F59.0
tp159
a(g43
F59.0
F78.0
tp160
a(g45
F79.0
F94.0
tp161
atp162
a(L11L
g2
(lp163
(g68
F49.0
F97.0
tp164
a(g41
F97.0
F98.0
tp165
a(g31
F98.0
F143.0
tp166
a(g17
F143.0
F145.0
tp167
a(g21
F145.0
F147.0
tp168
atp169
a(L14L
g2
(lp170
(g54
F79.0
F109.0
tp171
a(g62
F109.0
F110.0
tp172
a(g64
F110.0
F112.0
tp173
a(g82
F112.0
F145.0
tp174
a(g27
F145.0
F145.0
tp175
atp176
a(L17L
g2
(lp177
(g4
F147.0
F147.0
tp178
atp179
a(L24L
g132
(lp180
(g74
F118.0
F124.0
tp181
atp182
a(L31L
Vapac-sin#m1.large
p183
(lp184
(g52
F143.0
F144.0
tp185
atp186
atp187
a(F177.0
F2.05
(lp188
(L8L
g132
(lp189
(g78
F96.0
F99.0
tp190
a(g52
F143.0
F146.0
tp191
a(g21
F146.0
F152.0
tp192
a(g62
F152.0
F156.0
tp193
a(g23
F156.0
F162.0
tp194
a(g74
F162.0
F168.0
tp195
a(g64
F168.0
F174.0
tp196
a(g47
F174.0
F177.0
tp197
atp198
a(L1L
g2
(lp199
(g4
F177.0
F177.0
tp200
atp201
a(L2L
g7
(lp202
(g9
I0
F0.0
tp203
a(g11
I0
F49.0
tp204
a(g13
F49.0
F79.0
tp205
a(g19
F79.0
F89.0
tp206
a(g70
F89.0
F106.0
tp207
a(g72
F106.0
F106.0
tp208
a(g54
F106.0
F113.0
tp209
a(g43
F113.0
F132.0
tp210
a(g35
F132.0
F146.0
tp211
a(g45
F146.0
F161.0
tp212
a(g80
F161.0
F170.0
tp213
a(g25
F170.0
F170.0
tp214
a(g37
F177.0
F177.0
tp215
a(g27
F177.0
F177.0
tp216
atp217
a(L11L
g2
(lp218
(g68
F49.0
F97.0
tp219
a(g41
F97.0
F98.0
tp220
a(g31
F98.0
F143.0
tp221
a(g15
F143.0
F173.0
tp222
a(g17
F173.0
F175.0
tp223
atp224
a(L14L
g2
(lp225
(g33
F49.0
F96.0
tp226
a(g60
F96.0
F136.0
tp227
a(g56
F136.0
F137.0
tp228
a(g82
F137.0
F170.0
tp229
atp230
atp231
a(F558.0
F1.66
(lp232
(L1L
Vapac-sin#m3.medium
p233
(lp234
(g4
F559.0
F559.0
tp235
atp236
a(L2L
g2
(lp237
(g9
I0
F0.0
tp238
a(g11
I0
F195.0
tp239
a(g13
F195.0
F314.0
tp240
a(g19
F314.0
F352.0
tp241
a(g70
F352.0
F420.0
tp242
a(g56
F420.0
F421.0
tp243
a(g43
F421.0
F498.0
tp244
a(g45
F498.0
F556.0
tp245
a(g25
F556.0
F558.0
tp246
a(g27
F558.0
F558.0
tp247
atp248
a(L8L
Vapac-sin#m1.small
p249
(lp250
(g78
F242.0
F248.0
tp251
a(g21
F352.0
F363.0
tp252
a(g23
F498.0
F509.0
tp253
a(g74
F509.0
F521.0
tp254
a(g37
F558.0
F559.0
tp255
atp256
a(L10L
g183
(lp257
(g47
F461.0
F463.0
tp258
atp259
a(L11L
g2
(lp260
(g68
F195.0
F243.0
tp261
a(g41
F243.0
F244.0
tp262
a(g31
F244.0
F289.0
tp263
a(g15
F314.0
F344.0
tp264
a(g17
F344.0
F346.0
tp265
a(g35
F346.0
F402.0
tp266
atp267
a(L14L
g2
(lp268
(g33
F195.0
F242.0
tp269
a(g60
F242.0
F282.0
tp270
a(g72
F420.0
F421.0
tp271
a(g54
F421.0
F451.0
tp272
a(g62
F451.0
F452.0
tp273
a(g64
F556.0
F558.0
tp274
atp275
a(L18L
g132
(lp276
(g52
F289.0
F292.0
tp277
atp278
a(L25L
g233
(lp279
(g80
F314.0
F390.0
tp280
a(g82
F390.0
F461.0
tp281
atp282
atp283
a(F722.0
F0.55
(lp284
(L8L
g249
(lp285
(g33
F195.0
F503.0
tp286
a(g78
F503.0
F509.0
tp287
a(g52
F509.0
F515.0
tp288
a(g21
F515.0
F526.0
tp289
a(g62
F526.0
F535.0
tp290
a(g23
F572.0
F583.0
tp291
a(g74
F628.0
F640.0
tp292
a(g64
F686.0
F698.0
tp293
a(g47
F698.0
F705.0
tp294
atp295
a(L1L
g2
(lp296
(g4
F723.0
F723.0
tp297
atp298
a(L2L
g2
(lp299
(g9
I0
F0.0
tp300
a(g11
I0
F195.0
tp301
a(g31
F195.0
F240.0
tp302
a(g13
F240.0
F359.0
tp303
a(g19
F359.0
F397.0
tp304
a(g70
F397.0
F465.0
tp305
a(g54
F465.0
F495.0
tp306
a(g43
F495.0
F572.0
tp307
a(g35
F572.0
F628.0
tp308
a(g45
F628.0
F686.0
tp309
a(g80
F686.0
F721.0
tp310
a(g25
F721.0
F723.0
tp311
a(g37
F723.0
F723.0
tp312
atp313
a(L11L
g249
(lp314
(g68
F195.0
F507.0
tp315
a(g41
F507.0
F512.0
tp316
a(g15
F512.0
F708.0
tp317
a(g17
F708.0
F719.0
tp318
atp319
a(L14L
g249
(lp320
(g60
F195.0
F453.0
tp321
a(g72
F465.0
F471.0
tp322
a(g56
F471.0
F477.0
tp323
a(g82
F477.0
F689.0
tp324
a(g27
F721.0
F723.0
tp325
atp326
atp327
a(F1254.0
F0.48
(lp328
(L0L
g249
(lp329
(g43
F438.0
F936.0
tp330
atp331
a(L2L
g233
(lp332
(g9
I0
F0.0
tp333
a(g11
I0
F422.0
tp334
a(g13
F422.0
F680.0
tp335
a(g19
F680.0
F763.0
tp336
a(g35
F763.0
F885.0
tp337
a(g45
F885.0
F1012.0
tp338
a(g80
F1012.0
F1088.0
tp339
a(g25
F1088.0
F1092.0
tp340
a(g37
F1253.0
F1253.0
tp341
atp342
a(L8L
g249
(lp343
(g33
F422.0
F730.0
tp344
a(g78
F730.0
F736.0
tp345
a(g70
F736.0
F1175.0
tp346
a(g72
F1175.0
F1181.0
tp347
a(g56
F1181.0
F1187.0
tp348
a(g23
F1187.0
F1198.0
tp349
a(g74
F1198.0
F1210.0
tp350
a(g64
F1210.0
F1222.0
tp351
a(g47
F1222.0
F1229.0
tp352
atp353
a(L11L
g249
(lp354
(g68
F422.0
F734.0
tp355
a(g41
F734.0
F739.0
tp356
a(g31
F739.0
F1029.0
tp357
a(g52
F1029.0
F1035.0
tp358
a(g15
F1035.0
F1231.0
tp359
a(g17
F1231.0
F1242.0
tp360
a(g21
F1242.0
F1253.0
tp361
atp362
a(L14L
g249
(lp363
(g60
F422.0
F680.0
tp364
a(g54
F680.0
F872.0
tp365
a(g62
F872.0
F881.0
tp366
a(g82
F881.0
F1093.0
tp367
a(g27
F1231.0
F1233.0
tp368
atp369
a(L17L
g50
(lp370
(g4
F1253.0
F1253.0
tp371
atp372
atp373
a(F1258.0
F0.4
(lp374
(L8L
g249
(lp375
(g33
F422.0
F730.0
tp376
a(g78
F730.0
F736.0
tp377
a(g70
F736.0
F1175.0
tp378
a(g72
F1175.0
F1181.0
tp379
a(g56
F1181.0
F1187.0
tp380
a(g23
F1187.0
F1198.0
tp381
a(g74
F1198.0
F1210.0
tp382
a(g64
F1210.0
F1222.0
tp383
a(g47
F1222.0
F1229.0
tp384
a(g37
F1258.0
F1259.0
tp385
atp386
a(L1L
g7
(lp387
(g4
F1259.0
F1259.0
tp388
atp389
a(L2L
g233
(lp390
(g9
I0
F0.0
tp391
a(g11
I0
F422.0
tp392
a(g13
F422.0
F680.0
tp393
a(g19
F680.0
F763.0
tp394
a(g43
F763.0
F929.0
tp395
a(g35
F929.0
F1051.0
tp396
a(g45
F1051.0
F1178.0
tp397
a(g80
F1178.0
F1254.0
tp398
a(g25
F1254.0
F1258.0
tp399
a(g27
F1258.0
F1259.0
tp400
atp401
a(L11L
g249
(lp402
(g68
F422.0
F734.0
tp403
a(g41
F734.0
F739.0
tp404
a(g31
F739.0
F1029.0
tp405
a(g52
F1029.0
F1035.0
tp406
a(g15
F1035.0
F1231.0
tp407
a(g17
F1231.0
F1242.0
tp408
a(g21
F1242.0
F1253.0
tp409
atp410
a(L14L
g249
(lp411
(g60
F422.0
F680.0
tp412
a(g54
F680.0
F872.0
tp413
a(g62
F872.0
F881.0
tp414
a(g82
F881.0
F1093.0
tp415
atp416
atp417
a.