(lp0
(F2379.0
F10.71
(lp1
(L2L
Vapac-sin#m3.2xlarge
p2
(lp3
(S'entry'
p4
I0
F0.0
tp5
a(VID00001
p6
I0
F9.0
tp7
a(VID00006
p8
F16.0
F17.0
tp9
a(VID00002
p10
F17.0
F19.0
tp11
a(VID00009
p12
F19.0
F22.0
tp13
a(VID00012
p14
F22.0
F22.0
tp15
a(VID00022
p16
F22.0
F23.0
tp17
a(VID00032
p18
F23.0
F1426.0
tp19
a(VID00042
p20
F1466.0
F1470.0
tp21
a(VID00044
p22
F1869.0
F1877.0
tp23
a(VID00045
p24
F1877.0
F1877.0
tp25
a(VID00046
p26
F1877.0
F2380.0
tp27
atp28
a(L8L
g2
(lp29
(VID00000
p30
F2.0
F16.0
tp31
a(VID00004
p32
F16.0
F19.0
tp33
a(VID00013
p34
F19.0
F19.0
tp35
a(VID00023
p36
F19.0
F20.0
tp37
a(VID00033
p38
F20.0
F1401.0
tp39
atp40
a(L9L
g2
(lp41
(VID00005
p42
F16.0
F18.0
tp43
a(VID00026
p44
F18.0
F19.0
tp45
a(VID00036
p46
F19.0
F1333.0
tp47
atp48
a(L10L
g2
(lp49
(VID00003
p50
F16.0
F19.0
tp51
a(VID00024
p52
F20.0
F21.0
tp53
a(VID00034
p54
F21.0
F1169.0
tp55
a(S'exit'
p56
F2380.0
F2380.0
tp57
atp58
a(L12L
g2
(lp59
(VID00007
p60
F9.0
F12.0
tp61
a(VID00020
p62
F13.0
F14.0
tp63
a(VID00016
p64
F17.0
F17.0
tp65
a(VID00015
p66
F18.0
F19.0
tp67
a(VID00025
p68
F19.0
F20.0
tp69
a(VID00035
p70
F20.0
F1466.0
tp71
atp72
a(L13L
Vapac-sin#m3.xlarge
p73
(lp74
(VID00008
p75
F10.0
F15.0
tp76
a(VID00017
p77
F15.0
F16.0
tp78
a(VID00027
p79
F16.0
F18.0
tp80
a(VID00037
p81
F18.0
F1680.0
tp82
atp83
a(L14L
g73
(lp84
(VID00029
p85
F23.0
F24.0
tp86
a(VID00039
p87
F24.0
F1453.0
tp88
atp89
a(L15L
g2
(lp90
(VID00011
p91
F9.0
F11.0
tp92
a(VID00021
p93
F11.0
F12.0
tp94
a(VID00030
p95
F14.0
F16.0
tp96
a(VID00040
p97
F16.0
F1864.0
tp98
a(VID00043
p99
F1864.0
F1869.0
tp100
atp101
a(L16L
g73
(lp102
(VID00018
p103
F15.0
F17.0
tp104
a(VID00019
p105
F22.0
F23.0
tp106
a(VID00041
p107
F23.0
F1836.0
tp108
atp109
a(L17L
g2
(lp110
(VID00010
p111
F10.0
F13.0
tp112
a(VID00014
p113
F19.0
F20.0
tp114
a(VID00031
p115
F20.0
F22.0
tp116
a(VID00028
p117
F22.0
F23.0
tp118
a(VID00038
p119
F23.0
F1186.0
tp120
atp121
atp122
a(F2398.0
F10.08
(lp123
(L2L
g2
(lp124
(g32
F14.0
F17.0
tp125
a(g16
F18.0
F19.0
tp126
a(g18
F19.0
F1422.0
tp127
a(g20
F1884.0
F1888.0
tp128
a(g22
F1888.0
F1896.0
tp129
a(g24
F1896.0
F1896.0
tp130
a(g26
F1896.0
F2399.0
tp131
atp132
a(L8L
g2
(lp133
(g4
I0
F0.0
tp134
a(g30
I0
F14.0
tp135
a(g8
F14.0
F15.0
tp136
a(g42
F15.0
F17.0
tp137
a(g93
F17.0
F18.0
tp138
a(g38
F19.0
F1400.0
tp139
atp140
a(L9L
g2
(lp141
(g6
F2.0
F11.0
tp142
a(g75
F11.0
F14.0
tp143
a(g34
F17.0
F17.0
tp144
a(g44
F17.0
F18.0
tp145
a(g46
F18.0
F1332.0
tp146
atp147
a(L10L
g2
(lp148
(g50
F14.0
F17.0
tp149
a(g14
F18.0
F18.0
tp150
a(g36
F18.0
F19.0
tp151
a(g52
F19.0
F20.0
tp152
a(g103
F20.0
F21.0
tp153
a(g87
F21.0
F736.0
tp154
a(g54
F736.0
F1884.0
tp155
a(g56
F2399.0
F2399.0
tp156
atp157
a(L12L
g2
(lp158
(g111
F12.0
F15.0
tp159
a(g68
F19.0
F20.0
tp160
a(g70
F20.0
F1466.0
tp161
atp162
a(L13L
g73
(lp163
(g10
F15.0
F18.0
tp164
a(g81
F18.0
F1680.0
tp165
atp166
a(L15L
g2
(lp167
(g60
F11.0
F14.0
tp168
a(g91
F14.0
F16.0
tp169
a(g79
F17.0
F18.0
tp170
a(g66
F18.0
F19.0
tp171
a(g95
F19.0
F21.0
tp172
a(g97
F21.0
F1869.0
tp173
a(g99
F1869.0
F1874.0
tp174
atp175
a(L16L
g73
(lp176
(g12
F12.0
F17.0
tp177
a(g85
F19.0
F20.0
tp178
a(g107
F21.0
F1834.0
tp179
atp180
a(L17L
g2
(lp181
(g62
F15.0
F16.0
tp182
a(g64
F16.0
F16.0
tp183
a(g77
F16.0
F17.0
tp184
a(g113
F17.0
F18.0
tp185
a(g105
F18.0
F19.0
tp186
a(g115
F19.0
F21.0
tp187
a(g117
F21.0
F22.0
tp188
a(g119
F22.0
F1185.0
tp189
atp190
atp191
a(F2590.0
F9.45
(lp192
(L2L
g2
(lp193
(g6
F2.0
F11.0
tp194
a(g8
F14.0
F15.0
tp195
a(g32
F15.0
F18.0
tp196
a(g16
F18.0
F19.0
tp197
a(g18
F19.0
F1422.0
tp198
a(g20
F2076.0
F2080.0
tp199
a(g22
F2080.0
F2088.0
tp200
a(g24
F2088.0
F2088.0
tp201
a(g26
F2088.0
F2591.0
tp202
atp203
a(L8L
g2
(lp204
(g4
I0
F0.0
tp205
a(g30
I0
F14.0
tp206
a(g42
F14.0
F16.0
tp207
a(g34
F17.0
F17.0
tp208
a(g113
F18.0
F19.0
tp209
a(g115
F19.0
F21.0
tp210
a(g38
F21.0
F1402.0
tp211
atp212
a(L9L
g2
(lp213
(g75
F11.0
F14.0
tp214
a(g93
F16.0
F17.0
tp215
a(g44
F17.0
F18.0
tp216
a(g46
F18.0
F1332.0
tp217
atp218
a(L10L
g2
(lp219
(g50
F14.0
F17.0
tp220
a(g14
F18.0
F18.0
tp221
a(g36
F18.0
F19.0
tp222
a(g103
F19.0
F20.0
tp223
a(g105
F20.0
F21.0
tp224
a(g107
F21.0
F928.0
tp225
a(g54
F928.0
F2076.0
tp226
a(g56
F2591.0
F2591.0
tp227
atp228
a(L12L
g2
(lp229
(g111
F12.0
F15.0
tp230
a(g62
F15.0
F16.0
tp231
a(g64
F16.0
F16.0
tp232
a(g68
F17.0
F18.0
tp233
a(g70
F18.0
F1464.0
tp234
atp235
a(L13L
g73
(lp236
(g10
F15.0
F18.0
tp237
a(g77
F18.0
F19.0
tp238
a(g79
F19.0
F21.0
tp239
a(g81
F21.0
F1683.0
tp240
atp241
a(L15L
g2
(lp242
(g60
F11.0
F14.0
tp243
a(g91
F14.0
F16.0
tp244
a(g66
F16.0
F17.0
tp245
a(g85
F21.0
F22.0
tp246
a(g95
F22.0
F24.0
tp247
a(g117
F24.0
F25.0
tp248
a(g97
F25.0
F1873.0
tp249
a(g99
F1900.0
F1905.0
tp250
atp251
a(L17L
g2
(lp252
(g12
F11.0
F14.0
tp253
a(g52
F19.0
F20.0
tp254
a(g87
F22.0
F737.0
tp255
a(g119
F737.0
F1900.0
tp256
atp257
atp258
a(F2677.0
F8.82
(lp259
(L2L
g2
(lp260
(g8
F14.0
F15.0
tp261
a(g32
F15.0
F18.0
tp262
a(g42
F18.0
F20.0
tp263
a(g16
F20.0
F21.0
tp264
a(g18
F21.0
F1424.0
tp265
a(g20
F2079.0
F2083.0
tp266
a(g99
F2161.0
F2166.0
tp267
a(g22
F2166.0
F2174.0
tp268
a(g24
F2174.0
F2174.0
tp269
a(g26
F2174.0
F2677.0
tp270
atp271
a(L8L
g2
(lp272
(g4
I0
F0.0
tp273
a(g30
I0
F14.0
tp274
a(g50
F14.0
F17.0
tp275
a(g34
F17.0
F17.0
tp276
a(g77
F17.0
F18.0
tp277
a(g79
F18.0
F19.0
tp278
a(g113
F19.0
F20.0
tp279
a(g115
F21.0
F23.0
tp280
a(g38
F23.0
F1404.0
tp281
atp282
a(L9L
g2
(lp283
(g75
F11.0
F14.0
tp284
a(g64
F15.0
F15.0
tp285
a(g46
F16.0
F1330.0
tp286
a(g81
F1330.0
F2161.0
tp287
atp288
a(L10L
g2
(lp289
(g12
F11.0
F14.0
tp290
a(g36
F17.0
F18.0
tp291
a(g91
F18.0
F20.0
tp292
a(g93
F20.0
F21.0
tp293
a(g52
F21.0
F22.0
tp294
a(g103
F22.0
F23.0
tp295
a(g105
F23.0
F24.0
tp296
a(g107
F24.0
F931.0
tp297
a(g54
F931.0
F2079.0
tp298
atp299
a(L12L
g2
(lp300
(g111
F12.0
F15.0
tp301
a(g44
F15.0
F16.0
tp302
a(g68
F21.0
F22.0
tp303
a(g70
F22.0
F1468.0
tp304
atp305
a(L15L
g2
(lp306
(g60
F11.0
F14.0
tp307
a(g10
F14.0
F16.0
tp308
a(g14
F16.0
F16.0
tp309
a(g66
F20.0
F21.0
tp310
a(g85
F24.0
F25.0
tp311
a(g95
F25.0
F27.0
tp312
a(g117
F27.0
F28.0
tp313
a(g97
F28.0
F1876.0
tp314
atp315
a(L48L
Vapac-sin#m1.large
p316
(lp317
(g56
F2677.0
F2677.0
tp318
atp319
a(L17L
g2
(lp320
(g6
F2.0
F11.0
tp321
a(g62
F15.0
F16.0
tp322
a(g87
F25.0
F740.0
tp323
a(g119
F740.0
F1903.0
tp324
atp325
atp326
a(F2846.0
F8.19
(lp327
(L2L
g2
(lp328
(g8
F14.0
F15.0
tp329
a(g32
F15.0
F18.0
tp330
a(g42
F18.0
F20.0
tp331
a(g16
F20.0
F21.0
tp332
a(g18
F21.0
F1424.0
tp333
a(g107
F1424.0
F2331.0
tp334
a(g20
F2331.0
F2335.0
tp335
a(g22
F2336.0
F2344.0
tp336
a(g24
F2344.0
F2344.0
tp337
a(g26
F2344.0
F2847.0
tp338
atp339
a(L8L
g2
(lp340
(g4
I0
F0.0
tp341
a(g30
I0
F14.0
tp342
a(g50
F14.0
F17.0
tp343
a(g34
F17.0
F17.0
tp344
a(g79
F24.0
F25.0
tp345
a(g113
F25.0
F26.0
tp346
a(g115
F26.0
F28.0
tp347
a(g38
F28.0
F1409.0
tp348
atp349
a(L9L
g2
(lp350
(g75
F11.0
F14.0
tp351
a(g64
F15.0
F15.0
tp352
a(g46
F16.0
F1330.0
tp353
a(g81
F1330.0
F2161.0
tp354
atp355
a(L10L
g73
(lp356
(g12
F12.0
F17.0
tp357
a(g36
F17.0
F19.0
tp358
a(g91
F19.0
F22.0
tp359
a(g93
F22.0
F23.0
tp360
a(g77
F23.0
F24.0
tp361
a(g52
F26.0
F28.0
tp362
a(g103
F28.0
F30.0
tp363
a(g105
F30.0
F31.0
tp364
a(g54
F31.0
F2327.0
tp365
a(g56
F2847.0
F2847.0
tp366
atp367
a(L12L
g2
(lp368
(g111
F12.0
F15.0
tp369
a(g44
F15.0
F16.0
tp370
a(g68
F21.0
F22.0
tp371
a(g70
F22.0
F1468.0
tp372
atp373
a(L15L
g2
(lp374
(g60
F11.0
F14.0
tp375
a(g10
F14.0
F16.0
tp376
a(g14
F16.0
F16.0
tp377
a(g66
F20.0
F21.0
tp378
a(g85
F31.0
F32.0
tp379
a(g95
F32.0
F34.0
tp380
a(g97
F34.0
F1882.0
tp381
a(g99
F2331.0
F2336.0
tp382
atp383
a(L17L
g2
(lp384
(g6
F2.0
F11.0
tp385
a(g62
F15.0
F16.0
tp386
a(g87
F32.0
F747.0
tp387
a(g117
F747.0
F748.0
tp388
a(g119
F748.0
F1911.0
tp389
atp390
atp391
a(F2856.0
F7.56
(lp392
(L2L
g2
(lp393
(g4
I0
F0.0
tp394
a(g6
I0
F9.0
tp395
a(g8
F16.0
F17.0
tp396
a(g10
F17.0
F19.0
tp397
a(g12
F19.0
F22.0
tp398
a(g14
F22.0
F22.0
tp399
a(g16
F22.0
F23.0
tp400
a(g18
F23.0
F1426.0
tp401
a(g107
F1426.0
F2333.0
tp402
a(g20
F2333.0
F2337.0
tp403
a(g22
F2346.0
F2354.0
tp404
a(g24
F2354.0
F2354.0
tp405
a(g26
F2354.0
F2857.0
tp406
atp407
a(L8L
g2
(lp408
(g30
F2.0
F16.0
tp409
a(g32
F16.0
F19.0
tp410
a(g34
F24.0
F24.0
tp411
a(g36
F24.0
F25.0
tp412
a(g77
F25.0
F26.0
tp413
a(g115
F26.0
F28.0
tp414
a(g38
F28.0
F1409.0
tp415
atp416
a(L9L
g2
(lp417
(g42
F16.0
F18.0
tp418
a(g91
F18.0
F20.0
tp419
a(g93
F20.0
F21.0
tp420
a(g46
F21.0
F1335.0
tp421
a(g81
F1335.0
F2166.0
tp422
atp423
a(L10L
g73
(lp424
(g50
F17.0
F24.0
tp425
a(g79
F26.0
F28.0
tp426
a(g113
F28.0
F29.0
tp427
a(g52
F29.0
F31.0
tp428
a(g66
F31.0
F32.0
tp429
a(g68
F32.0
F34.0
tp430
a(g105
F34.0
F35.0
tp431
a(g85
F35.0
F36.0
tp432
a(g54
F36.0
F2332.0
tp433
a(g56
F2857.0
F2857.0
tp434
atp435
a(L12L
g2
(lp436
(g60
F9.0
F12.0
tp437
a(g111
F12.0
F15.0
tp438
a(g62
F15.0
F16.0
tp439
a(g64
F17.0
F17.0
tp440
a(g44
F17.0
F18.0
tp441
a(g70
F34.0
F1480.0
tp442
a(g87
F1480.0
F2195.0
tp443
atp444
a(L15L
g2
(lp445
(g75
F9.0
F12.0
tp446
a(g103
F12.0
F13.0
tp447
a(g95
F16.0
F18.0
tp448
a(g97
F18.0
F1866.0
tp449
a(g99
F2341.0
F2346.0
tp450
atp451
a(L17L
g73
(lp452
(g117
F13.0
F15.0
tp453
a(g119
F15.0
F2341.0
tp454
atp455
atp456
a(F3075.0
F7.17
(lp457
(L2L
g2
(lp458
(g6
F2.0
F11.0
tp459
a(g8
F14.0
F15.0
tp460
a(g32
F15.0
F18.0
tp461
a(g10
F18.0
F20.0
tp462
a(g12
F20.0
F23.0
tp463
a(g14
F23.0
F23.0
tp464
a(g16
F23.0
F24.0
tp465
a(g18
F24.0
F1427.0
tp466
a(g107
F1427.0
F2334.0
tp467
a(g20
F2560.0
F2564.0
tp468
a(g22
F2564.0
F2572.0
tp469
a(g24
F2572.0
F2572.0
tp470
a(g26
F2572.0
F3075.0
tp471
atp472
a(L4L
Vapac-sin#m1.small
p473
(lp474
(g95
F19.0
F61.0
tp475
atp476
a(L39L
g473
(lp477
(g36
F23.0
F43.0
tp478
atp479
a(L8L
g2
(lp480
(g4
I0
F0.0
tp481
a(g30
I0
F14.0
tp482
a(g77
F14.0
F15.0
tp483
a(g119
F16.0
F1179.0
tp484
a(g38
F1179.0
F2560.0
tp485
atp486
a(L9L
g2
(lp487
(g42
F14.0
F16.0
tp488
a(g91
F16.0
F18.0
tp489
a(g93
F18.0
F19.0
tp490
a(g46
F19.0
F1333.0
tp491
a(g81
F1333.0
F2164.0
tp492
atp493
a(L10L
g73
(lp494
(g50
F15.0
F22.0
tp495
a(g34
F22.0
F23.0
tp496
a(g79
F23.0
F25.0
tp497
a(g113
F25.0
F26.0
tp498
a(g52
F26.0
F28.0
tp499
a(g66
F28.0
F29.0
tp500
a(g68
F29.0
F31.0
tp501
a(g105
F31.0
F32.0
tp502
a(g85
F32.0
F33.0
tp503
a(g54
F33.0
F2329.0
tp504
a(g56
F3075.0
F3075.0
tp505
atp506
a(L12L
g2
(lp507
(g60
F11.0
F14.0
tp508
a(g111
F14.0
F17.0
tp509
a(g62
F17.0
F18.0
tp510
a(g64
F18.0
F18.0
tp511
a(g44
F18.0
F19.0
tp512
a(g70
F31.0
F1477.0
tp513
a(g87
F1477.0
F2192.0
tp514
atp515
a(L15L
g2
(lp516
(g75
F11.0
F14.0
tp517
a(g103
F14.0
F15.0
tp518
a(g117
F15.0
F16.0
tp519
a(g97
F61.0
F1909.0
tp520
a(g99
F2334.0
F2339.0
tp521
atp522
a(L48L
g473
(lp523
(g115
F20.0
F64.0
tp524
atp525
atp526
a(F3084.0
F6.93
(lp527
(L2L
g2
(lp528
(g6
F2.0
F11.0
tp529
a(g8
F14.0
F15.0
tp530
a(g10
F15.0
F17.0
tp531
a(g12
F17.0
F20.0
tp532
a(g14
F20.0
F20.0
tp533
a(g16
F20.0
F21.0
tp534
a(g18
F21.0
F1424.0
tp535
a(g107
F1424.0
F2331.0
tp536
a(g20
F2570.0
F2574.0
tp537
a(g22
F2574.0
F2582.0
tp538
a(g24
F2582.0
F2582.0
tp539
a(g26
F2582.0
F3085.0
tp540
atp541
a(L8L
g2
(lp542
(g4
I0
F0.0
tp543
a(g30
I0
F14.0
tp544
a(g32
F14.0
F17.0
tp545
a(g42
F17.0
F19.0
tp546
a(g34
F22.0
F22.0
tp547
a(g36
F22.0
F23.0
tp548
a(g77
F23.0
F24.0
tp549
a(g115
F24.0
F26.0
tp550
a(g119
F26.0
F1189.0
tp551
a(g38
F1189.0
F2570.0
tp552
atp553
a(L9L
g2
(lp554
(g91
F11.0
F13.0
tp555
a(g93
F13.0
F14.0
tp556
a(g46
F19.0
F1333.0
tp557
a(g81
F1333.0
F2164.0
tp558
atp559
a(L10L
g73
(lp560
(g50
F15.0
F22.0
tp561
a(g79
F24.0
F26.0
tp562
a(g113
F26.0
F27.0
tp563
a(g52
F27.0
F29.0
tp564
a(g66
F29.0
F30.0
tp565
a(g68
F30.0
F32.0
tp566
a(g105
F32.0
F33.0
tp567
a(g85
F33.0
F34.0
tp568
a(g54
F34.0
F2330.0
tp569
a(g56
F3085.0
F3085.0
tp570
atp571
a(L12L
g2
(lp572
(g60
F11.0
F14.0
tp573
a(g111
F14.0
F17.0
tp574
a(g62
F17.0
F18.0
tp575
a(g64
F18.0
F18.0
tp576
a(g44
F18.0
F19.0
tp577
a(g70
F32.0
F1478.0
tp578
a(g87
F1478.0
F2193.0
tp579
atp580
a(L15L
g2
(lp581
(g75
F11.0
F14.0
tp582
a(g103
F14.0
F15.0
tp583
a(g95
F18.0
F20.0
tp584
a(g117
F20.0
F21.0
tp585
a(g97
F21.0
F1869.0
tp586
a(g99
F2331.0
F2336.0
tp587
atp588
atp589
a.