(lp0
(F1718.0
F6.3
(lp1
(L8L
Vapac-sin#m3.2xlarge
p2
(lp3
(VID00004
p4
F33.0
F36.0
tp5
a(VID00007
p6
F36.0
F37.0
tp7
a(VID00016
p8
F37.0
F908.0
tp9
atp10
a(L9L
g2
(lp11
(VID00005
p12
F33.0
F37.0
tp13
a(VID00013
p14
F37.0
F38.0
tp15
a(VID00014
p16
F38.0
F39.0
tp17
a(VID00020
p18
F41.0
F1291.0
tp19
atp20
a(L2L
g2
(lp21
(S'entry'
p22
I0
F0.0
tp23
a(VID00000
p24
I0
F32.0
tp25
a(VID00001
p26
F32.0
F34.0
tp27
a(VID00006
p28
F34.0
F35.0
tp29
a(VID00009
p30
F36.0
F37.0
tp31
a(VID00012
p32
F37.0
F39.0
tp33
a(VID00017
p34
F39.0
F1023.0
tp35
a(VID00021
p36
F1291.0
F1296.0
tp37
a(VID00022
p38
F1296.0
F1296.0
tp39
a(VID00023
p40
F1296.0
F1719.0
tp41
a(S'exit'
p42
F1719.0
F1719.0
tp43
atp44
a(L11L
g2
(lp45
(VID00002
p46
F33.0
F36.0
tp47
a(VID00011
p48
F36.0
F37.0
tp49
a(VID00018
p50
F38.0
F784.0
tp51
atp52
a(L10L
g2
(lp53
(VID00003
p54
F33.0
F36.0
tp55
a(VID00008
p56
F36.0
F37.0
tp57
a(VID00010
p58
F37.0
F39.0
tp59
a(VID00015
p60
F39.0
F41.0
tp61
a(VID00019
p62
F41.0
F1156.0
tp63
atp64
atp65
a(F1962.0
F5.67
(lp66
(L8L
g2
(lp67
(g4
F33.0
F36.0
tp68
a(g54
F36.0
F39.0
tp69
a(g32
F39.0
F41.0
tp70
a(g8
F44.0
F915.0
tp71
atp72
a(L9L
g2
(lp73
(g12
F33.0
F37.0
tp74
a(g30
F37.0
F38.0
tp75
a(g14
F40.0
F41.0
tp76
a(g58
F41.0
F43.0
tp77
a(g48
F43.0
F44.0
tp78
a(g16
F44.0
F45.0
tp79
a(g60
F45.0
F47.0
tp80
a(g18
F47.0
F1297.0
tp81
atp82
a(L2L
g2
(lp83
(g22
I0
F0.0
tp84
a(g24
I0
F32.0
tp85
a(g26
F32.0
F34.0
tp86
a(g28
F34.0
F35.0
tp87
a(g46
F35.0
F38.0
tp88
a(g6
F38.0
F39.0
tp89
a(g56
F39.0
F40.0
tp90
a(g34
F41.0
F1025.0
tp91
a(g36
F1533.0
F1538.0
tp92
a(g38
F1538.0
F1538.0
tp93
a(g40
F1538.0
F1961.0
tp94
a(g42
F1961.0
F1961.0
tp95
atp96
a(L19L
Vapac-sin#m3.xlarge
p97
(lp98
(g50
F41.0
F1533.0
tp99
atp100
a(L10L
g2
(lp101
(g62
F45.0
F1160.0
tp102
atp103
atp104
a(F2087.0
F5.04
(lp105
(L8L
g2
(lp106
(g4
F33.0
F36.0
tp107
a(g54
F36.0
F39.0
tp108
a(g32
F39.0
F41.0
tp109
a(g14
F41.0
F42.0
tp110
a(g8
F42.0
F913.0
tp111
a(g50
F913.0
F1659.0
tp112
atp113
a(L9L
g2
(lp114
(g12
F33.0
F37.0
tp115
a(g30
F37.0
F38.0
tp116
a(g58
F38.0
F40.0
tp117
a(g48
F40.0
F41.0
tp118
a(g16
F41.0
F42.0
tp119
a(g60
F42.0
F44.0
tp120
a(g18
F44.0
F1294.0
tp121
atp122
a(L2L
g2
(lp123
(g22
I0
F0.0
tp124
a(g24
I0
F32.0
tp125
a(g26
F32.0
F34.0
tp126
a(g28
F34.0
F35.0
tp127
a(g46
F35.0
F38.0
tp128
a(g6
F38.0
F39.0
tp129
a(g56
F39.0
F40.0
tp130
a(g34
F41.0
F1025.0
tp131
a(g36
F1659.0
F1664.0
tp132
a(g38
F1664.0
F1664.0
tp133
a(g40
F1664.0
F2087.0
tp134
a(g42
F2087.0
F2087.0
tp135
atp136
a(L10L
g2
(lp137
(g62
F42.0
F1157.0
tp138
atp139
atp140
a(F2330.0
F3.78
(lp141
(L8L
g2
(lp142
(g4
F33.0
F36.0
tp143
a(g54
F36.0
F39.0
tp144
a(g32
F39.0
F41.0
tp145
a(g8
F41.0
F912.0
tp146
a(g34
F912.0
F1896.0
tp147
atp148
a(L9L
g2
(lp149
(g12
F33.0
F37.0
tp150
a(g30
F37.0
F38.0
tp151
a(g58
F38.0
F40.0
tp152
a(g48
F40.0
F41.0
tp153
a(g16
F41.0
F42.0
tp154
a(g60
F42.0
F44.0
tp155
a(g18
F44.0
F1294.0
tp156
atp157
a(L2L
g2
(lp158
(g22
I0
F0.0
tp159
a(g24
I0
F32.0
tp160
a(g26
F32.0
F34.0
tp161
a(g28
F34.0
F35.0
tp162
a(g46
F35.0
F38.0
tp163
a(g6
F38.0
F39.0
tp164
a(g56
F39.0
F40.0
tp165
a(g14
F40.0
F41.0
tp166
a(g50
F41.0
F787.0
tp167
a(g62
F787.0
F1902.0
tp168
a(g36
F1902.0
F1907.0
tp169
a(g38
F1907.0
F1907.0
tp170
a(g40
F1907.0
F2330.0
tp171
a(g42
F2330.0
F2330.0
tp172
atp173
atp174
a(F2972.0
F3.15
(lp175
(L8L
g2
(lp176
(g4
F33.0
F36.0
tp177
a(g12
F36.0
F40.0
tp178
a(g54
F40.0
F43.0
tp179
a(g56
F43.0
F44.0
tp180
a(g32
F44.0
F46.0
tp181
a(g14
F46.0
F47.0
tp182
a(g48
F47.0
F48.0
tp183
a(g8
F48.0
F919.0
tp184
a(g34
F919.0
F1903.0
tp185
atp186
a(L9L
g97
(lp187
(g30
F37.0
F39.0
tp188
a(g16
F39.0
F42.0
tp189
a(g18
F44.0
F2544.0
tp190
atp191
a(L2L
g2
(lp192
(g22
I0
F0.0
tp193
a(g24
I0
F32.0
tp194
a(g26
F32.0
F34.0
tp195
a(g28
F34.0
F35.0
tp196
a(g46
F35.0
F38.0
tp197
a(g6
F38.0
F39.0
tp198
a(g58
F40.0
F42.0
tp199
a(g60
F42.0
F44.0
tp200
a(g50
F47.0
F793.0
tp201
a(g62
F793.0
F1908.0
tp202
a(g36
F2544.0
F2549.0
tp203
a(g38
F2549.0
F2549.0
tp204
a(g40
F2549.0
F2972.0
tp205
a(g42
F2972.0
F2972.0
tp206
atp207
atp208
a(F3310.0
F2.52
(lp209
(L8L
g97
(lp210
(g26
F33.0
F37.0
tp211
a(g28
F37.0
F38.0
tp212
a(g4
F38.0
F44.0
tp213
a(g12
F44.0
F51.0
tp214
a(g54
F51.0
F56.0
tp215
a(g30
F56.0
F58.0
tp216
a(g56
F58.0
F60.0
tp217
a(g58
F60.0
F63.0
tp218
a(g8
F65.0
F1807.0
tp219
atp220
a(L9L
g97
(lp221
(g14
F60.0
F62.0
tp222
a(g48
F62.0
F65.0
tp223
a(g16
F65.0
F68.0
tp224
a(g60
F68.0
F71.0
tp225
a(g18
F71.0
F2571.0
tp226
atp227
a(L2L
g2
(lp228
(g22
I0
F0.0
tp229
a(g24
I0
F32.0
tp230
a(g46
F32.0
F35.0
tp231
a(g6
F35.0
F36.0
tp232
a(g32
F36.0
F38.0
tp233
a(g34
F38.0
F1022.0
tp234
a(g50
F1022.0
F1768.0
tp235
a(g62
F1768.0
F2883.0
tp236
a(g36
F2883.0
F2888.0
tp237
a(g38
F2888.0
F2888.0
tp238
a(g40
F2888.0
F3311.0
tp239
a(g42
F3311.0
F3311.0
tp240
atp241
atp242
a(F6621.0
F2.2
(lp243
(L8L
Vapac-sin#m3.large
p244
(lp245
(g4
F65.0
F76.0
tp246
a(g12
F76.0
F91.0
tp247
a(g54
F91.0
F101.0
tp248
a(g56
F101.0
F105.0
tp249
a(g58
F105.0
F111.0
tp250
a(g8
F111.0
F3595.0
tp251
atp252
a(L9L
g97
(lp253
(g22
I0
F0.0
tp254
a(g24
I0
F64.0
tp255
a(g46
F64.0
F69.0
tp256
a(g6
F69.0
F71.0
tp257
a(g30
F77.0
F79.0
tp258
a(g14
F105.0
F107.0
tp259
a(g48
F107.0
F110.0
tp260
a(g16
F110.0
F113.0
tp261
a(g60
F113.0
F116.0
tp262
a(g18
F116.0
F2616.0
tp263
atp264
a(L2L
g97
(lp265
(g26
F65.0
F69.0
tp266
a(g28
F69.0
F70.0
tp267
a(g32
F72.0
F76.0
tp268
a(g34
F76.0
F2043.0
tp269
a(g50
F2043.0
F3535.0
tp270
a(g62
F3535.0
F5765.0
tp271
a(g36
F5765.0
F5776.0
tp272
a(g38
F5776.0
F5776.0
tp273
a(g40
F5776.0
F6622.0
tp274
a(g42
F6622.0
F6622.0
tp275
atp276
atp277
a.