(lp0
(F9192.0
F61.74
(lp1
(L2L
Vapac-sin#m3.2xlarge
p2
(lp3
(S'entry'
p4
I0
F0.0
tp5
a(VID00000
p6
I0
F11.0
tp7
a(VID00020
p8
F11.0
F11.0
tp9
a(VID00044
p10
F11.0
F11.0
tp11
a(VID00068
p12
F11.0
F11.0
tp13
a(VID00045
p14
F12.0
F12.0
tp15
a(VID00069
p16
F12.0
F13.0
tp17
a(VID00093
p18
F13.0
F4786.0
tp19
a(VID00097
p20
F7264.0
F7267.0
tp21
a(VID00098
p22
F7267.0
F7267.0
tp23
a(VID00099
p24
F7267.0
F9192.0
tp25
a(S'exit'
p26
F9192.0
F9192.0
tp27
atp28
a(L8L
g2
(lp29
(VID00021
p30
F11.0
F12.0
tp31
a(VID00081
p32
F12.0
F4123.0
tp33
atp34
a(L9L
g2
(lp35
(VID00022
p36
F11.0
F11.0
tp37
a(VID00046
p38
F11.0
F11.0
tp39
a(VID00070
p40
F11.0
F11.0
tp41
a(VID00025
p42
F11.0
F11.0
tp43
a(VID00049
p44
F11.0
F11.0
tp45
a(VID00073
p46
F11.0
F4052.0
tp47
atp48
a(L10L
g2
(lp49
(VID00024
p50
F11.0
F11.0
tp51
a(VID00048
p52
F11.0
F11.0
tp53
a(VID00072
p54
F11.0
F11.0
tp55
a(VID00030
p56
F11.0
F11.0
tp57
a(VID00054
p58
F11.0
F11.0
tp59
a(VID00078
p60
F11.0
F4524.0
tp61
atp62
a(L11L
g2
(lp63
(VID00001
p64
F11.0
F11.0
tp65
a(VID00079
p66
F11.0
F7264.0
tp67
atp68
a(L12L
g2
(lp69
(VID00006
p70
F11.0
F11.0
tp71
a(VID00052
p72
F11.0
F11.0
tp73
a(VID00076
p74
F11.0
F5567.0
tp75
atp76
a(L13L
g2
(lp77
(VID00007
p78
F11.0
F11.0
tp79
a(VID00031
p80
F11.0
F11.0
tp81
a(VID00055
p82
F11.0
F11.0
tp83
a(VID00053
p84
F11.0
F11.0
tp85
a(VID00077
p86
F11.0
F6272.0
tp87
atp88
a(L14L
g2
(lp89
(VID00004
p90
F11.0
F11.0
tp91
a(VID00028
p92
F11.0
F11.0
tp93
a(VID00071
p94
F11.0
F11.0
tp95
a(VID00075
p96
F11.0
F6149.0
tp97
atp98
a(L15L
g2
(lp99
(VID00005
p100
F11.0
F11.0
tp101
a(VID00029
p102
F11.0
F11.0
tp103
a(VID00027
p104
F11.0
F11.0
tp105
a(VID00051
p106
F11.0
F11.0
tp107
a(VID00057
p108
F12.0
F12.0
tp109
a(VID00096
p110
F40.0
F4040.0
tp111
atp112
a(L16L
g2
(lp113
(VID00023
p114
F11.0
F11.0
tp115
a(VID00047
p116
F11.0
F11.0
tp117
a(VID00026
p118
F11.0
F11.0
tp119
a(VID00050
p120
F11.0
F11.0
tp121
a(VID00074
p122
F11.0
F5101.0
tp123
atp124
a(L17L
g2
(lp125
(VID00003
p126
F11.0
F11.0
tp127
a(VID00033
p128
F12.0
F12.0
tp129
a(VID00092
p130
F12.0
F4976.0
tp131
atp132
a(L18L
g2
(lp133
(VID00002
p134
F11.0
F11.0
tp135
a(VID00032
p136
F11.0
F11.0
tp137
a(VID00056
p138
F11.0
F11.0
tp139
a(VID00080
p140
F11.0
F5585.0
tp141
atp142
a(L19L
g2
(lp143
(VID00009
p144
F11.0
F12.0
tp145
a(VID00095
p146
F12.0
F4886.0
tp147
atp148
a(L20L
g2
(lp149
(VID00008
p150
F11.0
F11.0
tp151
a(VID00036
p152
F11.0
F11.0
tp153
a(VID00060
p154
F11.0
F11.0
tp155
a(VID00084
p156
F11.0
F3566.0
tp157
atp158
a(L21L
g2
(lp159
(VID00094
p160
F11.0
F7228.0
tp161
atp162
a(L22L
g2
(lp163
(VID00012
p164
F11.0
F11.0
tp165
a(VID00082
p166
F11.0
F6120.0
tp167
atp168
a(L23L
g2
(lp169
(VID00013
p170
F11.0
F11.0
tp171
a(VID00037
p172
F11.0
F11.0
tp173
a(VID00061
p174
F11.0
F11.0
tp175
a(VID00085
p176
F11.0
F4377.0
tp177
atp178
a(L24L
g2
(lp179
(VID00010
p180
F11.0
F11.0
tp181
a(VID00034
p182
F11.0
F11.0
tp183
a(VID00058
p184
F11.0
F11.0
tp185
a(VID00083
p186
F11.0
F4168.0
tp187
atp188
a(L25L
g2
(lp189
(VID00011
p190
F11.0
F11.0
tp191
a(VID00035
p192
F11.0
F11.0
tp193
a(VID00059
p194
F11.0
F11.0
tp195
a(VID00039
p196
F12.0
F12.0
tp197
a(VID00063
p198
F12.0
F12.0
tp199
a(VID00087
p200
F12.0
F4222.0
tp201
atp202
a(L26L
g2
(lp203
(VID00016
p204
F11.0
F11.0
tp205
a(VID00040
p206
F11.0
F11.0
tp207
a(VID00064
p208
F11.0
F11.0
tp209
a(VID00088
p210
F11.0
F3161.0
tp211
atp212
a(L27L
g2
(lp213
(VID00017
p214
F11.0
F11.0
tp215
a(VID00041
p216
F11.0
F11.0
tp217
a(VID00065
p218
F11.0
F11.0
tp219
a(VID00089
p220
F11.0
F6577.0
tp221
atp222
a(L28L
g2
(lp223
(VID00014
p224
F11.0
F11.0
tp225
a(VID00038
p226
F11.0
F11.0
tp227
a(VID00062
p228
F11.0
F11.0
tp229
a(VID00086
p230
F11.0
F5964.0
tp231
atp232
a(L30L
g2
(lp233
(VID00018
p234
F11.0
F11.0
tp235
a(VID00042
p236
F11.0
F11.0
tp237
a(VID00066
p238
F11.0
F11.0
tp239
a(VID00090
p240
F11.0
F4362.0
tp241
atp242
a(L31L
g2
(lp243
(VID00015
p244
F11.0
F12.0
tp245
a(VID00019
p246
F12.0
F12.0
tp247
a(VID00043
p248
F12.0
F12.0
tp249
a(VID00067
p250
F12.0
F12.0
tp251
a(VID00091
p252
F12.0
F5396.0
tp253
atp254
atp255
a(F11803.0
F59.22
(lp256
(L2L
g2
(lp257
(g4
I0
F0.0
tp258
a(g6
I0
F11.0
tp259
a(g8
F11.0
F11.0
tp260
a(g10
F11.0
F11.0
tp261
a(g12
F11.0
F11.0
tp262
a(g122
F11.0
F5101.0
tp263
a(g18
F5101.0
F9874.0
tp264
a(g20
F9874.0
F9877.0
tp265
a(g22
F9877.0
F9877.0
tp266
a(g24
F9877.0
F11802.0
tp267
a(g26
F11802.0
F11802.0
tp268
atp269
a(L9L
g2
(lp270
(g38
F11.0
F11.0
tp271
a(g42
F13.0
F13.0
tp272
a(g44
F13.0
F13.0
tp273
a(g46
F13.0
F4054.0
tp274
atp275
a(L10L
g2
(lp276
(g50
F11.0
F11.0
tp277
a(g52
F11.0
F11.0
tp278
a(g54
F11.0
F11.0
tp279
a(g56
F11.0
F11.0
tp280
a(g58
F11.0
F11.0
tp281
a(g60
F11.0
F4524.0
tp282
atp283
a(L11L
g2
(lp284
(g16
F12.0
F13.0
tp285
a(g64
F13.0
F13.0
tp286
a(g66
F13.0
F7266.0
tp287
atp288
a(L12L
g2
(lp289
(g72
F12.0
F12.0
tp290
a(g74
F12.0
F5568.0
tp291
atp292
a(L13L
g2
(lp293
(g70
F11.0
F11.0
tp294
a(g78
F11.0
F11.0
tp295
a(g82
F12.0
F12.0
tp296
a(g86
F12.0
F6273.0
tp297
atp298
a(L14L
g2
(lp299
(g14
F12.0
F12.0
tp300
a(g90
F12.0
F12.0
tp301
a(g92
F12.0
F12.0
tp302
a(g126
F12.0
F12.0
tp303
a(g96
F12.0
F6150.0
tp304
atp305
a(L15L
g2
(lp306
(g110
F40.0
F4040.0
tp307
atp308
a(L17L
g2
(lp309
(g130
F11.0
F4975.0
tp310
atp311
a(L18L
g2
(lp312
(g100
F11.0
F11.0
tp313
a(g134
F11.0
F11.0
tp314
a(g118
F11.0
F11.0
tp315
a(g136
F12.0
F12.0
tp316
a(g138
F12.0
F12.0
tp317
a(g140
F12.0
F5586.0
tp318
atp319
a(L19L
g2
(lp320
(g30
F11.0
F12.0
tp321
a(g80
F12.0
F12.0
tp322
a(g94
F12.0
F12.0
tp323
a(g106
F12.0
F12.0
tp324
a(g32
F12.0
F4123.0
tp325
a(g146
F4123.0
F8997.0
tp326
atp327
a(L20L
g2
(lp328
(g84
F11.0
F11.0
tp329
a(g108
F12.0
F12.0
tp330
a(g150
F12.0
F12.0
tp331
a(g152
F12.0
F12.0
tp332
a(g154
F12.0
F12.0
tp333
a(g156
F12.0
F3567.0
tp334
atp335
a(L21L
g2
(lp336
(g160
F11.0
F7228.0
tp337
atp338
a(L22L
g2
(lp339
(g114
F11.0
F11.0
tp340
a(g104
F12.0
F12.0
tp341
a(g164
F12.0
F12.0
tp342
a(g166
F12.0
F6121.0
tp343
atp344
a(L23L
g2
(lp345
(g170
F11.0
F11.0
tp346
a(g172
F11.0
F11.0
tp347
a(g174
F11.0
F11.0
tp348
a(g176
F11.0
F4377.0
tp349
atp350
a(L24L
g2
(lp351
(g128
F12.0
F12.0
tp352
a(g180
F12.0
F12.0
tp353
a(g182
F12.0
F12.0
tp354
a(g184
F12.0
F12.0
tp355
a(g186
F12.0
F4169.0
tp356
atp357
a(L25L
g2
(lp358
(g190
F11.0
F11.0
tp359
a(g192
F11.0
F11.0
tp360
a(g194
F11.0
F11.0
tp361
a(g196
F12.0
F12.0
tp362
a(g198
F12.0
F12.0
tp363
a(g200
F12.0
F4222.0
tp364
atp365
a(L26L
g2
(lp366
(g144
F11.0
F12.0
tp367
a(g204
F12.0
F12.0
tp368
a(g206
F12.0
F12.0
tp369
a(g208
F12.0
F12.0
tp370
a(g210
F12.0
F3162.0
tp371
atp372
a(L27L
g2
(lp373
(g36
F11.0
F11.0
tp374
a(g102
F11.0
F11.0
tp375
a(g120
F11.0
F11.0
tp376
a(g214
F11.0
F11.0
tp377
a(g216
F11.0
F11.0
tp378
a(g218
F11.0
F11.0
tp379
a(g220
F11.0
F6577.0
tp380
atp381
a(L28L
g2
(lp382
(g40
F11.0
F11.0
tp383
a(g116
F11.0
F11.0
tp384
a(g224
F11.0
F11.0
tp385
a(g226
F11.0
F11.0
tp386
a(g228
F11.0
F11.0
tp387
a(g230
F11.0
F5964.0
tp388
atp389
a(L30L
g2
(lp390
(g234
F11.0
F11.0
tp391
a(g236
F11.0
F11.0
tp392
a(g238
F11.0
F11.0
tp393
a(g240
F11.0
F4362.0
tp394
atp395
a(L31L
g2
(lp396
(g244
F11.0
F12.0
tp397
a(g246
F12.0
F12.0
tp398
a(g248
F12.0
F12.0
tp399
a(g250
F12.0
F12.0
tp400
a(g252
F12.0
F5396.0
tp401
atp402
atp403
a(F12710.0
F55.44
(lp404
(L2L
g2
(lp405
(g4
I0
F0.0
tp406
a(g6
I0
F11.0
tp407
a(g8
F11.0
F11.0
tp408
a(g10
F11.0
F11.0
tp409
a(g12
F11.0
F11.0
tp410
a(g122
F11.0
F5101.0
tp411
a(g18
F5101.0
F9874.0
tp412
a(g20
F10781.0
F10784.0
tp413
a(g22
F10784.0
F10784.0
tp414
a(g24
F10784.0
F12709.0
tp415
a(g26
F12709.0
F12709.0
tp416
atp417
a(L9L
g2
(lp418
(g38
F11.0
F11.0
tp419
a(g42
F13.0
F13.0
tp420
a(g44
F13.0
F13.0
tp421
a(g46
F13.0
F4054.0
tp422
atp423
a(L10L
g2
(lp424
(g50
F11.0
F11.0
tp425
a(g52
F11.0
F11.0
tp426
a(g54
F11.0
F11.0
tp427
a(g56
F11.0
F11.0
tp428
a(g58
F11.0
F11.0
tp429
atp430
a(L11L
g2
(lp431
(g16
F12.0
F13.0
tp432
a(g64
F13.0
F13.0
tp433
a(g66
F13.0
F7266.0
tp434
a(g210
F7266.0
F10416.0
tp435
atp436
a(L12L
g2
(lp437
(g60
F11.0
F4524.0
tp438
a(g72
F4524.0
F4524.0
tp439
a(g74
F4524.0
F10080.0
tp440
atp441
a(L13L
g2
(lp442
(g70
F11.0
F11.0
tp443
a(g78
F11.0
F11.0
tp444
a(g82
F12.0
F12.0
tp445
a(g86
F12.0
F6273.0
tp446
atp447
a(L14L
g2
(lp448
(g14
F12.0
F12.0
tp449
a(g90
F12.0
F12.0
tp450
a(g92
F12.0
F12.0
tp451
a(g126
F12.0
F12.0
tp452
a(g96
F12.0
F6150.0
tp453
atp454
a(L15L
g2
(lp455
(g110
F40.0
F4040.0
tp456
atp457
a(L17L
Vapac-sin#m3.xlarge
p458
(lp459
(g130
F11.0
F9940.0
tp460
atp461
a(L18L
g2
(lp462
(g100
F11.0
F11.0
tp463
a(g134
F11.0
F11.0
tp464
a(g118
F11.0
F11.0
tp465
a(g138
F12.0
F12.0
tp466
a(g140
F12.0
F5586.0
tp467
atp468
a(L19L
g2
(lp469
(g30
F11.0
F12.0
tp470
a(g80
F12.0
F12.0
tp471
a(g94
F12.0
F12.0
tp472
a(g106
F12.0
F12.0
tp473
a(g32
F12.0
F4123.0
tp474
a(g146
F4123.0
F8997.0
tp475
atp476
a(L20L
g2
(lp477
(g84
F11.0
F11.0
tp478
a(g108
F12.0
F12.0
tp479
a(g150
F12.0
F12.0
tp480
a(g152
F12.0
F12.0
tp481
a(g154
F12.0
F12.0
tp482
a(g156
F12.0
F3567.0
tp483
atp484
a(L21L
g2
(lp485
(g160
F11.0
F7228.0
tp486
atp487
a(L22L
g2
(lp488
(g114
F11.0
F11.0
tp489
a(g104
F12.0
F12.0
tp490
a(g164
F12.0
F12.0
tp491
a(g166
F13.0
F6122.0
tp492
atp493
a(L23L
g458
(lp494
(g170
F11.0
F11.0
tp495
a(g172
F11.0
F11.0
tp496
a(g174
F11.0
F11.0
tp497
a(g176
F11.0
F8743.0
tp498
atp499
a(L24L
g458
(lp500
(g128
F12.0
F12.0
tp501
a(g180
F12.0
F13.0
tp502
a(g182
F13.0
F13.0
tp503
a(g184
F13.0
F13.0
tp504
a(g186
F13.0
F8326.0
tp505
atp506
a(L25L
g2
(lp507
(g190
F11.0
F11.0
tp508
a(g192
F11.0
F11.0
tp509
a(g194
F11.0
F11.0
tp510
a(g196
F12.0
F12.0
tp511
a(g198
F12.0
F12.0
tp512
a(g200
F12.0
F4222.0
tp513
atp514
a(L26L
g458
(lp515
(g144
F11.0
F12.0
tp516
a(g204
F12.0
F13.0
tp517
a(g208
F13.0
F13.0
tp518
atp519
a(L27L
g2
(lp520
(g36
F11.0
F11.0
tp521
a(g102
F11.0
F11.0
tp522
a(g120
F11.0
F11.0
tp523
a(g206
F13.0
F13.0
tp524
a(g214
F13.0
F13.0
tp525
a(g216
F13.0
F13.0
tp526
a(g218
F13.0
F13.0
tp527
a(g220
F13.0
F6579.0
tp528
atp529
a(L28L
g2
(lp530
(g40
F11.0
F11.0
tp531
a(g116
F11.0
F11.0
tp532
a(g136
F12.0
F12.0
tp533
a(g224
F12.0
F12.0
tp534
a(g226
F12.0
F12.0
tp535
a(g228
F12.0
F12.0
tp536
a(g230
F12.0
F5965.0
tp537
atp538
a(L30L
g458
(lp539
(g234
F11.0
F12.0
tp540
a(g236
F12.0
F12.0
tp541
a(g238
F12.0
F12.0
tp542
a(g240
F12.0
F8715.0
tp543
atp544
a(L31L
g458
(lp545
(g244
F11.0
F12.0
tp546
a(g246
F12.0
F12.0
tp547
a(g248
F12.0
F12.0
tp548
a(g250
F12.0
F12.0
tp549
a(g252
F12.0
F10781.0
tp550
atp551
atp552
a(F15110.0
F51.19
(lp553
(L2L
g2
(lp554
(g4
I0
F0.0
tp555
a(g6
I0
F11.0
tp556
a(g8
F11.0
F11.0
tp557
a(g10
F11.0
F11.0
tp558
a(g12
F11.0
F11.0
tp559
a(g56
F11.0
F11.0
tp560
a(g122
F11.0
F5101.0
tp561
a(g18
F5101.0
F9874.0
tp562
a(g20
F13181.0
F13184.0
tp563
a(g22
F13184.0
F13184.0
tp564
a(g24
F13184.0
F15109.0
tp565
a(g26
F15109.0
F15109.0
tp566
atp567
a(L9L
g2
(lp568
(g38
F11.0
F11.0
tp569
a(g42
F13.0
F13.0
tp570
a(g44
F13.0
F13.0
tp571
a(g46
F13.0
F4054.0
tp572
a(g200
F4054.0
F8264.0
tp573
atp574
a(L10L
g2
(lp575
(g50
F11.0
F11.0
tp576
a(g52
F11.0
F11.0
tp577
a(g54
F11.0
F11.0
tp578
a(g58
F11.0
F11.0
tp579
a(g60
F11.0
F4524.0
tp580
atp581
a(L11L
g2
(lp582
(g16
F12.0
F13.0
tp583
a(g64
F13.0
F13.0
tp584
a(g66
F13.0
F7266.0
tp585
a(g210
F7266.0
F10416.0
tp586
atp587
a(L12L
g2
(lp588
(g72
F12.0
F12.0
tp589
a(g74
F12.0
F5568.0
tp590
a(g130
F5568.0
F10532.0
tp591
atp592
a(L13L
g2
(lp593
(g70
F11.0
F11.0
tp594
a(g78
F11.0
F11.0
tp595
a(g82
F12.0
F12.0
tp596
a(g86
F12.0
F6273.0
tp597
a(g176
F6273.0
F10639.0
tp598
atp599
a(L14L
g2
(lp600
(g14
F12.0
F12.0
tp601
a(g90
F12.0
F12.0
tp602
a(g92
F12.0
F12.0
tp603
a(g126
F12.0
F12.0
tp604
a(g96
F12.0
F6150.0
tp605
atp606
a(L18L
g2
(lp607
(g100
F11.0
F11.0
tp608
a(g134
F11.0
F11.0
tp609
a(g118
F11.0
F11.0
tp610
a(g150
F11.0
F11.0
tp611
a(g140
F16.0
F5590.0
tp612
a(g110
F5590.0
F9590.0
tp613
atp614
a(L19L
g2
(lp615
(g30
F11.0
F12.0
tp616
a(g80
F12.0
F12.0
tp617
a(g94
F12.0
F12.0
tp618
a(g106
F12.0
F12.0
tp619
a(g32
F26.0
F4137.0
tp620
a(g146
F4137.0
F9011.0
tp621
atp622
a(L20L
g2
(lp623
(g84
F11.0
F11.0
tp624
a(g108
F26.0
F26.0
tp625
a(g152
F26.0
F26.0
tp626
a(g154
F26.0
F26.0
tp627
a(g156
F26.0
F3581.0
tp628
atp629
a(L22L
g2
(lp630
(g114
F11.0
F11.0
tp631
a(g104
F12.0
F12.0
tp632
a(g164
F12.0
F12.0
tp633
a(g172
F26.0
F26.0
tp634
a(g166
F27.0
F6136.0
tp635
atp636
a(L24L
g458
(lp637
(g128
F26.0
F26.0
tp638
a(g170
F26.0
F26.0
tp639
a(g180
F26.0
F27.0
tp640
a(g182
F27.0
F27.0
tp641
a(g184
F27.0
F27.0
tp642
a(g186
F44.0
F8357.0
tp643
atp644
a(L25L
Vapac-sin#m1.small
p645
(lp646
(g138
F11.0
F16.0
tp647
a(g174
F26.0
F28.0
tp648
a(g190
F28.0
F36.0
tp649
a(g192
F36.0
F39.0
tp650
a(g194
F39.0
F44.0
tp651
a(g196
F44.0
F50.0
tp652
a(g198
F50.0
F60.0
tp653
atp654
a(L26L
g645
(lp655
(g144
F11.0
F26.0
tp656
a(g204
F26.0
F34.0
tp657
a(g208
F34.0
F37.0
tp658
atp659
a(L27L
g2
(lp660
(g36
F11.0
F11.0
tp661
a(g102
F11.0
F11.0
tp662
a(g120
F11.0
F11.0
tp663
a(g206
F34.0
F34.0
tp664
a(g214
F34.0
F34.0
tp665
a(g216
F34.0
F34.0
tp666
a(g218
F34.0
F34.0
tp667
a(g220
F34.0
F6600.0
tp668
atp669
a(L28L
g2
(lp670
(g40
F11.0
F11.0
tp671
a(g160
F11.0
F7228.0
tp672
a(g224
F7228.0
F7228.0
tp673
a(g226
F7228.0
F7228.0
tp674
a(g228
F7228.0
F7228.0
tp675
a(g230
F7228.0
F13181.0
tp676
atp677
a(L30L
g458
(lp678
(g116
F11.0
F11.0
tp679
a(g234
F11.0
F12.0
tp680
a(g236
F12.0
F12.0
tp681
a(g238
F12.0
F12.0
tp682
a(g240
F12.0
F8715.0
tp683
atp684
a(L31L
g458
(lp685
(g136
F11.0
F11.0
tp686
a(g244
F11.0
F12.0
tp687
a(g246
F12.0
F12.0
tp688
a(g248
F12.0
F12.0
tp689
a(g250
F12.0
F12.0
tp690
a(g252
F12.0
F10781.0
tp691
atp692
atp693
a(F19348.0
F47.33
(lp694
(L2L
g2
(lp695
(g4
I0
F0.0
tp696
a(g6
I0
F11.0
tp697
a(g8
F11.0
F11.0
tp698
a(g10
F11.0
F11.0
tp699
a(g12
F11.0
F11.0
tp700
a(g122
F11.0
F5101.0
tp701
a(g18
F5101.0
F9874.0
tp702
a(g160
F9874.0
F17091.0
tp703
a(g20
F17420.0
F17423.0
tp704
a(g22
F17423.0
F17423.0
tp705
a(g24
F17423.0
F19348.0
tp706
a(g26
F19348.0
F19348.0
tp707
atp708
a(L71L
Vapac-sin#m1.large
p709
(lp710
(g136
F29.0
F30.0
tp711
atp712
a(L9L
Vapac-sin#m3.large
p713
(lp714
(g38
F11.0
F11.0
tp715
a(g42
F16.0
F17.0
tp716
a(g44
F17.0
F18.0
tp717
a(g46
F18.0
F16181.0
tp718
atp719
a(L10L
g458
(lp720
(g50
F11.0
F11.0
tp721
a(g52
F11.0
F11.0
tp722
a(g54
F11.0
F11.0
tp723
a(g56
F11.0
F11.0
tp724
a(g58
F11.0
F11.0
tp725
a(g60
F11.0
F9037.0
tp726
a(g110
F9037.0
F17037.0
tp727
atp728
a(L11L
g2
(lp729
(g16
F15.0
F16.0
tp730
a(g64
F16.0
F16.0
tp731
a(g66
F16.0
F7269.0
tp732
a(g210
F7269.0
F10419.0
tp733
atp734
a(L12L
g2
(lp735
(g72
F16.0
F16.0
tp736
a(g74
F16.0
F5572.0
tp737
a(g130
F5572.0
F10536.0
tp738
atp739
a(L13L
g2
(lp740
(g70
F11.0
F11.0
tp741
a(g78
F11.0
F11.0
tp742
a(g82
F15.0
F15.0
tp743
a(g86
F15.0
F6276.0
tp744
a(g176
F6276.0
F10642.0
tp745
atp746
a(L14L
g458
(lp747
(g14
F15.0
F15.0
tp748
a(g90
F15.0
F16.0
tp749
a(g92
F16.0
F16.0
tp750
a(g126
F16.0
F17.0
tp751
a(g96
F18.0
F12295.0
tp752
atp753
a(L18L
g2
(lp754
(g100
F11.0
F11.0
tp755
a(g134
F11.0
F11.0
tp756
a(g118
F11.0
F11.0
tp757
a(g138
F30.0
F30.0
tp758
a(g140
F30.0
F5604.0
tp759
a(g146
F5604.0
F10478.0
tp760
atp761
a(L19L
g713
(lp762
(g30
F11.0
F15.0
tp763
a(g80
F15.0
F15.0
tp764
a(g94
F15.0
F16.0
tp765
a(g106
F17.0
F18.0
tp766
a(g32
F28.0
F16474.0
tp767
atp768
a(L20L
g458
(lp769
(g84
F11.0
F11.0
tp770
a(g108
F27.0
F28.0
tp771
a(g150
F28.0
F29.0
tp772
a(g152
F29.0
F29.0
tp773
a(g156
F30.0
F7140.0
tp774
atp775
a(L22L
g2
(lp776
(g114
F11.0
F11.0
tp777
a(g104
F17.0
F17.0
tp778
a(g164
F17.0
F17.0
tp779
a(g172
F28.0
F28.0
tp780
a(g166
F30.0
F6139.0
tp781
atp782
a(L24L
g713
(lp783
(g128
F26.0
F27.0
tp784
a(g170
F27.0
F28.0
tp785
a(g180
F28.0
F29.0
tp786
a(g182
F29.0
F29.0
tp787
a(g184
F29.0
F30.0
tp788
a(g186
F33.0
F16659.0
tp789
atp790
a(L25L
g713
(lp791
(g154
F29.0
F30.0
tp792
a(g190
F30.0
F31.0
tp793
a(g192
F31.0
F32.0
tp794
a(g194
F32.0
F33.0
tp795
a(g196
F33.0
F34.0
tp796
a(g198
F34.0
F36.0
tp797
a(g200
F36.0
F16878.0
tp798
atp799
a(L26L
g645
(lp800
(g144
F11.0
F26.0
tp801
a(g204
F26.0
F34.0
tp802
a(g208
F34.0
F37.0
tp803
atp804
a(L27L
g2
(lp805
(g36
F11.0
F11.0
tp806
a(g102
F11.0
F11.0
tp807
a(g120
F11.0
F11.0
tp808
a(g174
F28.0
F28.0
tp809
a(g206
F34.0
F34.0
tp810
a(g214
F34.0
F34.0
tp811
a(g216
F34.0
F34.0
tp812
a(g218
F34.0
F34.0
tp813
a(g220
F34.0
F6600.0
tp814
atp815
a(L28L
g2
(lp816
(g40
F11.0
F11.0
tp817
a(g116
F11.0
F11.0
tp818
a(g224
F11.0
F11.0
tp819
a(g226
F11.0
F11.0
tp820
a(g228
F11.0
F11.0
tp821
a(g230
F11.0
F5964.0
tp822
atp823
a(L30L
g713
(lp824
(g234
F11.0
F13.0
tp825
a(g236
F13.0
F13.0
tp826
a(g238
F13.0
F14.0
tp827
a(g240
F14.0
F17420.0
tp828
atp829
a(L31L
g458
(lp830
(g244
F11.0
F12.0
tp831
a(g246
F12.0
F12.0
tp832
a(g248
F12.0
F12.0
tp833
a(g250
F12.0
F12.0
tp834
a(g252
F12.0
F10781.0
tp835
atp836
atp837
a(F23596.0
F46.38
(lp838
(L2L
g458
(lp839
(g10
F13.0
F13.0
tp840
a(g122
F13.0
F10193.0
tp841
a(g18
F10193.0
F19740.0
tp842
a(g20
F19740.0
F19747.0
tp843
a(g22
F19747.0
F19747.0
tp844
a(g24
F19747.0
F23596.0
tp845
a(g26
F23596.0
F23596.0
tp846
atp847
a(L9L
g713
(lp848
(g44
F14.0
F15.0
tp849
a(g46
F15.0
F16178.0
tp850
atp851
a(L10L
g458
(lp852
(g16
F17.0
F18.0
tp853
a(g50
F18.0
F18.0
tp854
a(g52
F18.0
F18.0
tp855
a(g54
F18.0
F18.0
tp856
a(g56
F18.0
F18.0
tp857
a(g58
F18.0
F18.0
tp858
a(g60
F18.0
F9044.0
tp859
a(g110
F9044.0
F17044.0
tp860
atp861
a(L11L
g2
(lp862
(g6
F2.0
F13.0
tp863
a(g64
F13.0
F13.0
tp864
a(g66
F17.0
F7270.0
tp865
a(g210
F7270.0
F10420.0
tp866
atp867
a(L12L
g2
(lp868
(g70
F13.0
F13.0
tp869
a(g72
F15.0
F15.0
tp870
a(g74
F15.0
F5571.0
tp871
a(g130
F5571.0
F10535.0
tp872
atp873
a(L13L
g2
(lp874
(g4
I0
F0.0
tp875
a(g8
F13.0
F13.0
tp876
a(g78
F13.0
F13.0
tp877
a(g82
F17.0
F17.0
tp878
a(g84
F17.0
F17.0
tp879
a(g86
F17.0
F6278.0
tp880
a(g176
F6278.0
F10644.0
tp881
atp882
a(L14L
g458
(lp883
(g90
F13.0
F14.0
tp884
a(g126
F14.0
F15.0
tp885
a(g96
F19.0
F12296.0
tp886
atp887
a(L18L
g2
(lp888
(g100
F13.0
F13.0
tp889
a(g134
F13.0
F13.0
tp890
a(g118
F13.0
F13.0
tp891
a(g136
F32.0
F32.0
tp892
a(g138
F32.0
F32.0
tp893
a(g140
F32.0
F5606.0
tp894
a(g146
F5606.0
F10480.0
tp895
atp896
a(L19L
g713
(lp897
(g30
F13.0
F17.0
tp898
a(g80
F17.0
F17.0
tp899
a(g94
F17.0
F18.0
tp900
a(g106
F18.0
F19.0
tp901
a(g32
F30.0
F16476.0
tp902
atp903
a(L20L
g713
(lp904
(g42
F13.0
F14.0
tp905
a(g108
F29.0
F30.0
tp906
a(g150
F30.0
F32.0
tp907
a(g152
F32.0
F32.0
tp908
a(g154
F32.0
F33.0
tp909
a(g156
F33.0
F14253.0
tp910
atp911
a(L22L
g2
(lp912
(g114
F13.0
F13.0
tp913
a(g116
F13.0
F13.0
tp914
a(g104
F15.0
F15.0
tp915
a(g164
F15.0
F15.0
tp916
a(g172
F30.0
F30.0
tp917
a(g166
F32.0
F6141.0
tp918
atp919
a(L24L
g713
(lp920
(g128
F28.0
F29.0
tp921
a(g170
F29.0
F30.0
tp922
a(g180
F30.0
F31.0
tp923
a(g182
F31.0
F31.0
tp924
a(g184
F31.0
F32.0
tp925
a(g186
F33.0
F16659.0
tp926
atp927
a(L25L
g713
(lp928
(g174
F30.0
F30.0
tp929
a(g190
F30.0
F31.0
tp930
a(g192
F31.0
F32.0
tp931
a(g194
F32.0
F33.0
tp932
a(g196
F33.0
F34.0
tp933
a(g198
F34.0
F36.0
tp934
a(g200
F36.0
F16878.0
tp935
atp936
a(L26L
g645
(lp937
(g144
F13.0
F28.0
tp938
a(g204
F28.0
F36.0
tp939
a(g208
F36.0
F39.0
tp940
atp941
a(L27L
g2
(lp942
(g36
F13.0
F13.0
tp943
a(g102
F13.0
F13.0
tp944
a(g120
F13.0
F13.0
tp945
a(g206
F36.0
F36.0
tp946
a(g214
F36.0
F36.0
tp947
a(g216
F36.0
F36.0
tp948
a(g218
F36.0
F36.0
tp949
a(g220
F36.0
F6602.0
tp950
atp951
a(L28L
g2
(lp952
(g38
F13.0
F13.0
tp953
a(g40
F13.0
F13.0
tp954
a(g160
F13.0
F7230.0
tp955
a(g224
F7230.0
F7230.0
tp956
a(g226
F7230.0
F7230.0
tp957
a(g228
F7230.0
F7230.0
tp958
a(g230
F7230.0
F13183.0
tp959
atp960
a(L30L
g713
(lp961
(g12
F13.0
F14.0
tp962
a(g92
F14.0
F15.0
tp963
a(g234
F15.0
F17.0
tp964
a(g236
F17.0
F17.0
tp965
a(g238
F17.0
F18.0
tp966
a(g240
F18.0
F17424.0
tp967
atp968
a(L31L
g458
(lp969
(g14
F17.0
F17.0
tp970
a(g244
F17.0
F18.0
tp971
a(g246
F18.0
F18.0
tp972
a(g248
F18.0
F18.0
tp973
a(g250
F18.0
F18.0
tp974
a(g252
F18.0
F10787.0
tp975
atp976
atp977
a(F47183.0
F45.75
(lp978
(L2L
g713
(lp979
(g10
F15.0
F16.0
tp980
a(g122
F17.0
F20378.0
tp981
a(g18
F20378.0
F39471.0
tp982
a(g20
F39471.0
F39484.0
tp983
a(g22
F39484.0
F39484.0
tp984
a(g24
F39484.0
F47182.0
tp985
a(g26
F47182.0
F47182.0
tp986
atp987
a(L9L
g713
(lp988
(g44
F14.0
F15.0
tp989
a(g46
F15.0
F16178.0
tp990
atp991
a(L10L
g458
(lp992
(g16
F16.0
F17.0
tp993
a(g50
F17.0
F17.0
tp994
a(g52
F17.0
F17.0
tp995
a(g54
F17.0
F17.0
tp996
a(g56
F17.0
F17.0
tp997
a(g58
F17.0
F17.0
tp998
a(g60
F17.0
F9043.0
tp999
atp1000
a(L11L
g2
(lp1001
(g6
F3.0
F14.0
tp1002
a(g64
F14.0
F14.0
tp1003
a(g66
F17.0
F7270.0
tp1004
a(g210
F7270.0
F10420.0
tp1005
atp1006
a(L12L
g2
(lp1007
(g70
F14.0
F14.0
tp1008
a(g72
F16.0
F16.0
tp1009
a(g74
F16.0
F5572.0
tp1010
a(g130
F5572.0
F10536.0
tp1011
atp1012
a(L13L
g713
(lp1013
(g4
I0
F0.0
tp1014
a(g8
F14.0
F15.0
tp1015
a(g78
F15.0
F16.0
tp1016
a(g82
F16.0
F17.0
tp1017
a(g86
F17.0
F25060.0
tp1018
atp1019
a(L14L
g713
(lp1020
(g90
F14.0
F15.0
tp1021
a(g92
F15.0
F16.0
tp1022
a(g126
F16.0
F18.0
tp1023
a(g96
F18.0
F24572.0
tp1024
atp1025
a(L18L
g713
(lp1026
(g100
F14.0
F15.0
tp1027
a(g134
F15.0
F17.0
tp1028
a(g118
F17.0
F17.0
tp1029
a(g150
F17.0
F19.0
tp1030
a(g140
F20.0
F22316.0
tp1031
a(g110
F22316.0
F38316.0
tp1032
atp1033
a(L19L
g458
(lp1034
(g30
F14.0
F16.0
tp1035
a(g80
F16.0
F16.0
tp1036
a(g94
F16.0
F16.0
tp1037
a(g106
F18.0
F18.0
tp1038
a(g32
F30.0
F8253.0
tp1039
a(g146
F8253.0
F18001.0
tp1040
atp1041
a(L20L
g2
(lp1042
(g42
F14.0
F14.0
tp1043
a(g84
F15.0
F15.0
tp1044
a(g108
F30.0
F30.0
tp1045
a(g152
F30.0
F30.0
tp1046
a(g154
F30.0
F30.0
tp1047
a(g156
F30.0
F3585.0
tp1048
atp1049
a(L22L
g713
(lp1050
(g114
F14.0
F15.0
tp1051
a(g104
F18.0
F18.0
tp1052
a(g164
F18.0
F20.0
tp1053
a(g166
F32.0
F24468.0
tp1054
atp1055
a(L23L
g713
(lp1056
(g172
F18.0
F18.0
tp1057
a(g176
F31.0
F17494.0
tp1058
atp1059
a(L24L
g713
(lp1060
(g128
F29.0
F30.0
tp1061
a(g180
F30.0
F31.0
tp1062
a(g182
F31.0
F31.0
tp1063
a(g184
F31.0
F32.0
tp1064
a(g186
F32.0
F16658.0
tp1065
atp1066
a(L25L
g713
(lp1067
(g138
F19.0
F20.0
tp1068
a(g190
F20.0
F21.0
tp1069
a(g192
F21.0
F22.0
tp1070
a(g194
F22.0
F23.0
tp1071
a(g196
F23.0
F24.0
tp1072
a(g198
F24.0
F26.0
tp1073
a(g200
F26.0
F16868.0
tp1074
atp1075
a(L26L
g645
(lp1076
(g144
F14.0
F29.0
tp1077
a(g174
F29.0
F31.0
tp1078
a(g204
F31.0
F39.0
tp1079
a(g208
F39.0
F42.0
tp1080
atp1081
a(L27L
g2
(lp1082
(g36
F14.0
F14.0
tp1083
a(g102
F15.0
F15.0
tp1084
a(g120
F17.0
F17.0
tp1085
a(g206
F39.0
F39.0
tp1086
a(g214
F39.0
F39.0
tp1087
a(g216
F39.0
F39.0
tp1088
a(g218
F39.0
F39.0
tp1089
a(g220
F39.0
F6605.0
tp1090
atp1091
a(L28L
g2
(lp1092
(g38
F14.0
F14.0
tp1093
a(g40
F14.0
F14.0
tp1094
a(g116
F15.0
F15.0
tp1095
a(g160
F15.0
F7232.0
tp1096
a(g224
F7232.0
F7232.0
tp1097
a(g226
F7232.0
F7232.0
tp1098
a(g228
F7232.0
F7232.0
tp1099
a(g230
F7232.0
F13185.0
tp1100
atp1101
a(L30L
g713
(lp1102
(g12
F16.0
F17.0
tp1103
a(g170
F17.0
F18.0
tp1104
a(g234
F18.0
F20.0
tp1105
a(g236
F20.0
F20.0
tp1106
a(g238
F20.0
F21.0
tp1107
a(g240
F21.0
F17427.0
tp1108
atp1109
a(L31L
g458
(lp1110
(g14
F16.0
F16.0
tp1111
a(g136
F19.0
F19.0
tp1112
a(g244
F19.0
F20.0
tp1113
a(g246
F20.0
F20.0
tp1114
a(g248
F20.0
F20.0
tp1115
a(g250
F20.0
F20.0
tp1116
a(g252
F20.0
F10789.0
tp1117
atp1118
atp1119
a.