(lp0
(F410.0
F27.72
(lp1
(L2L
Vapac-sin#m3.2xlarge
p2
(lp3
(S'entry'
p4
I0
F0.0
tp5
a(VID00022
p6
I0
F6.0
tp7
a(VID00045
p8
F6.0
F165.0
tp9
a(VID00046
p10
F195.0
F197.0
tp11
a(VID00059
p12
F197.0
F199.0
tp13
a(VID00083
p14
F199.0
F329.0
tp15
a(VID00097
p16
F389.0
F391.0
tp17
a(VID00098
p18
F408.0
F410.0
tp19
atp20
a(L8L
g2
(lp21
(VID00021
p22
I0
F6.0
tp23
a(VID00044
p24
F6.0
F135.0
tp25
a(VID00058
p26
F197.0
F198.0
tp27
a(VID00082
p28
F198.0
F312.0
tp29
a(VID00099
p30
F396.0
F398.0
tp31
atp32
a(L9L
g2
(lp33
(VID00020
p34
I0
F6.0
tp35
a(VID00043
p36
F6.0
F174.0
tp37
a(VID00051
p38
F197.0
F199.0
tp39
a(VID00075
p40
F199.0
F389.0
tp41
atp42
a(L10L
g2
(lp43
(VID00005
p44
I0
F6.0
tp45
a(VID00028
p46
F6.0
F79.0
tp47
a(VID00050
p48
F197.0
F199.0
tp49
a(VID00074
p50
F199.0
F380.0
tp51
atp52
a(L11L
g2
(lp53
(VID00004
p54
I0
F6.0
tp55
a(VID00027
p56
F6.0
F112.0
tp57
a(VID00053
p58
F197.0
F198.0
tp59
a(VID00077
p60
F198.0
F329.0
tp61
atp62
a(L12L
g2
(lp63
(VID00007
p64
I0
F6.0
tp65
a(VID00030
p66
F6.0
F155.0
tp67
a(VID00052
p68
F197.0
F199.0
tp69
a(VID00076
p70
F199.0
F346.0
tp71
a(S'exit'
p72
F410.0
F410.0
tp73
atp74
a(L13L
Vapac-sin#m3.xlarge
p75
(lp76
(VID00006
p77
I0
F11.0
tp78
a(VID00029
p79
F11.0
F155.0
tp80
a(VID00055
p81
F197.0
F200.0
tp82
a(VID00079
p83
F200.0
F383.0
tp84
atp85
a(L14L
g2
(lp86
(VID00001
p87
I0
F6.0
tp88
a(VID00024
p89
F6.0
F105.0
tp90
a(VID00054
p91
F197.0
F198.0
tp92
a(VID00078
p93
F198.0
F352.0
tp94
atp95
a(L15L
g2
(lp96
(VID00000
p97
I0
F5.0
tp98
a(VID00023
p99
F5.0
F150.0
tp100
a(VID00057
p101
F197.0
F199.0
tp102
a(VID00081
p103
F199.0
F363.0
tp104
atp105
a(L16L
g2
(lp106
(VID00003
p107
I0
F6.0
tp108
a(VID00026
p109
F6.0
F143.0
tp110
a(VID00056
p111
F197.0
F199.0
tp112
a(VID00080
p113
F199.0
F285.0
tp114
atp115
a(L17L
g2
(lp116
(VID00002
p117
I0
F6.0
tp118
a(VID00025
p119
F6.0
F180.0
tp120
a(VID00049
p121
F197.0
F199.0
tp122
a(VID00073
p123
F199.0
F338.0
tp124
atp125
a(L18L
g2
(lp126
(VID00009
p127
I0
F6.0
tp128
a(VID00032
p129
F6.0
F137.0
tp130
a(VID00047
p131
F212.0
F214.0
tp132
a(VID00068
p133
F214.0
F216.0
tp134
a(VID00092
p135
F216.0
F321.0
tp136
atp137
a(L19L
g2
(lp138
(VID00008
p139
I0
F6.0
tp140
a(VID00031
p141
F6.0
F82.0
tp142
a(VID00064
p143
F214.0
F215.0
tp144
a(VID00088
p145
F215.0
F315.0
tp146
atp147
a(L20L
g2
(lp148
(VID00012
p149
I0
F6.0
tp150
a(VID00035
p151
F6.0
F110.0
tp152
a(VID00065
p153
F214.0
F216.0
tp154
a(VID00089
p155
F216.0
F350.0
tp156
atp157
a(L21L
g2
(lp158
(VID00013
p159
I0
F6.0
tp160
a(VID00036
p161
F6.0
F174.0
tp162
a(VID00066
p163
F214.0
F215.0
tp164
a(VID00090
p165
F215.0
F372.0
tp166
atp167
a(L22L
g75
(lp168
(VID00010
p169
I0
F12.0
tp170
a(VID00033
p171
F12.0
F195.0
tp172
a(VID00067
p173
F214.0
F217.0
tp174
a(VID00091
p175
F217.0
F406.0
tp176
atp177
a(L23L
g2
(lp178
(VID00011
p179
I0
F5.0
tp180
a(VID00034
p181
F5.0
F111.0
tp182
a(VID00060
p183
F214.0
F216.0
tp184
a(VID00084
p185
F216.0
F370.0
tp186
atp187
a(L24L
g2
(lp188
(VID00016
p189
I0
F6.0
tp190
a(VID00039
p191
F6.0
F212.0
tp192
a(VID00061
p193
F214.0
F215.0
tp194
a(VID00085
p195
F215.0
F408.0
tp196
atp197
a(L25L
g2
(lp198
(VID00017
p199
I0
F6.0
tp200
a(VID00040
p201
F6.0
F111.0
tp202
a(VID00062
p203
F214.0
F215.0
tp204
a(VID00086
p205
F215.0
F404.0
tp206
atp207
a(L26L
g2
(lp208
(VID00014
p209
I0
F6.0
tp210
a(VID00037
p211
F6.0
F168.0
tp212
a(VID00063
p213
F214.0
F216.0
tp214
a(VID00087
p215
F216.0
F355.0
tp216
atp217
a(L27L
g2
(lp218
(VID00015
p219
I0
F6.0
tp220
a(VID00038
p221
F6.0
F116.0
tp222
a(VID00048
p223
F176.0
F177.0
tp224
a(VID00072
p225
F177.0
F179.0
tp226
a(VID00096
p227
F179.0
F333.0
tp228
atp229
a(L28L
g2
(lp230
(VID00018
p231
I0
F5.0
tp232
a(VID00041
p233
F5.0
F144.0
tp234
a(VID00069
p235
F177.0
F179.0
tp236
a(VID00093
p237
F179.0
F333.0
tp238
atp239
a(L29L
g2
(lp240
(VID00019
p241
I0
F6.0
tp242
a(VID00042
p243
F6.0
F176.0
tp244
a(VID00071
p245
F177.0
F179.0
tp246
a(VID00095
p247
F179.0
F258.0
tp248
a(VID00070
p249
F258.0
F260.0
tp250
a(VID00094
p251
F260.0
F396.0
tp252
atp253
atp254
a(F1337.0
F25.52
(lp255
(L2L
g2
(lp256
(g4
I0
F0.0
tp257
a(g6
I0
F6.0
tp258
a(g8
F6.0
F165.0
tp259
a(g10
F195.0
F197.0
tp260
a(g12
F197.0
F199.0
tp261
a(g14
F199.0
F329.0
tp262
a(g16
F389.0
F391.0
tp263
atp264
a(L8L
g2
(lp265
(g22
I0
F6.0
tp266
a(g24
F6.0
F135.0
tp267
a(g26
F197.0
F198.0
tp268
a(g28
F198.0
F312.0
tp269
a(g30
F1022.0
F1024.0
tp270
atp271
a(L9L
g2
(lp272
(g34
I0
F6.0
tp273
a(g36
F6.0
F174.0
tp274
a(g38
F197.0
F199.0
tp275
a(g40
F199.0
F389.0
tp276
atp277
a(L10L
g2
(lp278
(g44
I0
F6.0
tp279
a(g46
F6.0
F79.0
tp280
a(g48
F197.0
F199.0
tp281
a(g50
F199.0
F380.0
tp282
atp283
a(L11L
g2
(lp284
(g54
I0
F6.0
tp285
a(g56
F6.0
F112.0
tp286
a(g58
F197.0
F198.0
tp287
a(g60
F198.0
F329.0
tp288
atp289
a(L12L
g2
(lp290
(g64
I0
F6.0
tp291
a(g66
F6.0
F155.0
tp292
a(g68
F197.0
F199.0
tp293
a(g70
F199.0
F346.0
tp294
a(g72
F1336.0
F1336.0
tp295
atp296
a(L13L
g75
(lp297
(g77
I0
F11.0
tp298
a(g79
F11.0
F155.0
tp299
a(g81
F197.0
F200.0
tp300
a(g83
F200.0
F383.0
tp301
a(g247
F576.0
F734.0
tp302
atp303
a(L14L
g2
(lp304
(g87
I0
F6.0
tp305
a(g89
F6.0
F105.0
tp306
a(g91
F197.0
F198.0
tp307
a(g93
F198.0
F352.0
tp308
atp309
a(L15L
g2
(lp310
(g97
I0
F5.0
tp311
a(g99
F5.0
F150.0
tp312
a(g101
F197.0
F199.0
tp313
a(g103
F199.0
F363.0
tp314
atp315
a(L16L
g2
(lp316
(g107
I0
F6.0
tp317
a(g109
F6.0
F143.0
tp318
a(g111
F197.0
F199.0
tp319
a(g113
F199.0
F285.0
tp320
atp321
a(L17L
g2
(lp322
(g117
I0
F6.0
tp323
a(g119
F6.0
F180.0
tp324
a(g121
F197.0
F199.0
tp325
a(g123
F199.0
F338.0
tp326
atp327
a(L18L
g2
(lp328
(g127
I0
F6.0
tp329
a(g129
F6.0
F137.0
tp330
a(g131
F570.0
F572.0
tp331
a(g133
F572.0
F574.0
tp332
a(g135
F574.0
F679.0
tp333
atp334
a(L19L
g2
(lp335
(g139
I0
F6.0
tp336
a(g141
F6.0
F82.0
tp337
a(g143
F572.0
F573.0
tp338
a(g145
F573.0
F673.0
tp339
atp340
a(L20L
g2
(lp341
(g149
I0
F6.0
tp342
a(g151
F6.0
F110.0
tp343
a(g153
F572.0
F574.0
tp344
a(g155
F574.0
F708.0
tp345
atp346
a(L21L
g2
(lp347
(g159
I0
F6.0
tp348
a(g161
F6.0
F174.0
tp349
a(g163
F572.0
F573.0
tp350
a(g165
F573.0
F730.0
tp351
atp352
a(L22L
g75
(lp353
(g169
I0
F12.0
tp354
a(g171
F12.0
F195.0
tp355
a(g175
F574.0
F763.0
tp356
atp357
a(L23L
g2
(lp358
(g179
I0
F5.0
tp359
a(g181
F5.0
F111.0
tp360
a(g183
F572.0
F574.0
tp361
a(g185
F574.0
F728.0
tp362
atp363
a(L24L
g75
(lp364
(g189
I0
F12.0
tp365
a(g191
F12.0
F425.0
tp366
a(g193
F572.0
F575.0
tp367
a(g195
F575.0
F962.0
tp368
a(g18
F1333.0
F1336.0
tp369
atp370
a(L25L
Vapac-sin#m3.large
p371
(lp372
(g199
I0
F22.0
tp373
a(g201
F22.0
F443.0
tp374
a(g203
F572.0
F577.0
tp375
a(g205
F577.0
F1333.0
tp376
atp377
a(L26L
g2
(lp378
(g209
I0
F6.0
tp379
a(g211
F6.0
F168.0
tp380
a(g213
F572.0
F574.0
tp381
a(g215
F574.0
F713.0
tp382
atp383
a(L27L
g2
(lp384
(g219
I0
F6.0
tp385
a(g221
F6.0
F116.0
tp386
a(g231
F116.0
F121.0
tp387
a(g223
F570.0
F571.0
tp388
a(g225
F571.0
F573.0
tp389
a(g227
F573.0
F727.0
tp390
atp391
a(L28L
g2
(lp392
(g233
F121.0
F260.0
tp393
a(g173
F572.0
F574.0
tp394
a(g235
F574.0
F576.0
tp395
a(g237
F576.0
F730.0
tp396
atp397
a(L29L
Vapac-sin#m1.xlarge
p398
(lp399
(g241
I0
F18.0
tp400
a(g243
F18.0
F570.0
tp401
a(g245
F571.0
F576.0
tp402
a(g249
F576.0
F581.0
tp403
a(g251
F581.0
F1022.0
tp404
atp405
atp406
a(F1350.0
F20.51
(lp407
(L2L
g2
(lp408
(g4
I0
F0.0
tp409
a(g6
I0
F6.0
tp410
a(g8
F6.0
F165.0
tp411
a(g10
F616.0
F618.0
tp412
a(g12
F618.0
F620.0
tp413
a(g14
F620.0
F750.0
tp414
a(g16
F1348.0
F1350.0
tp415
atp416
a(L5L
Vapac-sin#m1.large
p417
(lp418
(g97
I0
F35.0
tp419
atp420
a(L8L
g371
(lp421
(g22
I0
F24.0
tp422
a(g26
F618.0
F623.0
tp423
a(g28
F623.0
F1078.0
tp424
a(g30
F1312.0
F1318.0
tp425
atp426
a(L9L
g398
(lp427
(g34
I0
F18.0
tp428
a(g36
F18.0
F563.0
tp429
a(g38
F618.0
F623.0
tp430
a(g40
F623.0
F1240.0
tp431
atp432
a(L10L
g371
(lp433
(g44
I0
F22.0
tp434
a(g46
F22.0
F315.0
tp435
a(g48
F618.0
F625.0
tp436
a(g50
F625.0
F1348.0
tp437
atp438
a(L11L
g371
(lp439
(g54
I0
F23.0
tp440
a(g56
F23.0
F447.0
tp441
a(g58
F618.0
F624.0
tp442
a(g60
F624.0
F1147.0
tp443
atp444
a(L12L
g2
(lp445
(g64
I0
F6.0
tp446
a(g66
F6.0
F155.0
tp447
a(g68
F618.0
F620.0
tp448
a(g70
F620.0
F767.0
tp449
a(g72
F1350.0
F1350.0
tp450
atp451
a(L13L
g75
(lp452
(g77
I0
F11.0
tp453
a(g79
F11.0
F155.0
tp454
a(g81
F618.0
F621.0
tp455
a(g83
F621.0
F804.0
tp456
a(g247
F866.0
F1024.0
tp457
atp458
a(L14L
g371
(lp459
(g87
I0
F23.0
tp460
a(g89
F23.0
F420.0
tp461
a(g91
F618.0
F624.0
tp462
a(g93
F624.0
F1240.0
tp463
atp464
a(L15L
g371
(lp465
(g99
F35.0
F616.0
tp466
a(g101
F618.0
F624.0
tp467
a(g103
F624.0
F1279.0
tp468
atp469
a(L16L
g417
(lp470
(g107
I0
F37.0
tp471
a(g111
F618.0
F629.0
tp472
a(g113
F629.0
F1190.0
tp473
atp474
a(L17L
g75
(lp475
(g117
I0
F11.0
tp476
a(g119
F11.0
F358.0
tp477
a(g121
F618.0
F621.0
tp478
a(g123
F621.0
F899.0
tp479
atp480
a(L18L
g371
(lp481
(g127
I0
F22.0
tp482
a(g129
F22.0
F545.0
tp483
a(g131
F570.0
F577.0
tp484
a(g133
F577.0
F584.0
tp485
a(g135
F584.0
F1005.0
tp486
atp487
a(L19L
g2
(lp488
(g139
I0
F6.0
tp489
a(g141
F6.0
F82.0
tp490
a(g143
F577.0
F578.0
tp491
a(g145
F578.0
F678.0
tp492
atp493
a(L20L
g2
(lp494
(g149
I0
F6.0
tp495
a(g151
F6.0
F110.0
tp496
a(g153
F577.0
F579.0
tp497
a(g155
F579.0
F713.0
tp498
atp499
a(L21L
g2
(lp500
(g159
I0
F6.0
tp501
a(g161
F6.0
F174.0
tp502
a(g163
F577.0
F578.0
tp503
a(g165
F578.0
F735.0
tp504
atp505
a(L22L
g75
(lp506
(g169
I0
F12.0
tp507
a(g171
F12.0
F195.0
tp508
a(g175
F579.0
F768.0
tp509
atp510
a(L23L
g2
(lp511
(g179
I0
F5.0
tp512
a(g181
F5.0
F111.0
tp513
a(g183
F577.0
F579.0
tp514
a(g185
F579.0
F733.0
tp515
atp516
a(L24L
g2
(lp517
(g189
I0
F6.0
tp518
a(g191
F6.0
F212.0
tp519
a(g193
F577.0
F578.0
tp520
a(g195
F578.0
F771.0
tp521
a(g18
F1005.0
F1007.0
tp522
atp523
a(L25L
g2
(lp524
(g199
I0
F6.0
tp525
a(g201
F6.0
F111.0
tp526
a(g203
F577.0
F578.0
tp527
a(g205
F578.0
F767.0
tp528
atp529
a(L26L
g2
(lp530
(g209
I0
F6.0
tp531
a(g211
F6.0
F168.0
tp532
a(g213
F577.0
F579.0
tp533
a(g215
F579.0
F718.0
tp534
atp535
a(L27L
g2
(lp536
(g219
I0
F6.0
tp537
a(g221
F6.0
F116.0
tp538
a(g223
F860.0
F861.0
tp539
a(g225
F861.0
F863.0
tp540
a(g227
F863.0
F1017.0
tp541
atp542
a(L28L
g2
(lp543
(g231
I0
F5.0
tp544
a(g233
F5.0
F144.0
tp545
a(g173
F577.0
F579.0
tp546
a(g235
F861.0
F863.0
tp547
a(g237
F863.0
F1017.0
tp548
atp549
a(L29L
g398
(lp550
(g241
I0
F18.0
tp551
a(g243
F18.0
F570.0
tp552
a(g245
F861.0
F866.0
tp553
a(g249
F866.0
F871.0
tp554
a(g251
F871.0
F1312.0
tp555
atp556
a(L70L
g75
(lp557
(g109
F37.0
F310.0
tp558
atp559
a(L76L
g417
(lp560
(g24
F24.0
F860.0
tp561
atp562
atp563
a(F1461.0
F17.19
(lp564
(L2L
g2
(lp565
(g4
I0
F0.0
tp566
a(g6
I0
F6.0
tp567
a(g8
F6.0
F165.0
tp568
a(g10
F652.0
F654.0
tp569
a(g12
F654.0
F656.0
tp570
a(g14
F656.0
F786.0
tp571
a(g16
F1460.0
F1462.0
tp572
atp573
a(L7L
Vapac-sin#m1.medium
p574
(lp575
(g97
I0
F71.0
tp576
atp577
a(L8L
g371
(lp578
(g22
I0
F24.0
tp579
a(g26
F654.0
F659.0
tp580
a(g28
F659.0
F1114.0
tp581
a(g30
F1342.0
F1348.0
tp582
atp583
a(L9L
g371
(lp584
(g34
I0
F23.0
tp585
a(g36
F23.0
F694.0
tp586
a(g38
F694.0
F701.0
tp587
a(g40
F701.0
F1460.0
tp588
atp589
a(L10L
g371
(lp590
(g44
I0
F22.0
tp591
a(g46
F22.0
F315.0
tp592
a(g48
F654.0
F661.0
tp593
a(g50
F661.0
F1384.0
tp594
atp595
a(L11L
g371
(lp596
(g54
I0
F23.0
tp597
a(g56
F23.0
F447.0
tp598
a(g58
F654.0
F660.0
tp599
a(g60
F660.0
F1183.0
tp600
atp601
a(L12L
g371
(lp602
(g64
I0
F23.0
tp603
a(g66
F23.0
F617.0
tp604
a(g68
F654.0
F660.0
tp605
a(g70
F660.0
F1247.0
tp606
a(g72
F1462.0
F1462.0
tp607
atp608
a(L13L
g371
(lp609
(g77
I0
F22.0
tp610
a(g79
F22.0
F311.0
tp611
a(g81
F654.0
F660.0
tp612
a(g83
F660.0
F1026.0
tp613
a(g247
F1026.0
F1342.0
tp614
atp615
a(L14L
g371
(lp616
(g87
I0
F23.0
tp617
a(g89
F23.0
F420.0
tp618
a(g91
F654.0
F660.0
tp619
a(g93
F660.0
F1276.0
tp620
atp621
a(L15L
g371
(lp622
(g99
F71.0
F652.0
tp623
a(g101
F654.0
F660.0
tp624
a(g103
F660.0
F1315.0
tp625
atp626
a(L16L
g417
(lp627
(g107
I0
F37.0
tp628
a(g111
F654.0
F665.0
tp629
a(g113
F665.0
F1226.0
tp630
atp631
a(L17L
g75
(lp632
(g117
I0
F11.0
tp633
a(g119
F11.0
F358.0
tp634
a(g121
F654.0
F657.0
tp635
a(g123
F657.0
F935.0
tp636
atp637
a(L18L
g371
(lp638
(g127
I0
F22.0
tp639
a(g129
F22.0
F545.0
tp640
a(g131
F570.0
F577.0
tp641
a(g133
F577.0
F584.0
tp642
a(g135
F584.0
F1005.0
tp643
atp644
a(L19L
g2
(lp645
(g139
I0
F6.0
tp646
a(g141
F6.0
F82.0
tp647
a(g143
F577.0
F578.0
tp648
a(g145
F578.0
F678.0
tp649
atp650
a(L20L
g2
(lp651
(g149
I0
F6.0
tp652
a(g151
F6.0
F110.0
tp653
a(g153
F577.0
F579.0
tp654
a(g155
F579.0
F713.0
tp655
atp656
a(L21L
g2
(lp657
(g159
I0
F6.0
tp658
a(g161
F6.0
F174.0
tp659
a(g163
F577.0
F578.0
tp660
a(g165
F578.0
F735.0
tp661
atp662
a(L22L
g75
(lp663
(g169
I0
F12.0
tp664
a(g171
F12.0
F195.0
tp665
a(g175
F579.0
F768.0
tp666
atp667
a(L23L
g2
(lp668
(g179
I0
F5.0
tp669
a(g181
F5.0
F111.0
tp670
a(g183
F577.0
F579.0
tp671
a(g185
F579.0
F733.0
tp672
atp673
a(L24L
g75
(lp674
(g189
I0
F12.0
tp675
a(g191
F12.0
F425.0
tp676
a(g193
F577.0
F580.0
tp677
a(g195
F580.0
F967.0
tp678
a(g18
F1338.0
F1341.0
tp679
atp680
a(L25L
g371
(lp681
(g199
I0
F22.0
tp682
a(g201
F22.0
F443.0
tp683
a(g203
F577.0
F582.0
tp684
a(g205
F582.0
F1338.0
tp685
atp686
a(L26L
g2
(lp687
(g209
I0
F6.0
tp688
a(g211
F6.0
F168.0
tp689
a(g213
F577.0
F579.0
tp690
a(g215
F579.0
F718.0
tp691
atp692
a(L27L
g2
(lp693
(g219
I0
F6.0
tp694
a(g221
F6.0
F116.0
tp695
a(g231
F116.0
F121.0
tp696
a(g223
F860.0
F861.0
tp697
a(g225
F861.0
F863.0
tp698
a(g227
F863.0
F1017.0
tp699
atp700
a(L28L
g2
(lp701
(g233
F121.0
F260.0
tp702
a(g173
F577.0
F579.0
tp703
a(g235
F861.0
F863.0
tp704
a(g237
F863.0
F1017.0
tp705
atp706
a(L29L
g398
(lp707
(g241
I0
F18.0
tp708
a(g243
F18.0
F570.0
tp709
a(g245
F861.0
F866.0
tp710
a(g249
F866.0
F871.0
tp711
a(g251
F871.0
F1312.0
tp712
atp713
a(L70L
g75
(lp714
(g109
F37.0
F310.0
tp715
atp716
a(L76L
g417
(lp717
(g24
F24.0
F860.0
tp718
atp719
atp720
a(F1496.0
F11.06
(lp721
(L2L
g2
(lp722
(g4
I0
F0.0
tp723
a(g6
I0
F6.0
tp724
a(g8
F6.0
F165.0
tp725
a(g10
F652.0
F654.0
tp726
a(g12
F654.0
F656.0
tp727
a(g14
F656.0
F786.0
tp728
a(g16
F1460.0
F1462.0
tp729
a(g18
F1462.0
F1464.0
tp730
atp731
a(L7L
g574
(lp732
(g97
I0
F71.0
tp733
atp734
a(L8L
g371
(lp735
(g22
I0
F24.0
tp736
a(g26
F654.0
F659.0
tp737
a(g28
F659.0
F1114.0
tp738
a(g30
F1491.0
F1497.0
tp739
atp740
a(L9L
g371
(lp741
(g34
I0
F23.0
tp742
a(g36
F23.0
F694.0
tp743
a(g38
F694.0
F701.0
tp744
a(g40
F701.0
F1460.0
tp745
atp746
a(L10L
g371
(lp747
(g44
I0
F22.0
tp748
a(g46
F22.0
F315.0
tp749
a(g48
F654.0
F661.0
tp750
a(g50
F661.0
F1384.0
tp751
atp752
a(L11L
g371
(lp753
(g54
I0
F23.0
tp754
a(g56
F23.0
F447.0
tp755
a(g58
F654.0
F660.0
tp756
a(g60
F660.0
F1183.0
tp757
atp758
a(L12L
g371
(lp759
(g64
I0
F23.0
tp760
a(g66
F23.0
F617.0
tp761
a(g68
F654.0
F660.0
tp762
a(g70
F660.0
F1247.0
tp763
a(g72
F1497.0
F1497.0
tp764
atp765
a(L13L
g371
(lp766
(g77
I0
F22.0
tp767
a(g79
F22.0
F311.0
tp768
a(g83
F674.0
F1040.0
tp769
atp770
a(L14L
g371
(lp771
(g87
I0
F23.0
tp772
a(g89
F23.0
F420.0
tp773
a(g91
F654.0
F660.0
tp774
a(g93
F660.0
F1276.0
tp775
atp776
a(L15L
g371
(lp777
(g99
F71.0
F652.0
tp778
a(g103
F659.0
F1314.0
tp779
atp780
a(L16L
g417
(lp781
(g107
I0
F37.0
tp782
a(g111
F654.0
F665.0
tp783
a(g113
F665.0
F1226.0
tp784
atp785
a(L17L
g75
(lp786
(g117
I0
F11.0
tp787
a(g119
F11.0
F358.0
tp788
a(g121
F654.0
F657.0
tp789
a(g123
F657.0
F935.0
tp790
atp791
a(L18L
g371
(lp792
(g127
I0
F22.0
tp793
a(g129
F22.0
F545.0
tp794
a(g131
F689.0
F696.0
tp795
a(g133
F696.0
F703.0
tp796
a(g135
F703.0
F1124.0
tp797
atp798
a(L19L
g371
(lp799
(g139
I0
F22.0
tp800
a(g141
F22.0
F326.0
tp801
a(g143
F696.0
F702.0
tp802
a(g145
F702.0
F1102.0
tp803
atp804
a(L20L
g371
(lp805
(g149
I0
F22.0
tp806
a(g151
F22.0
F438.0
tp807
a(g153
F696.0
F702.0
tp808
a(g155
F702.0
F1239.0
tp809
atp810
a(L21L
g398
(lp811
(g159
I0
F18.0
tp812
a(g161
F18.0
F565.0
tp813
a(g101
F654.0
F659.0
tp814
a(g163
F696.0
F701.0
tp815
a(g165
F701.0
F1210.0
tp816
atp817
a(L22L
g371
(lp818
(g169
I0
F23.0
tp819
a(g171
F23.0
F389.0
tp820
a(g175
F702.0
F1080.0
tp821
atp822
a(L23L
g371
(lp823
(g179
I0
F21.0
tp824
a(g181
F21.0
F444.0
tp825
a(g183
F696.0
F702.0
tp826
a(g185
F702.0
F1319.0
tp827
atp828
a(L24L
g398
(lp829
(g189
I0
F19.0
tp830
a(g191
F19.0
F689.0
tp831
a(g193
F696.0
F700.0
tp832
a(g195
F700.0
F1328.0
tp833
atp834
a(L25L
g75
(lp835
(g199
I0
F11.0
tp836
a(g201
F11.0
F222.0
tp837
a(g203
F696.0
F699.0
tp838
a(g205
F699.0
F1077.0
tp839
a(g227
F1077.0
F1384.0
tp840
atp841
a(L26L
g371
(lp842
(g209
I0
F23.0
tp843
a(g211
F23.0
F670.0
tp844
a(g213
F696.0
F703.0
tp845
a(g215
F703.0
F1258.0
tp846
atp847
a(L27L
g371
(lp848
(g219
I0
F23.0
tp849
a(g221
F23.0
F462.0
tp850
a(g223
F860.0
F866.0
tp851
a(g225
F866.0
F873.0
tp852
atp853
a(L28L
g371
(lp854
(g231
I0
F22.0
tp855
a(g233
F22.0
F576.0
tp856
a(g173
F696.0
F702.0
tp857
a(g235
F866.0
F873.0
tp858
a(g237
F873.0
F1491.0
tp859
atp860
a(L29L
g75
(lp861
(g241
I0
F11.0
tp862
a(g243
F11.0
F351.0
tp863
a(g245
F866.0
F869.0
tp864
a(g247
F869.0
F1027.0
tp865
a(g249
F1027.0
F1030.0
tp866
a(g251
F1030.0
F1302.0
tp867
atp868
a(L70L
g75
(lp869
(g109
F37.0
F310.0
tp870
atp871
a(L76L
g417
(lp872
(g24
F24.0
F860.0
tp873
atp874
a(L81L
g574
(lp875
(g81
F654.0
F674.0
tp876
atp877
atp878
a(F1704.0
F8.52
(lp879
(L2L
g371
(lp880
(g4
I0
F0.0
tp881
a(g6
I0
F23.0
tp882
a(g8
F23.0
F659.0
tp883
a(g12
F932.0
F938.0
tp884
a(g14
F938.0
F1457.0
tp885
a(g16
F1698.0
F1704.0
tp886
atp887
a(L8L
g371
(lp888
(g22
I0
F24.0
tp889
a(g24
F24.0
F539.0
tp890
a(g26
F932.0
F937.0
tp891
a(g28
F937.0
F1392.0
tp892
a(g30
F1508.0
F1514.0
tp893
atp894
a(L9L
g371
(lp895
(g34
I0
F23.0
tp896
a(g36
F23.0
F694.0
tp897
a(g38
F932.0
F939.0
tp898
a(g40
F939.0
F1698.0
tp899
atp900
a(L10L
g371
(lp901
(g44
I0
F22.0
tp902
a(g46
F22.0
F315.0
tp903
a(g10
F925.0
F932.0
tp904
a(g50
F944.0
F1667.0
tp905
atp906
a(L11L
g371
(lp907
(g54
I0
F23.0
tp908
a(g56
F23.0
F447.0
tp909
a(g58
F932.0
F938.0
tp910
a(g60
F938.0
F1461.0
tp911
atp912
a(L12L
g371
(lp913
(g64
I0
F23.0
tp914
a(g66
F23.0
F617.0
tp915
a(g68
F932.0
F938.0
tp916
a(g70
F938.0
F1525.0
tp917
a(g72
F1704.0
F1704.0
tp918
atp919
a(L13L
g371
(lp920
(g77
I0
F22.0
tp921
a(g79
F22.0
F311.0
tp922
a(g81
F932.0
F938.0
tp923
a(g83
F938.0
F1304.0
tp924
atp925
a(L14L
g371
(lp926
(g87
I0
F23.0
tp927
a(g89
F23.0
F420.0
tp928
a(g91
F932.0
F938.0
tp929
a(g93
F938.0
F1554.0
tp930
atp931
a(L15L
g371
(lp932
(g97
I0
F22.0
tp933
a(g99
F22.0
F603.0
tp934
a(g101
F932.0
F938.0
tp935
a(g103
F938.0
F1593.0
tp936
atp937
a(L16L
g417
(lp938
(g107
I0
F37.0
tp939
a(g109
F37.0
F925.0
tp940
a(g48
F932.0
F944.0
tp941
a(g111
F944.0
F955.0
tp942
a(g113
F955.0
F1516.0
tp943
atp944
a(L17L
g75
(lp945
(g117
I0
F11.0
tp946
a(g119
F11.0
F358.0
tp947
a(g121
F932.0
F935.0
tp948
a(g123
F935.0
F1213.0
tp949
atp950
a(L18L
g371
(lp951
(g129
F22.0
F545.0
tp952
a(g131
F870.0
F877.0
tp953
a(g133
F877.0
F884.0
tp954
a(g135
F884.0
F1305.0
tp955
atp956
a(L19L
g371
(lp957
(g139
I0
F22.0
tp958
a(g141
F22.0
F326.0
tp959
a(g143
F877.0
F883.0
tp960
a(g145
F883.0
F1283.0
tp961
atp962
a(L20L
g371
(lp963
(g149
I0
F22.0
tp964
a(g151
F22.0
F438.0
tp965
a(g153
F877.0
F883.0
tp966
a(g155
F883.0
F1420.0
tp967
atp968
a(L21L
g398
(lp969
(g159
I0
F18.0
tp970
a(g161
F18.0
F565.0
tp971
a(g163
F877.0
F882.0
tp972
a(g165
F882.0
F1391.0
tp973
atp974
a(L22L
g371
(lp975
(g169
I0
F23.0
tp976
a(g171
F23.0
F389.0
tp977
a(g175
F883.0
F1261.0
tp978
atp979
a(L23L
g371
(lp980
(g179
I0
F21.0
tp981
a(g181
F21.0
F444.0
tp982
a(g183
F877.0
F883.0
tp983
a(g185
F883.0
F1500.0
tp984
atp985
a(L24L
g371
(lp986
(g127
I0
F22.0
tp987
a(g189
F22.0
F45.0
tp988
a(g191
F45.0
F870.0
tp989
a(g193
F877.0
F882.0
tp990
a(g195
F882.0
F1655.0
tp991
a(g18
F1655.0
F1662.0
tp992
atp993
a(L25L
g75
(lp994
(g199
I0
F11.0
tp995
a(g201
F11.0
F222.0
tp996
a(g203
F877.0
F880.0
tp997
a(g205
F880.0
F1258.0
tp998
atp999
a(L26L
g371
(lp1000
(g209
I0
F23.0
tp1001
a(g211
F23.0
F670.0
tp1002
a(g213
F877.0
F884.0
tp1003
a(g215
F884.0
F1439.0
tp1004
atp1005
a(L27L
g371
(lp1006
(g219
I0
F23.0
tp1007
a(g221
F23.0
F462.0
tp1008
a(g223
F694.0
F700.0
tp1009
a(g225
F700.0
F707.0
tp1010
a(g227
F707.0
F1321.0
tp1011
atp1012
a(L28L
g371
(lp1013
(g231
I0
F22.0
tp1014
a(g233
F22.0
F576.0
tp1015
a(g173
F877.0
F883.0
tp1016
a(g235
F883.0
F890.0
tp1017
a(g237
F890.0
F1508.0
tp1018
atp1019
a(L29L
g75
(lp1020
(g241
I0
F11.0
tp1021
a(g243
F11.0
F351.0
tp1022
a(g245
F700.0
F703.0
tp1023
a(g247
F703.0
F861.0
tp1024
a(g249
F861.0
F864.0
tp1025
a(g251
F864.0
F1136.0
tp1026
atp1027
atp1028
a(F2752.0
F8.21
(lp1029
(L2L
g371
(lp1030
(g4
I0
F0.0
tp1031
a(g6
I0
F23.0
tp1032
a(g8
F23.0
F659.0
tp1033
a(g10
F1306.0
F1313.0
tp1034
a(g12
F1313.0
F1319.0
tp1035
a(g14
F1319.0
F1838.0
tp1036
a(g16
F2745.0
F2751.0
tp1037
atp1038
a(L8L
g371
(lp1039
(g22
I0
F24.0
tp1040
a(g24
F24.0
F539.0
tp1041
a(g26
F1313.0
F1318.0
tp1042
a(g28
F1318.0
F1773.0
tp1043
a(g30
F2001.0
F2007.0
tp1044
atp1045
a(L9L
g371
(lp1046
(g34
I0
F23.0
tp1047
a(g36
F23.0
F694.0
tp1048
a(g38
F1313.0
F1320.0
tp1049
a(g40
F1320.0
F2079.0
tp1050
atp1051
a(L10L
g371
(lp1052
(g44
I0
F22.0
tp1053
a(g46
F22.0
F315.0
tp1054
a(g50
F1325.0
F2048.0
tp1055
atp1056
a(L11L
g371
(lp1057
(g54
I0
F23.0
tp1058
a(g56
F23.0
F447.0
tp1059
a(g58
F1313.0
F1319.0
tp1060
a(g60
F1319.0
F1842.0
tp1061
atp1062
a(L12L
g371
(lp1063
(g64
I0
F23.0
tp1064
a(g66
F23.0
F617.0
tp1065
a(g68
F1313.0
F1319.0
tp1066
a(g70
F1319.0
F1906.0
tp1067
a(g72
F2751.0
F2751.0
tp1068
atp1069
a(L13L
g371
(lp1070
(g77
I0
F22.0
tp1071
a(g79
F22.0
F311.0
tp1072
a(g81
F1313.0
F1319.0
tp1073
a(g83
F1319.0
F1685.0
tp1074
a(g247
F1685.0
F2001.0
tp1075
atp1076
a(L14L
g371
(lp1077
(g87
I0
F23.0
tp1078
a(g89
F23.0
F420.0
tp1079
a(g91
F1313.0
F1319.0
tp1080
a(g93
F1319.0
F1935.0
tp1081
atp1082
a(L15L
Vapac-sin#m3.medium
p1083
(lp1084
(g97
I0
F47.0
tp1085
a(g99
F47.0
F1306.0
tp1086
a(g101
F1313.0
F1327.0
tp1087
a(g103
F1327.0
F2745.0
tp1088
atp1089
a(L16L
g417
(lp1090
(g107
I0
F37.0
tp1091
a(g109
F37.0
F925.0
tp1092
a(g48
F1313.0
F1325.0
tp1093
a(g111
F1325.0
F1336.0
tp1094
a(g113
F1336.0
F1897.0
tp1095
atp1096
a(L17L
g75
(lp1097
(g117
I0
F11.0
tp1098
a(g119
F11.0
F358.0
tp1099
a(g121
F1313.0
F1316.0
tp1100
a(g123
F1316.0
F1594.0
tp1101
atp1102
a(L18L
g371
(lp1103
(g131
F1121.0
F1128.0
tp1104
a(g133
F1128.0
F1135.0
tp1105
a(g135
F1135.0
F1556.0
tp1106
atp1107
a(L19L
g371
(lp1108
(g139
I0
F22.0
tp1109
a(g141
F22.0
F326.0
tp1110
a(g143
F1128.0
F1134.0
tp1111
a(g145
F1134.0
F1534.0
tp1112
atp1113
a(L20L
g1083
(lp1114
(g151
F22.0
F923.0
tp1115
a(g153
F1128.0
F1142.0
tp1116
a(g155
F1142.0
F2306.0
tp1117
atp1118
a(L21L
g398
(lp1119
(g159
I0
F18.0
tp1120
a(g161
F18.0
F565.0
tp1121
a(g163
F1128.0
F1133.0
tp1122
a(g165
F1133.0
F1642.0
tp1123
atp1124
a(L22L
g371
(lp1125
(g149
I0
F22.0
tp1126
a(g169
F22.0
F45.0
tp1127
a(g171
F45.0
F411.0
tp1128
a(g175
F1134.0
F1512.0
tp1129
atp1130
a(L23L
g371
(lp1131
(g179
I0
F21.0
tp1132
a(g181
F21.0
F444.0
tp1133
a(g183
F1128.0
F1134.0
tp1134
a(g185
F1134.0
F1751.0
tp1135
atp1136
a(L24L
g371
(lp1137
(g127
I0
F22.0
tp1138
a(g189
F22.0
F45.0
tp1139
a(g191
F45.0
F870.0
tp1140
a(g193
F1128.0
F1133.0
tp1141
a(g195
F1133.0
F1906.0
tp1142
a(g18
F2306.0
F2313.0
tp1143
atp1144
a(L25L
g75
(lp1145
(g199
I0
F11.0
tp1146
a(g201
F11.0
F222.0
tp1147
a(g203
F1128.0
F1131.0
tp1148
a(g205
F1131.0
F1509.0
tp1149
atp1150
a(L26L
g371
(lp1151
(g209
I0
F23.0
tp1152
a(g211
F23.0
F670.0
tp1153
a(g213
F1128.0
F1135.0
tp1154
a(g215
F1135.0
F1690.0
tp1155
atp1156
a(L27L
g371
(lp1157
(g219
I0
F23.0
tp1158
a(g221
F23.0
F462.0
tp1159
a(g223
F694.0
F700.0
tp1160
a(g225
F700.0
F707.0
tp1161
a(g227
F707.0
F1321.0
tp1162
atp1163
a(L28L
g371
(lp1164
(g129
F22.0
F545.0
tp1165
a(g231
F545.0
F567.0
tp1166
a(g233
F567.0
F1121.0
tp1167
a(g173
F1128.0
F1134.0
tp1168
a(g235
F1134.0
F1141.0
tp1169
a(g237
F1141.0
F1759.0
tp1170
atp1171
a(L29L
g75
(lp1172
(g241
I0
F11.0
tp1173
a(g243
F11.0
F351.0
tp1174
a(g245
F700.0
F703.0
tp1175
a(g249
F703.0
F706.0
tp1176
a(g251
F706.0
F978.0
tp1177
atp1178
atp1179
a(F3241.0
F3.79
(lp1180
(L2L
g1083
(lp1181
(g4
I0
F0.0
tp1182
a(g6
I0
F49.0
tp1183
a(g8
F49.0
F1427.0
tp1184
a(g10
F1553.0
F1568.0
tp1185
a(g12
F1568.0
F1582.0
tp1186
a(g14
F1582.0
F2706.0
tp1187
a(g16
F3227.0
F3241.0
tp1188
atp1189
a(L8L
g1083
(lp1190
(g22
I0
F51.0
tp1191
a(g24
F51.0
F1166.0
tp1192
a(g26
F1568.0
F1579.0
tp1193
a(g28
F1579.0
F2564.0
tp1194
a(g30
F3058.0
F3071.0
tp1195
atp1196
a(L9L
g1083
(lp1197
(g34
I0
F49.0
tp1198
a(g36
F49.0
F1503.0
tp1199
a(g38
F1568.0
F1582.0
tp1200
a(g40
F1582.0
F3227.0
tp1201
atp1202
a(L10L
g1083
(lp1203
(g44
I0
F48.0
tp1204
a(g46
F48.0
F682.0
tp1205
a(g50
F1584.0
F3150.0
tp1206
atp1207
a(L11L
g1083
(lp1208
(g54
I0
F50.0
tp1209
a(g56
F50.0
F968.0
tp1210
a(g58
F1568.0
F1580.0
tp1211
a(g60
F1580.0
F2712.0
tp1212
atp1213
a(L12L
g1083
(lp1214
(g64
I0
F51.0
tp1215
a(g66
F51.0
F1338.0
tp1216
a(g68
F1568.0
F1582.0
tp1217
a(g70
F1582.0
F2853.0
tp1218
a(g72
F3241.0
F3241.0
tp1219
atp1220
a(L13L
g1083
(lp1221
(g77
I0
F48.0
tp1222
a(g79
F48.0
F674.0
tp1223
a(g81
F1568.0
F1581.0
tp1224
a(g83
F1581.0
F2374.0
tp1225
a(g247
F2374.0
F3058.0
tp1226
atp1227
a(L14L
g1083
(lp1228
(g87
I0
F49.0
tp1229
a(g89
F49.0
F909.0
tp1230
a(g91
F1568.0
F1580.0
tp1231
a(g93
F1580.0
F2915.0
tp1232
atp1233
a(L15L
g1083
(lp1234
(g97
I0
F47.0
tp1235
a(g99
F47.0
F1306.0
tp1236
a(g101
F1568.0
F1582.0
tp1237
a(g103
F1582.0
F3000.0
tp1238
atp1239
a(L16L
g1083
(lp1240
(g107
I0
F49.0
tp1241
a(g109
F49.0
F1233.0
tp1242
a(g48
F1568.0
F1584.0
tp1243
a(g111
F1584.0
F1599.0
tp1244
a(g113
F1599.0
F2347.0
tp1245
atp1246
a(L17L
g1083
(lp1247
(g117
I0
F49.0
tp1248
a(g119
F49.0
F1553.0
tp1249
a(g121
F1568.0
F1581.0
tp1250
a(g123
F1581.0
F2785.0
tp1251
atp1252
a(L18L
g1083
(lp1253
(g129
F22.0
F1155.0
tp1254
a(g131
F1522.0
F1537.0
tp1255
a(g133
F1537.0
F1552.0
tp1256
a(g135
F1552.0
F2464.0
tp1257
atp1258
a(L19L
g1083
(lp1259
(g139
I0
F48.0
tp1260
a(g141
F48.0
F707.0
tp1261
a(g143
F1537.0
F1550.0
tp1262
a(g145
F1550.0
F2418.0
tp1263
atp1264
a(L20L
g1083
(lp1265
(g149
I0
F48.0
tp1266
a(g151
F48.0
F949.0
tp1267
a(g153
F1537.0
F1551.0
tp1268
a(g155
F1551.0
F2715.0
tp1269
atp1270
a(L21L
g1083
(lp1271
(g159
I0
F48.0
tp1272
a(g161
F48.0
F1506.0
tp1273
a(g163
F1537.0
F1549.0
tp1274
a(g165
F1549.0
F2908.0
tp1275
atp1276
a(L22L
g1083
(lp1277
(g169
I0
F50.0
tp1278
a(g171
F50.0
F842.0
tp1279
a(g173
F1537.0
F1551.0
tp1280
a(g175
F1551.0
F2370.0
tp1281
atp1282
a(L23L
g1083
(lp1283
(g179
I0
F46.0
tp1284
a(g181
F46.0
F962.0
tp1285
a(g183
F1537.0
F1550.0
tp1286
a(g185
F1550.0
F2886.0
tp1287
atp1288
a(L24L
g371
(lp1289
(g127
I0
F22.0
tp1290
a(g189
F22.0
F45.0
tp1291
a(g191
F45.0
F870.0
tp1292
a(g193
F1537.0
F1542.0
tp1293
a(g195
F1542.0
F2315.0
tp1294
a(g18
F3188.0
F3195.0
tp1295
atp1296
a(L25L
g1083
(lp1297
(g199
I0
F48.0
tp1298
a(g201
F48.0
F960.0
tp1299
a(g203
F1537.0
F1549.0
tp1300
a(g205
F1549.0
F3188.0
tp1301
atp1302
a(L26L
g1083
(lp1303
(g209
I0
F51.0
tp1304
a(g211
F51.0
F1454.0
tp1305
a(g213
F1537.0
F1551.0
tp1306
a(g215
F1551.0
F2754.0
tp1307
atp1308
a(L27L
g1083
(lp1309
(g219
I0
F50.0
tp1310
a(g221
F50.0
F1001.0
tp1311
a(g223
F1522.0
F1534.0
tp1312
a(g225
F1534.0
F1548.0
tp1313
a(g227
F1548.0
F2878.0
tp1314
atp1315
a(L28L
g1083
(lp1316
(g231
I0
F48.0
tp1317
a(g233
F48.0
F1249.0
tp1318
a(g235
F1534.0
F1549.0
tp1319
a(g237
F1549.0
F2888.0
tp1320
atp1321
a(L29L
g1083
(lp1322
(g241
I0
F49.0
tp1323
a(g243
F49.0
F1522.0
tp1324
a(g245
F1534.0
F1548.0
tp1325
a(g249
F1548.0
F1562.0
tp1326
a(g251
F1562.0
F2739.0
tp1327
atp1328
atp1329
a.