(lp0
(F434.0
F14.49
(lp1
(L2L
Vapac-sin#m3.2xlarge
p2
(lp3
(S'entry'
p4
I0
F0.0
tp5
a(VID00005
p6
I0
F6.0
tp7
a(VID00011
p8
F6.0
F12.0
tp9
a(VID00024
p10
F218.0
F220.0
tp11
a(VID00047
p12
F222.0
F339.0
tp13
a(S'exit'
p14
F436.0
F436.0
tp15
atp16
a(L8L
g2
(lp17
(VID00004
p18
I0
F6.0
tp19
a(VID00020
p20
F6.0
F158.0
tp21
a(VID00044
p22
F223.0
F421.0
tp23
atp24
a(L9L
g2
(lp25
(VID00007
p26
I0
F5.0
tp27
a(VID00021
p28
F6.0
F81.0
tp29
a(VID00012
p30
F81.0
F197.0
tp31
a(VID00025
p32
F220.0
F222.0
tp33
a(VID00037
p34
F222.0
F434.0
tp35
atp36
a(L10L
g2
(lp37
(VID00006
p38
I0
F6.0
tp39
a(VID00013
p40
F6.0
F155.0
tp41
a(VID00035
p42
F220.0
F222.0
tp43
a(VID00026
p44
F222.0
F224.0
tp45
a(VID00038
p46
F224.0
F307.0
tp47
a(VID00046
p48
F307.0
F424.0
tp49
atp50
a(L11L
g2
(lp51
(VID00001
p52
I0
F6.0
tp53
a(VID00022
p54
F6.0
F151.0
tp55
a(VID00027
p56
F220.0
F222.0
tp57
a(VID00039
p58
F222.0
F374.0
tp59
atp60
a(L12L
g2
(lp61
(VID00000
p62
I0
F6.0
tp63
a(VID00023
p64
F12.0
F144.0
tp65
a(VID00041
p66
F222.0
F367.0
tp67
atp68
a(L13L
g2
(lp69
(VID00003
p70
I0
F6.0
tp71
a(VID00015
p72
F6.0
F98.0
tp73
a(VID00036
p74
F220.0
F222.0
tp75
a(VID00048
p76
F222.0
F369.0
tp77
a(VID00049
p78
F434.0
F436.0
tp79
atp80
a(L14L
g2
(lp81
(VID00002
p82
I0
F6.0
tp83
a(VID00016
p84
F6.0
F178.0
tp85
a(VID00030
p86
F220.0
F222.0
tp87
a(VID00042
p88
F222.0
F412.0
tp89
atp90
a(L15L
g2
(lp91
(VID00009
p92
I0
F6.0
tp93
a(VID00019
p94
F6.0
F173.0
tp95
a(VID00031
p96
F220.0
F222.0
tp97
a(VID00043
p98
F222.0
F368.0
tp99
atp100
a(L16L
g2
(lp101
(VID00008
p102
I0
F6.0
tp103
a(VID00018
p104
F6.0
F210.0
tp105
a(VID00028
p106
F220.0
F222.0
tp107
a(VID00033
p108
F222.0
F224.0
tp109
a(VID00045
p110
F224.0
F345.0
tp111
atp112
a(L19L
g2
(lp113
(VID00010
p114
I0
F6.0
tp115
a(VID00017
p116
F6.0
F218.0
tp117
a(VID00029
p118
F220.0
F222.0
tp119
a(VID00040
p120
F222.0
F418.0
tp121
atp122
a(L20L
Vapac-sin#m3.xlarge
p123
(lp124
(VID00014
p125
F6.0
F181.0
tp126
a(VID00032
p127
F220.0
F223.0
tp128
a(VID00034
p129
F223.0
F226.0
tp130
atp131
atp132
a(F1138.0
F12.28
(lp133
(L2L
g2
(lp134
(g4
I0
F0.0
tp135
a(g6
I0
F6.0
tp136
a(g8
F6.0
F12.0
tp137
a(g10
F552.0
F554.0
tp138
a(g12
F557.0
F674.0
tp139
a(g14
F1139.0
F1139.0
tp140
atp141
a(L8L
g2
(lp142
(g18
I0
F6.0
tp143
a(g20
F6.0
F158.0
tp144
a(g22
F557.0
F755.0
tp145
atp146
a(L9L
g2
(lp147
(g26
I0
F5.0
tp148
a(g28
F6.0
F81.0
tp149
a(g30
F81.0
F197.0
tp150
a(g32
F554.0
F556.0
tp151
a(g34
F556.0
F768.0
tp152
atp153
a(L10L
g123
(lp154
(g38
I0
F11.0
tp155
a(g40
F11.0
F308.0
tp156
a(g42
F554.0
F557.0
tp157
a(g44
F557.0
F560.0
tp158
a(g46
F560.0
F727.0
tp159
a(g48
F727.0
F962.0
tp160
atp161
a(L11L
g123
(lp162
(g52
I0
F11.0
tp163
a(g54
F11.0
F300.0
tp164
a(g56
F554.0
F557.0
tp165
a(g58
F557.0
F861.0
tp166
atp167
a(L12L
Vapac-sin#m3.large
p168
(lp169
(g62
I0
F22.0
tp170
a(g64
F22.0
F552.0
tp171
a(g66
F556.0
F1137.0
tp172
atp173
a(L13L
g2
(lp174
(g70
I0
F6.0
tp175
a(g72
F6.0
F98.0
tp176
a(g74
F554.0
F556.0
tp177
a(g76
F556.0
F703.0
tp178
a(g78
F1137.0
F1139.0
tp179
atp180
a(L14L
g2
(lp181
(g82
I0
F6.0
tp182
a(g84
F6.0
F178.0
tp183
a(g86
F554.0
F556.0
tp184
a(g88
F556.0
F746.0
tp185
atp186
a(L15L
g2
(lp187
(g92
I0
F6.0
tp188
a(g94
F6.0
F173.0
tp189
a(g96
F554.0
F556.0
tp190
a(g98
F556.0
F702.0
tp191
atp192
a(L16L
g2
(lp193
(g102
I0
F6.0
tp194
a(g104
F11.0
F215.0
tp195
a(g106
F554.0
F556.0
tp196
a(g108
F556.0
F558.0
tp197
a(g110
F558.0
F679.0
tp198
atp199
a(L19L
g2
(lp200
(g114
I0
F6.0
tp201
a(g116
F6.0
F218.0
tp202
a(g118
F554.0
F556.0
tp203
a(g120
F556.0
F752.0
tp204
atp205
a(L20L
g123
(lp206
(g125
F6.0
F181.0
tp207
a(g127
F554.0
F557.0
tp208
a(g129
F557.0
F560.0
tp209
atp210
atp211
a(F1466.0
F10.11
(lp212
(L2L
g123
(lp213
(g4
I0
F0.0
tp214
a(g6
I0
F11.0
tp215
a(g8
F11.0
F22.0
tp216
a(g10
F839.0
F842.0
tp217
a(g12
F845.0
F1080.0
tp218
a(g14
F1466.0
F1466.0
tp219
atp220
a(L4L
Vapac-sin#m1.xlarge
p221
(lp222
(g44
F842.0
F847.0
tp223
atp224
a(L8L
g2
(lp225
(g18
I0
F6.0
tp226
a(g20
F23.0
F175.0
tp227
a(g22
F845.0
F1043.0
tp228
atp229
a(L9L
g2
(lp230
(g26
I0
F5.0
tp231
a(g28
F19.0
F94.0
tp232
a(g30
F94.0
F210.0
tp233
a(g32
F842.0
F844.0
tp234
a(g34
F844.0
F1056.0
tp235
atp236
a(L10L
g123
(lp237
(g38
I0
F11.0
tp238
a(g40
F22.0
F319.0
tp239
a(g42
F842.0
F845.0
tp240
a(g46
F847.0
F1014.0
tp241
a(g48
F1014.0
F1249.0
tp242
atp243
a(L11L
g168
(lp244
(g52
I0
F22.0
tp245
a(g54
F22.0
F601.0
tp246
a(g56
F842.0
F848.0
tp247
a(g58
F848.0
F1456.0
tp248
atp249
a(L12L
g168
(lp250
(g62
I0
F22.0
tp251
a(g64
F22.0
F552.0
tp252
a(g66
F844.0
F1425.0
tp253
atp254
a(L13L
g168
(lp255
(g70
I0
F23.0
tp256
a(g72
F23.0
F392.0
tp257
a(g74
F842.0
F848.0
tp258
a(g76
F848.0
F1436.0
tp259
a(g78
F1460.0
F1466.0
tp260
atp261
a(L14L
g221
(lp262
(g82
I0
F18.0
tp263
a(g84
F18.0
F578.0
tp264
a(g88
F844.0
F1460.0
tp265
atp266
a(L15L
g221
(lp267
(g92
I0
F19.0
tp268
a(g94
F19.0
F562.0
tp269
a(g96
F842.0
F847.0
tp270
a(g98
F847.0
F1323.0
tp271
atp272
a(L16L
g168
(lp273
(g102
I0
F23.0
tp274
a(g104
F23.0
F839.0
tp275
a(g106
F842.0
F848.0
tp276
a(g108
F848.0
F855.0
tp277
a(g110
F855.0
F1339.0
tp278
atp279
a(L19L
g2
(lp280
(g114
I0
F6.0
tp281
a(g116
F11.0
F223.0
tp282
a(g118
F842.0
F844.0
tp283
a(g120
F848.0
F1044.0
tp284
atp285
a(L20L
g123
(lp286
(g125
F18.0
F193.0
tp287
a(g127
F842.0
F845.0
tp288
a(g129
F845.0
F848.0
tp289
atp290
a(L23L
g2
(lp291
(g86
F842.0
F844.0
tp292
atp293
atp294
a(F1691.0
F6.94
(lp295
(L1L
g221
(lp296
(g76
F839.0
F1316.0
tp297
atp298
a(L2L
g168
(lp299
(g6
I0
F22.0
tp300
a(g8
F22.0
F44.0
tp301
a(g10
F822.0
F829.0
tp302
a(g12
F836.0
F1305.0
tp303
a(g14
F1692.0
F1692.0
tp304
atp305
a(L8L
g168
(lp306
(g18
I0
F22.0
tp307
a(g20
F23.0
F632.0
tp308
a(g22
F832.0
F1622.0
tp309
atp310
a(L9L
g168
(lp311
(g26
I0
F21.0
tp312
a(g28
F45.0
F346.0
tp313
a(g30
F346.0
F811.0
tp314
a(g32
F829.0
F835.0
tp315
a(g34
F835.0
F1681.0
tp316
atp317
a(L10L
g168
(lp318
(g4
I0
F0.0
tp319
a(g102
I0
F23.0
tp320
a(g40
F23.0
F618.0
tp321
a(g42
F829.0
F836.0
tp322
a(g44
F836.0
F842.0
tp323
a(g46
F842.0
F1176.0
tp324
a(g48
F1176.0
F1646.0
tp325
atp326
a(L11L
g168
(lp327
(g52
I0
F22.0
tp328
a(g54
F22.0
F601.0
tp329
a(g56
F829.0
F835.0
tp330
a(g58
F835.0
F1443.0
tp331
atp332
a(L12L
g168
(lp333
(g62
I0
F22.0
tp334
a(g92
F22.0
F45.0
tp335
a(g64
F45.0
F575.0
tp336
a(g66
F831.0
F1412.0
tp337
atp338
a(L13L
Vapac-sin#m1.large
p339
(lp340
(g72
F23.0
F623.0
tp341
a(g74
F829.0
F839.0
tp342
a(g78
F1681.0
F1692.0
tp343
atp344
a(L14L
g168
(lp345
(g70
I0
F23.0
tp346
a(g82
F23.0
F45.0
tp347
a(g84
F45.0
F735.0
tp348
a(g86
F829.0
F835.0
tp349
a(g88
F835.0
F1594.0
tp350
atp351
a(L15L
g168
(lp352
(g94
F21.0
F689.0
tp353
a(g96
F829.0
F835.0
tp354
a(g98
F835.0
F1420.0
tp355
atp356
a(L16L
g168
(lp357
(g104
F6.0
F822.0
tp358
a(g106
F829.0
F835.0
tp359
a(g108
F835.0
F842.0
tp360
a(g110
F842.0
F1326.0
tp361
atp362
a(L19L
g2
(lp363
(g114
I0
F6.0
tp364
a(g116
F22.0
F234.0
tp365
a(g118
F829.0
F831.0
tp366
a(g120
F835.0
F1031.0
tp367
atp368
a(L20L
g123
(lp369
(g125
F45.0
F220.0
tp370
a(g127
F829.0
F832.0
tp371
a(g129
F832.0
F835.0
tp372
atp373
a(L21L
g2
(lp374
(g38
I0
F6.0
tp375
atp376
atp377
a(F2425.0
F4.89
(lp378
(L2L
Vapac-sin#m1.medium
p379
(lp380
(g4
I0
F1.0
tp381
a(g26
F1.0
F71.0
tp382
a(g8
F71.0
F144.0
tp383
a(g10
F863.0
F884.0
tp384
a(g12
F891.0
F2416.0
tp385
a(g14
F2427.0
F2427.0
tp386
atp387
a(L8L
g168
(lp388
(g18
F1.0
F23.0
tp389
a(g20
F47.0
F656.0
tp390
a(g22
F887.0
F1677.0
tp391
atp392
a(L9L
g168
(lp393
(g6
F1.0
F23.0
tp394
a(g28
F24.0
F325.0
tp395
a(g30
F325.0
F790.0
tp396
a(g32
F884.0
F890.0
tp397
a(g34
F890.0
F1736.0
tp398
atp399
a(L10L
g168
(lp400
(g38
F1.0
F23.0
tp401
a(g40
F23.0
F618.0
tp402
a(g42
F884.0
F891.0
tp403
a(g44
F891.0
F897.0
tp404
a(g46
F897.0
F1231.0
tp405
a(g48
F1231.0
F1701.0
tp406
atp407
a(L11L
g168
(lp408
(g52
F1.0
F23.0
tp409
a(g54
F23.0
F602.0
tp410
a(g56
F884.0
F890.0
tp411
a(g58
F890.0
F1498.0
tp412
a(g106
F1498.0
F1504.0
tp413
atp414
a(L12L
g168
(lp415
(g62
F1.0
F23.0
tp416
a(g64
F144.0
F674.0
tp417
a(g66
F886.0
F1467.0
tp418
a(g88
F1467.0
F2226.0
tp419
atp420
a(L13L
g339
(lp421
(g70
F1.0
F38.0
tp422
a(g72
F38.0
F638.0
tp423
a(g74
F884.0
F894.0
tp424
a(g76
F894.0
F1849.0
tp425
a(g78
F2416.0
F2427.0
tp426
atp427
a(L14L
g168
(lp428
(g82
F1.0
F23.0
tp429
a(g84
F23.0
F713.0
tp430
a(g86
F884.0
F890.0
tp431
atp432
a(L15L
g168
(lp433
(g94
F71.0
F739.0
tp434
a(g96
F884.0
F890.0
tp435
a(g98
F890.0
F1475.0
tp436
atp437
a(L16L
g168
(lp438
(g92
F1.0
F24.0
tp439
a(g102
F24.0
F47.0
tp440
a(g104
F47.0
F863.0
tp441
a(g108
F884.0
F891.0
tp442
a(g110
F891.0
F1375.0
tp443
atp444
a(L19L
g2
(lp445
(g114
F1.0
F7.0
tp446
a(g116
F23.0
F235.0
tp447
a(g118
F884.0
F886.0
tp448
a(g120
F1504.0
F1700.0
tp449
atp450
a(L20L
g123
(lp451
(g125
F23.0
F198.0
tp452
a(g127
F884.0
F887.0
tp453
a(g129
F887.0
F890.0
tp454
atp455
atp456
a(F2430.0
F3.47
(lp457
(L2L
g379
(lp458
(g4
I0
F1.0
tp459
a(g26
F1.0
F71.0
tp460
a(g8
F71.0
F144.0
tp461
a(g10
F872.0
F893.0
tp462
a(g12
F900.0
F2425.0
tp463
a(g14
F2431.0
F2431.0
tp464
atp465
a(L8L
g168
(lp466
(g18
F1.0
F23.0
tp467
a(g20
F47.0
F656.0
tp468
a(g22
F907.0
F1697.0
tp469
atp470
a(L9L
g168
(lp471
(g6
F1.0
F23.0
tp472
a(g28
F24.0
F325.0
tp473
a(g30
F325.0
F790.0
tp474
a(g32
F893.0
F899.0
tp475
a(g34
F899.0
F1745.0
tp476
atp477
a(L10L
g168
(lp478
(g38
F1.0
F23.0
tp479
a(g40
F23.0
F618.0
tp480
a(g42
F893.0
F900.0
tp481
a(g44
F900.0
F906.0
tp482
a(g46
F906.0
F1240.0
tp483
a(g48
F1240.0
F1710.0
tp484
a(g78
F2425.0
F2431.0
tp485
atp486
a(L11L
g168
(lp487
(g52
F1.0
F23.0
tp488
a(g54
F24.0
F603.0
tp489
a(g56
F893.0
F899.0
tp490
a(g58
F899.0
F1507.0
tp491
atp492
a(L12L
g168
(lp493
(g62
F1.0
F23.0
tp494
a(g64
F144.0
F674.0
tp495
a(g66
F900.0
F1481.0
tp496
atp497
a(L13L
g339
(lp498
(g70
F1.0
F38.0
tp499
a(g72
F38.0
F638.0
tp500
a(g74
F893.0
F903.0
tp501
a(g76
F903.0
F1858.0
tp502
atp503
a(L14L
g168
(lp504
(g82
F1.0
F23.0
tp505
a(g84
F23.0
F713.0
tp506
a(g86
F893.0
F899.0
tp507
a(g88
F899.0
F1658.0
tp508
atp509
a(L15L
g168
(lp510
(g94
F71.0
F739.0
tp511
a(g96
F893.0
F899.0
tp512
a(g98
F899.0
F1484.0
tp513
atp514
a(L16L
g168
(lp515
(g92
F1.0
F24.0
tp516
a(g102
F24.0
F47.0
tp517
a(g104
F47.0
F863.0
tp518
a(g106
F893.0
F899.0
tp519
a(g108
F899.0
F906.0
tp520
a(g110
F906.0
F1390.0
tp521
atp522
a(L19L
g168
(lp523
(g114
F1.0
F24.0
tp524
a(g116
F24.0
F872.0
tp525
a(g118
F893.0
F900.0
tp526
a(g120
F900.0
F1684.0
tp527
atp528
a(L20L
Vapac-sin#m3.medium
p529
(lp530
(g125
F23.0
F783.0
tp531
a(g127
F893.0
F907.0
tp532
a(g129
F907.0
F921.0
tp533
atp534
atp535
a(F3484.0
F3.01
(lp536
(L2L
g221
(lp537
(g6
I0
F18.0
tp538
a(g28
F50.0
F294.0
tp539
a(g84
F294.0
F854.0
tp540
a(g10
F1815.0
F1820.0
tp541
a(g42
F1820.0
F1825.0
tp542
a(g12
F1825.0
F2206.0
tp543
a(g120
F2206.0
F2843.0
tp544
a(g14
F3483.0
F3483.0
tp545
atp546
a(L36L
g168
(lp547
(g22
F1826.0
F2616.0
tp548
atp549
a(L8L
g529
(lp550
(g18
I0
F49.0
tp551
a(g20
F49.0
F1369.0
tp552
atp553
a(L9L
g168
(lp554
(g26
I0
F21.0
tp555
a(g30
F22.0
F487.0
tp556
a(g54
F487.0
F1066.0
tp557
a(g32
F1820.0
F1826.0
tp558
a(g34
F1826.0
F2672.0
tp559
atp560
a(L10L
g168
(lp561
(g4
I0
F0.0
tp562
a(g62
I0
F22.0
tp563
a(g102
F22.0
F45.0
tp564
a(g40
F48.0
F643.0
tp565
a(g8
F643.0
F665.0
tp566
a(g116
F665.0
F1513.0
tp567
a(g44
F1820.0
F1826.0
tp568
a(g46
F1826.0
F2160.0
tp569
a(g76
F2160.0
F2748.0
tp570
a(g98
F2748.0
F3333.0
tp571
atp572
a(L11L
g529
(lp573
(g52
I0
F48.0
tp574
a(g104
F48.0
F1815.0
tp575
a(g56
F1820.0
F1833.0
tp576
a(g58
F1833.0
F3151.0
tp577
atp578
a(L12L
g529
(lp579
(g92
I0
F50.0
tp580
a(g64
F665.0
F1812.0
tp581
a(g66
F1863.0
F3123.0
tp582
atp583
a(L13L
g529
(lp584
(g72
F50.0
F851.0
tp585
a(g74
F1820.0
F1833.0
tp586
atp587
a(L14L
g529
(lp588
(g70
I0
F50.0
tp589
a(g82
F50.0
F98.0
tp590
a(g86
F1820.0
F1833.0
tp591
a(g88
F1833.0
F3477.0
tp592
atp593
a(L17L
Vapac-sin#m1.small
p594
(lp595
(g114
I0
F146.0
tp596
a(g108
F1820.0
F1865.0
tp597
a(g129
F1865.0
F1907.0
tp598
atp599
a(L19L
g594
(lp600
(g118
F1820.0
F1863.0
tp601
a(g96
F1863.0
F1903.0
tp602
atp603
a(L20L
g168
(lp604
(g94
F21.0
F689.0
tp605
a(g127
F1820.0
F1826.0
tp606
a(g106
F1826.0
F1832.0
tp607
a(g110
F1865.0
F2349.0
tp608
a(g48
F2349.0
F2819.0
tp609
a(g78
F3477.0
F3483.0
tp610
atp611
a(L21L
g529
(lp612
(g38
I0
F48.0
tp613
a(g125
F98.0
F858.0
tp614
atp615
atp616
a(F3547.0
F2.37
(lp617
(L2L
g168
(lp618
(g6
I0
F22.0
tp619
a(g28
F98.0
F399.0
tp620
a(g84
F399.0
F1089.0
tp621
a(g10
F1815.0
F1822.0
tp622
a(g42
F1822.0
F1829.0
tp623
a(g12
F1829.0
F2298.0
tp624
a(g120
F2298.0
F3082.0
tp625
atp626
a(L5L
g379
(lp627
(g14
F3546.0
F3546.0
tp628
atp629
a(L8L
g529
(lp630
(g18
I0
F49.0
tp631
a(g20
F49.0
F1369.0
tp632
a(g22
F1828.0
F3540.0
tp633
atp634
a(L9L
g168
(lp635
(g26
I0
F21.0
tp636
a(g30
F48.0
F513.0
tp637
a(g54
F513.0
F1092.0
tp638
a(g32
F1822.0
F1828.0
tp639
a(g34
F1828.0
F2674.0
tp640
atp641
a(L10L
g168
(lp642
(g4
I0
F0.0
tp643
a(g102
I0
F23.0
tp644
a(g40
F48.0
F643.0
tp645
a(g8
F643.0
F665.0
tp646
a(g116
F665.0
F1513.0
tp647
a(g44
F1822.0
F1828.0
tp648
a(g46
F1828.0
F2162.0
tp649
a(g76
F2162.0
F2750.0
tp650
a(g98
F2750.0
F3335.0
tp651
atp652
a(L11L
g529
(lp653
(g52
I0
F48.0
tp654
a(g104
F48.0
F1815.0
tp655
a(g56
F1822.0
F1835.0
tp656
a(g58
F1835.0
F3153.0
tp657
atp658
a(L12L
g529
(lp659
(g62
I0
F48.0
tp660
a(g92
F48.0
F98.0
tp661
a(g64
F665.0
F1812.0
tp662
a(g66
F1865.0
F3125.0
tp663
atp664
a(L13L
g529
(lp665
(g72
F50.0
F851.0
tp666
a(g74
F1822.0
F1835.0
tp667
atp668
a(L14L
g529
(lp669
(g70
I0
F50.0
tp670
a(g82
F50.0
F98.0
tp671
a(g86
F1822.0
F1835.0
tp672
a(g88
F1835.0
F3479.0
tp673
atp674
a(L17L
g594
(lp675
(g114
I0
F146.0
tp676
a(g108
F1822.0
F1867.0
tp677
a(g129
F1867.0
F1909.0
tp678
atp679
a(L19L
g594
(lp680
(g118
F1822.0
F1865.0
tp681
a(g96
F1865.0
F1905.0
tp682
atp683
a(L20L
g168
(lp684
(g94
F21.0
F689.0
tp685
a(g127
F1822.0
F1828.0
tp686
a(g106
F1828.0
F1834.0
tp687
a(g110
F1867.0
F2351.0
tp688
a(g48
F2351.0
F2821.0
tp689
a(g78
F3540.0
F3546.0
tp690
atp691
a(L21L
g529
(lp692
(g38
I0
F48.0
tp693
a(g125
F98.0
F858.0
tp694
atp695
atp696
a.