(lp0
(F411.0
F8.82
(lp1
(L2L
Vapac-sin#m3.2xlarge
p2
(lp3
(S'entry'
p4
I0
F0.0
tp5
a(VID00005
p6
I0
F5.0
tp7
a(VID00007
p8
F5.0
F213.0
tp9
a(VID00014
p10
F213.0
F215.0
tp11
a(VID00020
p12
F215.0
F217.0
tp13
a(VID00027
p14
F217.0
F374.0
tp15
a(VID00029
p16
F410.0
F411.0
tp17
atp18
a(L6L
Vapac-sin#m1.xlarge
p19
(lp20
(S'exit'
p21
F411.0
F411.0
tp22
atp23
a(L8L
g2
(lp24
(VID00004
p25
I0
F6.0
tp26
a(VID00013
p27
F6.0
F112.0
tp28
a(VID00021
p29
F215.0
F217.0
tp30
a(VID00023
p31
F217.0
F406.0
tp32
atp33
a(L9L
g2
(lp34
(VID00006
p35
I0
F6.0
tp36
a(VID00012
p37
F6.0
F108.0
tp38
a(VID00017
p39
F215.0
F217.0
tp40
a(VID00024
p41
F217.0
F346.0
tp42
atp43
a(L10L
g2
(lp44
(VID00001
p45
I0
F6.0
tp46
a(VID00008
p47
F6.0
F114.0
tp48
a(VID00016
p49
F215.0
F217.0
tp50
a(VID00022
p51
F217.0
F410.0
tp52
atp53
a(L11L
g2
(lp54
(VID00000
p55
I0
F5.0
tp56
a(VID00011
p57
F6.0
F171.0
tp58
a(VID00015
p59
F215.0
F217.0
tp60
atp61
a(L12L
g2
(lp62
(VID00003
p63
I0
F5.0
tp64
a(VID00010
p65
F5.0
F165.0
tp66
a(VID00018
p67
F215.0
F217.0
tp68
a(VID00025
p69
F217.0
F296.0
tp70
a(VID00028
p71
F296.0
F408.0
tp72
atp73
a(L13L
g2
(lp74
(VID00002
p75
I0
F5.0
tp76
a(VID00009
p77
F5.0
F188.0
tp78
a(VID00019
p79
F215.0
F217.0
tp80
a(VID00026
p81
F217.0
F311.0
tp82
atp83
atp84
a(F754.0
F5.83
(lp85
(L2L
Vapac-sin#m3.medium
p86
(lp87
(g59
F403.0
F418.0
tp88
atp89
a(L8L
g2
(lp90
(g25
I0
F6.0
tp91
a(g57
F6.0
F171.0
tp92
a(g12
F403.0
F405.0
tp93
a(g29
F405.0
F407.0
tp94
a(g31
F407.0
F596.0
tp95
atp96
a(L9L
g2
(lp97
(g35
I0
F6.0
tp98
a(g45
F6.0
F12.0
tp99
a(g47
F12.0
F120.0
tp100
a(g27
F120.0
F226.0
tp101
a(g41
F405.0
F534.0
tp102
a(g21
F754.0
F754.0
tp103
atp104
a(L12L
g2
(lp105
(g4
I0
F0.0
tp106
a(g63
I0
F5.0
tp107
a(g65
F5.0
F165.0
tp108
a(g14
F405.0
F562.0
tp109
a(g69
F562.0
F641.0
tp110
a(g71
F641.0
F753.0
tp111
atp112
a(L13L
g2
(lp113
(g55
I0
F5.0
tp114
a(g8
F5.0
F213.0
tp115
a(g75
F213.0
F218.0
tp116
a(g77
F218.0
F401.0
tp117
a(g10
F401.0
F403.0
tp118
a(g39
F403.0
F405.0
tp119
a(g51
F418.0
F611.0
tp120
a(g79
F611.0
F613.0
tp121
a(g81
F613.0
F707.0
tp122
a(g16
F753.0
F754.0
tp123
atp124
a(L14L
Vapac-sin#m3.xlarge
p125
(lp126
(g6
I0
F11.0
tp127
a(g37
F11.0
F215.0
tp128
a(g49
F403.0
F406.0
tp129
a(g67
F406.0
F409.0
tp130
atp131
atp132
a(F803.0
F5.2
(lp133
(L2L
g86
(lp134
(g59
F452.0
F467.0
tp135
atp136
a(L8L
g2
(lp137
(g25
I0
F6.0
tp138
a(g57
F6.0
F171.0
tp139
a(g12
F452.0
F454.0
tp140
a(g49
F454.0
F456.0
tp141
a(g31
F456.0
F645.0
tp142
atp143
a(L9L
g125
(lp144
(g35
I0
F11.0
tp145
a(g45
F11.0
F22.0
tp146
a(g47
F22.0
F238.0
tp147
a(g27
F238.0
F450.0
tp148
a(g41
F456.0
F713.0
tp149
a(g21
F803.0
F803.0
tp150
atp151
a(L12L
g2
(lp152
(g4
I0
F0.0
tp153
a(g63
I0
F5.0
tp154
a(g65
F5.0
F165.0
tp155
a(g14
F454.0
F611.0
tp156
a(g69
F611.0
F690.0
tp157
a(g71
F690.0
F802.0
tp158
atp159
a(L13L
g2
(lp160
(g55
I0
F5.0
tp161
a(g8
F5.0
F213.0
tp162
a(g75
F213.0
F218.0
tp163
a(g77
F218.0
F401.0
tp164
a(g10
F450.0
F452.0
tp165
a(g29
F452.0
F454.0
tp166
a(g39
F454.0
F456.0
tp167
a(g51
F467.0
F660.0
tp168
a(g79
F660.0
F662.0
tp169
a(g81
F662.0
F756.0
tp170
a(g16
F802.0
F803.0
tp171
atp172
a(L14L
g125
(lp173
(g6
I0
F11.0
tp174
a(g37
F11.0
F215.0
tp175
a(g67
F452.0
F455.0
tp176
atp177
atp178
a(F1451.0
F3.94
(lp179
(L2L
g86
(lp180
(g59
F683.0
F698.0
tp181
atp182
a(L6L
g19
(lp183
(g21
F1451.0
F1451.0
tp184
atp185
a(L8L
Vapac-sin#m3.large
p186
(lp187
(g25
I0
F22.0
tp188
a(g57
F22.0
F681.0
tp189
a(g12
F683.0
F690.0
tp190
a(g29
F690.0
F696.0
tp191
a(g31
F696.0
F1450.0
tp192
atp193
a(L9L
g125
(lp194
(g35
I0
F11.0
tp195
a(g45
F11.0
F22.0
tp196
a(g47
F22.0
F238.0
tp197
a(g27
F238.0
F450.0
tp198
a(g41
F685.0
F942.0
tp199
atp200
a(L12L
g2
(lp201
(g4
I0
F0.0
tp202
a(g63
I0
F5.0
tp203
a(g65
F5.0
F165.0
tp204
a(g14
F690.0
F847.0
tp205
atp206
a(L13L
g2
(lp207
(g55
I0
F5.0
tp208
a(g8
F5.0
F213.0
tp209
a(g75
F213.0
F218.0
tp210
a(g77
F218.0
F401.0
tp211
a(g10
F681.0
F683.0
tp212
a(g39
F683.0
F685.0
tp213
a(g51
F698.0
F891.0
tp214
a(g79
F891.0
F893.0
tp215
a(g81
F893.0
F987.0
tp216
a(g71
F987.0
F1099.0
tp217
a(g16
F1450.0
F1451.0
tp218
atp219
a(L14L
g186
(lp220
(g6
I0
F22.0
tp221
a(g37
F22.0
F431.0
tp222
a(g49
F683.0
F690.0
tp223
a(g67
F690.0
F696.0
tp224
a(g69
F696.0
F1011.0
tp225
atp226
atp227
a(F1756.0
F2.21
(lp228
(L2L
g86
(lp229
(g59
F936.0
F951.0
tp230
atp231
a(L6L
g19
(lp232
(g21
F1755.0
F1755.0
tp233
atp234
a(L8L
g186
(lp235
(g25
I0
F22.0
tp236
a(g12
F936.0
F943.0
tp237
a(g49
F943.0
F950.0
tp238
a(g31
F950.0
F1704.0
tp239
atp240
a(L9L
g125
(lp241
(g35
I0
F11.0
tp242
a(g45
F11.0
F22.0
tp243
a(g47
F22.0
F238.0
tp244
a(g27
F238.0
F450.0
tp245
a(g57
F450.0
F779.0
tp246
a(g41
F942.0
F1199.0
tp247
atp248
a(L12L
g186
(lp249
(g4
I0
F0.0
tp250
a(g63
I0
F22.0
tp251
a(g65
F22.0
F661.0
tp252
a(g14
F943.0
F1571.0
tp253
atp254
a(L13L
g125
(lp255
(g55
I0
F11.0
tp256
a(g8
F11.0
F426.0
tp257
a(g75
F426.0
F437.0
tp258
a(g77
F437.0
F803.0
tp259
a(g10
F933.0
F936.0
tp260
a(g29
F936.0
F939.0
tp261
a(g39
F939.0
F942.0
tp262
a(g51
F951.0
F1336.0
tp263
a(g79
F1336.0
F1339.0
tp264
a(g81
F1339.0
F1527.0
tp265
a(g71
F1527.0
F1752.0
tp266
a(g16
F1752.0
F1755.0
tp267
atp268
a(L14L
g86
(lp269
(g6
I0
F47.0
tp270
a(g37
F47.0
F933.0
tp271
a(g67
F936.0
F950.0
tp272
a(g69
F950.0
F1632.0
tp273
atp274
atp275
a(F2814.0
F1.74
(lp276
(L0L
g86
(lp277
(g12
F1435.0
F1449.0
tp278
a(g81
F1833.0
F2648.0
tp279
a(g21
F2813.0
F2813.0
tp280
atp281
a(L2L
g86
(lp282
(g6
I0
F47.0
tp283
a(g75
F47.0
F94.0
tp284
a(g27
F94.0
F1012.0
tp285
atp286
a(L8L
g186
(lp287
(g25
I0
F22.0
tp288
a(g57
F22.0
F681.0
tp289
a(g49
F1435.0
F1442.0
tp290
a(g31
F1442.0
F2196.0
tp291
atp292
a(L9L
g86
(lp293
(g35
I0
F49.0
tp294
a(g45
F49.0
F97.0
tp295
a(g47
F97.0
F1031.0
tp296
a(g41
F1441.0
F2557.0
tp297
atp298
a(L12L
g86
(lp299
(g63
I0
F47.0
tp300
a(g65
F47.0
F1432.0
tp301
a(g14
F1449.0
F2810.0
tp302
atp303
a(L13L
g125
(lp304
(g4
I0
F0.0
tp305
a(g55
I0
F11.0
tp306
a(g8
F11.0
F426.0
tp307
a(g77
F426.0
F792.0
tp308
a(g10
F1432.0
F1435.0
tp309
a(g29
F1435.0
F1438.0
tp310
a(g39
F1438.0
F1441.0
tp311
a(g59
F1441.0
F1445.0
tp312
a(g51
F1445.0
F1830.0
tp313
a(g79
F1830.0
F1833.0
tp314
a(g71
F1833.0
F2058.0
tp315
a(g16
F2810.0
F2813.0
tp316
atp317
a(L14L
g86
(lp318
(g37
F47.0
F933.0
tp319
a(g67
F1435.0
F1449.0
tp320
a(g69
F1449.0
F2131.0
tp321
atp322
atp323
a(F3246.0
F1.11
(lp324
(L2L
g86
(lp325
(g4
I0
F0.0
tp326
a(g6
I0
F47.0
tp327
a(g75
F47.0
F94.0
tp328
a(g27
F94.0
F1012.0
tp329
a(g59
F1591.0
F1606.0
tp330
atp331
a(L6L
g19
(lp332
(g21
F3245.0
F3245.0
tp333
atp334
a(L8L
g86
(lp335
(g25
I0
F48.0
tp336
a(g57
F48.0
F1475.0
tp337
a(g49
F1591.0
F1605.0
tp338
a(g31
F1605.0
F3239.0
tp339
atp340
a(L9L
g86
(lp341
(g35
I0
F49.0
tp342
a(g45
F49.0
F97.0
tp343
a(g47
F97.0
F1031.0
tp344
a(g41
F1610.0
F2726.0
tp345
atp346
a(L12L
g86
(lp347
(g63
I0
F47.0
tp348
a(g65
F47.0
F1432.0
tp349
a(g14
F1598.0
F2959.0
tp350
atp351
a(L13L
g186
(lp352
(g55
I0
F22.0
tp353
a(g8
F22.0
F852.0
tp354
a(g77
F852.0
F1584.0
tp355
a(g10
F1584.0
F1591.0
tp356
a(g12
F1591.0
F1598.0
tp357
a(g29
F1598.0
F1604.0
tp358
a(g39
F1604.0
F1610.0
tp359
a(g51
F1610.0
F2381.0
tp360
a(g79
F2381.0
F2387.0
tp361
a(g81
F2387.0
F2763.0
tp362
a(g71
F2763.0
F3212.0
tp363
a(g16
F3239.0
F3245.0
tp364
atp365
a(L14L
g86
(lp366
(g37
F47.0
F933.0
tp367
a(g67
F1591.0
F1605.0
tp368
a(g69
F1605.0
F2287.0
tp369
atp370
atp371
a.