(lp0
(F17.0
F35.28
(lp1
(L2L
Vapac-sin#m3.2xlarge
p2
(lp3
(S'entry'
p4
I0
F0.0
tp5
a(VID00005
p6
I0
F4.0
tp7
a(VID00023
p8
F4.0
F7.0
tp9
a(VID00036
p10
F7.0
F8.0
tp11
a(VID00037
p12
F8.0
F9.0
tp13
a(VID00044
p14
F9.0
F12.0
tp15
a(VID00046
p16
F12.0
F13.0
tp17
a(VID00047
p18
F13.0
F14.0
tp19
a(VID00048
p20
F14.0
F16.0
tp21
a(VID00049
p22
F16.0
F16.0
tp23
a(S'exit'
p24
F16.0
F16.0
tp25
atp26
a(L8L
g2
(lp27
(VID00004
p28
I0
F4.0
tp29
a(VID00022
p30
F4.0
F7.0
tp31
a(VID00045
p32
F9.0
F12.0
tp33
atp34
a(L9L
g2
(lp35
(VID00007
p36
I0
F4.0
tp37
a(VID00032
p38
F4.0
F7.0
tp39
a(VID00042
p40
F9.0
F12.0
tp41
atp42
a(L10L
g2
(lp43
(VID00006
p44
I0
F4.0
tp45
a(VID00027
p46
F4.0
F7.0
tp47
a(VID00043
p48
F9.0
F12.0
tp49
atp50
a(L11L
g2
(lp51
(VID00001
p52
I0
F4.0
tp53
a(VID00009
p54
F4.0
F7.0
tp55
a(VID00041
p56
F9.0
F12.0
tp57
atp58
a(L12L
g2
(lp59
(VID00000
p60
I0
F4.0
tp61
a(VID00026
p62
F4.0
F7.0
tp63
a(VID00039
p64
F9.0
F12.0
tp65
atp66
a(L13L
g2
(lp67
(VID00003
p68
I0
F4.0
tp69
a(VID00025
p70
F4.0
F7.0
tp71
a(VID00038
p72
F9.0
F12.0
tp73
atp74
a(L14L
g2
(lp75
(VID00002
p76
I0
F4.0
tp77
a(VID00012
p78
F4.0
F7.0
tp79
a(VID00040
p80
F9.0
F12.0
tp81
atp82
a(L15L
g2
(lp83
(VID00024
p84
F4.0
F7.0
tp85
atp86
a(L16L
g2
(lp87
(VID00008
p88
F4.0
F7.0
tp89
atp90
a(L17L
g2
(lp91
(VID00021
p92
F4.0
F7.0
tp93
atp94
a(L18L
g2
(lp95
(VID00020
p96
F4.0
F7.0
tp97
atp98
a(L19L
g2
(lp99
(VID00013
p100
F4.0
F7.0
tp101
atp102
a(L20L
g2
(lp103
(VID00010
p104
F4.0
F7.0
tp105
atp106
a(L21L
g2
(lp107
(VID00011
p108
F4.0
F7.0
tp109
atp110
a(L22L
g2
(lp111
(VID00016
p112
F4.0
F7.0
tp113
atp114
a(L23L
g2
(lp115
(VID00017
p116
F4.0
F7.0
tp117
atp118
a(L24L
g2
(lp119
(VID00014
p120
F4.0
F7.0
tp121
atp122
a(L25L
g2
(lp123
(VID00015
p124
F4.0
F7.0
tp125
atp126
a(L26L
g2
(lp127
(VID00029
p128
F4.0
F7.0
tp129
atp130
a(L27L
g2
(lp131
(VID00035
p132
F4.0
F7.0
tp133
atp134
a(L28L
g2
(lp135
(VID00018
p136
F4.0
F7.0
tp137
atp138
a(L29L
g2
(lp139
(VID00019
p140
F4.0
F7.0
tp141
atp142
a(L30L
g2
(lp143
(VID00030
p144
F4.0
F7.0
tp145
atp146
a(L31L
g2
(lp147
(VID00031
p148
F4.0
F7.0
tp149
atp150
a(L32L
g2
(lp151
(VID00028
p152
F4.0
F7.0
tp153
atp154
a(L33L
g2
(lp155
(VID00033
p156
F4.0
F7.0
tp157
atp158
a(L34L
g2
(lp159
(VID00034
p160
F4.0
F7.0
tp161
atp162
atp163
a(F20.0
F17.64
(lp164
(L2L
g2
(lp165
(g4
I0
F0.0
tp166
a(g6
I0
F4.0
tp167
a(g8
F4.0
F7.0
tp168
a(g144
F7.0
F10.0
tp169
a(g14
F13.0
F16.0
tp170
a(g18
F17.0
F18.0
tp171
a(g20
F18.0
F20.0
tp172
a(g22
F20.0
F20.0
tp173
atp174
a(L34L
g2
(lp175
(g24
F20.0
F20.0
tp176
atp177
a(L8L
g2
(lp178
(g28
I0
F4.0
tp179
a(g30
F4.0
F7.0
tp180
a(g160
F7.0
F10.0
tp181
a(g32
F13.0
F16.0
tp182
atp183
a(L9L
g2
(lp184
(g38
F4.0
F7.0
tp185
a(g152
F7.0
F10.0
tp186
a(g12
F12.0
F13.0
tp187
a(g40
F13.0
F16.0
tp188
atp189
a(L10L
g2
(lp190
(g44
I0
F4.0
tp191
a(g46
F4.0
F7.0
tp192
a(g132
F7.0
F10.0
tp193
a(g10
F11.0
F12.0
tp194
a(g48
F13.0
F16.0
tp195
atp196
a(L11L
g2
(lp197
(g52
I0
F4.0
tp198
a(g54
F4.0
F7.0
tp199
a(g120
F7.0
F10.0
tp200
a(g56
F13.0
F16.0
tp201
atp202
a(L12L
g2
(lp203
(g62
F4.0
F7.0
tp204
a(g156
F7.0
F10.0
tp205
a(g64
F13.0
F16.0
tp206
atp207
a(L13L
g2
(lp208
(g68
I0
F4.0
tp209
a(g70
F4.0
F7.0
tp210
a(g140
F7.0
F10.0
tp211
a(g72
F13.0
F16.0
tp212
a(g16
F16.0
F17.0
tp213
atp214
a(L14L
g2
(lp215
(g76
I0
F4.0
tp216
a(g78
F4.0
F7.0
tp217
a(g148
F7.0
F10.0
tp218
a(g80
F13.0
F16.0
tp219
atp220
a(L17L
g2
(lp221
(g92
F4.0
F7.0
tp222
a(g116
F7.0
F10.0
tp223
atp224
a(L19L
g2
(lp225
(g60
I0
F4.0
tp226
a(g96
F4.0
F7.0
tp227
a(g100
F7.0
F10.0
tp228
atp229
a(L20L
g2
(lp230
(g88
F4.0
F7.0
tp231
a(g104
F7.0
F10.0
tp232
atp233
a(L21L
g2
(lp234
(g84
F4.0
F7.0
tp235
a(g108
F7.0
F10.0
tp236
atp237
a(L22L
g2
(lp238
(g36
I0
F4.0
tp239
a(g112
F4.0
F7.0
tp240
a(g136
F7.0
F10.0
tp241
atp242
a(L41L
Vapac-sin#m3.xlarge
p243
(lp244
(g124
F4.0
F10.0
tp245
atp246
a(L42L
g243
(lp247
(g128
F4.0
F11.0
tp248
atp249
atp250
a(F27.0
F10.08
(lp251
(L2L
g2
(lp252
(g4
I0
F0.0
tp253
a(g6
I0
F4.0
tp254
a(g8
F4.0
F7.0
tp255
a(g88
F7.0
F10.0
tp256
a(g112
F10.0
F13.0
tp257
a(g144
F13.0
F16.0
tp258
a(g10
F16.0
F17.0
tp259
a(g12
F17.0
F18.0
tp260
a(g14
F18.0
F21.0
tp261
a(g18
F22.0
F23.0
tp262
a(g20
F23.0
F25.0
tp263
a(g22
F25.0
F25.0
tp264
a(g24
F25.0
F25.0
tp265
atp266
a(L8L
g2
(lp267
(g28
I0
F4.0
tp268
a(g30
F4.0
F7.0
tp269
a(g54
F7.0
F10.0
tp270
a(g108
F10.0
F13.0
tp271
a(g160
F13.0
F16.0
tp272
a(g32
F18.0
F21.0
tp273
atp274
a(L9L
g2
(lp275
(g36
I0
F4.0
tp276
a(g38
F4.0
F7.0
tp277
a(g96
F7.0
F10.0
tp278
a(g152
F10.0
F13.0
tp279
a(g40
F18.0
F21.0
tp280
atp281
a(L10L
g2
(lp282
(g44
I0
F4.0
tp283
a(g46
F4.0
F7.0
tp284
a(g104
F7.0
F10.0
tp285
a(g128
F10.0
F13.0
tp286
a(g132
F13.0
F16.0
tp287
a(g48
F18.0
F21.0
tp288
atp289
a(L11L
g2
(lp290
(g52
I0
F4.0
tp291
a(g92
F4.0
F7.0
tp292
a(g156
F7.0
F10.0
tp293
a(g56
F18.0
F21.0
tp294
atp295
a(L12L
g2
(lp296
(g60
I0
F4.0
tp297
a(g62
F4.0
F7.0
tp298
a(g78
F7.0
F10.0
tp299
a(g116
F10.0
F13.0
tp300
a(g136
F13.0
F16.0
tp301
a(g64
F18.0
F21.0
tp302
atp303
a(L13L
g2
(lp304
(g68
I0
F4.0
tp305
a(g70
F4.0
F7.0
tp306
a(g100
F7.0
F10.0
tp307
a(g140
F10.0
F13.0
tp308
a(g72
F18.0
F21.0
tp309
a(g16
F21.0
F22.0
tp310
atp311
a(L14L
g2
(lp312
(g76
I0
F4.0
tp313
a(g84
F4.0
F7.0
tp314
a(g120
F7.0
F10.0
tp315
a(g124
F10.0
F13.0
tp316
a(g148
F13.0
F16.0
tp317
a(g80
F18.0
F21.0
tp318
atp319
atp320
a(F107.0
F9.76
(lp321
(L2L
Vapac-sin#m3.large
p322
(lp323
(g4
I0
F0.0
tp324
a(g6
I0
F17.0
tp325
a(g8
F17.0
F30.0
tp326
a(g88
F30.0
F43.0
tp327
a(g112
F43.0
F56.0
tp328
a(g144
F56.0
F69.0
tp329
a(g10
F69.0
F72.0
tp330
a(g12
F72.0
F77.0
tp331
a(g14
F77.0
F90.0
tp332
a(g16
F90.0
F94.0
tp333
a(g18
F94.0
F100.0
tp334
a(g20
F100.0
F106.0
tp335
a(g22
F106.0
F108.0
tp336
atp337
a(L34L
g2
(lp338
(g24
F108.0
F108.0
tp339
atp340
a(L38L
g243
(lp341
(g92
F4.0
F10.0
tp342
atp343
a(L8L
g2
(lp344
(g28
I0
F4.0
tp345
a(g30
F4.0
F7.0
tp346
a(g54
F7.0
F10.0
tp347
a(g108
F10.0
F13.0
tp348
a(g160
F17.0
F20.0
tp349
a(g32
F77.0
F80.0
tp350
atp351
a(L9L
g2
(lp352
(g36
I0
F4.0
tp353
a(g38
F4.0
F7.0
tp354
a(g96
F7.0
F10.0
tp355
a(g152
F17.0
F20.0
tp356
a(g40
F77.0
F80.0
tp357
atp358
a(L10L
g2
(lp359
(g44
I0
F4.0
tp360
a(g46
F17.0
F20.0
tp361
a(g104
F20.0
F23.0
tp362
a(g128
F23.0
F26.0
tp363
a(g132
F26.0
F29.0
tp364
a(g48
F77.0
F80.0
tp365
atp366
a(L11L
g2
(lp367
(g52
I0
F4.0
tp368
a(g156
F4.0
F7.0
tp369
a(g56
F77.0
F80.0
tp370
atp371
a(L12L
g2
(lp372
(g60
I0
F4.0
tp373
a(g62
F4.0
F7.0
tp374
a(g78
F17.0
F20.0
tp375
a(g116
F20.0
F23.0
tp376
a(g136
F23.0
F26.0
tp377
a(g64
F77.0
F80.0
tp378
atp379
a(L13L
g2
(lp380
(g68
I0
F4.0
tp381
a(g70
F4.0
F7.0
tp382
a(g100
F7.0
F10.0
tp383
a(g140
F10.0
F13.0
tp384
a(g72
F77.0
F80.0
tp385
atp386
a(L14L
g2
(lp387
(g76
I0
F4.0
tp388
a(g84
F4.0
F7.0
tp389
a(g120
F7.0
F10.0
tp390
a(g124
F10.0
F13.0
tp391
a(g148
F13.0
F16.0
tp392
a(g80
F77.0
F80.0
tp393
atp394
atp395
a(F156.0
F5.44
(lp396
(L2L
g2
(lp397
(g4
I0
F0.0
tp398
a(g6
I0
F4.0
tp399
a(g8
F4.0
F7.0
tp400
a(g88
F26.0
F29.0
tp401
a(g112
F36.0
F39.0
tp402
a(g144
F39.0
F42.0
tp403
a(g10
F121.0
F122.0
tp404
a(g12
F122.0
F123.0
tp405
a(g14
F123.0
F126.0
tp406
a(g18
F152.0
F153.0
tp407
a(g20
F153.0
F155.0
tp408
a(g22
F155.0
F155.0
tp409
a(g24
F155.0
F155.0
tp410
atp411
a(L39L
Vapac-sin#m1.small
p412
(lp413
(g54
F36.0
F121.0
tp414
atp415
a(L8L
Vapac-sin#m3.medium
p416
(lp417
(g28
I0
F36.0
tp418
a(g30
F36.0
F64.0
tp419
a(g108
F64.0
F93.0
tp420
a(g160
F93.0
F121.0
tp421
a(g32
F123.0
F151.0
tp422
atp423
a(L9L
g243
(lp424
(g36
I0
F8.0
tp425
a(g38
F8.0
F15.0
tp426
a(g96
F36.0
F43.0
tp427
a(g152
F43.0
F50.0
tp428
a(g40
F123.0
F130.0
tp429
atp430
a(L10L
g322
(lp431
(g44
I0
F17.0
tp432
a(g46
F26.0
F39.0
tp433
a(g104
F39.0
F52.0
tp434
a(g128
F52.0
F65.0
tp435
a(g132
F65.0
F78.0
tp436
a(g48
F123.0
F136.0
tp437
atp438
a(L11L
g416
(lp439
(g52
I0
F36.0
tp440
a(g92
F36.0
F64.0
tp441
a(g156
F64.0
F92.0
tp442
a(g56
F123.0
F151.0
tp443
atp444
a(L12L
Vapac-sin#m1.large
p445
(lp446
(g60
I0
F26.0
tp447
a(g62
F36.0
F57.0
tp448
a(g78
F57.0
F78.0
tp449
a(g116
F78.0
F99.0
tp450
a(g136
F99.0
F120.0
tp451
a(g64
F123.0
F144.0
tp452
atp453
a(L13L
g2
(lp454
(g68
I0
F4.0
tp455
a(g70
F36.0
F39.0
tp456
a(g100
F39.0
F42.0
tp457
a(g140
F42.0
F45.0
tp458
a(g72
F123.0
F126.0
tp459
a(g16
F151.0
F152.0
tp460
atp461
a(L14L
g2
(lp462
(g76
I0
F4.0
tp463
a(g84
F36.0
F39.0
tp464
a(g120
F39.0
F42.0
tp465
a(g124
F42.0
F45.0
tp466
a(g148
F45.0
F48.0
tp467
a(g80
F123.0
F126.0
tp468
atp469
atp470
a(F289.0
F1.75
(lp471
(L2L
g322
(lp472
(g4
I0
F0.0
tp473
a(g6
I0
F17.0
tp474
a(g8
F35.0
F48.0
tp475
a(g88
F52.0
F65.0
tp476
a(g112
F65.0
F78.0
tp477
a(g144
F78.0
F91.0
tp478
a(g10
F221.0
F224.0
tp479
a(g12
F224.0
F229.0
tp480
a(g14
F229.0
F242.0
tp481
a(g16
F272.0
F276.0
tp482
a(g18
F276.0
F282.0
tp483
a(g20
F282.0
F288.0
tp484
a(g22
F288.0
F290.0
tp485
atp486
a(L34L
g2
(lp487
(g24
F290.0
F290.0
tp488
atp489
a(L8L
g322
(lp490
(g28
I0
F17.0
tp491
a(g30
F35.0
F48.0
tp492
a(g54
F54.0
F67.0
tp493
a(g108
F67.0
F80.0
tp494
a(g160
F80.0
F93.0
tp495
a(g32
F229.0
F242.0
tp496
atp497
a(L9L
Vapac-sin#m1.medium
p498
(lp499
(g36
I0
F53.0
tp500
a(g38
F53.0
F96.0
tp501
a(g96
F96.0
F139.0
tp502
a(g152
F139.0
F182.0
tp503
a(g40
F229.0
F272.0
tp504
atp505
a(L10L
g416
(lp506
(g44
I0
F36.0
tp507
a(g46
F52.0
F80.0
tp508
a(g104
F80.0
F109.0
tp509
a(g128
F109.0
F137.0
tp510
a(g132
F137.0
F165.0
tp511
a(g48
F229.0
F257.0
tp512
atp513
a(L11L
g498
(lp514
(g52
I0
F54.0
tp515
a(g92
F54.0
F95.0
tp516
a(g156
F95.0
F137.0
tp517
a(g56
F229.0
F271.0
tp518
atp519
a(L12L
g498
(lp520
(g60
I0
F52.0
tp521
a(g62
F52.0
F94.0
tp522
a(g78
F94.0
F136.0
tp523
a(g116
F136.0
F179.0
tp524
a(g136
F179.0
F221.0
tp525
a(g64
F229.0
F272.0
tp526
atp527
a(L13L
g416
(lp528
(g68
I0
F35.0
tp529
a(g70
F35.0
F63.0
tp530
a(g100
F63.0
F91.0
tp531
a(g140
F91.0
F118.0
tp532
a(g72
F229.0
F258.0
tp533
atp534
a(L14L
g445
(lp535
(g76
I0
F27.0
tp536
a(g84
F52.0
F73.0
tp537
a(g120
F73.0
F94.0
tp538
a(g124
F94.0
F115.0
tp539
a(g148
F115.0
F136.0
tp540
a(g80
F229.0
F250.0
tp541
atp542
atp543
a(F701.0
F0.64
(lp544
(L2L
g412
(lp545
(g4
I0
F1.0
tp546
a(g6
F1.0
F110.0
tp547
a(g8
F110.0
F194.0
tp548
a(g88
F194.0
F279.0
tp549
a(g112
F279.0
F363.0
tp550
a(g144
F363.0
F448.0
tp551
a(g10
F449.0
F467.0
tp552
a(g12
F467.0
F501.0
tp553
a(g14
F501.0
F585.0
tp554
a(g18
F615.0
F653.0
tp555
a(g20
F653.0
F692.0
tp556
a(g22
F692.0
F702.0
tp557
a(g24
F702.0
F702.0
tp558
atp559
a(L8L
g412
(lp560
(g28
F1.0
F108.0
tp561
a(g30
F108.0
F193.0
tp562
a(g54
F193.0
F278.0
tp563
a(g108
F278.0
F364.0
tp564
a(g160
F364.0
F448.0
tp565
a(g32
F501.0
F584.0
tp566
atp567
a(L9L
g412
(lp568
(g36
F1.0
F106.0
tp569
a(g38
F109.0
F195.0
tp570
a(g96
F195.0
F280.0
tp571
a(g152
F280.0
F365.0
tp572
a(g40
F501.0
F587.0
tp573
atp574
a(L10L
g412
(lp575
(g44
F1.0
F110.0
tp576
a(g46
F110.0
F194.0
tp577
a(g104
F194.0
F280.0
tp578
a(g128
F280.0
F365.0
tp579
a(g132
F365.0
F449.0
tp580
a(g48
F501.0
F585.0
tp581
atp582
a(L11L
g412
(lp583
(g52
F1.0
F109.0
tp584
a(g92
F109.0
F192.0
tp585
a(g156
F192.0
F277.0
tp586
a(g56
F501.0
F585.0
tp587
atp588
a(L12L
g412
(lp589
(g60
F1.0
F106.0
tp590
a(g62
F108.0
F191.0
tp591
a(g78
F191.0
F275.0
tp592
a(g116
F275.0
F361.0
tp593
a(g136
F361.0
F445.0
tp594
a(g64
F501.0
F586.0
tp595
atp596
a(L13L
g412
(lp597
(g68
F1.0
F107.0
tp598
a(g70
F108.0
F192.0
tp599
a(g100
F192.0
F277.0
tp600
a(g140
F277.0
F359.0
tp601
a(g72
F501.0
F589.0
tp602
a(g16
F589.0
F615.0
tp603
atp604
a(L14L
g412
(lp605
(g76
F1.0
F109.0
tp606
a(g84
F109.0
F191.0
tp607
a(g120
F191.0
F277.0
tp608
a(g124
F277.0
F361.0
tp609
a(g148
F361.0
F446.0
tp610
a(g80
F501.0
F585.0
tp611
atp612
atp613
a.