(lp0
(F22.0
F78.12
(lp1
(L2L
Vapac-sin#m3.2xlarge
p2
(lp3
(S'entry'
p4
I0
F0.0
tp5
a(VID00005
p6
I0
F4.0
tp7
a(VID00038
p8
F4.0
F7.0
tp9
a(VID00078
p10
F7.0
F9.0
tp11
a(VID00079
p12
F9.0
F11.0
tp13
a(VID00082
p14
F11.0
F14.0
tp15
a(VID00096
p16
F14.0
F16.0
tp17
a(VID00097
p18
F16.0
F19.0
tp19
a(VID00098
p20
F19.0
F21.0
tp21
a(VID00099
p22
F21.0
F21.0
tp23
a(S'exit'
p24
F21.0
F21.0
tp25
atp26
a(L8L
g2
(lp27
(VID00004
p28
I0
F4.0
tp29
a(VID00040
p30
F4.0
F7.0
tp31
a(VID00083
p32
F11.0
F14.0
tp33
atp34
a(L9L
g2
(lp35
(VID00007
p36
I0
F4.0
tp37
a(VID00023
p38
F4.0
F7.0
tp39
a(VID00080
p40
F11.0
F14.0
tp41
atp42
a(L10L
g2
(lp43
(VID00006
p44
I0
F4.0
tp45
a(VID00022
p46
F4.0
F7.0
tp47
a(VID00081
p48
F11.0
F14.0
tp49
atp50
a(L11L
g2
(lp51
(VID00001
p52
I0
F4.0
tp53
a(VID00039
p54
F4.0
F7.0
tp55
a(VID00086
p56
F11.0
F14.0
tp57
atp58
a(L12L
g2
(lp59
(VID00000
p60
I0
F4.0
tp61
a(VID00020
p62
F4.0
F7.0
tp63
a(VID00087
p64
F11.0
F14.0
tp65
atp66
a(L13L
g2
(lp67
(VID00045
p68
F4.0
F7.0
tp69
a(VID00084
p70
F11.0
F14.0
tp71
atp72
a(L14L
g2
(lp73
(VID00003
p74
I0
F4.0
tp75
a(VID00021
p76
F4.0
F7.0
tp77
a(VID00085
p78
F11.0
F14.0
tp79
atp80
a(L15L
g2
(lp81
(VID00031
p82
F4.0
F7.0
tp83
a(VID00094
p84
F11.0
F14.0
tp85
atp86
a(L16L
g2
(lp87
(VID00047
p88
F4.0
F7.0
tp89
a(VID00088
p90
F11.0
F14.0
tp91
atp92
a(L17L
g2
(lp93
(VID00002
p94
I0
F4.0
tp95
a(VID00046
p96
F4.0
F7.0
tp97
a(VID00089
p98
F11.0
F14.0
tp99
atp100
a(L18L
g2
(lp101
(VID00030
p102
F4.0
F7.0
tp103
a(VID00092
p104
F11.0
F14.0
tp105
atp106
a(L19L
g2
(lp107
(VID00035
p108
F4.0
F7.0
tp109
a(VID00095
p110
F11.0
F14.0
tp111
atp112
a(L20L
g2
(lp113
(VID00029
p114
F4.0
F7.0
tp115
a(VID00091
p116
F11.0
F14.0
tp117
atp118
a(L21L
g2
(lp119
(VID00009
p120
I0
F4.0
tp121
a(VID00042
p122
F4.0
F7.0
tp123
a(VID00093
p124
F11.0
F14.0
tp125
atp126
a(L22L
g2
(lp127
(VID00025
p128
F4.0
F7.0
tp129
a(VID00090
p130
F11.0
F14.0
tp131
atp132
a(L23L
g2
(lp133
(VID00054
p134
F4.0
F7.0
tp135
atp136
a(L24L
g2
(lp137
(VID00008
p138
I0
F4.0
tp139
a(VID00051
p140
F4.0
F7.0
tp141
atp142
a(L25L
g2
(lp143
(VID00050
p144
F4.0
F7.0
tp145
atp146
a(L26L
g2
(lp147
(VID00024
p148
F4.0
F7.0
tp149
atp150
a(L27L
g2
(lp151
(VID00041
p152
F4.0
F7.0
tp153
atp154
a(L28L
g2
(lp155
(VID00049
p156
F4.0
F7.0
tp157
atp158
a(L29L
g2
(lp159
(VID00012
p160
I0
F4.0
tp161
a(VID00065
p162
F4.0
F7.0
tp163
atp164
a(L30L
g2
(lp165
(VID00066
p166
F4.0
F7.0
tp167
atp168
a(L31L
g2
(lp169
(VID00032
p170
F4.0
F7.0
tp171
atp172
a(L32L
g2
(lp173
(VID00044
p174
F4.0
F7.0
tp175
atp176
a(L33L
g2
(lp177
(VID00036
p178
F4.0
F7.0
tp179
atp180
a(L34L
g2
(lp181
(VID00026
p182
F4.0
F7.0
tp183
atp184
a(L35L
g2
(lp185
(VID00013
p186
I0
F4.0
tp187
a(VID00068
p188
F4.0
F7.0
tp189
atp190
a(L36L
g2
(lp191
(VID00069
p192
F4.0
F7.0
tp193
atp194
a(L37L
g2
(lp195
(VID00072
p196
F4.0
F7.0
tp197
atp198
a(L38L
g2
(lp199
(VID00071
p200
F4.0
F7.0
tp201
atp202
a(L39L
g2
(lp203
(VID00070
p204
F4.0
F7.0
tp205
atp206
a(L40L
g2
(lp207
(VID00033
p208
F4.0
F7.0
tp209
atp210
a(L41L
g2
(lp211
(VID00037
p212
F4.0
F7.0
tp213
atp214
a(L42L
g2
(lp215
(VID00027
p216
F4.0
F7.0
tp217
atp218
a(L43L
g2
(lp219
(VID00010
p220
I0
F4.0
tp221
a(VID00059
p222
F4.0
F7.0
tp223
atp224
a(L44L
g2
(lp225
(VID00058
p226
F4.0
F7.0
tp227
atp228
a(L45L
g2
(lp229
(VID00060
p230
F4.0
F7.0
tp231
atp232
a(L46L
g2
(lp233
(VID00052
p234
F4.0
F7.0
tp235
atp236
a(L47L
g2
(lp237
(VID00055
p238
F4.0
F7.0
tp239
atp240
a(L48L
g2
(lp241
(VID00057
p242
F4.0
F7.0
tp243
atp244
a(L49L
g2
(lp245
(VID00056
p246
F4.0
F7.0
tp247
atp248
a(L50L
g2
(lp249
(VID00043
p250
F4.0
F7.0
tp251
atp252
a(L51L
g2
(lp253
(VID00011
p254
I0
F4.0
tp255
a(VID00053
p256
F4.0
F7.0
tp257
atp258
a(L52L
g2
(lp259
(VID00062
p260
F4.0
F7.0
tp261
atp262
a(L53L
g2
(lp263
(VID00063
p264
F4.0
F7.0
tp265
atp266
a(L54L
g2
(lp267
(VID00048
p268
F4.0
F7.0
tp269
atp270
a(L55L
g2
(lp271
(VID00016
p272
F4.0
F7.0
tp273
atp274
a(L56L
g2
(lp275
(VID00017
p276
F4.0
F7.0
tp277
atp278
a(L57L
g2
(lp279
(VID00014
p280
I0
F4.0
tp281
a(VID00064
p282
F4.0
F7.0
tp283
atp284
a(L58L
g2
(lp285
(VID00061
p286
F4.0
F7.0
tp287
atp288
a(L59L
g2
(lp289
(VID00015
p290
I0
F4.0
tp291
a(VID00074
p292
F4.0
F7.0
tp293
atp294
a(L60L
g2
(lp295
(VID00077
p296
F4.0
F7.0
tp297
atp298
a(L61L
g2
(lp299
(VID00076
p300
F4.0
F7.0
tp301
atp302
a(L62L
g2
(lp303
(VID00075
p304
F4.0
F7.0
tp305
atp306
a(L63L
g2
(lp307
(VID00067
p308
F4.0
F7.0
tp309
atp310
a(L64L
g2
(lp311
(VID00073
p312
F4.0
F7.0
tp313
atp314
a(L65L
g2
(lp315
(VID00034
p316
F4.0
F7.0
tp317
atp318
a(L66L
g2
(lp319
(VID00028
p320
F4.0
F7.0
tp321
atp322
a(L67L
g2
(lp323
(VID00018
p324
F4.0
F7.0
tp325
atp326
a(L68L
g2
(lp327
(VID00019
p328
F4.0
F7.0
tp329
atp330
atp331
a(F26.0
F64.89
(lp332
(L2L
g2
(lp333
(g4
I0
F0.0
tp334
a(g6
I0
F4.0
tp335
a(g8
F4.0
F7.0
tp336
a(g178
F7.0
F10.0
tp337
a(g12
F13.0
F15.0
tp338
a(g14
F15.0
F18.0
tp339
a(g16
F18.0
F20.0
tp340
a(g18
F20.0
F23.0
tp341
a(g20
F23.0
F25.0
tp342
a(g22
F25.0
F25.0
tp343
a(g24
F25.0
F25.0
tp344
atp345
a(L8L
g2
(lp346
(g28
I0
F4.0
tp347
a(g30
F4.0
F7.0
tp348
a(g32
F15.0
F18.0
tp349
atp350
a(L9L
g2
(lp351
(g36
I0
F4.0
tp352
a(g38
F4.0
F7.0
tp353
a(g40
F15.0
F18.0
tp354
atp355
a(L10L
g2
(lp356
(g44
I0
F4.0
tp357
a(g46
F4.0
F7.0
tp358
a(g128
F7.0
F10.0
tp359
a(g48
F15.0
F18.0
tp360
atp361
a(L11L
g2
(lp362
(g52
I0
F4.0
tp363
a(g54
F4.0
F7.0
tp364
a(g230
F8.0
F11.0
tp365
a(g56
F15.0
F18.0
tp366
atp367
a(L12L
g2
(lp368
(g60
I0
F4.0
tp369
a(g62
F4.0
F7.0
tp370
a(g234
F8.0
F11.0
tp371
a(g64
F15.0
F18.0
tp372
atp373
a(L13L
g2
(lp374
(g68
F4.0
F7.0
tp375
a(g140
F7.0
F10.0
tp376
a(g70
F15.0
F18.0
tp377
atp378
a(L14L
g2
(lp379
(g74
I0
F4.0
tp380
a(g76
F4.0
F7.0
tp381
a(g78
F15.0
F18.0
tp382
atp383
a(L15L
g2
(lp384
(g82
F4.0
F7.0
tp385
a(g260
F7.0
F10.0
tp386
a(g84
F15.0
F18.0
tp387
atp388
a(L16L
g2
(lp389
(g88
F4.0
F7.0
tp390
a(g90
F15.0
F18.0
tp391
atp392
a(L17L
g2
(lp393
(g94
I0
F4.0
tp394
a(g96
F4.0
F7.0
tp395
a(g134
F7.0
F10.0
tp396
a(g98
F15.0
F18.0
tp397
atp398
a(L18L
g2
(lp399
(g102
F4.0
F7.0
tp400
a(g204
F7.0
F10.0
tp401
a(g104
F15.0
F18.0
tp402
atp403
a(L19L
g2
(lp404
(g108
F4.0
F7.0
tp405
a(g10
F11.0
F13.0
tp406
a(g110
F15.0
F18.0
tp407
atp408
a(L20L
g2
(lp409
(g114
F4.0
F7.0
tp410
a(g116
F15.0
F18.0
tp411
atp412
a(L21L
g2
(lp413
(g120
I0
F4.0
tp414
a(g122
F4.0
F7.0
tp415
a(g124
F15.0
F18.0
tp416
atp417
a(L26L
g2
(lp418
(g148
F4.0
F7.0
tp419
atp420
a(L27L
g2
(lp421
(g152
F4.0
F7.0
tp422
atp423
a(L28L
g2
(lp424
(g156
F4.0
F7.0
tp425
atp426
a(L29L
g2
(lp427
(g160
I0
F4.0
tp428
a(g162
F4.0
F7.0
tp429
atp430
a(L30L
g2
(lp431
(g166
F4.0
F7.0
tp432
atp433
a(L31L
g2
(lp434
(g170
F4.0
F7.0
tp435
atp436
a(L32L
g2
(lp437
(g174
F4.0
F7.0
tp438
atp439
a(L34L
g2
(lp440
(g182
F4.0
F7.0
tp441
atp442
a(L35L
g2
(lp443
(g186
I0
F4.0
tp444
a(g188
F4.0
F7.0
tp445
atp446
a(L36L
g2
(lp447
(g192
F4.0
F7.0
tp448
atp449
a(L37L
g2
(lp450
(g196
F4.0
F7.0
tp451
atp452
a(L40L
g2
(lp453
(g208
F4.0
F7.0
tp454
atp455
a(L41L
g2
(lp456
(g212
F4.0
F7.0
tp457
atp458
a(L42L
g2
(lp459
(g216
F4.0
F7.0
tp460
atp461
a(L43L
g2
(lp462
(g138
I0
F4.0
tp463
a(g220
F4.0
F8.0
tp464
a(g222
F8.0
F11.0
tp465
atp466
a(L44L
g2
(lp467
(g226
F8.0
F11.0
tp468
atp469
a(L47L
g2
(lp470
(g238
F8.0
F11.0
tp471
atp472
a(L48L
g2
(lp473
(g200
F4.0
F7.0
tp474
a(g242
F8.0
F11.0
tp475
atp476
a(L49L
g2
(lp477
(g246
F8.0
F11.0
tp478
atp479
a(L50L
g2
(lp480
(g250
F8.0
F11.0
tp481
atp482
a(L51L
g2
(lp483
(g254
I0
F4.0
tp484
a(g256
F4.0
F7.0
tp485
atp486
a(L53L
g2
(lp487
(g264
F4.0
F7.0
tp488
atp489
a(L54L
g2
(lp490
(g268
F4.0
F7.0
tp491
a(g130
F15.0
F18.0
tp492
atp493
a(L55L
Vapac-sin#m3.xlarge
p494
(lp495
(g272
F4.0
F11.0
tp496
atp497
a(L56L
g2
(lp498
(g144
F4.0
F7.0
tp499
a(g276
F7.0
F10.0
tp500
atp501
a(L57L
g2
(lp502
(g280
I0
F4.0
tp503
a(g282
F4.0
F7.0
tp504
atp505
a(L58L
g2
(lp506
(g286
F8.0
F11.0
tp507
atp508
a(L59L
g2
(lp509
(g290
I0
F4.0
tp510
a(g292
F4.0
F7.0
tp511
atp512
a(L60L
g2
(lp513
(g296
F4.0
F7.0
tp514
atp515
a(L61L
g2
(lp516
(g300
F4.0
F7.0
tp517
atp518
a(L62L
g2
(lp519
(g304
F4.0
F7.0
tp520
atp521
a(L63L
g2
(lp522
(g308
F4.0
F7.0
tp523
atp524
a(L64L
g2
(lp525
(g312
F4.0
F7.0
tp526
atp527
a(L65L
g2
(lp528
(g316
F4.0
F7.0
tp529
atp530
a(L66L
g2
(lp531
(g320
F4.0
F7.0
tp532
atp533
a(L67L
g2
(lp534
(g324
F4.0
F7.0
tp535
atp536
a(L68L
g2
(lp537
(g328
F4.0
F7.0
tp538
atp539
atp540
a(F28.0
F35.28
(lp541
(L2L
g2
(lp542
(g4
I0
F0.0
tp543
a(g6
I0
F4.0
tp544
a(g8
F4.0
F7.0
tp545
a(g10
F13.0
F15.0
tp546
a(g14
F17.0
F20.0
tp547
a(g16
F20.0
F22.0
tp548
a(g18
F22.0
F25.0
tp549
a(g20
F25.0
F27.0
tp550
a(g22
F27.0
F27.0
tp551
a(g24
F27.0
F27.0
tp552
atp553
a(L8L
g2
(lp554
(g28
I0
F4.0
tp555
a(g30
F4.0
F7.0
tp556
a(g192
F7.0
F10.0
tp557
a(g234
F10.0
F13.0
tp558
a(g32
F17.0
F20.0
tp559
atp560
a(L9L
g2
(lp561
(g36
I0
F4.0
tp562
a(g38
F4.0
F7.0
tp563
a(g182
F7.0
F10.0
tp564
a(g230
F10.0
F13.0
tp565
atp566
a(L10L
g2
(lp567
(g44
I0
F4.0
tp568
a(g46
F4.0
F7.0
tp569
a(g128
F7.0
F10.0
tp570
a(g260
F10.0
F13.0
tp571
atp572
a(L11L
g2
(lp573
(g52
I0
F4.0
tp574
a(g54
F4.0
F7.0
tp575
a(g152
F7.0
F10.0
tp576
a(g156
F10.0
F13.0
tp577
a(g56
F17.0
F20.0
tp578
atp579
a(L12L
g2
(lp580
(g60
I0
F4.0
tp581
a(g62
F4.0
F7.0
tp582
a(g256
F7.0
F10.0
tp583
a(g328
F10.0
F13.0
tp584
a(g12
F15.0
F17.0
tp585
a(g64
F17.0
F20.0
tp586
atp587
a(L13L
g2
(lp588
(g68
F4.0
F7.0
tp589
a(g140
F7.0
F10.0
tp590
a(g226
F10.0
F13.0
tp591
a(g70
F17.0
F20.0
tp592
atp593
a(L14L
g2
(lp594
(g74
I0
F4.0
tp595
a(g76
F4.0
F7.0
tp596
a(g144
F7.0
F10.0
tp597
a(g78
F17.0
F20.0
tp598
atp599
a(L15L
g2
(lp600
(g82
F4.0
F7.0
tp601
a(g174
F7.0
F10.0
tp602
a(g312
F10.0
F13.0
tp603
a(g84
F17.0
F20.0
tp604
atp605
a(L16L
g2
(lp606
(g88
F4.0
F7.0
tp607
a(g178
F7.0
F10.0
tp608
a(g90
F17.0
F20.0
tp609
atp610
a(L17L
g2
(lp611
(g94
I0
F4.0
tp612
a(g96
F4.0
F7.0
tp613
a(g134
F7.0
F10.0
tp614
a(g276
F10.0
F13.0
tp615
a(g98
F17.0
F20.0
tp616
atp617
a(L18L
g2
(lp618
(g102
F4.0
F7.0
tp619
a(g200
F7.0
F10.0
tp620
a(g286
F10.0
F13.0
tp621
a(g104
F17.0
F20.0
tp622
atp623
a(L19L
g2
(lp624
(g108
F4.0
F7.0
tp625
a(g170
F7.0
F10.0
tp626
a(g246
F10.0
F13.0
tp627
a(g110
F17.0
F20.0
tp628
atp629
a(L20L
g2
(lp630
(g114
F4.0
F7.0
tp631
a(g166
F7.0
F10.0
tp632
a(g116
F17.0
F20.0
tp633
atp634
a(L21L
g2
(lp635
(g120
I0
F4.0
tp636
a(g122
F4.0
F7.0
tp637
a(g272
F7.0
F10.0
tp638
a(g124
F17.0
F20.0
tp639
atp640
a(L22L
g2
(lp641
(g280
I0
F4.0
tp642
a(g130
F17.0
F20.0
tp643
atp644
a(L24L
g2
(lp645
(g138
I0
F4.0
tp646
a(g268
F4.0
F7.0
tp647
a(g300
F7.0
F10.0
tp648
atp649
a(L28L
g2
(lp650
(g148
F4.0
F7.0
tp651
a(g188
F7.0
F10.0
tp652
a(g316
F10.0
F13.0
tp653
atp654
a(L31L
g2
(lp655
(g290
I0
F4.0
tp656
atp657
a(L33L
g2
(lp658
(g162
F4.0
F7.0
tp659
a(g238
F7.0
F10.0
tp660
a(g296
F10.0
F13.0
tp661
atp662
a(L37L
g2
(lp663
(g196
F4.0
F7.0
tp664
a(g208
F7.0
F10.0
tp665
atp666
a(L41L
g2
(lp667
(g186
I0
F4.0
tp668
a(g212
F4.0
F7.0
tp669
a(g264
F7.0
F10.0
tp670
atp671
a(L43L
g2
(lp672
(g220
I0
F4.0
tp673
a(g222
F4.0
F7.0
tp674
a(g320
F7.0
F10.0
tp675
a(g40
F17.0
F20.0
tp676
atp677
a(L62L
g2
(lp678
(g204
F4.0
F7.0
tp679
a(g250
F7.0
F10.0
tp680
a(g304
F10.0
F13.0
tp681
atp682
a(L63L
g2
(lp683
(g308
F4.0
F7.0
tp684
a(g324
F7.0
F10.0
tp685
atp686
a(L66L
g2
(lp687
(g160
I0
F4.0
tp688
a(g292
F4.0
F7.0
tp689
atp690
a(L67L
g494
(lp691
(g242
F4.0
F10.0
tp692
atp693
a(L88L
g2
(lp694
(g254
I0
F4.0
tp695
a(g282
F4.0
F7.0
tp696
a(g48
F17.0
F20.0
tp697
atp698
a(L92L
g494
(lp699
(g216
F4.0
F11.0
tp700
atp701
atp702
a(F153.0
F34.18
(lp703
(L2L
g2
(lp704
(g4
I0
F0.0
tp705
a(g6
I0
F4.0
tp706
a(g8
F4.0
F7.0
tp707
a(g10
F139.0
F141.0
tp708
a(g14
F143.0
F146.0
tp709
a(g16
F146.0
F148.0
tp710
a(g18
F148.0
F151.0
tp711
a(g20
F151.0
F153.0
tp712
a(g22
F153.0
F153.0
tp713
a(g24
F153.0
F153.0
tp714
atp715
a(L8L
g2
(lp716
(g28
I0
F4.0
tp717
a(g30
F4.0
F7.0
tp718
a(g192
F7.0
F10.0
tp719
a(g234
F55.0
F58.0
tp720
a(g32
F143.0
F146.0
tp721
atp722
a(L9L
g2
(lp723
(g36
I0
F4.0
tp724
a(g38
F4.0
F7.0
tp725
a(g182
F7.0
F10.0
tp726
a(g230
F10.0
F13.0
tp727
atp728
a(L10L
g2
(lp729
(g44
I0
F4.0
tp730
a(g46
F4.0
F7.0
tp731
a(g128
F7.0
F10.0
tp732
a(g260
F10.0
F13.0
tp733
atp734
a(L11L
g2
(lp735
(g52
I0
F4.0
tp736
a(g54
F4.0
F7.0
tp737
a(g152
F55.0
F58.0
tp738
a(g156
F58.0
F61.0
tp739
a(g56
F143.0
F146.0
tp740
atp741
a(L12L
g2
(lp742
(g60
I0
F4.0
tp743
a(g62
F4.0
F7.0
tp744
a(g256
F55.0
F58.0
tp745
a(g328
F58.0
F61.0
tp746
a(g12
F141.0
F143.0
tp747
a(g64
F143.0
F146.0
tp748
atp749
a(L13L
g2
(lp750
(g68
F4.0
F7.0
tp751
a(g140
F55.0
F58.0
tp752
a(g226
F58.0
F61.0
tp753
a(g70
F143.0
F146.0
tp754
atp755
a(L14L
g2
(lp756
(g74
I0
F4.0
tp757
a(g76
F4.0
F7.0
tp758
a(g144
F55.0
F58.0
tp759
a(g78
F143.0
F146.0
tp760
atp761
a(L15L
g2
(lp762
(g82
F4.0
F7.0
tp763
a(g174
F7.0
F10.0
tp764
a(g312
F10.0
F13.0
tp765
a(g84
F143.0
F146.0
tp766
atp767
a(L16L
g2
(lp768
(g88
F4.0
F7.0
tp769
a(g178
F7.0
F10.0
tp770
a(g90
F143.0
F146.0
tp771
atp772
a(L17L
g2
(lp773
(g94
I0
F4.0
tp774
a(g96
F4.0
F7.0
tp775
a(g134
F7.0
F10.0
tp776
a(g276
F10.0
F13.0
tp777
a(g98
F143.0
F146.0
tp778
atp779
a(L18L
g2
(lp780
(g102
F4.0
F7.0
tp781
a(g200
F7.0
F10.0
tp782
a(g286
F10.0
F13.0
tp783
a(g104
F143.0
F146.0
tp784
atp785
a(L19L
g2
(lp786
(g108
F4.0
F7.0
tp787
a(g170
F7.0
F10.0
tp788
a(g246
F10.0
F13.0
tp789
a(g110
F143.0
F146.0
tp790
atp791
a(L20L
g2
(lp792
(g114
F4.0
F7.0
tp793
a(g166
F7.0
F10.0
tp794
a(g116
F143.0
F146.0
tp795
atp796
a(L21L
g2
(lp797
(g120
I0
F4.0
tp798
a(g122
F4.0
F7.0
tp799
a(g272
F7.0
F10.0
tp800
a(g124
F143.0
F146.0
tp801
atp802
a(L22L
g2
(lp803
(g280
I0
F4.0
tp804
a(g130
F143.0
F146.0
tp805
atp806
a(L24L
Vapac-sin#m1.medium
p807
(lp808
(g138
I0
F55.0
tp809
a(g268
F55.0
F97.0
tp810
a(g300
F97.0
F139.0
tp811
atp812
a(L28L
g2
(lp813
(g148
F55.0
F58.0
tp814
a(g188
F58.0
F61.0
tp815
a(g316
F61.0
F64.0
tp816
atp817
a(L31L
g2
(lp818
(g290
I0
F4.0
tp819
atp820
a(L33L
g2
(lp821
(g162
F4.0
F7.0
tp822
a(g238
F7.0
F10.0
tp823
a(g296
F10.0
F13.0
tp824
atp825
a(L37L
g2
(lp826
(g196
F4.0
F7.0
tp827
a(g208
F7.0
F10.0
tp828
atp829
a(L41L
g2
(lp830
(g186
I0
F4.0
tp831
a(g212
F4.0
F7.0
tp832
a(g264
F55.0
F58.0
tp833
atp834
a(L43L
g2
(lp835
(g220
I0
F4.0
tp836
a(g222
F4.0
F7.0
tp837
a(g320
F7.0
F10.0
tp838
a(g40
F143.0
F146.0
tp839
atp840
a(L62L
g2
(lp841
(g204
F4.0
F7.0
tp842
a(g250
F7.0
F10.0
tp843
a(g304
F55.0
F58.0
tp844
atp845
a(L63L
g2
(lp846
(g308
F4.0
F7.0
tp847
a(g324
F7.0
F10.0
tp848
atp849
a(L66L
g2
(lp850
(g160
I0
F4.0
tp851
a(g292
F4.0
F7.0
tp852
atp853
a(L67L
g494
(lp854
(g242
F4.0
F10.0
tp855
atp856
a(L88L
g2
(lp857
(g254
I0
F4.0
tp858
a(g282
F4.0
F7.0
tp859
a(g48
F143.0
F146.0
tp860
atp861
a(L92L
g494
(lp862
(g216
F4.0
F11.0
tp863
atp864
atp865
a(F293.0
F24.04
(lp866
(L2L
g2
(lp867
(g4
I0
F0.0
tp868
a(g6
I0
F4.0
tp869
a(g8
F8.0
F11.0
tp870
a(g10
F195.0
F197.0
tp871
a(g12
F197.0
F199.0
tp872
a(g14
F199.0
F202.0
tp873
a(g16
F286.0
F288.0
tp874
a(g18
F288.0
F291.0
tp875
a(g20
F291.0
F293.0
tp876
a(g22
F293.0
F293.0
tp877
a(g24
F293.0
F293.0
tp878
atp879
a(L8L
g2
(lp880
(g28
I0
F4.0
tp881
a(g30
F4.0
F7.0
tp882
a(g32
F199.0
F202.0
tp883
atp884
a(L9L
g2
(lp885
(g36
I0
F4.0
tp886
a(g38
F8.0
F11.0
tp887
a(g40
F199.0
F202.0
tp888
atp889
a(L10L
g2
(lp890
(g44
I0
F4.0
tp891
a(g46
F8.0
F11.0
tp892
a(g48
F199.0
F202.0
tp893
atp894
a(L11L
g494
(lp895
(g52
I0
F8.0
tp896
a(g54
F8.0
F15.0
tp897
a(g56
F199.0
F206.0
tp898
atp899
a(L12L
g2
(lp900
(g60
I0
F4.0
tp901
a(g62
F8.0
F11.0
tp902
a(g64
F199.0
F202.0
tp903
atp904
a(L13L
g2
(lp905
(g68
F4.0
F7.0
tp906
a(g70
F199.0
F202.0
tp907
atp908
a(L14L
g2
(lp909
(g74
I0
F4.0
tp910
a(g76
F8.0
F11.0
tp911
a(g78
F199.0
F202.0
tp912
atp913
a(L15L
g2
(lp914
(g82
F4.0
F7.0
tp915
a(g84
F199.0
F202.0
tp916
atp917
a(L16L
g2
(lp918
(g88
F4.0
F7.0
tp919
a(g90
F199.0
F202.0
tp920
atp921
a(L17L
Vapac-sin#m1.small
p922
(lp923
(g96
F36.0
F121.0
tp924
a(g98
F199.0
F286.0
tp925
atp926
a(L18L
g922
(lp927
(g102
F36.0
F123.0
tp928
a(g104
F199.0
F285.0
tp929
atp930
a(L19L
g922
(lp931
(g108
F36.0
F120.0
tp932
a(g110
F199.0
F285.0
tp933
atp934
a(L20L
g922
(lp935
(g114
F36.0
F122.0
tp936
a(g116
F199.0
F285.0
tp937
atp938
a(L21L
g922
(lp939
(g120
I0
F110.0
tp940
a(g122
F110.0
F194.0
tp941
a(g124
F199.0
F285.0
tp942
atp943
a(L22L
g922
(lp944
(g128
F110.0
F195.0
tp945
a(g130
F199.0
F285.0
tp946
atp947
a(L23L
Vapac-sin#m3.large
p948
(lp949
(g134
F110.0
F123.0
tp950
atp951
a(L24L
g922
(lp952
(g138
I0
F109.0
tp953
a(g140
F109.0
F193.0
tp954
atp955
a(L25L
Vapac-sin#m3.medium
p956
(lp957
(g144
F109.0
F137.0
tp958
atp959
a(L26L
g2
(lp960
(g148
F109.0
F112.0
tp961
atp962
a(L27L
g956
(lp963
(g152
F109.0
F138.0
tp964
atp965
a(L28L
g922
(lp966
(g156
F109.0
F195.0
tp967
atp968
a(L29L
g807
(lp969
(g160
I0
F54.0
tp970
a(g162
F54.0
F96.0
tp971
atp972
a(L30L
g956
(lp973
(g166
F54.0
F83.0
tp974
atp975
a(L31L
Vapac-sin#m1.large
p976
(lp977
(g170
F54.0
F75.0
tp978
atp979
a(L32L
g948
(lp980
(g174
F54.0
F67.0
tp981
atp982
a(L33L
g922
(lp983
(g178
F54.0
F139.0
tp984
atp985
a(L34L
g976
(lp986
(g182
F54.0
F75.0
tp987
atp988
a(L35L
g922
(lp989
(g186
I0
F107.0
tp990
a(g188
F107.0
F192.0
tp991
atp992
a(L36L
g922
(lp993
(g192
F107.0
F192.0
tp994
atp995
a(L37L
Vapac-sin#m1.xlarge
p996
(lp997
(g196
F107.0
F118.0
tp998
atp999
a(L38L
g494
(lp1000
(g200
F107.0
F113.0
tp1001
atp1002
a(L39L
g807
(lp1003
(g204
F107.0
F150.0
tp1004
atp1005
a(L40L
g922
(lp1006
(g208
F107.0
F192.0
tp1007
atp1008
a(L41L
g922
(lp1009
(g212
F107.0
F191.0
tp1010
atp1011
a(L42L
g956
(lp1012
(g216
F107.0
F135.0
tp1013
atp1014
a(L43L
g922
(lp1015
(g220
I0
F108.0
tp1016
a(g222
F108.0
F194.0
tp1017
atp1018
a(L44L
g976
(lp1019
(g226
F108.0
F129.0
tp1020
atp1021
a(L45L
g948
(lp1022
(g230
F108.0
F121.0
tp1023
atp1024
a(L46L
g956
(lp1025
(g234
F109.0
F137.0
tp1026
atp1027
a(L47L
g922
(lp1028
(g238
F108.0
F192.0
tp1029
atp1030
a(L48L
g996
(lp1031
(g242
F108.0
F119.0
tp1032
atp1033
a(L49L
g956
(lp1034
(g246
F108.0
F136.0
tp1035
atp1036
a(L50L
g2
(lp1037
(g250
F108.0
F111.0
tp1038
atp1039
a(L51L
g807
(lp1040
(g254
I0
F55.0
tp1041
a(g256
F109.0
F151.0
tp1042
atp1043
a(L52L
g956
(lp1044
(g94
I0
F36.0
tp1045
a(g260
F55.0
F83.0
tp1046
atp1047
a(L53L
g922
(lp1048
(g264
F109.0
F192.0
tp1049
atp1050
a(L54L
g948
(lp1051
(g268
F55.0
F68.0
tp1052
atp1053
a(L55L
g956
(lp1054
(g272
F8.0
F36.0
tp1055
atp1056
a(L56L
g996
(lp1057
(g276
F110.0
F121.0
tp1058
atp1059
a(L57L
g922
(lp1060
(g280
I0
F105.0
tp1061
a(g282
F105.0
F190.0
tp1062
atp1063
a(L58L
g996
(lp1064
(g286
F108.0
F119.0
tp1065
atp1066
a(L59L
g922
(lp1067
(g290
I0
F109.0
tp1068
a(g292
F109.0
F193.0
tp1069
atp1070
a(L60L
g807
(lp1071
(g296
F109.0
F152.0
tp1072
atp1073
a(L61L
g922
(lp1074
(g300
F109.0
F193.0
tp1075
atp1076
a(L62L
g922
(lp1077
(g304
F109.0
F194.0
tp1078
atp1079
a(L63L
g922
(lp1080
(g308
F109.0
F194.0
tp1081
atp1082
a(L64L
g922
(lp1083
(g312
F109.0
F194.0
tp1084
atp1085
a(L65L
g956
(lp1086
(g316
F109.0
F137.0
tp1087
atp1088
a(L66L
g922
(lp1089
(g320
F109.0
F194.0
tp1090
atp1091
a(L67L
g922
(lp1092
(g324
F55.0
F140.0
tp1093
atp1094
a(L68L
g807
(lp1095
(g328
F107.0
F150.0
tp1096
atp1097
atp1098
a(F372.0
F15.15
(lp1099
(L2L
g2
(lp1100
(g4
I0
F0.0
tp1101
a(g6
I0
F4.0
tp1102
a(g10
F273.0
F275.0
tp1103
a(g12
F275.0
F277.0
tp1104
a(g14
F277.0
F280.0
tp1105
a(g16
F365.0
F367.0
tp1106
a(g18
F367.0
F370.0
tp1107
a(g20
F370.0
F372.0
tp1108
a(g22
F372.0
F372.0
tp1109
a(g24
F372.0
F372.0
tp1110
atp1111
a(L8L
g922
(lp1112
(g28
I0
F105.0
tp1113
a(g30
F106.0
F190.0
tp1114
a(g32
F277.0
F363.0
tp1115
atp1116
a(L9L
g922
(lp1117
(g36
I0
F109.0
tp1118
a(g38
F109.0
F195.0
tp1119
a(g40
F277.0
F364.0
tp1120
atp1121
a(L10L
g922
(lp1122
(g44
I0
F106.0
tp1123
a(g46
F106.0
F191.0
tp1124
a(g48
F277.0
F365.0
tp1125
atp1126
a(L11L
g922
(lp1127
(g52
I0
F105.0
tp1128
a(g54
F106.0
F191.0
tp1129
a(g56
F277.0
F364.0
tp1130
atp1131
a(L12L
g922
(lp1132
(g60
I0
F111.0
tp1133
a(g62
F111.0
F195.0
tp1134
a(g64
F277.0
F363.0
tp1135
atp1136
a(L13L
g922
(lp1137
(g68
F111.0
F195.0
tp1138
a(g70
F277.0
F362.0
tp1139
atp1140
a(L14L
g922
(lp1141
(g74
I0
F106.0
tp1142
a(g76
F106.0
F191.0
tp1143
a(g78
F277.0
F361.0
tp1144
atp1145
a(L15L
g922
(lp1146
(g82
F109.0
F193.0
tp1147
a(g84
F277.0
F363.0
tp1148
atp1149
a(L16L
g922
(lp1150
(g88
F109.0
F194.0
tp1151
a(g90
F277.0
F363.0
tp1152
atp1153
a(L17L
g922
(lp1154
(g94
I0
F107.0
tp1155
a(g96
F109.0
F194.0
tp1156
a(g98
F277.0
F364.0
tp1157
atp1158
a(L18L
g922
(lp1159
(g102
F107.0
F194.0
tp1160
a(g104
F277.0
F363.0
tp1161
atp1162
a(L19L
g922
(lp1163
(g108
F107.0
F191.0
tp1164
a(g110
F277.0
F363.0
tp1165
atp1166
a(L20L
g922
(lp1167
(g114
F107.0
F193.0
tp1168
a(g116
F277.0
F363.0
tp1169
atp1170
a(L21L
g922
(lp1171
(g122
F106.0
F190.0
tp1172
a(g124
F277.0
F363.0
tp1173
atp1174
a(L22L
g922
(lp1175
(g128
F105.0
F190.0
tp1176
a(g130
F277.0
F363.0
tp1177
atp1178
a(L23L
g948
(lp1179
(g134
F37.0
F50.0
tp1180
atp1181
a(L24L
g922
(lp1182
(g138
I0
F109.0
tp1183
a(g140
F109.0
F193.0
tp1184
atp1185
a(L25L
g956
(lp1186
(g144
F109.0
F137.0
tp1187
atp1188
a(L26L
g2
(lp1189
(g148
F109.0
F112.0
tp1190
atp1191
a(L27L
g948
(lp1192
(g152
F109.0
F122.0
tp1193
atp1194
a(L28L
g922
(lp1195
(g156
F109.0
F195.0
tp1196
atp1197
a(L29L
g807
(lp1198
(g160
I0
F54.0
tp1199
a(g162
F105.0
F147.0
tp1200
atp1201
a(L30L
g956
(lp1202
(g120
I0
F37.0
tp1203
a(g166
F54.0
F83.0
tp1204
atp1205
a(L31L
g976
(lp1206
(g170
F106.0
F127.0
tp1207
atp1208
a(L32L
g948
(lp1209
(g174
F106.0
F119.0
tp1210
atp1211
a(L33L
g922
(lp1212
(g178
F105.0
F190.0
tp1213
atp1214
a(L34L
g976
(lp1215
(g182
F105.0
F126.0
tp1216
atp1217
a(L35L
g922
(lp1218
(g186
I0
F107.0
tp1219
a(g188
F107.0
F192.0
tp1220
atp1221
a(L36L
g922
(lp1222
(g192
F107.0
F192.0
tp1223
atp1224
a(L37L
g996
(lp1225
(g196
F107.0
F118.0
tp1226
atp1227
a(L38L
g494
(lp1228
(g200
F107.0
F113.0
tp1229
atp1230
a(L39L
g807
(lp1231
(g204
F109.0
F152.0
tp1232
atp1233
a(L40L
g922
(lp1234
(g208
F107.0
F192.0
tp1235
atp1236
a(L41L
g922
(lp1237
(g212
F107.0
F191.0
tp1238
atp1239
a(L42L
g956
(lp1240
(g216
F107.0
F135.0
tp1241
atp1242
a(L43L
g922
(lp1243
(g220
I0
F108.0
tp1244
a(g222
F108.0
F194.0
tp1245
atp1246
a(L44L
g976
(lp1247
(g226
F109.0
F130.0
tp1248
atp1249
a(L45L
g948
(lp1250
(g230
F108.0
F121.0
tp1251
atp1252
a(L47L
g922
(lp1253
(g238
F108.0
F192.0
tp1254
atp1255
a(L48L
g996
(lp1256
(g242
F108.0
F119.0
tp1257
atp1258
a(L49L
g956
(lp1259
(g246
F108.0
F136.0
tp1260
atp1261
a(L50L
g2
(lp1262
(g250
F108.0
F111.0
tp1263
atp1264
a(L51L
g807
(lp1265
(g254
I0
F55.0
tp1266
a(g256
F109.0
F151.0
tp1267
atp1268
a(L52L
g956
(lp1269
(g234
F109.0
F137.0
tp1270
a(g260
F137.0
F165.0
tp1271
atp1272
a(L53L
g922
(lp1273
(g264
F109.0
F192.0
tp1274
atp1275
a(L54L
g948
(lp1276
(g268
F109.0
F122.0
tp1277
atp1278
a(L55L
g956
(lp1279
(g272
F111.0
F139.0
tp1280
atp1281
a(L56L
g996
(lp1282
(g276
F111.0
F122.0
tp1283
atp1284
a(L57L
g922
(lp1285
(g280
I0
F105.0
tp1286
a(g282
F105.0
F190.0
tp1287
atp1288
a(L58L
g996
(lp1289
(g286
F108.0
F119.0
tp1290
atp1291
a(L59L
g922
(lp1292
(g290
I0
F109.0
tp1293
a(g292
F109.0
F193.0
tp1294
atp1295
a(L60L
g2
(lp1296
(g296
F109.0
F112.0
tp1297
atp1298
a(L61L
g922
(lp1299
(g300
F109.0
F193.0
tp1300
atp1301
a(L62L
g922
(lp1302
(g304
F109.0
F194.0
tp1303
atp1304
a(L63L
g922
(lp1305
(g308
F109.0
F194.0
tp1306
atp1307
a(L64L
g922
(lp1308
(g312
F109.0
F194.0
tp1309
atp1310
a(L65L
g956
(lp1311
(g316
F109.0
F137.0
tp1312
atp1313
a(L66L
g922
(lp1314
(g320
F109.0
F194.0
tp1315
atp1316
a(L67L
g922
(lp1317
(g8
F105.0
F188.0
tp1318
a(g324
F188.0
F273.0
tp1319
atp1320
a(L68L
g807
(lp1321
(g328
F111.0
F154.0
tp1322
atp1323
atp1324
a(F547.0
F3.18
(lp1325
(L2L
g2
(lp1326
(g4
I0
F0.0
tp1327
a(g6
I0
F4.0
tp1328
a(g170
F109.0
F112.0
tp1329
a(g296
F303.0
F306.0
tp1330
a(g10
F448.0
F450.0
tp1331
a(g12
F450.0
F452.0
tp1332
a(g14
F452.0
F455.0
tp1333
a(g16
F540.0
F542.0
tp1334
a(g18
F542.0
F545.0
tp1335
a(g20
F545.0
F547.0
tp1336
a(g22
F547.0
F547.0
tp1337
a(g24
F547.0
F547.0
tp1338
atp1339
a(L8L
g922
(lp1340
(g28
I0
F105.0
tp1341
a(g30
F106.0
F190.0
tp1342
a(g162
F190.0
F275.0
tp1343
a(g234
F275.0
F360.0
tp1344
a(g32
F452.0
F538.0
tp1345
atp1346
a(L9L
g922
(lp1347
(g36
I0
F109.0
tp1348
a(g38
F109.0
F195.0
tp1349
a(g188
F195.0
F280.0
tp1350
a(g230
F280.0
F364.0
tp1351
a(g40
F452.0
F539.0
tp1352
atp1353
a(L10L
g922
(lp1354
(g44
I0
F106.0
tp1355
a(g46
F106.0
F191.0
tp1356
a(g128
F191.0
F276.0
tp1357
a(g196
F276.0
F362.0
tp1358
a(g204
F362.0
F448.0
tp1359
a(g48
F452.0
F540.0
tp1360
atp1361
a(L11L
g922
(lp1362
(g52
I0
F105.0
tp1363
a(g54
F106.0
F191.0
tp1364
a(g148
F191.0
F276.0
tp1365
a(g192
F276.0
F361.0
tp1366
a(g56
F452.0
F539.0
tp1367
atp1368
a(L12L
g922
(lp1369
(g60
I0
F111.0
tp1370
a(g62
F111.0
F195.0
tp1371
a(g256
F217.0
F301.0
tp1372
a(g328
F301.0
F386.0
tp1373
a(g64
F452.0
F538.0
tp1374
atp1375
a(L13L
g922
(lp1376
(g68
F111.0
F195.0
tp1377
a(g226
F217.0
F302.0
tp1378
a(g312
F303.0
F388.0
tp1379
a(g70
F452.0
F537.0
tp1380
atp1381
a(L14L
g922
(lp1382
(g74
I0
F106.0
tp1383
a(g76
F106.0
F191.0
tp1384
a(g144
F191.0
F276.0
tp1385
a(g78
F452.0
F536.0
tp1386
atp1387
a(L15L
g922
(lp1388
(g82
F109.0
F193.0
tp1389
a(g222
F217.0
F303.0
tp1390
a(g316
F303.0
F387.0
tp1391
a(g84
F452.0
F538.0
tp1392
atp1393
a(L16L
g922
(lp1394
(g88
F109.0
F194.0
tp1395
a(g114
F194.0
F280.0
tp1396
a(g156
F280.0
F366.0
tp1397
a(g90
F452.0
F538.0
tp1398
atp1399
a(L17L
g922
(lp1400
(g94
I0
F107.0
tp1401
a(g96
F109.0
F194.0
tp1402
a(g134
F194.0
F278.0
tp1403
atp1404
a(L18L
g922
(lp1405
(g208
F107.0
F192.0
tp1406
a(g276
F192.0
F277.0
tp1407
a(g286
F277.0
F362.0
tp1408
a(g104
F452.0
F538.0
tp1409
atp1410
a(L19L
g922
(lp1411
(g108
F107.0
F191.0
tp1412
a(g246
F217.0
F301.0
tp1413
a(g110
F452.0
F538.0
tp1414
atp1415
a(L21L
g922
(lp1416
(g120
I0
F110.0
tp1417
a(g122
F110.0
F194.0
tp1418
a(g124
F452.0
F538.0
tp1419
atp1420
a(L22L
g922
(lp1421
(g174
F109.0
F193.0
tp1422
a(g250
F217.0
F300.0
tp1423
a(g272
F300.0
F385.0
tp1424
a(g130
F452.0
F538.0
tp1425
atp1426
a(L24L
g922
(lp1427
(g138
I0
F109.0
tp1428
a(g220
F109.0
F217.0
tp1429
a(g264
F217.0
F300.0
tp1430
a(g300
F303.0
F387.0
tp1431
atp1432
a(L28L
g922
(lp1433
(g200
F109.0
F192.0
tp1434
a(g324
F217.0
F302.0
tp1435
atp1436
a(L33L
g922
(lp1437
(g178
F109.0
F194.0
tp1438
a(g238
F217.0
F301.0
tp1439
atp1440
a(L47L
g922
(lp1441
(g140
F109.0
F193.0
tp1442
a(g212
F193.0
F277.0
tp1443
a(g216
F277.0
F362.0
tp1444
atp1445
a(L59L
g922
(lp1446
(g102
F107.0
F194.0
tp1447
a(g290
F194.0
F303.0
tp1448
a(g292
F303.0
F387.0
tp1449
atp1450
a(L62L
g922
(lp1451
(g152
F109.0
F195.0
tp1452
a(g268
F217.0
F301.0
tp1453
a(g304
F303.0
F388.0
tp1454
atp1455
a(L63L
g922
(lp1456
(g280
I0
F105.0
tp1457
a(g308
F303.0
F388.0
tp1458
atp1459
a(L66L
g922
(lp1460
(g160
I0
F109.0
tp1461
a(g182
F109.0
F194.0
tp1462
a(g320
F303.0
F388.0
tp1463
atp1464
a(L67L
g922
(lp1465
(g8
F105.0
F188.0
tp1466
a(g166
F188.0
F274.0
tp1467
a(g242
F274.0
F358.0
tp1468
a(g260
F358.0
F442.0
tp1469
a(g98
F452.0
F539.0
tp1470
atp1471
a(L88L
g922
(lp1472
(g186
I0
F107.0
tp1473
a(g254
F107.0
F217.0
tp1474
a(g282
F217.0
F302.0
tp1475
a(g116
F452.0
F538.0
tp1476
atp1477
atp1478
a(F819.0
F2.0
(lp1479
(L2L
g922
(lp1480
(g4
I0
F1.0
tp1481
a(g6
F1.0
F110.0
tp1482
a(g8
F110.0
F193.0
tp1483
a(g170
F193.0
F277.0
tp1484
a(g296
F304.0
F389.0
tp1485
a(g10
F449.0
F489.0
tp1486
a(g12
F489.0
F532.0
tp1487
a(g14
F532.0
F617.0
tp1488
a(g16
F620.0
F681.0
tp1489
a(g18
F681.0
F758.0
tp1490
a(g20
F758.0
F813.0
tp1491
a(g22
F813.0
F820.0
tp1492
a(g24
F820.0
F820.0
tp1493
atp1494
a(L8L
g922
(lp1495
(g28
F1.0
F106.0
tp1496
a(g30
F107.0
F191.0
tp1497
a(g162
F191.0
F276.0
tp1498
a(g234
F276.0
F361.0
tp1499
a(g32
F532.0
F618.0
tp1500
atp1501
a(L9L
g922
(lp1502
(g36
F1.0
F110.0
tp1503
a(g38
F110.0
F196.0
tp1504
a(g188
F196.0
F281.0
tp1505
a(g230
F281.0
F365.0
tp1506
a(g40
F532.0
F619.0
tp1507
atp1508
a(L10L
g922
(lp1509
(g44
F1.0
F107.0
tp1510
a(g46
F107.0
F192.0
tp1511
a(g128
F192.0
F277.0
tp1512
a(g196
F277.0
F363.0
tp1513
a(g204
F363.0
F449.0
tp1514
a(g48
F532.0
F620.0
tp1515
atp1516
a(L11L
g922
(lp1517
(g52
F1.0
F106.0
tp1518
a(g54
F107.0
F192.0
tp1519
a(g148
F192.0
F277.0
tp1520
a(g192
F277.0
F362.0
tp1521
a(g56
F532.0
F619.0
tp1522
atp1523
a(L12L
g922
(lp1524
(g60
F1.0
F112.0
tp1525
a(g62
F112.0
F196.0
tp1526
a(g256
F218.0
F302.0
tp1527
a(g328
F302.0
F387.0
tp1528
a(g64
F532.0
F618.0
tp1529
atp1530
a(L13L
g922
(lp1531
(g68
F112.0
F196.0
tp1532
a(g226
F218.0
F303.0
tp1533
a(g312
F304.0
F389.0
tp1534
a(g70
F532.0
F617.0
tp1535
atp1536
a(L14L
g922
(lp1537
(g74
F1.0
F107.0
tp1538
a(g76
F107.0
F192.0
tp1539
a(g144
F192.0
F277.0
tp1540
a(g156
F277.0
F363.0
tp1541
a(g78
F532.0
F616.0
tp1542
atp1543
a(L15L
g922
(lp1544
(g82
F110.0
F194.0
tp1545
a(g222
F218.0
F304.0
tp1546
a(g316
F304.0
F388.0
tp1547
a(g84
F532.0
F618.0
tp1548
atp1549
a(L16L
g922
(lp1550
(g88
F110.0
F195.0
tp1551
a(g114
F195.0
F281.0
tp1552
a(g90
F532.0
F618.0
tp1553
atp1554
a(L17L
g922
(lp1555
(g94
F1.0
F108.0
tp1556
a(g96
F110.0
F195.0
tp1557
a(g134
F195.0
F279.0
tp1558
atp1559
a(L18L
g922
(lp1560
(g208
F108.0
F193.0
tp1561
a(g276
F193.0
F278.0
tp1562
a(g286
F278.0
F363.0
tp1563
a(g104
F532.0
F618.0
tp1564
atp1565
a(L19L
g922
(lp1566
(g108
F108.0
F192.0
tp1567
a(g246
F218.0
F302.0
tp1568
a(g110
F532.0
F618.0
tp1569
atp1570
a(L21L
g922
(lp1571
(g120
F1.0
F111.0
tp1572
a(g122
F111.0
F195.0
tp1573
a(g124
F532.0
F618.0
tp1574
atp1575
a(L22L
g922
(lp1576
(g174
F110.0
F194.0
tp1577
a(g250
F218.0
F301.0
tp1578
a(g272
F301.0
F386.0
tp1579
a(g130
F532.0
F618.0
tp1580
atp1581
a(L24L
g922
(lp1582
(g138
F1.0
F110.0
tp1583
a(g220
F110.0
F218.0
tp1584
a(g264
F218.0
F301.0
tp1585
a(g300
F304.0
F388.0
tp1586
atp1587
a(L28L
g922
(lp1588
(g200
F110.0
F193.0
tp1589
a(g324
F218.0
F303.0
tp1590
atp1591
a(L33L
g922
(lp1592
(g178
F110.0
F195.0
tp1593
a(g238
F218.0
F302.0
tp1594
atp1595
a(L47L
g922
(lp1596
(g140
F110.0
F194.0
tp1597
a(g212
F194.0
F278.0
tp1598
a(g216
F278.0
F363.0
tp1599
atp1600
a(L59L
g922
(lp1601
(g102
F108.0
F195.0
tp1602
a(g290
F195.0
F304.0
tp1603
a(g292
F304.0
F388.0
tp1604
atp1605
a(L62L
g922
(lp1606
(g152
F110.0
F196.0
tp1607
a(g268
F218.0
F302.0
tp1608
a(g304
F304.0
F389.0
tp1609
atp1610
a(L63L
g922
(lp1611
(g280
F1.0
F106.0
tp1612
a(g308
F304.0
F389.0
tp1613
atp1614
a(L66L
g922
(lp1615
(g160
F1.0
F110.0
tp1616
a(g182
F110.0
F195.0
tp1617
a(g320
F304.0
F389.0
tp1618
atp1619
a(L67L
g922
(lp1620
(g166
F110.0
F196.0
tp1621
a(g242
F218.0
F302.0
tp1622
a(g260
F302.0
F386.0
tp1623
a(g98
F532.0
F619.0
tp1624
atp1625
a(L88L
g922
(lp1626
(g186
F1.0
F108.0
tp1627
a(g254
F108.0
F218.0
tp1628
a(g282
F218.0
F303.0
tp1629
a(g116
F532.0
F618.0
tp1630
atp1631
atp1632
a.