(lp0
(F14.0
F11.34
(lp1
(L2L
Vapac-sin#m3.2xlarge
p2
(lp3
(S'entry'
p4
I0
F0.0
tp5
a(VID00004
p6
I0
F4.0
tp7
a(VID00006
p8
F4.0
F7.0
tp9
a(VID00014
p10
F7.0
F7.0
tp11
a(VID00015
p12
F7.0
F7.0
tp13
a(VID00020
p14
F7.0
F10.0
tp15
a(VID00021
p16
F10.0
F10.0
tp17
a(VID00022
p18
F10.0
F11.0
tp19
a(VID00023
p20
F11.0
F12.0
tp21
a(VID00024
p22
F12.0
F12.0
tp23
a(S'exit'
p24
F12.0
F12.0
tp25
atp26
a(L8L
g2
(lp27
(VID00001
p28
I0
F4.0
tp29
a(VID00005
p30
F4.0
F7.0
tp31
a(VID00017
p32
F7.0
F10.0
tp33
atp34
a(L9L
g2
(lp35
(VID00000
p36
I0
F4.0
tp37
a(VID00007
p38
F4.0
F7.0
tp39
a(VID00016
p40
F7.0
F10.0
tp41
atp42
a(L10L
g2
(lp43
(VID00003
p44
I0
F4.0
tp45
a(VID00009
p46
F4.0
F7.0
tp47
a(VID00018
p48
F7.0
F10.0
tp49
atp50
a(L11L
g2
(lp51
(VID00002
p52
I0
F4.0
tp53
a(VID00008
p54
F4.0
F7.0
tp55
a(VID00019
p56
F7.0
F10.0
tp57
atp58
a(L12L
g2
(lp59
(VID00012
p60
F4.0
F7.0
tp61
atp62
a(L13L
g2
(lp63
(VID00013
p64
F4.0
F7.0
tp65
atp66
a(L14L
g2
(lp67
(VID00010
p68
F4.0
F7.0
tp69
atp70
a(L15L
g2
(lp71
(VID00011
p72
F4.0
F7.0
tp73
atp74
atp75
a(F18.0
F8.19
(lp76
(L1L
Vapac-sin#m3.xlarge
p77
(lp78
(g60
F4.0
F11.0
tp79
atp80
a(L2L
g2
(lp81
(g4
I0
F0.0
tp82
a(g6
I0
F4.0
tp83
a(g8
F4.0
F7.0
tp84
a(g10
F11.0
F11.0
tp85
a(g12
F11.0
F11.0
tp86
a(g14
F11.0
F14.0
tp87
a(g16
F14.0
F14.0
tp88
a(g18
F14.0
F15.0
tp89
a(g20
F15.0
F16.0
tp90
a(g22
F16.0
F16.0
tp91
a(g24
F16.0
F16.0
tp92
atp93
a(L8L
g2
(lp94
(g28
I0
F4.0
tp95
a(g30
F4.0
F7.0
tp96
a(g32
F11.0
F14.0
tp97
atp98
a(L9L
g2
(lp99
(g36
I0
F4.0
tp100
a(g38
F4.0
F7.0
tp101
a(g72
F7.0
F10.0
tp102
a(g40
F11.0
F14.0
tp103
atp104
a(L10L
g2
(lp105
(g44
I0
F4.0
tp106
a(g46
F4.0
F7.0
tp107
a(g68
F7.0
F10.0
tp108
a(g48
F11.0
F14.0
tp109
atp110
a(L11L
g2
(lp111
(g52
I0
F4.0
tp112
a(g54
F4.0
F7.0
tp113
a(g56
F11.0
F14.0
tp114
atp115
a(L13L
g2
(lp116
(g64
F4.0
F7.0
tp117
atp118
atp119
a(F24.0
F5.04
(lp120
(L9L
g2
(lp121
(g28
I0
F4.0
tp122
a(g30
F4.0
F7.0
tp123
a(g60
F7.0
F10.0
tp124
a(g72
F10.0
F13.0
tp125
a(g32
F13.0
F16.0
tp126
a(g40
F16.0
F19.0
tp127
atp128
a(L2L
g2
(lp129
(g4
I0
F0.0
tp130
a(g6
I0
F4.0
tp131
a(g8
F4.0
F7.0
tp132
a(g46
F8.0
F11.0
tp133
a(g10
F13.0
F13.0
tp134
a(g12
F13.0
F13.0
tp135
a(g14
F13.0
F16.0
tp136
a(g16
F19.0
F19.0
tp137
a(g18
F19.0
F20.0
tp138
a(g20
F20.0
F21.0
tp139
a(g22
F21.0
F21.0
tp140
a(g24
F21.0
F21.0
tp141
atp142
a(L11L
g2
(lp143
(g44
I0
F4.0
tp144
a(g52
F4.0
F8.0
tp145
a(g54
F8.0
F11.0
tp146
a(g56
F13.0
F16.0
tp147
atp148
a(L10L
g2
(lp149
(g36
I0
F4.0
tp150
a(g38
F4.0
F7.0
tp151
a(g64
F7.0
F10.0
tp152
a(g68
F10.0
F13.0
tp153
a(g48
F13.0
F16.0
tp154
atp155
atp156
a(F150.0
F3.48
(lp157
(L2L
Vapac-sin#m3.medium
p158
(lp159
(g6
I0
F37.0
tp160
a(g8
F37.0
F65.0
tp161
a(g12
F93.0
F97.0
tp162
a(g14
F97.0
F126.0
tp163
a(g16
F126.0
F130.0
tp164
a(g18
F130.0
F138.0
tp165
a(g20
F138.0
F148.0
tp166
a(g22
F148.0
F149.0
tp167
a(g24
F149.0
F149.0
tp168
atp169
a(L6L
g77
(lp170
(g10
F93.0
F93.0
tp171
atp172
a(L8L
Vapac-sin#m3.large
p173
(lp174
(g28
I0
F17.0
tp175
a(g30
F36.0
F49.0
tp176
a(g32
F97.0
F110.0
tp177
atp178
a(L9L
g158
(lp179
(g4
I0
F0.0
tp180
a(g36
I0
F36.0
tp181
a(g38
F36.0
F65.0
tp182
a(g72
F65.0
F93.0
tp183
a(g40
F97.0
F125.0
tp184
atp185
a(L10L
g158
(lp186
(g44
I0
F36.0
tp187
a(g46
F36.0
F64.0
tp188
a(g68
F64.0
F92.0
tp189
a(g48
F97.0
F126.0
tp190
atp191
a(L11L
g158
(lp192
(g52
I0
F36.0
tp193
a(g54
F36.0
F65.0
tp194
a(g56
F97.0
F126.0
tp195
atp196
a(L12L
Vapac-sin#m1.xlarge
p197
(lp198
(g60
F37.0
F48.0
tp199
atp200
a(L13L
g2
(lp201
(g64
F37.0
F40.0
tp202
atp203
atp204
a(F207.0
F0.63
(lp205
(L9L
g158
(lp206
(g4
I0
F0.0
tp207
a(g28
I0
F37.0
tp208
a(g30
F37.0
F65.0
tp209
a(g60
F65.0
F93.0
tp210
a(g72
F93.0
F121.0
tp211
a(g32
F128.0
F156.0
tp212
a(g40
F156.0
F184.0
tp213
atp214
a(L2L
g158
(lp215
(g6
I0
F37.0
tp216
a(g8
F37.0
F65.0
tp217
a(g46
F72.0
F100.0
tp218
a(g10
F122.0
F124.0
tp219
a(g12
F124.0
F128.0
tp220
a(g14
F128.0
F157.0
tp221
a(g16
F184.0
F188.0
tp222
a(g18
F188.0
F196.0
tp223
a(g20
F196.0
F206.0
tp224
a(g22
F206.0
F207.0
tp225
a(g24
F207.0
F207.0
tp226
atp227
a(L11L
g158
(lp228
(g44
I0
F36.0
tp229
a(g52
F36.0
F72.0
tp230
a(g54
F72.0
F101.0
tp231
a(g56
F128.0
F157.0
tp232
atp233
a(L10L
g158
(lp234
(g36
I0
F36.0
tp235
a(g38
F37.0
F66.0
tp236
a(g64
F66.0
F94.0
tp237
a(g68
F94.0
F122.0
tp238
a(g48
F128.0
F157.0
tp239
atp240
atp241
a(F419.0
F0.55
(lp242
(L9L
g158
(lp243
(g4
I0
F0.0
tp244
a(g28
I0
F37.0
tp245
a(g30
F37.0
F65.0
tp246
a(g60
F65.0
F93.0
tp247
a(g72
F109.0
F137.0
tp248
a(g32
F308.0
F336.0
tp249
a(g40
F336.0
F364.0
tp250
atp251
a(L2L
g158
(lp252
(g6
I0
F37.0
tp253
a(g8
F37.0
F65.0
tp254
a(g46
F216.0
F244.0
tp255
a(g10
F302.0
F304.0
tp256
a(g12
F304.0
F308.0
tp257
a(g14
F308.0
F337.0
tp258
a(g16
F395.0
F399.0
tp259
a(g18
F399.0
F407.0
tp260
a(g20
F407.0
F417.0
tp261
a(g22
F417.0
F418.0
tp262
a(g24
F418.0
F418.0
tp263
atp264
a(L11L
Vapac-sin#m1.small
p265
(lp266
(g44
I0
F109.0
tp267
a(g52
F109.0
F216.0
tp268
a(g54
F216.0
F302.0
tp269
a(g56
F308.0
F395.0
tp270
atp271
a(L10L
g158
(lp272
(g36
I0
F36.0
tp273
a(g38
F109.0
F138.0
tp274
a(g64
F138.0
F166.0
tp275
a(g68
F216.0
F244.0
tp276
a(g48
F308.0
F337.0
tp277
atp278
atp279
a(F621.0
F0.32
(lp280
(L9L
g265
(lp281
(g4
I0
F1.0
tp282
a(g28
F1.0
F112.0
tp283
a(g30
F112.0
F197.0
tp284
a(g60
F197.0
F282.0
tp285
a(g72
F282.0
F366.0
tp286
a(g32
F383.0
F468.0
tp287
a(g40
F468.0
F551.0
tp288
atp289
a(L2L
g265
(lp290
(g6
F1.0
F111.0
tp291
a(g8
F112.0
F197.0
tp292
a(g46
F217.0
F301.0
tp293
a(g10
F366.0
F372.0
tp294
a(g12
F372.0
F383.0
tp295
a(g14
F383.0
F469.0
tp296
a(g16
F551.0
F562.0
tp297
a(g18
F562.0
F586.0
tp298
a(g20
F586.0
F617.0
tp299
a(g22
F617.0
F621.0
tp300
a(g24
F621.0
F621.0
tp301
atp302
a(L11L
g265
(lp303
(g44
F1.0
F110.0
tp304
a(g52
F110.0
F217.0
tp305
a(g54
F217.0
F303.0
tp306
a(g56
F383.0
F470.0
tp307
atp308
a(L10L
g265
(lp309
(g36
F1.0
F108.0
tp310
a(g38
F112.0
F199.0
tp311
a(g64
F199.0
F282.0
tp312
a(g68
F282.0
F366.0
tp313
a(g48
F383.0
F470.0
tp314
atp315
atp316
a.