(lp0
(F1377.0
F8.6
(lp1
(L2L
Vapac-sin#m3.2xlarge
p2
(lp3
(S'entry'
p4
I0
F0.0
tp5
a(VID00023
p6
I0
F602.0
tp7
a(VID00024
p8
F602.0
F742.0
tp9
a(VID00025
p10
F742.0
F742.0
tp11
a(VID00027
p12
F742.0
F1127.0
tp13
a(VID00061
p14
F1376.0
F1376.0
tp15
atp16
a(L34L
g2
(lp17
(VID00089
p18
I0
F671.0
tp19
a(VID00004
p20
F671.0
F671.0
tp21
atp22
a(L36L
Vapac-sin#m1.small
p23
(lp24
(VID00028
p25
F742.0
F1006.0
tp26
a(VID00066
p27
F1006.0
F1018.0
tp28
a(VID00077
p29
F1018.0
F1024.0
tp30
a(VID00006
p31
F1024.0
F1035.0
tp32
a(VID00014
p33
F1035.0
F1044.0
tp34
atp35
a(L37L
g23
(lp36
(VID00029
p37
F742.0
F788.0
tp38
a(VID00044
p39
F788.0
F801.0
tp40
a(VID00065
p41
F801.0
F811.0
tp42
a(VID00079
p43
F811.0
F818.0
tp44
a(VID00085
p45
F818.0
F828.0
tp46
a(VID00084
p47
F828.0
F835.0
tp48
a(VID00030
p49
F1278.0
F1288.0
tp50
atp51
a(L7L
g23
(lp52
(VID00032
p53
I0
F13.0
tp54
a(VID00041
p55
F13.0
F23.0
tp56
a(VID00057
p57
F971.0
F1013.0
tp58
a(VID00067
p59
F1013.0
F1022.0
tp60
a(VID00018
p61
F1022.0
F1029.0
tp62
a(VID00000
p63
F1278.0
F1278.0
tp64
atp65
a(L8L
g23
(lp66
(VID00021
p67
I0
F310.0
tp68
a(VID00026
p69
F742.0
F790.0
tp70
a(VID00036
p71
F790.0
F801.0
tp72
a(VID00056
p73
F971.0
F981.0
tp74
a(VID00009
p75
F981.0
F988.0
tp76
atp77
a(L73L
Vapac-sin#m1.medium
p78
(lp79
(S'exit'
p80
F1376.0
F1376.0
tp81
atp82
a(L10L
g2
(lp83
(VID00020
p84
I0
F571.0
tp85
a(VID00055
p86
F862.0
F971.0
tp87
a(VID00058
p88
F971.0
F1376.0
tp89
a(VID00096
p90
F1376.0
F1376.0
tp91
atp92
a(L11L
g23
(lp93
(VID00038
p94
I0
F10.0
tp95
a(VID00052
p96
F10.0
F281.0
tp97
a(VID00031
p98
F801.0
F802.0
tp99
atp100
a(L12L
g2
(lp101
(VID00039
p102
I0
F0.0
tp103
a(VID00049
p104
I0
F0.0
tp105
a(VID00051
p106
I0
F448.0
tp107
a(VID00088
p108
F448.0
F465.0
tp109
a(VID00081
p110
F465.0
F465.0
tp111
a(VID00090
p112
F698.0
F859.0
tp113
a(VID00093
p114
F859.0
F1269.0
tp115
atp116
a(L13L
g23
(lp117
(VID00034
p118
I0
F8.0
tp119
a(VID00035
p120
F8.0
F18.0
tp121
a(VID00042
p122
F18.0
F29.0
tp123
a(VID00076
p124
F29.0
F41.0
tp125
a(VID00012
p126
F41.0
F56.0
tp127
a(VID00011
p128
F56.0
F64.0
tp129
atp130
a(L14L
g23
(lp131
(VID00053
p132
I0
F496.0
tp133
a(VID00074
p134
F496.0
F507.0
tp135
a(VID00087
p136
F507.0
F698.0
tp137
a(VID00002
p138
F698.0
F708.0
tp139
a(VID00091
p140
F859.0
F873.0
tp141
a(VID00094
p142
F873.0
F1137.0
tp143
atp144
a(L17L
g23
(lp145
(VID00059
p146
F981.0
F1245.0
tp147
a(VID00072
p148
F1245.0
F1255.0
tp149
a(VID00003
p150
F1255.0
F1264.0
tp151
a(VID00016
p152
F1264.0
F1278.0
tp153
atp154
a(L20L
g23
(lp155
(VID00022
p156
I0
F400.0
tp157
a(VID00033
p158
F400.0
F410.0
tp159
a(VID00048
p160
F410.0
F422.0
tp161
a(VID00050
p162
F422.0
F433.0
tp163
a(VID00060
p164
F971.0
F993.0
tp165
a(VID00082
p166
F993.0
F1005.0
tp167
a(VID00019
p168
F1005.0
F1016.0
tp169
atp170
a(L22L
g23
(lp171
(VID00040
p172
I0
F10.0
tp173
a(VID00043
p174
F10.0
F20.0
tp175
a(VID00070
p176
F20.0
F32.0
tp177
a(VID00017
p178
F32.0
F42.0
tp179
atp180
a(L56L
g2
(lp181
(VID00086
p182
I0
F437.0
tp183
a(VID00007
p184
F437.0
F437.0
tp185
a(VID00095
p186
F859.0
F860.0
tp187
a(VID00015
p188
F860.0
F860.0
tp189
atp190
a(L25L
g23
(lp191
(VID00037
p192
I0
F12.0
tp193
a(VID00045
p194
F12.0
F24.0
tp195
a(VID00063
p196
F24.0
F35.0
tp197
a(VID00001
p198
F35.0
F45.0
tp199
a(VID00008
p200
F45.0
F53.0
tp201
a(VID00092
p202
F859.0
F893.0
tp203
a(VID00010
p204
F893.0
F904.0
tp205
atp206
a(L59L
g23
(lp207
(VID00047
p208
I0
F11.0
tp209
a(VID00046
p210
F11.0
F21.0
tp211
a(VID00064
p212
F21.0
F29.0
tp213
a(VID00069
p214
F29.0
F38.0
tp215
a(VID00071
p216
F38.0
F51.0
tp217
a(VID00075
p218
F51.0
F63.0
tp219
a(VID00078
p220
F63.0
F71.0
tp221
a(VID00083
p222
F71.0
F77.0
tp223
a(VID00062
p224
F1255.0
F1256.0
tp225
atp226
a(L29L
g2
(lp227
(VID00054
p228
I0
F862.0
tp229
atp230
a(L94L
g23
(lp231
(VID00068
p232
I0
F12.0
tp233
a(VID00073
p234
F12.0
F22.0
tp235
a(VID00080
p236
F22.0
F32.0
tp237
a(VID00005
p238
F32.0
F40.0
tp239
a(VID00013
p240
F40.0
F53.0
tp241
atp242
atp243
a(F1446.0
F7.97
(lp244
(L2L
g2
(lp245
(g4
I0
F0.0
tp246
a(g6
I0
F602.0
tp247
a(g8
F602.0
F742.0
tp248
a(g10
F742.0
F742.0
tp249
a(g12
F742.0
F1127.0
tp250
a(g14
F1376.0
F1376.0
tp251
atp252
a(L34L
g2
(lp253
(g18
I0
F671.0
tp254
a(g20
F671.0
F671.0
tp255
atp256
a(L36L
g23
(lp257
(g25
F742.0
F1006.0
tp258
a(g27
F1006.0
F1018.0
tp259
a(g29
F1018.0
F1024.0
tp260
a(g31
F1024.0
F1035.0
tp261
atp262
a(L37L
g23
(lp263
(g37
F742.0
F788.0
tp264
a(g39
F788.0
F801.0
tp265
a(g41
F801.0
F811.0
tp266
a(g43
F811.0
F818.0
tp267
a(g45
F818.0
F828.0
tp268
a(g47
F828.0
F835.0
tp269
a(g49
F1278.0
F1288.0
tp270
atp271
a(L7L
g23
(lp272
(g53
I0
F13.0
tp273
a(g55
F13.0
F23.0
tp274
a(g57
F971.0
F1013.0
tp275
a(g59
F1013.0
F1022.0
tp276
a(g61
F1022.0
F1029.0
tp277
a(g63
F1278.0
F1278.0
tp278
atp279
a(L8L
g23
(lp280
(g67
I0
F310.0
tp281
a(g69
F742.0
F790.0
tp282
a(g71
F790.0
F801.0
tp283
a(g73
F971.0
F981.0
tp284
a(g75
F981.0
F988.0
tp285
atp286
a(L73L
g78
(lp287
(g80
F1445.0
F1445.0
tp288
atp289
a(L10L
g2
(lp290
(g84
I0
F571.0
tp291
a(g86
F862.0
F971.0
tp292
a(g88
F971.0
F1376.0
tp293
a(g90
F1445.0
F1445.0
tp294
atp295
a(L11L
g23
(lp296
(g94
I0
F10.0
tp297
a(g96
F10.0
F281.0
tp298
a(g98
F801.0
F802.0
tp299
atp300
a(L12L
g2
(lp301
(g102
I0
F0.0
tp302
a(g104
I0
F0.0
tp303
a(g106
I0
F448.0
tp304
a(g108
F448.0
F465.0
tp305
a(g110
F465.0
F465.0
tp306
a(g112
F874.0
F1035.0
tp307
a(g114
F1035.0
F1445.0
tp308
atp309
a(L13L
g23
(lp310
(g118
I0
F8.0
tp311
a(g120
F8.0
F18.0
tp312
a(g122
F18.0
F29.0
tp313
a(g126
F29.0
F44.0
tp314
a(g128
F44.0
F52.0
tp315
atp316
a(L14L
g23
(lp317
(g132
I0
F496.0
tp318
a(g134
F496.0
F507.0
tp319
a(g136
F507.0
F698.0
tp320
a(g138
F698.0
F708.0
tp321
a(g140
F1035.0
F1049.0
tp322
a(g142
F1049.0
F1313.0
tp323
atp324
a(L17L
g23
(lp325
(g146
F981.0
F1245.0
tp326
a(g148
F1245.0
F1255.0
tp327
a(g150
F1255.0
F1264.0
tp328
a(g152
F1264.0
F1278.0
tp329
atp330
a(L20L
g23
(lp331
(g156
I0
F400.0
tp332
a(g158
F400.0
F410.0
tp333
a(g160
F410.0
F422.0
tp334
a(g162
F422.0
F433.0
tp335
a(g164
F971.0
F993.0
tp336
a(g166
F993.0
F1005.0
tp337
a(g168
F1005.0
F1016.0
tp338
atp339
a(L22L
g23
(lp340
(g172
I0
F10.0
tp341
a(g174
F10.0
F20.0
tp342
a(g176
F20.0
F32.0
tp343
a(g178
F32.0
F42.0
tp344
atp345
a(L56L
Vapac-sin#m3.xlarge
p346
(lp347
(g182
I0
F874.0
tp348
a(g184
F874.0
F875.0
tp349
a(g186
F1035.0
F1037.0
tp350
a(g188
F1037.0
F1038.0
tp351
atp352
a(L25L
g23
(lp353
(g192
I0
F12.0
tp354
a(g194
F12.0
F24.0
tp355
a(g196
F24.0
F35.0
tp356
a(g124
F35.0
F47.0
tp357
a(g198
F47.0
F57.0
tp358
a(g200
F57.0
F65.0
tp359
a(g202
F1035.0
F1069.0
tp360
a(g204
F1069.0
F1080.0
tp361
a(g33
F1080.0
F1089.0
tp362
atp363
a(L59L
g23
(lp364
(g208
I0
F11.0
tp365
a(g210
F11.0
F21.0
tp366
a(g212
F21.0
F29.0
tp367
a(g214
F29.0
F38.0
tp368
a(g216
F38.0
F51.0
tp369
a(g218
F51.0
F63.0
tp370
a(g220
F63.0
F71.0
tp371
a(g222
F71.0
F77.0
tp372
a(g224
F1255.0
F1256.0
tp373
atp374
a(L29L
g2
(lp375
(g228
I0
F862.0
tp376
atp377
a(L94L
g23
(lp378
(g232
I0
F12.0
tp379
a(g234
F12.0
F22.0
tp380
a(g236
F22.0
F32.0
tp381
a(g238
F32.0
F40.0
tp382
a(g240
F40.0
F53.0
tp383
atp384
atp385
a(F1533.0
F6.71
(lp386
(L2L
g2
(lp387
(g4
I0
F0.0
tp388
a(g6
I0
F602.0
tp389
a(g8
F602.0
F742.0
tp390
a(g10
F742.0
F742.0
tp391
a(g12
F742.0
F1127.0
tp392
a(g14
F1533.0
F1533.0
tp393
atp394
a(L34L
g2
(lp395
(g18
I0
F671.0
tp396
a(g20
F671.0
F671.0
tp397
atp398
a(L36L
g23
(lp399
(g25
F742.0
F1006.0
tp400
a(g27
F1006.0
F1018.0
tp401
a(g29
F1018.0
F1024.0
tp402
a(g31
F1024.0
F1035.0
tp403
a(g33
F1035.0
F1044.0
tp404
atp405
a(L37L
g23
(lp406
(g37
F742.0
F788.0
tp407
a(g41
F788.0
F798.0
tp408
a(g43
F798.0
F805.0
tp409
a(g45
F805.0
F815.0
tp410
a(g47
F815.0
F822.0
tp411
a(g49
F1435.0
F1445.0
tp412
atp413
a(L7L
g23
(lp414
(g118
I0
F8.0
tp415
a(g53
F8.0
F21.0
tp416
a(g55
F21.0
F31.0
tp417
a(g57
F1128.0
F1170.0
tp418
a(g59
F1170.0
F1179.0
tp419
a(g61
F1179.0
F1186.0
tp420
a(g63
F1435.0
F1435.0
tp421
atp422
a(L8L
g23
(lp423
(g67
I0
F310.0
tp424
a(g69
F742.0
F790.0
tp425
a(g71
F790.0
F801.0
tp426
a(g73
F1128.0
F1138.0
tp427
a(g75
F1138.0
F1145.0
tp428
atp429
a(L73L
g78
(lp430
(g80
F1533.0
F1533.0
tp431
atp432
a(L10L
g2
(lp433
(g84
I0
F571.0
tp434
a(g106
F571.0
F1019.0
tp435
a(g86
F1019.0
F1128.0
tp436
a(g88
F1128.0
F1533.0
tp437
a(g90
F1533.0
F1533.0
tp438
atp439
a(L11L
g23
(lp440
(g94
I0
F10.0
tp441
a(g39
F10.0
F23.0
tp442
a(g96
F23.0
F294.0
tp443
atp444
a(L12L
g2
(lp445
(g102
I0
F0.0
tp446
a(g104
I0
F0.0
tp447
a(g228
I0
F862.0
tp448
a(g108
F862.0
F879.0
tp449
a(g110
F879.0
F879.0
tp450
a(g112
F879.0
F1040.0
tp451
a(g114
F1040.0
F1450.0
tp452
atp453
a(L13L
g23
(lp454
(g120
I0
F10.0
tp455
a(g122
F10.0
F21.0
tp456
a(g124
F21.0
F33.0
tp457
a(g126
F33.0
F48.0
tp458
a(g128
F48.0
F56.0
tp459
atp460
a(L14L
g23
(lp461
(g210
I0
F10.0
tp462
a(g134
F10.0
F21.0
tp463
a(g136
F21.0
F212.0
tp464
a(g138
F212.0
F222.0
tp465
a(g140
F1040.0
F1054.0
tp466
a(g142
F1054.0
F1318.0
tp467
atp468
a(L17L
g23
(lp469
(g162
I0
F11.0
tp470
a(g146
F1138.0
F1402.0
tp471
a(g148
F1402.0
F1412.0
tp472
a(g150
F1412.0
F1421.0
tp473
a(g152
F1421.0
F1435.0
tp474
atp475
a(L20L
g23
(lp476
(g156
I0
F400.0
tp477
a(g158
F400.0
F410.0
tp478
a(g160
F410.0
F422.0
tp479
a(g164
F1128.0
F1150.0
tp480
a(g166
F1150.0
F1162.0
tp481
a(g168
F1162.0
F1173.0
tp482
atp483
a(L22L
g23
(lp484
(g172
I0
F10.0
tp485
a(g174
F10.0
F20.0
tp486
a(g176
F20.0
F32.0
tp487
a(g178
F32.0
F42.0
tp488
atp489
a(L56L
g346
(lp490
(g182
I0
F874.0
tp491
a(g184
F874.0
F875.0
tp492
a(g186
F1040.0
F1042.0
tp493
a(g188
F1042.0
F1043.0
tp494
atp495
a(L25L
g23
(lp496
(g192
I0
F12.0
tp497
a(g194
F12.0
F24.0
tp498
a(g98
F801.0
F802.0
tp499
a(g196
F802.0
F813.0
tp500
a(g198
F813.0
F823.0
tp501
a(g200
F823.0
F831.0
tp502
a(g202
F1040.0
F1074.0
tp503
a(g204
F1074.0
F1085.0
tp504
atp505
a(L59L
g23
(lp506
(g208
I0
F11.0
tp507
a(g212
F11.0
F19.0
tp508
a(g214
F19.0
F28.0
tp509
a(g216
F28.0
F41.0
tp510
a(g218
F41.0
F53.0
tp511
a(g220
F53.0
F61.0
tp512
a(g222
F61.0
F67.0
tp513
a(g224
F1412.0
F1413.0
tp514
atp515
a(L94L
g23
(lp516
(g132
I0
F496.0
tp517
a(g232
F496.0
F508.0
tp518
a(g234
F508.0
F518.0
tp519
a(g236
F518.0
F528.0
tp520
a(g238
F528.0
F536.0
tp521
a(g240
F536.0
F549.0
tp522
atp523
atp524
a(F1914.0
F6.08
(lp525
(L2L
g2
(lp526
(g4
I0
F0.0
tp527
a(g6
I0
F602.0
tp528
a(g8
F602.0
F742.0
tp529
a(g10
F742.0
F742.0
tp530
a(g12
F742.0
F1127.0
tp531
a(g14
F1533.0
F1533.0
tp532
atp533
a(L34L
g346
(lp534
(g18
I0
F1342.0
tp535
a(g20
F1342.0
F1343.0
tp536
atp537
a(L36L
g23
(lp538
(g25
F742.0
F1006.0
tp539
a(g27
F1006.0
F1018.0
tp540
a(g29
F1018.0
F1024.0
tp541
a(g31
F1024.0
F1035.0
tp542
a(g33
F1035.0
F1044.0
tp543
atp544
a(L37L
g23
(lp545
(g37
F742.0
F788.0
tp546
a(g41
F788.0
F798.0
tp547
a(g43
F798.0
F805.0
tp548
a(g45
F805.0
F815.0
tp549
a(g47
F815.0
F822.0
tp550
a(g49
F1548.0
F1558.0
tp551
atp552
a(L7L
g23
(lp553
(g118
I0
F8.0
tp554
a(g53
F8.0
F21.0
tp555
a(g55
F21.0
F31.0
tp556
a(g57
F1128.0
F1170.0
tp557
a(g59
F1170.0
F1179.0
tp558
a(g61
F1179.0
F1186.0
tp559
a(g63
F1548.0
F1548.0
tp560
atp561
a(L8L
g23
(lp562
(g67
I0
F310.0
tp563
a(g69
F742.0
F790.0
tp564
a(g71
F790.0
F801.0
tp565
a(g73
F1128.0
F1138.0
tp566
a(g75
F1138.0
F1145.0
tp567
atp568
a(L73L
g78
(lp569
(g80
F1913.0
F1913.0
tp570
atp571
a(L10L
g2
(lp572
(g84
I0
F571.0
tp573
a(g106
F571.0
F1019.0
tp574
a(g86
F1019.0
F1128.0
tp575
a(g88
F1128.0
F1533.0
tp576
a(g90
F1913.0
F1913.0
tp577
atp578
a(L11L
g23
(lp579
(g94
I0
F10.0
tp580
a(g39
F10.0
F23.0
tp581
a(g96
F23.0
F294.0
tp582
atp583
a(L12L
g2
(lp584
(g102
I0
F0.0
tp585
a(g104
I0
F0.0
tp586
a(g228
I0
F862.0
tp587
a(g108
F862.0
F879.0
tp588
a(g110
F879.0
F879.0
tp589
a(g112
F1342.0
F1503.0
tp590
a(g114
F1503.0
F1913.0
tp591
atp592
a(L13L
g23
(lp593
(g120
I0
F10.0
tp594
a(g122
F10.0
F21.0
tp595
a(g126
F21.0
F36.0
tp596
a(g128
F36.0
F44.0
tp597
atp598
a(L14L
g23
(lp599
(g210
I0
F10.0
tp600
a(g134
F10.0
F21.0
tp601
a(g136
F21.0
F212.0
tp602
a(g138
F212.0
F222.0
tp603
a(g140
F1503.0
F1517.0
tp604
a(g142
F1517.0
F1781.0
tp605
atp606
a(L17L
g23
(lp607
(g162
I0
F11.0
tp608
a(g146
F1138.0
F1402.0
tp609
a(g148
F1402.0
F1412.0
tp610
a(g150
F1412.0
F1421.0
tp611
a(g152
F1421.0
F1435.0
tp612
atp613
a(L20L
g23
(lp614
(g156
I0
F400.0
tp615
a(g158
F400.0
F410.0
tp616
a(g160
F410.0
F422.0
tp617
a(g164
F1128.0
F1150.0
tp618
a(g166
F1150.0
F1162.0
tp619
a(g168
F1162.0
F1173.0
tp620
atp621
a(L22L
g23
(lp622
(g172
I0
F10.0
tp623
a(g174
F10.0
F20.0
tp624
a(g176
F20.0
F32.0
tp625
a(g178
F32.0
F42.0
tp626
atp627
a(L56L
g346
(lp628
(g182
I0
F874.0
tp629
a(g184
F874.0
F875.0
tp630
a(g186
F1503.0
F1505.0
tp631
a(g188
F1505.0
F1506.0
tp632
atp633
a(L25L
g23
(lp634
(g192
I0
F12.0
tp635
a(g194
F12.0
F24.0
tp636
a(g98
F801.0
F802.0
tp637
a(g196
F802.0
F813.0
tp638
a(g124
F813.0
F825.0
tp639
a(g198
F825.0
F835.0
tp640
a(g200
F835.0
F843.0
tp641
a(g202
F1503.0
F1537.0
tp642
a(g204
F1537.0
F1548.0
tp643
atp644
a(L59L
g23
(lp645
(g208
I0
F11.0
tp646
a(g212
F11.0
F19.0
tp647
a(g214
F19.0
F28.0
tp648
a(g216
F28.0
F41.0
tp649
a(g218
F41.0
F53.0
tp650
a(g220
F53.0
F61.0
tp651
a(g222
F61.0
F67.0
tp652
a(g224
F1412.0
F1413.0
tp653
atp654
a(L94L
g23
(lp655
(g132
I0
F496.0
tp656
a(g232
F496.0
F508.0
tp657
a(g234
F508.0
F518.0
tp658
a(g236
F518.0
F528.0
tp659
a(g238
F528.0
F536.0
tp660
a(g240
F536.0
F549.0
tp661
atp662
atp663
a(F2128.0
F5.53
(lp664
(L2L
g346
(lp665
(g4
I0
F0.0
tp666
a(g6
I0
F1204.0
tp667
a(g69
F1344.0
F1348.0
tp668
a(g12
F1348.0
F2119.0
tp669
a(g57
F2119.0
F2122.0
tp670
a(g14
F2122.0
F2123.0
tp671
atp672
a(L34L
g346
(lp673
(g94
I0
F1.0
tp674
a(g132
F1.0
F39.0
tp675
a(g18
F39.0
F1381.0
tp676
a(g20
F1381.0
F1382.0
tp677
atp678
a(L36L
g23
(lp679
(g25
F1356.0
F1620.0
tp680
a(g104
F1620.0
F1631.0
tp681
a(g39
F1631.0
F1644.0
tp682
a(g98
F1644.0
F1645.0
tp683
a(g27
F1645.0
F1657.0
tp684
a(g29
F1657.0
F1663.0
tp685
a(g31
F1663.0
F1674.0
tp686
a(g33
F1674.0
F1683.0
tp687
atp688
a(L37L
g23
(lp689
(g41
I0
F10.0
tp690
a(g43
F10.0
F17.0
tp691
a(g45
F17.0
F27.0
tp692
a(g47
F27.0
F34.0
tp693
a(g49
F2119.0
F2129.0
tp694
atp695
a(L17L
g23
(lp696
(g71
I0
F11.0
tp697
a(g55
F11.0
F21.0
tp698
a(g146
F1429.0
F1693.0
tp699
a(g148
F1693.0
F1703.0
tp700
a(g150
F1703.0
F1712.0
tp701
a(g152
F1712.0
F1726.0
tp702
atp703
a(L8L
g23
(lp704
(g75
I0
F7.0
tp705
atp706
a(L73L
g78
(lp707
(g80
F2129.0
F2129.0
tp708
atp709
a(L10L
g2
(lp710
(g84
I0
F571.0
tp711
a(g8
F1204.0
F1344.0
tp712
a(g88
F1419.0
F1824.0
tp713
a(g90
F2007.0
F2007.0
tp714
atp715
a(L7L
g23
(lp716
(g194
I0
F12.0
tp717
a(g210
F12.0
F22.0
tp718
a(g196
F22.0
F33.0
tp719
a(g59
F33.0
F42.0
tp720
a(g61
F42.0
F49.0
tp721
a(g63
F1726.0
F1726.0
tp722
atp723
a(L12L
g2
(lp724
(g53
I0
F0.0
tp725
a(g208
I0
F0.0
tp726
a(g228
I0
F862.0
tp727
a(g106
F862.0
F1310.0
tp728
a(g86
F1310.0
F1419.0
tp729
a(g108
F1419.0
F1436.0
tp730
a(g110
F1436.0
F1436.0
tp731
a(g112
F1436.0
F1597.0
tp732
a(g114
F1597.0
F2007.0
tp733
atp734
a(L13L
g23
(lp735
(g156
I0
F400.0
tp736
a(g102
F400.0
F410.0
tp737
a(g124
F410.0
F422.0
tp738
a(g126
F422.0
F437.0
tp739
a(g128
F437.0
F445.0
tp740
atp741
a(L14L
g23
(lp742
(g122
I0
F11.0
tp743
a(g134
F11.0
F22.0
tp744
a(g136
F22.0
F213.0
tp745
a(g138
F213.0
F223.0
tp746
a(g140
F1597.0
F1611.0
tp747
a(g142
F1611.0
F1875.0
tp748
atp749
a(L59L
g23
(lp750
(g120
I0
F10.0
tp751
a(g214
F10.0
F19.0
tp752
a(g216
F19.0
F32.0
tp753
a(g218
F32.0
F44.0
tp754
a(g220
F44.0
F52.0
tp755
a(g222
F52.0
F58.0
tp756
a(g224
F1703.0
F1704.0
tp757
atp758
a(L20L
g23
(lp759
(g10
F1344.0
F1356.0
tp760
a(g158
F1356.0
F1366.0
tp761
a(g73
F1419.0
F1429.0
tp762
a(g164
F1429.0
F1451.0
tp763
a(g166
F1451.0
F1463.0
tp764
a(g168
F1463.0
F1474.0
tp765
atp766
a(L22L
g23
(lp767
(g37
F1344.0
F1390.0
tp768
a(g172
F1390.0
F1400.0
tp769
a(g176
F1400.0
F1412.0
tp770
a(g178
F1412.0
F1422.0
tp771
atp772
a(L25L
g23
(lp773
(g192
I0
F12.0
tp774
a(g96
F12.0
F283.0
tp775
a(g198
F283.0
F293.0
tp776
a(g200
F293.0
F301.0
tp777
a(g202
F1597.0
F1631.0
tp778
a(g204
F1631.0
F1642.0
tp779
atp780
a(L56L
g346
(lp781
(g182
I0
F874.0
tp782
a(g184
F874.0
F875.0
tp783
a(g186
F1597.0
F1599.0
tp784
a(g188
F1599.0
F1600.0
tp785
atp786
a(L68L
g23
(lp787
(g118
I0
F8.0
tp788
a(g162
F8.0
F19.0
tp789
atp790
a(L91L
g23
(lp791
(g67
I0
F310.0
tp792
atp793
a(L94L
g23
(lp794
(g160
I0
F12.0
tp795
a(g174
F12.0
F22.0
tp796
a(g212
F22.0
F30.0
tp797
a(g232
F30.0
F42.0
tp798
a(g234
F42.0
F52.0
tp799
a(g236
F52.0
F62.0
tp800
a(g238
F62.0
F70.0
tp801
a(g240
F70.0
F83.0
tp802
atp803
atp804
a(F2320.0
F4.5
(lp805
(L2L
g346
(lp806
(g4
I0
F0.0
tp807
a(g6
I0
F1204.0
tp808
a(g69
F1484.0
F1488.0
tp809
a(g12
F1488.0
F2259.0
tp810
a(g57
F2259.0
F2262.0
tp811
a(g14
F2295.0
F2296.0
tp812
a(g216
F2296.0
F2297.0
tp813
a(g220
F2297.0
F2298.0
tp814
a(g110
F2298.0
F2299.0
tp815
a(g198
F2299.0
F2300.0
tp816
atp817
a(L34L
g346
(lp818
(g94
I0
F1.0
tp819
a(g132
F1.0
F39.0
tp820
a(g148
F39.0
F40.0
tp821
a(g18
F40.0
F1382.0
tp822
a(g20
F1382.0
F1383.0
tp823
a(g75
F1383.0
F1384.0
tp824
atp825
a(L36L
g23
(lp826
(g25
F1496.0
F1760.0
tp827
a(g71
F1760.0
F1771.0
tp828
a(g104
F1771.0
F1782.0
tp829
a(g39
F1782.0
F1795.0
tp830
a(g98
F1795.0
F1796.0
tp831
a(g27
F1796.0
F1808.0
tp832
a(g29
F1808.0
F1814.0
tp833
a(g47
F1814.0
F1821.0
tp834
a(g31
F1821.0
F1832.0
tp835
a(g33
F1832.0
F1841.0
tp836
atp837
a(L37L
g23
(lp838
(g41
I0
F10.0
tp839
a(g49
F2300.0
F2310.0
tp840
atp841
a(L17L
g23
(lp842
(g55
I0
F10.0
tp843
a(g146
F1528.0
F1792.0
tp844
a(g150
F1792.0
F1801.0
tp845
a(g152
F1801.0
F1815.0
tp846
atp847
a(L73L
g78
(lp848
(g80
F2320.0
F2320.0
tp849
atp850
a(L10L
g346
(lp851
(g84
I0
F1141.0
tp852
a(g8
F1204.0
F1484.0
tp853
a(g88
F1484.0
F2295.0
tp854
a(g236
F2295.0
F2296.0
tp855
a(g138
F2296.0
F2297.0
tp856
a(g90
F2319.0
F2320.0
tp857
atp858
a(L7L
g23
(lp859
(g210
I0
F10.0
tp860
a(g196
F10.0
F21.0
tp861
a(g59
F21.0
F30.0
tp862
a(g124
F30.0
F42.0
tp863
a(g61
F42.0
F49.0
tp864
a(g63
F2300.0
F2300.0
tp865
atp866
a(L12L
g2
(lp867
(g53
I0
F0.0
tp868
a(g208
I0
F0.0
tp869
a(g228
I0
F862.0
tp870
a(g106
F862.0
F1310.0
tp871
a(g86
F1310.0
F1419.0
tp872
a(g214
F1419.0
F1419.0
tp873
a(g108
F1419.0
F1436.0
tp874
a(g45
F1436.0
F1436.0
tp875
a(g112
F1748.0
F1909.0
tp876
a(g114
F1909.0
F2319.0
tp877
atp878
a(L13L
g23
(lp879
(g156
I0
F400.0
tp880
a(g102
F400.0
F410.0
tp881
a(g126
F410.0
F425.0
tp882
a(g128
F425.0
F433.0
tp883
atp884
a(L14L
g23
(lp885
(g122
I0
F11.0
tp886
a(g136
F11.0
F202.0
tp887
a(g140
F1909.0
F1923.0
tp888
a(g142
F1923.0
F2187.0
tp889
atp890
a(L59L
g23
(lp891
(g120
I0
F10.0
tp892
a(g134
F10.0
F21.0
tp893
a(g218
F21.0
F33.0
tp894
a(g222
F33.0
F39.0
tp895
a(g224
F2299.0
F2300.0
tp896
atp897
a(L20L
g23
(lp898
(g10
F1484.0
F1496.0
tp899
a(g158
F1496.0
F1506.0
tp900
a(g194
F1506.0
F1518.0
tp901
a(g73
F1518.0
F1528.0
tp902
a(g164
F1528.0
F1550.0
tp903
a(g166
F1550.0
F1562.0
tp904
a(g168
F1562.0
F1573.0
tp905
atp906
a(L22L
g23
(lp907
(g37
F1484.0
F1530.0
tp908
a(g172
F1530.0
F1540.0
tp909
a(g176
F1540.0
F1552.0
tp910
a(g234
F1552.0
F1562.0
tp911
a(g238
F1562.0
F1570.0
tp912
a(g178
F1570.0
F1580.0
tp913
atp914
a(L25L
g23
(lp915
(g192
I0
F12.0
tp916
a(g96
F12.0
F283.0
tp917
a(g43
F283.0
F290.0
tp918
a(g200
F290.0
F298.0
tp919
a(g204
F298.0
F309.0
tp920
atp921
a(L56L
Vapac-sin#m3.large
p922
(lp923
(g182
I0
F1748.0
tp924
a(g202
F1909.0
F1914.0
tp925
a(g186
F1914.0
F1919.0
tp926
a(g188
F1919.0
F1920.0
tp927
atp928
a(L68L
g23
(lp929
(g118
I0
F8.0
tp930
a(g162
F8.0
F19.0
tp931
atp932
a(L91L
g23
(lp933
(g67
I0
F310.0
tp934
a(g184
F310.0
F320.0
tp935
atp936
a(L94L
g23
(lp937
(g160
I0
F12.0
tp938
a(g174
F12.0
F22.0
tp939
a(g212
F22.0
F30.0
tp940
a(g232
F30.0
F42.0
tp941
a(g240
F42.0
F55.0
tp942
atp943
atp944
a(F2892.0
F4.35
(lp945
(L2L
g346
(lp946
(g4
I0
F0.0
tp947
a(g6
I0
F1204.0
tp948
a(g8
F1204.0
F1484.0
tp949
a(g10
F1484.0
F1485.0
tp950
a(g12
F1485.0
F2256.0
tp951
a(g14
F2819.0
F2820.0
tp952
atp953
a(L7L
g23
(lp954
(g55
I0
F10.0
tp955
a(g57
F2008.0
F2050.0
tp956
a(g59
F2050.0
F2059.0
tp957
a(g61
F2059.0
F2066.0
tp958
a(g63
F2316.0
F2316.0
tp959
atp960
a(L8L
g23
(lp961
(g67
I0
F310.0
tp962
a(g69
F1484.0
F1532.0
tp963
a(g73
F2008.0
F2018.0
tp964
atp965
a(L10L
g346
(lp966
(g84
I0
F1141.0
tp967
a(g86
F1790.0
F2008.0
tp968
a(g88
F2008.0
F2819.0
tp969
a(g90
F2891.0
F2892.0
tp970
atp971
a(L11L
g23
(lp972
(g94
I0
F10.0
tp973
a(g39
F10.0
F23.0
tp974
a(g96
F23.0
F294.0
tp975
a(g98
F423.0
F424.0
tp976
a(g216
F424.0
F437.0
tp977
atp978
a(L12L
g346
(lp979
(g102
I0
F1.0
tp980
a(g104
F1.0
F2.0
tp981
a(g228
F2.0
F1726.0
tp982
a(g110
F1726.0
F1727.0
tp983
a(g112
F1748.0
F2070.0
tp984
a(g114
F2070.0
F2891.0
tp985
atp986
a(L13L
g23
(lp987
(g118
I0
F8.0
tp988
a(g158
F8.0
F18.0
tp989
a(g122
F18.0
F29.0
tp990
a(g124
F29.0
F41.0
tp991
a(g126
F41.0
F56.0
tp992
a(g128
F56.0
F64.0
tp993
atp994
a(L14L
g23
(lp995
(g136
I0
F191.0
tp996
a(g138
F191.0
F201.0
tp997
a(g140
F2070.0
F2084.0
tp998
a(g142
F2084.0
F2348.0
tp999
atp1000
a(L17L
g23
(lp1001
(g146
F2018.0
F2282.0
tp1002
a(g196
F2282.0
F2293.0
tp1003
a(g150
F2293.0
F2302.0
tp1004
a(g152
F2302.0
F2316.0
tp1005
atp1006
a(L20L
g23
(lp1007
(g156
I0
F400.0
tp1008
a(g160
F400.0
F412.0
tp1009
a(g162
F412.0
F423.0
tp1010
a(g164
F2008.0
F2030.0
tp1011
a(g166
F2030.0
F2042.0
tp1012
a(g168
F2042.0
F2053.0
tp1013
atp1014
a(L22L
g23
(lp1015
(g172
I0
F10.0
tp1016
a(g176
F10.0
F22.0
tp1017
a(g178
F22.0
F32.0
tp1018
atp1019
a(L25L
g23
(lp1020
(g53
I0
F13.0
tp1021
a(g194
F13.0
F25.0
tp1022
a(g222
F25.0
F31.0
tp1023
a(g198
F31.0
F41.0
tp1024
a(g200
F41.0
F49.0
tp1025
a(g202
F2070.0
F2104.0
tp1026
a(g204
F2104.0
F2115.0
tp1027
atp1028
a(L34L
g346
(lp1029
(g120
I0
F1.0
tp1030
a(g43
F1.0
F2.0
tp1031
a(g18
F2.0
F1344.0
tp1032
a(g20
F1344.0
F1345.0
tp1033
atp1034
a(L36L
g23
(lp1035
(g27
I0
F12.0
tp1036
a(g214
F12.0
F21.0
tp1037
a(g29
F21.0
F27.0
tp1038
a(g31
F27.0
F38.0
tp1039
a(g33
F38.0
F47.0
tp1040
atp1041
a(L37L
g23
(lp1042
(g25
F1485.0
F1749.0
tp1043
a(g37
F1749.0
F1795.0
tp1044
a(g41
F1795.0
F1805.0
tp1045
a(g45
F1805.0
F1815.0
tp1046
a(g47
F1815.0
F1822.0
tp1047
a(g49
F2316.0
F2326.0
tp1048
atp1049
a(L56L
g922
(lp1050
(g182
I0
F1748.0
tp1051
a(g184
F1748.0
F1750.0
tp1052
a(g186
F2070.0
F2075.0
tp1053
atp1054
a(L59L
g23
(lp1055
(g208
I0
F11.0
tp1056
a(g210
F11.0
F21.0
tp1057
a(g212
F21.0
F29.0
tp1058
a(g220
F29.0
F37.0
tp1059
a(g108
F37.0
F475.0
tp1060
a(g224
F2293.0
F2294.0
tp1061
atp1062
a(L68L
g23
(lp1063
(g192
I0
F12.0
tp1064
a(g148
F12.0
F22.0
tp1065
a(g134
F22.0
F33.0
tp1066
a(g218
F33.0
F45.0
tp1067
a(g75
F45.0
F52.0
tp1068
atp1069
a(L73L
g2
(lp1070
(g80
F2892.0
F2892.0
tp1071
atp1072
a(L79L
g23
(lp1073
(g174
I0
F10.0
tp1074
a(g240
F10.0
F23.0
tp1075
a(g188
F23.0
F31.0
tp1076
atp1077
a(L81L
g922
(lp1078
(g106
I0
F1790.0
tp1079
atp1080
a(L94L
g23
(lp1081
(g71
I0
F11.0
tp1082
a(g132
F11.0
F507.0
tp1083
a(g232
F507.0
F519.0
tp1084
a(g234
F519.0
F529.0
tp1085
a(g236
F529.0
F539.0
tp1086
a(g238
F539.0
F547.0
tp1087
atp1088
atp1089
a(F3067.0
F3.87
(lp1090
(L2L
g346
(lp1091
(g4
I0
F0.0
tp1092
a(g6
I0
F1204.0
tp1093
a(g8
F1204.0
F1484.0
tp1094
a(g10
F1484.0
F1485.0
tp1095
a(g12
F1485.0
F2256.0
tp1096
a(g14
F3065.0
F3066.0
tp1097
atp1098
a(L34L
g346
(lp1099
(g18
I0
F1342.0
tp1100
a(g20
F1342.0
F1343.0
tp1101
atp1102
a(L36L
g23
(lp1103
(g27
I0
F12.0
tp1104
a(g29
F12.0
F18.0
tp1105
a(g31
F18.0
F29.0
tp1106
a(g33
F29.0
F38.0
tp1107
atp1108
a(L37L
g23
(lp1109
(g25
F1485.0
F1749.0
tp1110
a(g37
F1749.0
F1795.0
tp1111
a(g41
F1795.0
F1805.0
tp1112
a(g43
F1805.0
F1812.0
tp1113
a(g45
F1812.0
F1822.0
tp1114
a(g47
F1822.0
F1829.0
tp1115
a(g49
F2561.0
F2571.0
tp1116
atp1117
a(L7L
g23
(lp1118
(g53
I0
F13.0
tp1119
a(g55
F13.0
F23.0
tp1120
a(g57
F2254.0
F2296.0
tp1121
a(g59
F2296.0
F2305.0
tp1122
a(g61
F2305.0
F2312.0
tp1123
a(g63
F2561.0
F2561.0
tp1124
atp1125
a(L8L
g23
(lp1126
(g67
I0
F310.0
tp1127
a(g69
F1484.0
F1532.0
tp1128
a(g71
F1532.0
F1543.0
tp1129
a(g73
F2254.0
F2264.0
tp1130
a(g75
F2264.0
F2271.0
tp1131
atp1132
a(L73L
g2
(lp1133
(g80
F3066.0
F3066.0
tp1134
atp1135
a(L10L
g346
(lp1136
(g84
I0
F1141.0
tp1137
a(g106
F1141.0
F2036.0
tp1138
a(g86
F2036.0
F2254.0
tp1139
a(g88
F2254.0
F3065.0
tp1140
a(g90
F3065.0
F3066.0
tp1141
atp1142
a(L11L
g23
(lp1143
(g94
I0
F10.0
tp1144
a(g39
F10.0
F23.0
tp1145
a(g96
F23.0
F294.0
tp1146
a(g98
F1543.0
F1544.0
tp1147
atp1148
a(L12L
g346
(lp1149
(g102
I0
F1.0
tp1150
a(g104
F1.0
F2.0
tp1151
a(g228
F2.0
F1726.0
tp1152
a(g108
F1726.0
F1760.0
tp1153
a(g110
F1760.0
F1761.0
tp1154
a(g112
F1761.0
F2083.0
tp1155
a(g114
F2083.0
F2904.0
tp1156
atp1157
a(L13L
g23
(lp1158
(g118
I0
F8.0
tp1159
a(g120
F8.0
F18.0
tp1160
a(g122
F18.0
F29.0
tp1161
a(g124
F29.0
F41.0
tp1162
a(g126
F41.0
F56.0
tp1163
a(g128
F56.0
F64.0
tp1164
atp1165
a(L14L
g23
(lp1166
(g134
I0
F11.0
tp1167
a(g136
F11.0
F202.0
tp1168
a(g138
F202.0
F212.0
tp1169
a(g140
F2083.0
F2097.0
tp1170
a(g142
F2097.0
F2361.0
tp1171
atp1172
a(L17L
g23
(lp1173
(g162
I0
F11.0
tp1174
a(g146
F2264.0
F2528.0
tp1175
a(g148
F2528.0
F2538.0
tp1176
a(g150
F2538.0
F2547.0
tp1177
a(g152
F2547.0
F2561.0
tp1178
atp1179
a(L20L
g23
(lp1180
(g156
I0
F400.0
tp1181
a(g158
F400.0
F410.0
tp1182
a(g160
F410.0
F422.0
tp1183
a(g164
F2254.0
F2276.0
tp1184
a(g166
F2276.0
F2288.0
tp1185
a(g168
F2288.0
F2299.0
tp1186
atp1187
a(L22L
g23
(lp1188
(g172
I0
F10.0
tp1189
a(g174
F10.0
F20.0
tp1190
a(g176
F20.0
F32.0
tp1191
a(g178
F32.0
F42.0
tp1192
atp1193
a(L56L
g922
(lp1194
(g182
I0
F1748.0
tp1195
a(g184
F1748.0
F1750.0
tp1196
a(g186
F2083.0
F2088.0
tp1197
a(g188
F2088.0
F2089.0
tp1198
atp1199
a(L25L
g23
(lp1200
(g192
I0
F12.0
tp1201
a(g194
F12.0
F24.0
tp1202
a(g196
F24.0
F35.0
tp1203
a(g198
F35.0
F45.0
tp1204
a(g200
F45.0
F53.0
tp1205
a(g202
F2083.0
F2117.0
tp1206
a(g204
F2117.0
F2128.0
tp1207
atp1208
a(L59L
g23
(lp1209
(g208
I0
F11.0
tp1210
a(g210
F11.0
F21.0
tp1211
a(g212
F21.0
F29.0
tp1212
a(g214
F29.0
F38.0
tp1213
a(g216
F38.0
F51.0
tp1214
a(g218
F51.0
F63.0
tp1215
a(g220
F63.0
F71.0
tp1216
a(g222
F71.0
F77.0
tp1217
a(g224
F2538.0
F2539.0
tp1218
atp1219
a(L94L
g23
(lp1220
(g132
I0
F496.0
tp1221
a(g232
F496.0
F508.0
tp1222
a(g234
F508.0
F518.0
tp1223
a(g236
F518.0
F528.0
tp1224
a(g238
F528.0
F536.0
tp1225
a(g240
F536.0
F549.0
tp1226
atp1227
atp1228
a.