(lp0
(F1357.0
F2.13
(lp1
(L2L
Vapac-sin#m3.2xlarge
p2
(lp3
(S'entry'
p4
I0
F0.0
tp5
a(VID00021
p6
I0
F754.0
tp7
a(VID00022
p8
F754.0
F905.0
tp9
a(VID00025
p10
F905.0
F1356.0
tp11
a(VID00028
p12
F1356.0
F1357.0
tp13
atp14
a(L4L
Vapac-sin#m3.xlarge
p15
(lp16
(VID00007
p17
I0
F1.0
tp18
a(VID00008
p19
F1.0
F2.0
tp20
a(VID00020
p21
F2.0
F29.0
tp22
a(VID00012
p23
F29.0
F30.0
tp24
a(VID00018
p25
F30.0
F634.0
tp26
atp27
a(L16L
Vapac-sin#m1.large
p28
(lp29
(S'exit'
p30
F1357.0
F1357.0
tp31
atp32
a(L22L
Vapac-sin#m1.small
p33
(lp34
(VID00005
p35
I0
F6.0
tp36
a(VID00002
p37
F6.0
F19.0
tp38
a(VID00009
p39
F19.0
F31.0
tp40
a(VID00010
p41
F31.0
F41.0
tp42
a(VID00016
p43
F41.0
F49.0
tp44
a(VID00015
p45
F49.0
F57.0
tp46
atp47
a(L27L
g33
(lp48
(VID00006
p49
I0
F9.0
tp50
a(VID00001
p51
F9.0
F22.0
tp52
a(VID00019
p53
F22.0
F402.0
tp54
a(VID00023
p55
F905.0
F917.0
tp56
a(VID00026
p57
F917.0
F1181.0
tp58
atp59
a(L29L
g33
(lp60
(VID00004
p61
I0
F7.0
tp62
a(VID00003
p63
F7.0
F18.0
tp64
a(VID00013
p65
F18.0
F32.0
tp66
a(VID00011
p67
F32.0
F40.0
tp68
a(VID00017
p69
F40.0
F49.0
tp70
a(VID00014
p71
F49.0
F56.0
tp72
a(VID00000
p73
F57.0
F58.0
tp74
a(VID00024
p75
F905.0
F953.0
tp76
a(VID00027
p77
F953.0
F981.0
tp78
atp79
atp80
a(F1658.0
F1.58
(lp81
(L2L
g2
(lp82
(g4
I0
F0.0
tp83
a(g6
I0
F754.0
tp84
a(g25
F754.0
F1056.0
tp85
a(g8
F1056.0
F1207.0
tp86
a(g10
F1207.0
F1658.0
tp87
a(g12
F1658.0
F1659.0
tp88
atp89
a(L4L
g33
(lp90
(g17
I0
F13.0
tp91
a(g19
F13.0
F22.0
tp92
a(g21
F22.0
F378.0
tp93
a(g23
F378.0
F387.0
tp94
atp95
a(L16L
g28
(lp96
(g30
F1659.0
F1659.0
tp97
atp98
a(L22L
g33
(lp99
(g35
I0
F6.0
tp100
a(g49
F6.0
F15.0
tp101
a(g37
F15.0
F28.0
tp102
a(g41
F28.0
F38.0
tp103
a(g43
F38.0
F46.0
tp104
a(g45
F46.0
F54.0
tp105
atp106
a(L27L
g33
(lp107
(g39
I0
F12.0
tp108
a(g53
F12.0
F392.0
tp109
a(g55
F1207.0
F1219.0
tp110
a(g57
F1219.0
F1483.0
tp111
atp112
a(L29L
g33
(lp113
(g61
I0
F7.0
tp114
a(g51
F7.0
F20.0
tp115
a(g63
F20.0
F31.0
tp116
a(g65
F31.0
F45.0
tp117
a(g67
F45.0
F53.0
tp118
a(g69
F53.0
F62.0
tp119
a(g71
F62.0
F69.0
tp120
a(g73
F387.0
F388.0
tp121
a(g75
F1207.0
F1255.0
tp122
a(g77
F1255.0
F1283.0
tp123
atp124
atp125
a(F2713.0
F1.18
(lp126
(L2L
g15
(lp127
(g4
I0
F0.0
tp128
a(g6
I0
F1507.0
tp129
a(g8
F1507.0
F1809.0
tp130
a(g10
F1809.0
F2711.0
tp131
a(g12
F2711.0
F2712.0
tp132
atp133
a(L4L
Vapac-sin#m3.large
p134
(lp135
(g17
I0
F2.0
tp136
a(g19
F2.0
F3.0
tp137
a(g21
F3.0
F58.0
tp138
a(g23
F58.0
F59.0
tp139
a(g25
F59.0
F1266.0
tp140
atp141
a(L16L
g28
(lp142
(g30
F2712.0
F2712.0
tp143
atp144
a(L22L
g33
(lp145
(g35
I0
F6.0
tp146
a(g37
F6.0
F19.0
tp147
a(g39
F19.0
F31.0
tp148
a(g41
F31.0
F41.0
tp149
a(g43
F41.0
F49.0
tp150
a(g45
F49.0
F57.0
tp151
atp152
a(L27L
g33
(lp153
(g49
I0
F9.0
tp154
a(g53
F9.0
F389.0
tp155
a(g55
F1809.0
F1821.0
tp156
a(g57
F1821.0
F2085.0
tp157
atp158
a(L29L
g33
(lp159
(g61
I0
F7.0
tp160
a(g51
F7.0
F20.0
tp161
a(g63
F20.0
F31.0
tp162
a(g65
F31.0
F45.0
tp163
a(g67
F45.0
F53.0
tp164
a(g69
F53.0
F62.0
tp165
a(g71
F62.0
F69.0
tp166
a(g73
F69.0
F70.0
tp167
a(g75
F1809.0
F1857.0
tp168
a(g77
F1857.0
F1885.0
tp169
atp170
atp171
a(F3317.0
F0.95
(lp172
(L2L
g15
(lp173
(g4
I0
F0.0
tp174
a(g6
I0
F1507.0
tp175
a(g25
F1507.0
F2111.0
tp176
a(g8
F2111.0
F2413.0
tp177
a(g10
F2413.0
F3315.0
tp178
a(g12
F3315.0
F3316.0
tp179
atp180
a(L4L
g33
(lp181
(g17
I0
F13.0
tp182
a(g19
F13.0
F22.0
tp183
a(g21
F22.0
F378.0
tp184
a(g23
F378.0
F387.0
tp185
atp186
a(L16L
g28
(lp187
(g30
F3316.0
F3316.0
tp188
atp189
a(L22L
g33
(lp190
(g35
I0
F6.0
tp191
a(g37
F6.0
F19.0
tp192
a(g39
F19.0
F31.0
tp193
a(g41
F31.0
F41.0
tp194
a(g43
F41.0
F49.0
tp195
a(g45
F49.0
F57.0
tp196
atp197
a(L27L
g33
(lp198
(g49
I0
F9.0
tp199
a(g53
F9.0
F389.0
tp200
a(g55
F2413.0
F2425.0
tp201
a(g57
F2425.0
F2689.0
tp202
atp203
a(L29L
g33
(lp204
(g61
I0
F7.0
tp205
a(g51
F7.0
F20.0
tp206
a(g63
F20.0
F31.0
tp207
a(g65
F31.0
F45.0
tp208
a(g67
F45.0
F53.0
tp209
a(g69
F53.0
F62.0
tp210
a(g71
F62.0
F69.0
tp211
a(g73
F387.0
F388.0
tp212
a(g75
F2413.0
F2461.0
tp213
a(g77
F2461.0
F2489.0
tp214
atp215
atp216
a.