(lp0
(F1428.0
F4.89
(lp1
(L2L
Vapac-sin#m1.small
p2
(lp3
(VID00032
p4
I0
F12.0
tp5
a(VID00046
p6
F12.0
F24.0
tp7
a(VID00002
p8
F24.0
F32.0
tp9
a(VID00044
p10
F32.0
F40.0
tp11
a(VID00049
p12
F40.0
F301.0
tp13
a(VID00041
p14
F301.0
F311.0
tp15
a(VID00056
p16
F698.0
F747.0
tp17
a(VID00013
p18
F747.0
F756.0
tp19
a(VID00000
p20
F756.0
F757.0
tp21
a(VID00022
p22
F1025.0
F1036.0
tp23
atp24
a(L34L
Vapac-sin#m3.2xlarge
p25
(lp26
(VID00047
p27
I0
F557.0
tp28
a(VID00021
p29
F932.0
F1025.0
tp30
a(VID00024
p31
F1025.0
F1428.0
tp32
a(VID00027
p33
F1428.0
F1429.0
tp34
atp35
a(L5L
g2
(lp36
(VID00043
p37
I0
F9.0
tp38
a(VID00005
p39
F9.0
F19.0
tp40
a(VID00006
p41
F19.0
F31.0
tp42
a(VID00001
p43
F31.0
F40.0
tp44
a(VID00008
p45
F40.0
F49.0
tp46
a(VID00048
p47
F49.0
F244.0
tp48
a(VID00053
p49
F698.0
F739.0
tp50
a(VID00055
p51
F739.0
F1003.0
tp52
atp53
a(L8L
g2
(lp54
(VID00042
p55
I0
F6.0
tp56
a(VID00010
p57
F6.0
F16.0
tp58
a(VID00011
p59
F16.0
F29.0
tp60
a(VID00019
p61
F29.0
F387.0
tp62
a(VID00023
p63
F1025.0
F1065.0
tp64
a(VID00026
p65
F1065.0
F1114.0
tp66
atp67
a(L11L
g2
(lp68
(VID00037
p69
I0
F14.0
tp70
a(VID00045
p71
F14.0
F25.0
tp72
a(VID00052
p73
F698.0
F707.0
tp74
a(VID00014
p75
F707.0
F717.0
tp76
a(VID00031
p77
F717.0
F727.0
tp78
a(VID00034
p79
F727.0
F733.0
tp80
atp81
a(L45L
g2
(lp82
(VID00036
p83
I0
F14.0
tp84
a(VID00003
p85
F14.0
F28.0
tp86
a(VID00039
p87
F28.0
F37.0
tp88
a(VID00012
p89
F37.0
F46.0
tp90
a(VID00018
p91
F46.0
F361.0
tp92
a(VID00030
p93
F361.0
F372.0
tp94
a(VID00033
p95
F372.0
F384.0
tp96
a(VID00040
p97
F384.0
F397.0
tp98
atp99
a(L15L
g25
(lp100
(VID00020
p101
I0
F932.0
tp102
a(VID00054
p103
F932.0
F1366.0
tp104
a(VID00057
p105
F1366.0
F1367.0
tp106
atp107
a(L51L
g2
(lp108
(VID00004
p109
I0
F10.0
tp110
a(VID00007
p111
F10.0
F17.0
tp112
a(VID00038
p113
F17.0
F31.0
tp114
a(VID00015
p115
F31.0
F43.0
tp116
a(VID00029
p117
F43.0
F51.0
tp118
atp119
a(L27L
g25
(lp120
(S'entry'
p121
I0
F0.0
tp122
a(VID00009
p123
I0
F0.0
tp124
a(VID00050
p125
I0
F635.0
tp126
a(VID00051
p127
F635.0
F698.0
tp128
a(VID00016
p129
F698.0
F698.0
tp130
a(VID00035
p131
F698.0
F698.0
tp132
a(VID00025
p133
F1036.0
F1046.0
tp134
a(VID00028
p135
F1046.0
F1046.0
tp136
atp137
a(L28L
Vapac-sin#m1.medium
p138
(lp139
(S'exit'
p140
F1429.0
F1429.0
tp141
atp142
a(L37L
Vapac-sin#m3.xlarge
p143
(lp144
(VID00017
p145
I0
F777.0
tp146
atp147
atp148
a(F1441.0
F4.26
(lp149
(L2L
g2
(lp150
(g4
I0
F12.0
tp151
a(g6
F12.0
F24.0
tp152
a(g8
F24.0
F32.0
tp153
a(g12
F32.0
F293.0
tp154
a(g14
F293.0
F303.0
tp155
a(g16
F698.0
F747.0
tp156
a(g18
F747.0
F756.0
tp157
a(g20
F756.0
F757.0
tp158
a(g22
F1039.0
F1050.0
tp159
atp160
a(L34L
g25
(lp161
(g27
I0
F557.0
tp162
a(g145
F557.0
F946.0
tp163
a(g29
F946.0
F1039.0
tp164
a(g31
F1039.0
F1442.0
tp165
a(g33
F1442.0
F1443.0
tp166
atp167
a(L5L
g2
(lp168
(g37
I0
F9.0
tp169
a(g39
F9.0
F19.0
tp170
a(g41
F19.0
F31.0
tp171
a(g43
F31.0
F40.0
tp172
a(g45
F40.0
F49.0
tp173
a(g10
F49.0
F57.0
tp174
a(g47
F57.0
F252.0
tp175
a(g49
F698.0
F739.0
tp176
a(g51
F739.0
F1003.0
tp177
atp178
a(L8L
g2
(lp179
(g55
I0
F6.0
tp180
a(g57
F6.0
F16.0
tp181
a(g59
F16.0
F29.0
tp182
a(g61
F29.0
F387.0
tp183
a(g63
F1039.0
F1079.0
tp184
a(g65
F1079.0
F1128.0
tp185
atp186
a(L11L
g2
(lp187
(g69
I0
F14.0
tp188
a(g71
F14.0
F25.0
tp189
a(g73
F698.0
F707.0
tp190
a(g75
F707.0
F717.0
tp191
a(g115
F717.0
F729.0
tp192
a(g77
F729.0
F739.0
tp193
a(g79
F739.0
F745.0
tp194
atp195
a(L45L
g2
(lp196
(g83
I0
F14.0
tp197
a(g85
F14.0
F28.0
tp198
a(g87
F28.0
F37.0
tp199
a(g89
F37.0
F46.0
tp200
a(g91
F46.0
F361.0
tp201
a(g93
F361.0
F372.0
tp202
a(g95
F372.0
F384.0
tp203
a(g97
F384.0
F397.0
tp204
atp205
a(L15L
g25
(lp206
(g101
I0
F932.0
tp207
a(g103
F932.0
F1366.0
tp208
a(g105
F1366.0
F1367.0
tp209
atp210
a(L51L
g2
(lp211
(g109
I0
F10.0
tp212
a(g111
F10.0
F17.0
tp213
a(g113
F17.0
F31.0
tp214
a(g117
F31.0
F39.0
tp215
atp216
a(L27L
g25
(lp217
(g121
I0
F0.0
tp218
a(g123
I0
F0.0
tp219
a(g125
I0
F635.0
tp220
a(g127
F635.0
F698.0
tp221
a(g129
F698.0
F698.0
tp222
a(g131
F698.0
F698.0
tp223
a(g133
F1050.0
F1060.0
tp224
a(g135
F1060.0
F1060.0
tp225
atp226
a(L28L
g138
(lp227
(g140
F1443.0
F1443.0
tp228
atp229
atp230
a(F1768.0
F3.63
(lp231
(L2L
g2
(lp232
(g4
I0
F12.0
tp233
a(g6
F12.0
F24.0
tp234
a(g8
F24.0
F32.0
tp235
a(g12
F32.0
F293.0
tp236
a(g47
F293.0
F488.0
tp237
a(g16
F1334.0
F1383.0
tp238
a(g20
F1383.0
F1384.0
tp239
a(g22
F1384.0
F1395.0
tp240
atp241
a(L34L
g25
(lp242
(g123
I0
F0.0
tp243
a(g27
I0
F557.0
tp244
a(g18
F557.0
F557.0
tp245
a(g145
F557.0
F946.0
tp246
a(g29
F946.0
F1039.0
tp247
a(g31
F1039.0
F1442.0
tp248
a(g33
F1442.0
F1443.0
tp249
atp250
a(L5L
g2
(lp251
(g37
I0
F9.0
tp252
a(g39
F9.0
F19.0
tp253
a(g41
F19.0
F31.0
tp254
a(g45
F31.0
F40.0
tp255
a(g49
F1334.0
F1375.0
tp256
a(g51
F1375.0
F1639.0
tp257
atp258
a(L8L
g2
(lp259
(g55
I0
F6.0
tp260
a(g57
F6.0
F16.0
tp261
a(g59
F16.0
F29.0
tp262
a(g61
F29.0
F387.0
tp263
a(g63
F1039.0
F1079.0
tp264
a(g65
F1079.0
F1128.0
tp265
atp266
a(L11L
g2
(lp267
(g69
I0
F14.0
tp268
a(g71
F14.0
F25.0
tp269
a(g73
F1334.0
F1343.0
tp270
a(g113
F1343.0
F1357.0
tp271
a(g75
F1357.0
F1367.0
tp272
a(g115
F1367.0
F1379.0
tp273
a(g77
F1379.0
F1389.0
tp274
a(g79
F1389.0
F1395.0
tp275
atp276
a(L45L
g2
(lp277
(g83
I0
F14.0
tp278
a(g85
F14.0
F28.0
tp279
a(g87
F28.0
F37.0
tp280
a(g89
F37.0
F46.0
tp281
a(g91
F46.0
F361.0
tp282
a(g93
F361.0
F372.0
tp283
a(g95
F372.0
F384.0
tp284
a(g97
F384.0
F397.0
tp285
atp286
a(L15L
g25
(lp287
(g101
I0
F932.0
tp288
a(g14
F932.0
F932.0
tp289
a(g127
F1271.0
F1334.0
tp290
a(g103
F1334.0
F1768.0
tp291
a(g105
F1768.0
F1769.0
tp292
atp293
a(L51L
g2
(lp294
(g109
I0
F10.0
tp295
a(g111
F10.0
F17.0
tp296
a(g43
F17.0
F26.0
tp297
a(g10
F26.0
F34.0
tp298
a(g117
F34.0
F42.0
tp299
atp300
a(L27L
g143
(lp301
(g121
I0
F0.0
tp302
a(g125
I0
F1271.0
tp303
a(g129
F1271.0
F1272.0
tp304
a(g131
F1272.0
F1273.0
tp305
a(g133
F1395.0
F1415.0
tp306
a(g135
F1415.0
F1415.0
tp307
atp308
a(L28L
Vapac-sin#m1.xlarge
p309
(lp310
(g140
F1769.0
F1769.0
tp311
atp312
atp313
a(F2359.0
F3.0
(lp314
(L2L
g2
(lp315
(g4
I0
F12.0
tp316
a(g6
F12.0
F24.0
tp317
a(g8
F24.0
F32.0
tp318
a(g10
F32.0
F40.0
tp319
a(g12
F40.0
F301.0
tp320
a(g14
F301.0
F311.0
tp321
a(g16
F1398.0
F1447.0
tp322
a(g18
F1447.0
F1456.0
tp323
a(g20
F2266.0
F2267.0
tp324
a(g22
F2267.0
F2278.0
tp325
atp326
a(L34L
g25
(lp327
(g27
I0
F557.0
tp328
a(g145
F557.0
F946.0
tp329
a(g29
F1863.0
F1956.0
tp330
a(g31
F1956.0
F2359.0
tp331
a(g33
F2359.0
F2360.0
tp332
atp333
a(L5L
g2
(lp334
(g37
I0
F9.0
tp335
a(g39
F9.0
F19.0
tp336
a(g41
F19.0
F31.0
tp337
a(g43
F31.0
F40.0
tp338
a(g45
F40.0
F49.0
tp339
a(g47
F49.0
F244.0
tp340
atp341
a(L8L
g2
(lp342
(g55
I0
F6.0
tp343
a(g49
F1398.0
F1439.0
tp344
a(g57
F1439.0
F1449.0
tp345
a(g59
F1449.0
F1462.0
tp346
a(g61
F1462.0
F1820.0
tp347
a(g63
F1956.0
F1996.0
tp348
a(g65
F1996.0
F2045.0
tp349
atp350
a(L11L
g2
(lp351
(g69
I0
F14.0
tp352
a(g71
F14.0
F25.0
tp353
a(g113
F25.0
F39.0
tp354
a(g75
F39.0
F49.0
tp355
a(g77
F49.0
F59.0
tp356
a(g79
F59.0
F65.0
tp357
atp358
a(L45L
g2
(lp359
(g83
I0
F14.0
tp360
a(g85
F14.0
F28.0
tp361
a(g87
F28.0
F37.0
tp362
a(g73
F1398.0
F1407.0
tp363
a(g89
F1407.0
F1416.0
tp364
a(g91
F1416.0
F1731.0
tp365
a(g93
F1731.0
F1742.0
tp366
a(g95
F1742.0
F1754.0
tp367
a(g97
F1754.0
F1767.0
tp368
atp369
a(L15L
g143
(lp370
(g101
I0
F1863.0
tp371
a(g105
F2298.0
F2299.0
tp372
atp373
a(L51L
g2
(lp374
(g109
I0
F10.0
tp375
a(g111
F10.0
F17.0
tp376
a(g51
F1407.0
F1671.0
tp377
a(g115
F1671.0
F1683.0
tp378
a(g117
F1683.0
F1691.0
tp379
atp380
a(L27L
g143
(lp381
(g121
I0
F0.0
tp382
a(g123
I0
F1.0
tp383
a(g125
F1.0
F1272.0
tp384
a(g127
F1272.0
F1398.0
tp385
a(g103
F1398.0
F2265.0
tp386
a(g129
F2265.0
F2266.0
tp387
a(g131
F2266.0
F2267.0
tp388
a(g133
F2278.0
F2298.0
tp389
a(g135
F2298.0
F2298.0
tp390
atp391
a(L28L
g309
(lp392
(g140
F2360.0
F2360.0
tp393
atp394
atp395
a(F2883.0
F2.37
(lp396
(L2L
g2
(lp397
(g4
I0
F12.0
tp398
a(g6
F12.0
F24.0
tp399
a(g8
F24.0
F32.0
tp400
a(g10
F32.0
F40.0
tp401
a(g12
F40.0
F301.0
tp402
a(g14
F301.0
F311.0
tp403
a(g16
F1398.0
F1447.0
tp404
a(g20
F2266.0
F2267.0
tp405
a(g22
F2267.0
F2278.0
tp406
atp407
a(L34L
g143
(lp408
(g27
I0
F1113.0
tp409
a(g18
F1113.0
F1114.0
tp410
a(g145
F1114.0
F1891.0
tp411
a(g29
F1891.0
F2077.0
tp412
a(g31
F2077.0
F2882.0
tp413
a(g33
F2882.0
F2883.0
tp414
atp415
a(L5L
g2
(lp416
(g37
I0
F9.0
tp417
a(g39
F9.0
F19.0
tp418
a(g41
F19.0
F31.0
tp419
a(g43
F31.0
F40.0
tp420
a(g45
F40.0
F49.0
tp421
a(g47
F49.0
F244.0
tp422
atp423
a(L8L
g2
(lp424
(g55
I0
F6.0
tp425
a(g49
F1398.0
F1439.0
tp426
a(g57
F1439.0
F1449.0
tp427
a(g59
F1449.0
F1462.0
tp428
a(g61
F1462.0
F1820.0
tp429
a(g63
F2077.0
F2117.0
tp430
a(g65
F2117.0
F2166.0
tp431
atp432
a(L11L
g2
(lp433
(g69
I0
F14.0
tp434
a(g71
F14.0
F25.0
tp435
a(g113
F25.0
F39.0
tp436
a(g75
F39.0
F49.0
tp437
a(g115
F49.0
F61.0
tp438
a(g77
F61.0
F71.0
tp439
a(g79
F71.0
F77.0
tp440
atp441
a(L45L
g2
(lp442
(g83
I0
F14.0
tp443
a(g85
F14.0
F28.0
tp444
a(g87
F28.0
F37.0
tp445
a(g73
F1398.0
F1407.0
tp446
a(g89
F1407.0
F1416.0
tp447
a(g91
F1416.0
F1731.0
tp448
a(g93
F1731.0
F1742.0
tp449
a(g95
F1742.0
F1754.0
tp450
a(g97
F1754.0
F1767.0
tp451
atp452
a(L15L
g143
(lp453
(g101
I0
F1863.0
tp454
a(g105
F2298.0
F2299.0
tp455
atp456
a(L51L
g2
(lp457
(g109
I0
F10.0
tp458
a(g111
F10.0
F17.0
tp459
a(g51
F1407.0
F1671.0
tp460
a(g117
F1671.0
F1679.0
tp461
atp462
a(L27L
g143
(lp463
(g121
I0
F0.0
tp464
a(g123
I0
F1.0
tp465
a(g125
F1.0
F1272.0
tp466
a(g127
F1272.0
F1398.0
tp467
a(g103
F1398.0
F2265.0
tp468
a(g129
F2265.0
F2266.0
tp469
a(g131
F2266.0
F2267.0
tp470
a(g133
F2278.0
F2298.0
tp471
a(g135
F2298.0
F2298.0
tp472
atp473
a(L28L
g309
(lp474
(g140
F2883.0
F2883.0
tp475
atp476
atp477
a(F3536.0
F2.05
(lp478
(L2L
g2
(lp479
(g4
I0
F12.0
tp480
a(g6
F12.0
F24.0
tp481
a(g8
F24.0
F32.0
tp482
a(g12
F32.0
F293.0
tp483
a(g47
F293.0
F488.0
tp484
a(g16
F2667.0
F2716.0
tp485
a(g20
F2716.0
F2717.0
tp486
a(g22
F2717.0
F2728.0
tp487
atp488
a(L34L
g143
(lp489
(g123
I0
F1.0
tp490
a(g27
F1.0
F1114.0
tp491
a(g18
F1114.0
F1115.0
tp492
a(g145
F1115.0
F1892.0
tp493
a(g117
F1892.0
F1893.0
tp494
a(g29
F1893.0
F2079.0
tp495
a(g31
F2079.0
F2884.0
tp496
atp497
a(L5L
g2
(lp498
(g37
I0
F9.0
tp499
a(g39
F9.0
F19.0
tp500
a(g41
F19.0
F31.0
tp501
a(g45
F31.0
F40.0
tp502
a(g49
F2667.0
F2708.0
tp503
a(g51
F2708.0
F2972.0
tp504
a(g33
F2972.0
F2988.0
tp505
atp506
a(L8L
g2
(lp507
(g55
I0
F6.0
tp508
a(g57
F6.0
F16.0
tp509
a(g59
F16.0
F29.0
tp510
a(g61
F29.0
F387.0
tp511
a(g63
F2079.0
F2119.0
tp512
a(g65
F2119.0
F2168.0
tp513
atp514
a(L11L
g2
(lp515
(g69
I0
F14.0
tp516
a(g71
F14.0
F25.0
tp517
a(g73
F2667.0
F2676.0
tp518
a(g113
F2676.0
F2690.0
tp519
a(g75
F2690.0
F2700.0
tp520
a(g115
F2700.0
F2712.0
tp521
a(g77
F2712.0
F2722.0
tp522
a(g79
F2722.0
F2728.0
tp523
atp524
a(L45L
g2
(lp525
(g83
I0
F14.0
tp526
a(g85
F14.0
F28.0
tp527
a(g87
F28.0
F37.0
tp528
a(g89
F37.0
F46.0
tp529
a(g91
F46.0
F361.0
tp530
a(g93
F361.0
F372.0
tp531
a(g95
F372.0
F384.0
tp532
a(g97
F384.0
F397.0
tp533
a(g135
F2728.0
F2728.0
tp534
atp535
a(L15L
g143
(lp536
(g101
I0
F1863.0
tp537
a(g14
F1863.0
F1864.0
tp538
a(g127
F2541.0
F2667.0
tp539
a(g103
F2667.0
F3534.0
tp540
a(g105
F3534.0
F3535.0
tp541
atp542
a(L51L
g2
(lp543
(g109
I0
F10.0
tp544
a(g111
F10.0
F17.0
tp545
a(g43
F17.0
F26.0
tp546
a(g10
F26.0
F34.0
tp547
atp548
a(L27L
Vapac-sin#m3.large
p549
(lp550
(g121
I0
F0.0
tp551
a(g125
I0
F2541.0
tp552
a(g129
F2541.0
F2543.0
tp553
a(g131
F2543.0
F2545.0
tp554
a(g133
F2728.0
F2769.0
tp555
atp556
a(L28L
g25
(lp557
(g140
F3535.0
F3535.0
tp558
atp559
atp560
a.